 PhysXCommon_64

 Timestamp is 63f49218 (Tue Feb 21 10:42:48 2023)

 Preferred load address is 0000000180000000

 Start         Length     Name                   Class
 0001:00000000 000029e0H .text$di                CODE
 0001:000029e0 00119f00H .text$mn                CODE
 0001:0011c8e0 00000036H .text$mn$00             CODE
 0001:0011c916 00000092H .text$x                 CODE
 0002:00000000 00000188H .idata$5                DATA
 0002:00000188 00000038H .00cfg                  DATA
 0002:000001c0 00000008H .CRT$XCA                DATA
 0002:000001c8 00001428H .CRT$XCU                DATA
 0002:000015f0 00000008H .CRT$XCZ                DATA
 0002:000015f8 00000008H .CRT$XIA                DATA
 0002:00001600 00000008H .CRT$XIZ                DATA
 0002:00001608 00000008H .CRT$XPA                DATA
 0002:00001610 00000008H .CRT$XPZ                DATA
 0002:00001618 00000008H .CRT$XTA                DATA
 0002:00001620 00000010H .CRT$XTZ                DATA
 0002:00001628 00000000H .gehcont$y              DATA
 0002:00001628 00000000H .gfids$y                DATA
 0002:00001630 00004d50H .rdata                  DATA
 0002:00006380 00000000H .rdata$CastGuardVftablesA DATA
 0002:00006380 00000000H .rdata$CastGuardVftablesC DATA
 0002:00006380 00000074H .rdata$r                DATA
 0002:000063f4 00000108H .rdata$voltmd           DATA
 0002:000064fc 000003b4H .rdata$zzzdbg           DATA
 0002:000068b0 00000008H .rtc$IAA                DATA
 0002:000068b8 00000008H .rtc$IZZ                DATA
 0002:000068c0 00000008H .rtc$TAA                DATA
 0002:000068c8 00000008H .rtc$TZZ                DATA
 0002:000068d0 0000b5c8H .xdata                  DATA
 0002:00011e98 00000020H .didat$2                DATA
 0002:00011eb8 00000020H .didat$3                DATA
 0002:00011ed8 000000b8H .didat$4                DATA
 0002:00011f90 00000430H .didat$6                DATA
 0002:000123c0 000000c0H .didat$7                DATA
 0002:00012480 0000a0dcH .edata                  DATA
 0002:0001c55c 00000078H .idata$2                DATA
 0002:0001c5d4 00000014H .idata$3                DATA
 0002:0001c5e8 00000188H .idata$4                DATA
 0002:0001c770 000003daH .idata$6                DATA
 0003:00000000 00000a70H .data                   DATA
 0003:00000a70 000003e8H .data$r                 DATA
 0003:00000e58 00000020H .data$rs                DATA
 0003:00000e78 000000b8H .didat$5                DATA
 0003:00000f30 000029a0H .bss                    DATA
 0004:00000000 00005a30H .pdata                  DATA
 0005:00000000 00002208H _RDATA                  DATA
 0006:00000000 000000a0H .rsrc$01                DATA
 0006:000000a0 000004b0H .rsrc$02                DATA

  Address         Publics by Value              Rva+Base               Lib:Object

 0000:00000000       __AbsoluteZero             0000000000000000     <absolute>
 0000:00000000       ___safe_se_handler_count   0000000000000000     <absolute>
 0000:00000000       ___safe_se_handler_table   0000000000000000     <absolute>
 0000:00000000       __arm64x_extra_rfe_table   0000000000000000     <absolute>
 0000:00000000       __arm64x_extra_rfe_table_size 0000000000000000     <absolute>
 0000:00000000       __arm64x_native_entrypoint 0000000000000000     <absolute>
 0000:00000000       __arm64x_redirection_metadata 0000000000000000     <absolute>
 0000:00000000       __arm64x_redirection_metadata_count 0000000000000000     <absolute>
 0000:00000000       __dynamic_value_reloc_table 0000000000000000     <absolute>
 0000:00000000       __enclave_config           0000000000000000     <absolute>
 0000:00000000       __guard_check_icall_a64n_fptr 0000000000000000     <absolute>
 0000:00000000       __guard_eh_cont_count      0000000000000000     <absolute>
 0000:00000000       __guard_eh_cont_table      0000000000000000     <absolute>
 0000:00000000       __guard_fids_count         0000000000000000     <absolute>
 0000:00000000       __guard_fids_table         0000000000000000     <absolute>
 0000:00000000       __guard_iat_count          0000000000000000     <absolute>
 0000:00000000       __guard_iat_table          0000000000000000     <absolute>
 0000:00000000       __guard_longjmp_count      0000000000000000     <absolute>
 0000:00000000       __guard_longjmp_table      0000000000000000     <absolute>
 0000:00000000       __hybrid_auxiliary_iat     0000000000000000     <absolute>
 0000:00000000       __hybrid_auxiliary_iat_copy 0000000000000000     <absolute>
 0000:00000000       __hybrid_code_map          0000000000000000     <absolute>
 0000:00000000       __hybrid_code_map_count    0000000000000000     <absolute>
 0000:00000000       __x64_code_ranges_to_entry_points 0000000000000000     <absolute>
 0000:00000000       __x64_code_ranges_to_entry_points_count 0000000000000000     <absolute>
 0000:00000100       __guard_flags              0000000000000100     <absolute>
 0000:00000000       __ImageBase                0000000180000000     <linker-defined>
 0001:000029e0       ??_ECollection@Cm@physx@@UEAAPEAXI@Z 00000001800039e0 f i CmCollection.obj
 0001:000029e0       ??_GCollection@Cm@physx@@UEAAPEAXI@Z 00000001800039e0 f i CmCollection.obj
 0001:00002a90       ??_EPxCollection@physx@@MEAAPEAXI@Z 0000000180003a90 f i CmCollection.obj
 0001:00002a90       ??_GPxCollection@physx@@MEAAPEAXI@Z 0000000180003a90 f i CmCollection.obj
 0001:00002ac0       ?PxCreateCollection@@YAPEAVPxCollection@physx@@XZ 0000000180003ac0 f   CmCollection.obj
 0001:00002bc0       ?add@Collection@Cm@physx@@UEAAXAEAVPxBase@3@_K@Z 0000000180003bc0 f   CmCollection.obj
 0001:00002cb0       ?add@Collection@Cm@physx@@UEAAXAEAVPxCollection@3@@Z 0000000180003cb0 f   CmCollection.obj
 0001:00002ed0       ?addId@Collection@Cm@physx@@UEAAXAEAVPxBase@3@_K@Z 0000000180003ed0 f   CmCollection.obj
 0001:00003020       ?contains@Collection@Cm@physx@@UEBA_NAEAVPxBase@3@@Z 0000000180004020 f   CmCollection.obj
 0001:000030d0       ?create@?$HashBase@V?$Pair@$$CB_KPEAVPxBase@physx@@@shdfnd@physx@@_KU?$Hash@_K@23@UGetKey@?$HashMapBase@_KPEAVPxBase@physx@@U?$Hash@_K@shdfnd@2@VNonTrackingAllocator@42@@internal@23@VNonTrackingAllocator@23@$00@internal@shdfnd@physx@@QEAAPEAV?$Pair@$$CB_KPEAVPxBase@physx@@@34@AEB_KAEA_N@Z 00000001800040d0 f i CmCollection.obj
 0001:000030d0       ?create@?$HashBase@V?$Pair@QEAVPxBase@physx@@_K@shdfnd@physx@@PEAVPxBase@3@U?$Hash@PEAVPxBase@physx@@@23@UGetKey@?$HashMapBase@PEAVPxBase@physx@@_KU?$Hash@PEAVPxBase@physx@@@shdfnd@2@VNonTrackingAllocator@42@@internal@23@VNonTrackingAllocator@23@$00@internal@shdfnd@physx@@QEAAPEAV?$Pair@QEAVPxBase@physx@@_K@34@AEBQEAVPxBase@4@AEA_N@Z 00000001800040d0 f i CmCollection.obj
 0001:00003260       ?erase@?$HashBase@V?$Pair@$$CB_KPEAVPxBase@physx@@@shdfnd@physx@@_KU?$Hash@_K@23@UGetKey@?$HashMapBase@_KPEAVPxBase@physx@@U?$Hash@_K@shdfnd@2@VNonTrackingAllocator@42@@internal@23@VNonTrackingAllocator@23@$00@internal@shdfnd@physx@@QEAA_NAEB_K@Z 0000000180004260 f i CmCollection.obj
 0001:00003260       ?erase@?$HashBase@V?$Pair@QEAVPxBase@physx@@_K@shdfnd@physx@@PEAVPxBase@3@U?$Hash@PEAVPxBase@physx@@@23@UGetKey@?$HashMapBase@PEAVPxBase@physx@@_KU?$Hash@PEAVPxBase@physx@@@shdfnd@2@VNonTrackingAllocator@42@@internal@23@VNonTrackingAllocator@23@$00@internal@shdfnd@physx@@QEAA_NAEBQEAVPxBase@4@@Z 0000000180004260 f i CmCollection.obj
 0001:00003410       ?find@?$HashMapBase@PEAVPxBase@physx@@_KU?$Hash@PEAVPxBase@physx@@@shdfnd@2@VNonTrackingAllocator@42@@internal@shdfnd@physx@@QEBAPEBV?$Pair@QEAVPxBase@physx@@_K@34@AEBQEAVPxBase@4@@Z 0000000180004410 f i CmCollection.obj
 0001:00003410       ?find@?$HashMapBase@_KPEAVPxBase@physx@@U?$Hash@_K@shdfnd@2@VNonTrackingAllocator@42@@internal@shdfnd@physx@@QEBAPEBV?$Pair@$$CB_KPEAVPxBase@physx@@@34@AEB_K@Z 0000000180004410 f i CmCollection.obj
 0001:000034b0       ?find@Collection@Cm@physx@@UEBAPEAVPxBase@3@_K@Z 00000001800044b0 f   CmCollection.obj
 0001:00003510       ?getId@Collection@Cm@physx@@UEBA_KAEBVPxBase@3@@Z 0000000180004510 f   CmCollection.obj
 0001:000035c0       ?getIds@Collection@Cm@physx@@UEBAIPEA_KII@Z 00000001800045c0 f   CmCollection.obj
 0001:00003700       ?getNbColumns@HeightField@Gu@physx@@UEBAIXZ 0000000180004700 f   GuBounds.obj
 0001:00003700       ?getNbIds@Collection@Cm@physx@@UEBAIXZ 0000000180004700 f   CmCollection.obj
 0001:00003710       ?getNbObjects@Collection@Cm@physx@@UEBAIXZ 0000000180004710 f   CmCollection.obj
 0001:00003720       ?getObject@Collection@Cm@physx@@UEBAAEAVPxBase@3@I@Z 0000000180004720 f   CmCollection.obj
 0001:00003730       ?getObjects@Collection@Cm@physx@@UEBAIPEAPEAVPxBase@3@II@Z 0000000180004730 f   CmCollection.obj
 0001:000037f0       ?insert@?$HashMapBase@_KPEAVPxBase@physx@@U?$Hash@_K@shdfnd@2@VNonTrackingAllocator@42@@internal@shdfnd@physx@@QEAA_N_KQEAVPxBase@4@@Z 00000001800047f0 f i CmCollection.obj
 0001:00003840       ?release@Collection@Cm@physx@@UEAAXXZ 0000000180004840 f i CmCollection.obj
 0001:00003860       ?remove@Collection@Cm@physx@@UEAAXAEAVPxBase@3@@Z 0000000180004860 f   CmCollection.obj
 0001:000039a0       ?remove@Collection@Cm@physx@@UEAAXAEAVPxCollection@3@@Z 00000001800049a0 f   CmCollection.obj
 0001:00003b00       ?removeId@Collection@Cm@physx@@UEAAX_K@Z 0000000180004b00 f   CmCollection.obj
 0001:00003bf0       ?reserveInternal@?$HashBase@V?$Pair@$$CB_KPEAVPxBase@physx@@@shdfnd@physx@@_KU?$Hash@_K@23@UGetKey@?$HashMapBase@_KPEAVPxBase@physx@@U?$Hash@_K@shdfnd@2@VNonTrackingAllocator@42@@internal@23@VNonTrackingAllocator@23@$00@internal@shdfnd@physx@@AEAAXI@Z 0000000180004bf0 f i CmCollection.obj
 0001:00003bf0       ?reserveInternal@?$HashBase@V?$Pair@QEAVPxBase@physx@@_K@shdfnd@physx@@PEAVPxBase@3@U?$Hash@PEAVPxBase@physx@@@23@UGetKey@?$HashMapBase@PEAVPxBase@physx@@_KU?$Hash@PEAVPxBase@physx@@@shdfnd@2@VNonTrackingAllocator@42@@internal@23@VNonTrackingAllocator@23@$00@internal@shdfnd@physx@@AEAAXI@Z 0000000180004bf0 f i CmCollection.obj
 0001:00003dd0       ??0PtrTable@Cm@physx@@QEAA@W4PxEMPTY@2@@Z 0000000180004dd0 f i CmPtrTable.obj
 0001:00003df0       ??0PtrTable@Cm@physx@@QEAA@XZ 0000000180004df0 f   CmPtrTable.obj
 0001:00003e00       ??1AABBTreeBuildNode@Gu@physx@@QEAA@XZ 0000000180004e00 f   GuAABBTreeBuild.obj
 0001:00003e00       ??1Box@Gu@physx@@QEAA@XZ   0000000180004e00 f   GuBounds.obj
 0001:00003e00       ??1HeightFieldData@Gu@physx@@QEAA@XZ 0000000180004e00 f   GuBounds.obj
 0001:00003e00       ??1MaterialIndicesStruct@physx@@QEAA@XZ 0000000180004e00 f   GuGeometryUnion.obj
 0001:00003e00       ??1PtrTable@Cm@physx@@QEAA@XZ 0000000180004e00 f   CmPtrTable.obj
 0001:00003e00       ?profile@Callback@RTree@Gu@physx@@UEAAXXZ 0000000180004e00 f   GuMidphaseRTree.obj
 0001:00003e00       ?requiresObjects@ConvexMesh@Gu@physx@@UEAAXAEAVPxProcessPxBaseCallback@3@@Z 0000000180004e00 f   GuConvexMesh.obj
 0001:00003e00       ?requiresObjects@HeightField@Gu@physx@@UEAAXAEAVPxProcessPxBaseCallback@3@@Z 0000000180004e00 f   GuHeightField.obj
 0001:00003e00       ?requiresObjects@TriangleMesh@Gu@physx@@UEAAXAEAVPxProcessPxBaseCallback@3@@Z 0000000180004e00 f   GuTriangleMesh.obj
 0001:00003e00       _guard_check_icall_nop     0000000180004e00 f   MSVCRT:guard_support.obj
 0001:00003e10       ??4CmModuleUpdateLoader@Cm@physx@@QEAAAEAV012@AEBV012@@Z 0000000180004e10 f i CmWindowsModuleUpdateLoader.obj
 0001:00003e10       ??4MaterialIndicesStruct@physx@@QEAAAEAU01@AEBU01@@Z 0000000180004e10 f i GuGeometryUnion.obj
 0001:00003e10       ??4PtrTable@Cm@physx@@QEAAAEAU012@AEBU012@@Z 0000000180004e10 f i CmPtrTable.obj
 0001:00003e20       ?add@PtrTable@Cm@physx@@QEAAXPEAXAEAVPtrTableStorageManager@23@@Z 0000000180004e20 f   CmPtrTable.obj
 0001:00003ee0       ?clear@PtrTable@Cm@physx@@QEAAXAEAVPtrTableStorageManager@23@@Z 0000000180004ee0 f   CmPtrTable.obj
 0001:00003f60       ?exportExtraData@PtrTable@Cm@physx@@QEAAXAEAVPxSerializationContext@3@@Z 0000000180004f60 f   CmPtrTable.obj
 0001:00003fb0       ?find@PtrTable@Cm@physx@@QEBAIPEBX@Z 0000000180004fb0 f   CmPtrTable.obj
 0001:00003fe0       ?getBinaryMetaData@PtrTable@Cm@physx@@SAXAEAVPxOutputStream@3@@Z 0000000180004fe0 f   CmPtrTable.obj
 0001:00004190       ?getCount@PtrTable@Cm@physx@@QEBAIXZ 0000000180005190 f i CmPtrTable.obj
 0001:000041a0       ?getPtrs@PtrTable@Cm@physx@@QEAAPEAPEAXXZ 00000001800051a0 f i CmPtrTable.obj
 0001:000041a0       ?getPtrs@PtrTable@Cm@physx@@QEBAPEBQEAXXZ 00000001800051a0 f i CmPtrTable.obj
 0001:000041b0       ?importExtraData@PtrTable@Cm@physx@@QEAAXAEAVPxDeserializationContext@3@@Z 00000001800051b0 f   CmPtrTable.obj
 0001:000041e0       ?realloc@PtrTable@Cm@physx@@AEAAXIIAEAVPtrTableStorageManager@23@@Z 00000001800051e0 f   CmPtrTable.obj
 0001:00004270       ?replaceWithLast@PtrTable@Cm@physx@@QEAAXIAEAVPtrTableStorageManager@23@@Z 0000000180005270 f   CmPtrTable.obj
 0001:00004370       ??0RadixSort@Cm@physx@@QEAA@XZ 0000000180005370 f   CmRadixSort.obj
 0001:000043a0       ??1RadixSort@Cm@physx@@UEAA@XZ 00000001800053a0 f   CmRadixSort.obj
 0001:000043b0       ??_ERadixSort@Cm@physx@@UEAAPEAXI@Z 00000001800053b0 f i CmRadixSort.obj
 0001:00004440       ?GetNbHits@RadixSort@Cm@physx@@QEBAIXZ 0000000180005440 f i CmRadixSort.obj
 0001:00004450       ?GetNbTotalCalls@RadixSort@Cm@physx@@QEBAIXZ 0000000180005450 f i CmRadixSort.obj
 0001:00004460       ?GetRanks@RadixSort@Cm@physx@@QEBAPEBIXZ 0000000180005460 f i CmRadixSort.obj
 0001:00004460       ?getHeightField@HeightFieldUtil@Gu@physx@@QEBAAEBVHeightField@23@XZ 0000000180005460 f i GuCCTSweepTests.obj
 0001:00004470       ?GetRecyclable@RadixSort@Cm@physx@@QEBAPEAIXZ 0000000180005470 f i CmRadixSort.obj
 0001:00004470       ?GetValencies@BigConvexData@physx@@QEBAPEBUValency@Gu@2@XZ 0000000180005470 f i GuMetaData.obj
 0001:00004470       ?getHeightFieldGeometry@HeightFieldUtil@Gu@physx@@QEBAAEBVPxHeightFieldGeometry@3@XZ 0000000180005470 f i GuCCTSweepTests.obj
 0001:00004470       ?getPos@AABBTreeBuildNode@Gu@physx@@QEBAPEBV123@XZ 0000000180005470 f i GuAABBTreeBuild.obj
 0001:00004480       ?SetBuffers@RadixSort@Cm@physx@@QEAA_NPEAI00PEAPEAI@Z 0000000180005480 f   CmRadixSort.obj
 0001:000044c0       ?Sort@RadixSort@Cm@physx@@QEAAAEAV123@PEBIIW4RadixHint@23@@Z 00000001800054c0 f   CmRadixSort.obj
 0001:00004b70       ?Sort@RadixSort@Cm@physx@@QEAAAEAV123@PEBMI@Z 0000000180005b70 f   CmRadixSort.obj
 0001:00005310       ?invalidateRanks@RadixSort@Cm@physx@@QEAAXXZ 0000000180006310 f i CmRadixSort.obj
 0001:00005320       ??0RadixSortBuffered@Cm@physx@@QEAA@XZ 0000000180006320 f   CmRadixSortBuffered.obj
 0001:00005350       ??1RadixSortBuffered@Cm@physx@@UEAA@XZ 0000000180006350 f   CmRadixSortBuffered.obj
 0001:00005380       ??_ERadixSortBuffered@Cm@physx@@UEAAPEAXI@Z 0000000180006380 f i CmRadixSortBuffered.obj
 0001:00005450       ?CheckResize@RadixSortBuffered@Cm@physx@@AEAAXI@Z 0000000180006450 f i CmRadixSortBuffered.obj
 0001:00005490       ?Resize@RadixSortBuffered@Cm@physx@@AEAA_NI@Z 0000000180006490 f   CmRadixSortBuffered.obj
 0001:00005590       ?Sort@RadixSortBuffered@Cm@physx@@QEAAAEAV123@PEBIIW4RadixHint@23@@Z 0000000180006590 f   CmRadixSortBuffered.obj
 0001:00005630       ?Sort@RadixSortBuffered@Cm@physx@@QEAAAEAV123@PEBMI@Z 0000000180006630 f   CmRadixSortBuffered.obj
 0001:000056c0       ?reset@RadixSortBuffered@Cm@physx@@QEAAXXZ 00000001800066c0 f   CmRadixSortBuffered.obj
 0001:00005740       ??0DebugText@Cm@physx@@QEAA@$$QEAU012@@Z 0000000180006740 f i CmRenderOutput.obj
 0001:00005740       ??0DebugText@Cm@physx@@QEAA@AEBU012@@Z 0000000180006740 f i CmRenderOutput.obj
 0001:00005820       ??0DebugText@Cm@physx@@QEAA@AEBVPxVec3@2@MPEBDZZ 0000000180006820 f   CmRenderOutput.obj
 0001:00005880       ??0RenderOutput@Cm@physx@@QEAA@AEAVRenderBuffer@12@@Z 0000000180006880 f i CmRenderOutput.obj
 0001:000058d0       ??0RenderOutput@Cm@physx@@QEAA@AEBV012@@Z 00000001800068d0 f i CmRenderOutput.obj
 0001:00005970       ??4DebugText@Cm@physx@@QEAAAEAU012@$$QEAU012@@Z 0000000180006970 f i CmRenderOutput.obj
 0001:00005970       ??4DebugText@Cm@physx@@QEAAAEAU012@AEBU012@@Z 0000000180006970 f i CmRenderOutput.obj
 0001:00005aa0       ??6Cm@physx@@YAAEAVRenderOutput@01@AEAV201@AEBUDebugArc@01@@Z 0000000180006aa0 f   CmRenderOutput.obj
 0001:00005ba0       ??6Cm@physx@@YAAEAVRenderOutput@01@AEAV201@AEBUDebugArrow@01@@Z 0000000180006ba0 f   CmRenderOutput.obj
 0001:00005fa0       ??6Cm@physx@@YAAEAVRenderOutput@01@AEAV201@AEBUDebugBasis@01@@Z 0000000180006fa0 f   CmRenderOutput.obj
 0001:000060a0       ??6Cm@physx@@YAAEAVRenderOutput@01@AEAV201@AEBUDebugBox@01@@Z 00000001800070a0 f   CmRenderOutput.obj
 0001:000065a0       ??6Cm@physx@@YAAEAVRenderOutput@01@AEAV201@AEBUDebugCircle@01@@Z 00000001800075a0 f   CmRenderOutput.obj
 0001:00006680       ??6RenderOutput@Cm@physx@@QEAAAEAV012@AEBUDebugText@12@@Z 0000000180007680 f   CmRenderOutput.obj
 0001:00006880       ??6RenderOutput@Cm@physx@@QEAAAEAV012@AEBVPxMat44@2@@Z 0000000180007880 f   CmRenderOutput.obj
 0001:000068f0       ??6RenderOutput@Cm@physx@@QEAAAEAV012@AEBVPxTransform@2@@Z 00000001800078f0 f   CmRenderOutput.obj
 0001:00006a70       ??6RenderOutput@Cm@physx@@QEAAAEAV012@I@Z 0000000180007a70 f   CmRenderOutput.obj
 0001:00006a80       ??6RenderOutput@Cm@physx@@QEAAAEAV012@VPxVec3@2@@Z 0000000180007a80 f   CmRenderOutput.obj
 0001:00006fd0       ??6RenderOutput@Cm@physx@@QEAAAEAV012@W4Primitive@012@@Z 0000000180007fd0 f   CmRenderOutput.obj
 0001:00006fe0       ?copy@?$Array@UPxDebugLine@physx@@VNamedAllocator@shdfnd@2@@shdfnd@physx@@KAXPEAUPxDebugLine@3@0PEBU43@@Z 0000000180007fe0 f i CmRenderOutput.obj
 0001:00007190       ?copy@?$Array@UPxDebugPoint@physx@@VNamedAllocator@shdfnd@2@@shdfnd@physx@@KAXPEAUPxDebugPoint@3@0PEBU43@@Z 0000000180008190 f i CmRenderOutput.obj
 0001:00007290       ?copy@?$Array@UPxDebugText@physx@@VNamedAllocator@shdfnd@2@@shdfnd@physx@@KAXPEAUPxDebugText@3@0PEBU43@@Z 0000000180008290 f i CmRenderOutput.obj
 0001:00007400       ?copy@?$Array@UPxDebugTriangle@physx@@VNamedAllocator@shdfnd@2@@shdfnd@physx@@KAXPEAUPxDebugTriangle@3@0PEBU43@@Z 0000000180008400 f i CmRenderOutput.obj
 0001:00007600       ?growAndPushBack@?$Array@DVNamedAllocator@shdfnd@physx@@@shdfnd@physx@@IEAAAEADAEBD@Z 0000000180008600 f i CmRenderOutput.obj
 0001:000076e0       ?growAndPushBack@?$Array@UPxDebugLine@physx@@VNamedAllocator@shdfnd@2@@shdfnd@physx@@IEAAAEAUPxDebugLine@3@AEBU43@@Z 00000001800086e0 f i CmRenderOutput.obj
 0001:000077f0       ?growAndPushBack@?$Array@UPxDebugPoint@physx@@VNamedAllocator@shdfnd@2@@shdfnd@physx@@IEAAAEAUPxDebugPoint@3@AEBU43@@Z 00000001800087f0 f i CmRenderOutput.obj
 0001:000078e0       ?growAndPushBack@?$Array@UPxDebugText@physx@@VNamedAllocator@shdfnd@2@@shdfnd@physx@@IEAAAEAUPxDebugText@3@AEBU43@@Z 00000001800088e0 f i CmRenderOutput.obj
 0001:000079e0       ?growAndPushBack@?$Array@UPxDebugTriangle@physx@@VNamedAllocator@shdfnd@2@@shdfnd@physx@@IEAAAEAUPxDebugTriangle@3@AEBU43@@Z 00000001800089e0 f i CmRenderOutput.obj
 0001:00007b20       ?outputCapsule@RenderOutput@Cm@physx@@QEAAAEAV123@MMAEBVPxMat44@3@@Z 0000000180008b20 f   CmRenderOutput.obj
 0001:000085e0       ?outputSegment@RenderOutput@Cm@physx@@QEAAXAEBVPxVec3@3@0@Z 00000001800095e0 f i CmRenderOutput.obj
 0001:000086a0       ?recreate@?$Array@DVNamedAllocator@shdfnd@physx@@@shdfnd@physx@@IEAAXI@Z 00000001800096a0 f i CmRenderOutput.obj
 0001:00008750       ?recreate@?$Array@UPxDebugLine@physx@@VNamedAllocator@shdfnd@2@@shdfnd@physx@@IEAAXI@Z 0000000180009750 f i CmRenderOutput.obj
 0001:000087f0       ?reserveSegments@RenderOutput@Cm@physx@@QEAAPEAUPxDebugLine@3@I@Z 00000001800097f0 f i CmRenderOutput.obj
 0001:00008850       ??DPxQuat@physx@@QEBA?AV01@AEBV01@@Z 0000000180009850 f i CmVisualization.obj
 0001:00008990       ?visualizeAngularLimit@Cm@physx@@YAXAEAVRenderOutput@12@MAEBVPxTransform@2@MM_N@Z 0000000180009990 f   CmVisualization.obj
 0001:00008b50       ?visualizeDoubleCone@Cm@physx@@YAXAEAVRenderOutput@12@MAEBVPxTransform@2@M_N@Z 0000000180009b50 f   CmVisualization.obj
 0001:00008db0       ?visualizeJointFrames@Cm@physx@@YAXAEAVRenderOutput@12@MAEBVPxTransform@2@1@Z 0000000180009db0 f   CmVisualization.obj
 0001:00008e70       ?visualizeLimitCone@Cm@physx@@YAXAEAVRenderOutput@12@MAEBVPxTransform@2@MM_N@Z 0000000180009e70 f   CmVisualization.obj
 0001:00009100       ?visualizeLinearLimit@Cm@physx@@YAXAEAVRenderOutput@12@MAEBVPxTransform@2@1M_N@Z 000000018000a100 f   CmVisualization.obj
 0001:00009380       ??0CmModuleUpdateLoader@Cm@physx@@QEAA@PEBD@Z 000000018000a380 f   CmWindowsModuleUpdateLoader.obj
 0001:000093c0       ??1CmModuleUpdateLoader@Cm@physx@@QEAA@XZ 000000018000a3c0 f   CmWindowsModuleUpdateLoader.obj
 0001:000093f0       ?LoadModule@CmModuleUpdateLoader@Cm@physx@@QEAAPEAUHINSTANCE__@@PEBD0@Z 000000018000a3f0 f   CmWindowsModuleUpdateLoader.obj
 0001:00009410       ?commonDelayHook@@YAP6A_JXZIPEAUDelayLoadInfo@@@Z 000000018000a410 f   CmWindowsDelayLoadHook.obj
 0001:000094f0       PxSetPhysXCommonDelayLoadHook 000000018000a4f0 f   CmWindowsDelayLoadHook.obj
 0001:00009500       ??0Box@Gu@physx@@QEAA@AEBV012@@Z 000000018000a500 f i GuBounds.obj
 0001:00009500       ??4Box@Gu@physx@@QEAAAEBV012@AEBV012@@Z 000000018000a500 f i GuBounds.obj
 0001:00009560       ??0Box@Gu@physx@@QEAA@AEBVPxVec3@2@0AEBVPxMat33@2@@Z 000000018000a560 f i GuBounds.obj
 0001:000095d0       ??0AABBTreeBuildNode@Gu@physx@@QEAA@XZ 000000018000a5d0 f i GuAABBTreeBuild.obj
 0001:000095d0       ??0BigConvexData@physx@@QEAA@W4PxEMPTY@1@@Z 000000018000a5d0 f i GuMetaData.obj
 0001:000095d0       ??0Box@Gu@physx@@QEAA@XZ   000000018000a5d0 f i GuBounds.obj
 0001:000095d0       ??0GeometryUnion@Gu@physx@@QEAA@W4PxEMPTY@2@@Z 000000018000a5d0 f i GuGeometryUnion.obj
 0001:000095d0       ??0HeightFieldData@Gu@physx@@QEAA@W4PxEMPTY@2@@Z 000000018000a5d0 f i GuBounds.obj
 0001:000095d0       ??0MaterialIndicesStruct@physx@@QEAA@W4PxEMPTY@1@@Z 000000018000a5d0 f i GuGeometryUnion.obj
 0001:000095d0       ?getAABB@AABBTreeBuildNode@Gu@physx@@QEBAAEBVPxBounds3@3@XZ 000000018000a5d0 f i GuAABBTreeBuild.obj
 0001:000095d0       ?getGeometry@GeometryUnion@Gu@physx@@QEBAAEBVPxGeometry@3@XZ 000000018000a5d0 f i GuGeometryUnion.obj
 0001:000095d0       ?getPaddedBounds@HeightFieldData@Gu@physx@@QEBAAEBVCenterExtentsPadded@23@XZ 000000018000a5d0 f i GuBounds.obj
 0001:000095e0       ??0HeightFieldData@Gu@physx@@QEAA@$$QEAU012@@Z 000000018000a5e0 f i GuBounds.obj
 0001:000095e0       ??0HeightFieldData@Gu@physx@@QEAA@AEBU012@@Z 000000018000a5e0 f i GuBounds.obj
 0001:000095e0       ??4HeightFieldData@Gu@physx@@QEAAAEAU012@$$QEAU012@@Z 000000018000a5e0 f i GuBounds.obj
 0001:000095e0       ??4HeightFieldData@Gu@physx@@QEAAAEAU012@AEBU012@@Z 000000018000a5e0 f i GuBounds.obj
 0001:00009640       ??0HeightFieldData@Gu@physx@@QEAA@XZ 000000018000a640 f i GuBounds.obj
 0001:00009650       ??0PxQuat@physx@@QEAA@AEBVPxMat33@1@@Z 000000018000a650 f i GuBounds.obj
 0001:00009850       ??0ShapeData@Gu@physx@@QEAA@AEBVPxGeometry@2@AEBVPxTransform@2@M@Z 000000018000a850 f   GuBounds.obj
 0001:00009db0       ??1PxConvexMesh@physx@@MEAA@XZ 000000018000adb0 f i GuBounds.obj
 0001:00009db0       ??1PxHeightField@physx@@MEAA@XZ 000000018000adb0 f i GuBounds.obj
 0001:00009dc0       ??_EPxBVHStructure@physx@@MEAAPEAXI@Z 000000018000adc0 f i GuBVHStructure.obj
 0001:00009dc0       ??_EPxBase@physx@@MEAAPEAXI@Z 000000018000adc0 f i GuBounds.obj
 0001:00009dc0       ??_EPxTriangleMesh@physx@@MEAAPEAXI@Z 000000018000adc0 f i GuTriangleMesh.obj
 0001:00009dc0       ??_GPxBVHStructure@physx@@MEAAPEAXI@Z 000000018000adc0 f i GuBVHStructure.obj
 0001:00009dc0       ??_GPxBase@physx@@MEAAPEAXI@Z 000000018000adc0 f i GuBounds.obj
 0001:00009dc0       ??_GPxTriangleMesh@physx@@MEAAPEAXI@Z 000000018000adc0 f i GuTriangleMesh.obj
 0001:00009df0       ??_H@YAXPEAX_K1P6APEAX0@Z@Z 000000018000adf0 f i GuBounds.obj
 0001:00009e40       ?computeAABBExtent@Box@Gu@physx@@QEBA?AVPxVec3@3@XZ 000000018000ae40 f i GuBounds.obj
 0001:00009f00       ?computeBounds@Gu@physx@@YAXAEAVPxBounds3@2@AEBVPxGeometry@2@AEBVPxTransform@2@MPEIBVCenterExtentsPadded@12@M@Z 000000018000af00 f   GuBounds.obj
 0001:0000a7e0       ?computeBoundsWithCCDThreshold@Gu@physx@@YAMAEAVVec3p@12@0AEBVPxGeometry@2@AEBVPxTransform@2@PEIBVCenterExtentsPadded@12@@Z 000000018000b7e0 f   GuBounds.obj
 0001:0000a9b0       ?computeBoxPoints@Box@Gu@physx@@QEBAXPEIAVPxVec3@3@@Z 000000018000b9b0 f i GuBounds.obj
 0001:0000b970       ?getConcreteTypeName@PxConvexMesh@physx@@UEBAPEBDXZ 000000018000c970 f i GuBounds.obj
 0001:0000b980       ?getConcreteTypeName@PxHeightField@physx@@UEBAPEBDXZ 000000018000c980 f i GuBounds.obj
 0001:0000b990       ?getConvexEdgeThreshold@HeightField@Gu@physx@@UEBAMXZ 000000018000c990 f i GuBounds.obj
 0001:0000b9a0       ?getFlags@HeightField@Gu@physx@@UEBA?AV?$PxFlags@W4Enum@PxHeightFieldFlag@physx@@G@3@XZ 000000018000c9a0 f i GuBounds.obj
 0001:0000b9b0       ?getFormat@HeightField@Gu@physx@@UEBA?AW4Enum@PxHeightFieldFormat@3@XZ 000000018000c9b0 f i GuBounds.obj
 0001:0000b9c0       ?getHeight@HeightField@Gu@physx@@UEBAMMM@Z 000000018000c9c0 f i GuBounds.obj
 0001:0000ba00       ?getHeightInternal2@HeightField@Gu@physx@@QEBAMIMM@Z 000000018000ca00 f i GuBounds.obj
 0001:0000bb70       ?getIndexBuffer@ConvexMesh@Gu@physx@@UEBAPEBEXZ 000000018000cb70 f i GuBounds.obj
 0001:0000bbb0       ?getNbPolygons@ConvexMesh@Gu@physx@@UEBAIXZ 000000018000cbb0 f i GuBounds.obj
 0001:0000bbc0       ?getNbRows@HeightField@Gu@physx@@UEBAIXZ 000000018000cbc0 f i GuBounds.obj
 0001:0000bbd0       ?getNbVertices@ConvexMesh@Gu@physx@@UEBAIXZ 000000018000cbd0 f i GuBounds.obj
 0001:0000bbe0       ?getSample@HeightField@Gu@physx@@UEBAAEBUPxHeightFieldSample@3@II@Z 000000018000cbe0 f i GuBounds.obj
 0001:0000bbf0       ?getSampleStride@HeightField@Gu@physx@@UEBAIXZ 000000018000cbf0 f i GuBounds.obj
 0001:0000bc00       ?getTimestamp@HeightField@Gu@physx@@UEBAIXZ 000000018000cc00 f i GuBounds.obj
 0001:0000bc10       ?getTransform@Box@Gu@physx@@QEBA?AVPxTransform@3@XZ 000000018000cc10 f i GuBounds.obj
 0001:0000bc70       ?getTriangleMaterialIndex@HeightField@Gu@physx@@UEBAGI@Z 000000018000cc70 f i GuBounds.obj
 0001:0000bca0       ?getTriangleNormal@HeightField@Gu@physx@@UEBA?AVPxVec3@3@I@Z 000000018000cca0 f i GuBounds.obj
 0001:0000bcc0       ?getTriangleNormalInternal@HeightField@Gu@physx@@QEBA?AVPxVec3@3@I@Z 000000018000ccc0 f i GuBounds.obj
 0001:0000be10       ?getVertices@ConvexMesh@Gu@physx@@UEBAPEBVPxVec3@3@XZ 000000018000ce10 f i GuBounds.obj
 0001:0000be30       ?isKindOf@PxBase@physx@@MEBA_NPEBD@Z 000000018000ce30 f i GuBounds.obj
 0001:0000be60       ?isKindOf@PxConvexMesh@physx@@MEBA_NPEBD@Z 000000018000ce60 f i GuBounds.obj
 0001:0000beb0       ?isKindOf@PxHeightField@physx@@MEBA_NPEBD@Z 000000018000ceb0 f i GuBounds.obj
 0001:0000bf00       ?isReleasable@PxBase@physx@@UEBA_NXZ 000000018000cf00 f i GuBounds.obj
 0001:0000bf10       ?isValid@Box@Gu@physx@@QEBA_NXZ 000000018000cf10 f i GuBounds.obj
 0001:0000bf30       ?preExportDataReset@ConvexMesh@Gu@physx@@QEAAXXZ 000000018000cf30 f i GuBounds.obj
 0001:0000bf30       ?preExportDataReset@HeightField@Gu@physx@@QEAAXXZ 000000018000cf30 f i GuBounds.obj
 0001:0000bf40       ?rotate@Box@Gu@physx@@QEBA?AVPxVec3@3@AEBV43@@Z 000000018000cf40 f i GuBounds.obj
 0001:0000bfd0       ?rotateInv@Box@Gu@physx@@QEBA?AVPxVec3@3@AEBV43@@Z 000000018000cfd0 f i GuBounds.obj
 0001:0000c060       ?setAxes@Box@Gu@physx@@QEAAXAEBVPxVec3@3@00@Z 000000018000d060 f i GuBounds.obj
 0001:0000c0a0       ?setEmpty@Box@Gu@physx@@QEAAXXZ 000000018000d0a0 f i GuBounds.obj
 0001:0000c0e0       ?transform@Box@Gu@physx@@QEBA?AVPxVec3@3@AEBV43@@Z 000000018000d0e0 f i GuBounds.obj
 0001:0000c180       ?computeOBBPoints@Gu@physx@@YAXPEIAVPxVec3@2@AEBV32@1111@Z 000000018000d180 f   GuBox.obj
 0001:0000c400       ?create@Box@Gu@physx@@QEAAXAEBVCapsule@23@@Z 000000018000d400 f   GuBox.obj
 0001:0000c630       ?getBoxEdges@Gu@physx@@YAPEBEXZ 000000018000d630 f   GuBox.obj
 0001:0000c640       ?computeBasis@shdfnd@physx@@YAXAEBVPxVec3@2@0AEAV32@11@Z 000000018000d640 f i GuCapsule.obj
 0001:0000c7e0       ?computeBoxAroundCapsule@Gu@physx@@YAXAEBVCapsule@12@AEAVBox@12@@Z 000000018000d7e0 f   GuCapsule.obj
 0001:0000c930       ??0HeightFieldTraceUtil@Gu@physx@@QEAA@AEBVPxHeightFieldGeometry@2@@Z 000000018000d930 f i GuCCTSweepTests.obj
 0001:0000c930       ??0HeightFieldUtil@Gu@physx@@QEAA@AEBVPxHeightFieldGeometry@2@@Z 000000018000d930 f i GuCCTSweepTests.obj
 0001:0000c970       ??4HeightFieldTraceUtil@Gu@physx@@QEAAAEAV012@$$QEAV012@@Z 000000018000d970 f i GuCCTSweepTests.obj
 0001:0000c970       ??4HeightFieldTraceUtil@Gu@physx@@QEAAAEAV012@AEBV012@@Z 000000018000d970 f i GuCCTSweepTests.obj
 0001:0000c970       ??4HeightFieldUtil@Gu@physx@@QEAAAEAV012@AEBV012@@Z 000000018000d970 f i GuCCTSweepTests.obj
 0001:0000c990       ??4HeightFieldUtil@Gu@physx@@QEAAAEAV012@$$QEAV012@@Z 000000018000d990 f i GuCCTSweepTests.obj
 0001:0000c9c0       ??_E?$EntityReport@I@Gu@physx@@UEAAPEAXI@Z 000000018000d9c0 f i GuCCTSweepTests.obj
 0001:0000c9c0       ??_G?$EntityReport@I@Gu@physx@@UEAAPEAXI@Z 000000018000d9c0 f i GuCCTSweepTests.obj
 0001:0000ca20       ?ceilUp@HeightFieldTraceUtil@Gu@physx@@SAMM@Z 000000018000da20 f i GuCCTSweepTests.obj
 0001:0000ca60       ?computePointNormal@HeightFieldUtil@Gu@physx@@QEBA?AVPxVec3@3@IAEBV43@AEBVPxTransform@3@MMMMAEAM@Z 000000018000da60 f i GuCCTSweepTests.obj
 0001:0000ce80       ?floorDown@HeightFieldTraceUtil@Gu@physx@@SAMM@Z 000000018000de80 f i GuCCTSweepTests.obj
 0001:0000cec0       ?getFeatureIndex@HeightFieldUtil@Gu@physx@@SAII@Z 000000018000dec0 f i GuCCTSweepTests.obj
 0001:0000ced0       ?getFeatureType@HeightFieldUtil@Gu@physx@@SA?AW4Feature@123@I@Z 000000018000ded0 f i GuCCTSweepTests.obj
 0001:0000cee0       ?getHeightAtShapePoint@HeightFieldUtil@Gu@physx@@QEBAMMM@Z 000000018000dee0 f i GuCCTSweepTests.obj
 0001:0000cf40       ?getNormalAtShapePoint@HeightFieldUtil@Gu@physx@@QEBA?AVPxVec3@3@MM@Z 000000018000df40 f i GuCCTSweepTests.obj
 0001:0000d000       ?getNormal_2@HeightField@Gu@physx@@QEBA?AVPxVec3@3@IMMMMM@Z 000000018000e000 f i GuCCTSweepTests.obj
 0001:0000d120       ?getOneOverColumnScale@HeightFieldUtil@Gu@physx@@QEBAMXZ 000000018000e120 f i GuCCTSweepTests.obj
 0001:0000d130       ?getOneOverHeightScale@HeightFieldUtil@Gu@physx@@QEBAMXZ 000000018000e130 f i GuCCTSweepTests.obj
 0001:0000d140       ?getOneOverRowScale@HeightFieldUtil@Gu@physx@@QEBAMXZ 000000018000e140 f i GuCCTSweepTests.obj
 0001:0000d150       ?getVertexNormal@HeightFieldUtil@Gu@physx@@QEBA?AVPxVec3@3@I@Z 000000018000e150 f i GuCCTSweepTests.obj
 0001:0000d180       ?hf2shapen@HeightFieldUtil@Gu@physx@@QEBA?AVPxVec3@3@AEBV43@@Z 000000018000e180 f i GuCCTSweepTests.obj
 0001:0000d180       ?shape2hfp@HeightFieldUtil@Gu@physx@@QEBA?AVPxVec3@3@AEBV43@@Z 000000018000e180 f i GuCCTSweepTests.obj
 0001:0000d1c0       ?hf2shapep@HeightFieldUtil@Gu@physx@@QEBA?AVPxVec3@3@AEBV43@@Z 000000018000e1c0 f i GuCCTSweepTests.obj
 0001:0000d200       ?hf2worldn@HeightFieldUtil@Gu@physx@@QEBA?AVPxVec3@3@AEBVPxTransform@3@AEBV43@@Z 000000018000e200 f i GuCCTSweepTests.obj
 0001:0000d370       ?hf2worldp@HeightFieldUtil@Gu@physx@@QEBA?AVPxVec3@3@AEBVPxTransform@3@AEBV43@@Z 000000018000e370 f i GuCCTSweepTests.obj
 0001:0000d4f0       ?isCollisionVertex@HeightFieldUtil@Gu@physx@@QEBA_NIII@Z 000000018000e4f0 f i GuCCTSweepTests.obj
 0001:0000d510       ?isQueryVertex@HeightFieldUtil@Gu@physx@@QEBA_NIII@Z 000000018000e510 f i GuCCTSweepTests.obj
 0001:0000d5d0       ?isShapePointOnHeightField@HeightFieldUtil@Gu@physx@@QEBA_NMM@Z 000000018000e5d0 f i GuCCTSweepTests.obj
 0001:0000d620       ?makeFeatureCode@HeightFieldUtil@Gu@physx@@SAIIW4Feature@123@@Z 000000018000e620 f i GuCCTSweepTests.obj
 0001:0000d7e0       ?sweepBoxTriangles_Precise@Gu@physx@@YA_NIPEBVPxTriangle@2@_NAEBVPxBoxGeometry@2@AEBVPxTransform@2@AEBVPxVec3@2@MAEAUPxSweepHit@2@PEBIMV?$PxFlags@W4Enum@PxHitFlag@physx@@G@2@@Z 000000018000e7e0 f   GuCCTSweepTests.obj
 0001:0000e590       ?sweepBox_BoxGeom_Precise@@YA_NAEBVPxGeometry@physx@@AEBVPxTransform@2@AEBVPxBoxGeometry@2@1AEBVBox@Gu@2@AEBVPxVec3@2@MAEAUPxSweepHit@2@V?$PxFlags@W4Enum@PxHitFlag@physx@@G@2@M@Z 000000018000f590 f   GuCCTSweepTests.obj
 0001:0000e750       ?sweepBox_CapsuleGeom_Precise@@YA_NAEBVPxGeometry@physx@@AEBVPxTransform@2@AEBVPxBoxGeometry@2@1AEBVBox@Gu@2@AEBVPxVec3@2@MAEAUPxSweepHit@2@V?$PxFlags@W4Enum@PxHitFlag@physx@@G@2@M@Z 000000018000f750 f   GuCCTSweepTests.obj
 0001:0000eb20       ?sweepBox_HeightFieldGeom_Precise@@YA_NAEBVPxGeometry@physx@@AEBVPxTransform@2@AEBVPxBoxGeometry@2@1AEBVBox@Gu@2@AEBVPxVec3@2@MAEAUPxSweepHit@2@V?$PxFlags@W4Enum@PxHitFlag@physx@@G@2@M@Z 000000018000fb20 f   GuCCTSweepTests.obj
 0001:0000eef0       ?sweepBox_SphereGeom_Precise@@YA_NAEBVPxGeometry@physx@@AEBVPxTransform@2@AEBVPxBoxGeometry@2@1AEBVBox@Gu@2@AEBVPxVec3@2@MAEAUPxSweepHit@2@V?$PxFlags@W4Enum@PxHitFlag@physx@@G@2@M@Z 000000018000fef0 f   GuCCTSweepTests.obj
 0001:0000f1c0       ?sweepCapsule_BoxGeom_Precise@@YA_NAEBVPxGeometry@physx@@AEBVPxTransform@2@AEBVPxCapsuleGeometry@2@1AEBVCapsule@Gu@2@AEBVPxVec3@2@MAEAUPxSweepHit@2@V?$PxFlags@W4Enum@PxHitFlag@physx@@G@2@M@Z 00000001800101c0 f   GuCCTSweepTests.obj
 0001:0000f820       ?computePenetration@PxGeometryQuery@physx@@SA_NAEAVPxVec3@2@AEAMAEBVPxGeometry@2@AEBVPxTransform@2@23@Z 0000000180010820 f   GuGeometryQuery.obj
 0001:0000f9c0       ?getWorldBounds@PxGeometryQuery@physx@@SA?AVPxBounds3@2@AEBVPxGeometry@2@AEBVPxTransform@2@M@Z 00000001800109c0 f   GuGeometryQuery.obj
 0001:0000fb20       ?isFinite@PxQuat@physx@@QEBA_NXZ 0000000180010b20 f i GuGeometryQuery.obj
 0001:0000fb90       ?isFinite@PxVec3@physx@@QEBA_NXZ 0000000180010b90 f i GuGeometryQuery.obj
 0001:0000fbf0       ?isUnit@PxQuat@physx@@QEBA_NXZ 0000000180010bf0 f i GuGeometryQuery.obj
 0001:0000fc60       ?isValid@PxGeometryQuery@physx@@SA_NAEBVPxGeometry@2@@Z 0000000180010c60 f   GuGeometryQuery.obj
 0001:0000fdf0       ?isValid@PxTransform@physx@@QEBA_NXZ 0000000180010df0 f i GuGeometryQuery.obj
 0001:0000fe60       ?overlap@PxGeometryQuery@physx@@SA_NAEBVPxGeometry@2@AEBVPxTransform@2@01@Z 0000000180010e60 f   GuGeometryQuery.obj
 0001:0000ffc0       ?pointDistance@PxGeometryQuery@physx@@SAMAEBVPxVec3@2@AEBVPxGeometry@2@AEBVPxTransform@2@PEAV32@@Z 0000000180010fc0 f   GuGeometryQuery.obj
 0001:000106f0       ?raycast@PxGeometryQuery@physx@@SAIAEBVPxVec3@2@0AEBVPxGeometry@2@AEBVPxTransform@2@MV?$PxFlags@W4Enum@PxHitFlag@physx@@G@2@IPEIAUPxRaycastHit@2@@Z 00000001800116f0 f   GuGeometryQuery.obj
 0001:00010a30       ?sweep@PxGeometryQuery@physx@@SA_NAEBVPxVec3@2@MAEBVPxGeometry@2@AEBVPxTransform@2@12AEAUPxSweepHit@2@V?$PxFlags@W4Enum@PxHitFlag@physx@@G@2@M@Z 0000000180011a30 f   GuGeometryQuery.obj
 0001:00011060       ??0GeometryUnion@Gu@physx@@QEAA@AEBVPxGeometry@2@@Z 0000000180012060 f i GuGeometryUnion.obj
 0001:00011080       ??0GeometryUnion@Gu@physx@@QEAA@XZ 0000000180012080 f i GuGeometryUnion.obj
 0001:00011090       ??0MaterialIndicesStruct@physx@@QEAA@XZ 0000000180012090 f i GuGeometryUnion.obj
 0001:000110b0       ??4GeometryUnion@Gu@physx@@QEAAAEAV012@$$QEAV012@@Z 00000001800120b0 f i GuGeometryUnion.obj
 0001:000110b0       ??4GeometryUnion@Gu@physx@@QEAAAEAV012@AEBV012@@Z 00000001800120b0 f i GuGeometryUnion.obj
 0001:000110e0       ?allocate@MaterialIndicesStruct@physx@@QEAAXG@Z 00000001800120e0 f i GuGeometryUnion.obj
 0001:00011150       ?deallocate@MaterialIndicesStruct@physx@@QEAAXXZ 0000000180012150 f i GuGeometryUnion.obj
 0001:000111a0       ?getCount@BuildStats@Gu@physx@@QEBAIXZ 00000001800121a0 f i GuAABBTreeBuild.obj
 0001:000111a0       ?getNumAxes@SeparatingAxes@Gu@physx@@QEBAIXZ 00000001800121a0 f i GuMTD.obj
 0001:000111a0       ?getType@GeometryUnion@Gu@physx@@QEBA?AW4Enum@PxGeometryType@3@XZ 00000001800121a0 f i GuGeometryUnion.obj
 0001:000111b0       ?set@GeometryUnion@Gu@physx@@QEAAXAEBVPxGeometry@3@@Z 00000001800121b0 f   GuGeometryUnion.obj
 0001:00011380       ?computeBoundsAroundVertices@Gu@physx@@YAXAEAVPxBounds3@2@IPEIBVPxVec3@2@@Z 0000000180012380 f   GuInternal.obj
 0001:00011430       ?computeBoxPoints@Gu@physx@@YAXAEBVPxBounds3@2@PEIAVPxVec3@2@@Z 0000000180012430 f   GuInternal.obj
 0001:000114d0       ?computeSweptBox@Gu@physx@@YAXAEAVBox@12@AEBVPxVec3@2@1AEBVPxMat33@2@1M@Z 00000001800124d0 f   GuInternal.obj
 0001:00011a10       ?getPlane@Gu@physx@@YA?AVPxPlane@2@AEBVPxTransform@2@@Z 0000000180012a10 f   GuInternal.obj
 0001:00011ac0       ??$?_UI@@YAPEAX_KV?$ReflectionAllocator@I@shdfnd@physx@@PEBDH@Z 0000000180012ac0 f i GuMeshFactory.obj
 0001:00011b60       ??0GuMeshFactory@physx@@QEAA@XZ 0000000180012b60 f   GuMeshFactory.obj
 0001:00011d20       ??1GuMeshFactory@physx@@MEAA@XZ 0000000180012d20 f   GuMeshFactory.obj
 0001:00011e10       ??1MeshDataBase@Gu@physx@@UEAA@XZ 0000000180012e10 f i GuMeshFactory.obj
 0001:00011f00       ??1TriangleMeshData@Gu@physx@@UEAA@XZ 0000000180012f00 f i GuMeshFactory.obj
 0001:00011fd0       ??_EGuMeshFactory@physx@@MEAAPEAXI@Z 0000000180012fd0 f i GuMeshFactory.obj
 0001:000120e0       ??_EBV4TriangleData@Gu@physx@@UEAAPEAXI@Z 00000001800130e0 f i GuMeshFactory.obj
 0001:000120e0       ??_GBV4TriangleData@Gu@physx@@UEAAPEAXI@Z 00000001800130e0 f i GuMeshFactory.obj
 0001:00012170       ??_EMeshDataBase@Gu@physx@@UEAAPEAXI@Z 0000000180013170 f i GuMeshFactory.obj
 0001:00012170       ??_GMeshDataBase@Gu@physx@@UEAAPEAXI@Z 0000000180013170 f i GuMeshFactory.obj
 0001:000121e0       ??_ERTreeTriangleData@Gu@physx@@UEAAPEAXI@Z 00000001800131e0 f i GuMeshFactory.obj
 0001:000121e0       ??_GRTreeTriangleData@Gu@physx@@UEAAPEAXI@Z 00000001800131e0 f i GuMeshFactory.obj
 0001:00012290       ??_ETriangleMeshData@Gu@physx@@UEAAPEAXI@Z 0000000180013290 f i GuMeshFactory.obj
 0001:00012290       ??_GTriangleMeshData@Gu@physx@@UEAAPEAXI@Z 0000000180013290 f i GuMeshFactory.obj
 0001:00012300       ?__global_array_delete@@YAXPEAX_K@Z 0000000180013300 f i GuMeshFactory.obj
 0001:00012310       ??_V@YAXPEAX_K@Z           0000000180013310 f i MSVCRT:delete_array_size.obj
 0001:00012310       ?__global_delete@@YAXPEAX_K@Z 0000000180013310 f i GuMeshFactory.obj
 0001:00012320       ?addBVHStructure@GuMeshFactory@physx@@QEAAXPEAVBVHStructure@Gu@2@_N@Z 0000000180013320 f   GuMeshFactory.obj
 0001:000123a0       ?addConvexMesh@GuMeshFactory@physx@@QEAAXPEAVConvexMesh@Gu@2@_N@Z 00000001800133a0 f   GuMeshFactory.obj
 0001:00012420       ?addFactoryListener@GuMeshFactory@physx@@QEAAXAEAVGuMeshFactoryListener@2@@Z 0000000180013420 f   GuMeshFactory.obj
 0001:00012490       ?addHeightField@GuMeshFactory@physx@@QEAAXPEAVHeightField@Gu@2@_N@Z 0000000180013490 f   GuMeshFactory.obj
 0001:00012510       ?addTriangleMesh@GuMeshFactory@physx@@QEAAXPEAVTriangleMesh@Gu@2@_N@Z 0000000180013510 f   GuMeshFactory.obj
 0001:00012590       ?create@?$HashBase@PEAVBVHStructure@Gu@physx@@PEAV123@U?$Hash@PEAVBVHStructure@Gu@physx@@@shdfnd@3@UGetKey@?$HashSetBase@PEAVBVHStructure@Gu@physx@@U?$Hash@PEAVBVHStructure@Gu@physx@@@shdfnd@3@VNonTrackingAllocator@53@$00@internal@53@VNonTrackingAllocator@53@$00@internal@shdfnd@physx@@QEAAPEAPEAVBVHStructure@Gu@4@AEBQEAV564@AEA_N@Z 0000000180013590 f i GuMeshFactory.obj
 0001:00012590       ?create@?$HashBase@PEAVConvexMesh@Gu@physx@@PEAV123@U?$Hash@PEAVConvexMesh@Gu@physx@@@shdfnd@3@UGetKey@?$HashSetBase@PEAVConvexMesh@Gu@physx@@U?$Hash@PEAVConvexMesh@Gu@physx@@@shdfnd@3@VNonTrackingAllocator@53@$00@internal@53@VNonTrackingAllocator@53@$00@internal@shdfnd@physx@@QEAAPEAPEAVConvexMesh@Gu@4@AEBQEAV564@AEA_N@Z 0000000180013590 f i GuMeshFactory.obj
 0001:00012590       ?create@?$HashBase@PEAVHeightField@Gu@physx@@PEAV123@U?$Hash@PEAVHeightField@Gu@physx@@@shdfnd@3@UGetKey@?$HashSetBase@PEAVHeightField@Gu@physx@@U?$Hash@PEAVHeightField@Gu@physx@@@shdfnd@3@VNonTrackingAllocator@53@$00@internal@53@VNonTrackingAllocator@53@$00@internal@shdfnd@physx@@QEAAPEAPEAVHeightField@Gu@4@AEBQEAV564@AEA_N@Z 0000000180013590 f i GuMeshFactory.obj
 0001:00012590       ?create@?$HashBase@PEAVTriangleMesh@Gu@physx@@PEAV123@U?$Hash@PEAVTriangleMesh@Gu@physx@@@shdfnd@3@UGetKey@?$HashSetBase@PEAVTriangleMesh@Gu@physx@@U?$Hash@PEAVTriangleMesh@Gu@physx@@@shdfnd@3@VNonTrackingAllocator@53@$00@internal@53@VNonTrackingAllocator@53@$00@internal@shdfnd@physx@@QEAAPEAPEAVTriangleMesh@Gu@4@AEBQEAV564@AEA_N@Z 0000000180013590 f i GuMeshFactory.obj
 0001:00012720       ?createBVHStructure@GuMeshFactory@physx@@IEAAPEAVPxBVHStructure@2@AEAUBVHStructureData@Gu@2@@Z 0000000180013720 f   GuMeshFactory.obj
 0001:00012830       ?createBVHStructure@GuMeshFactory@physx@@QEAAPEAVPxBVHStructure@2@AEAVPxInputStream@2@@Z 0000000180013830 f   GuMeshFactory.obj
 0001:00012970       ?createBVHStructure@GuMeshFactory@physx@@QEAAPEAVPxBVHStructure@2@PEAX@Z 0000000180013970 f   GuMeshFactory.obj
 0001:00012980       ?createConvexMesh@GuMeshFactory@physx@@IEAAPEAVPxConvexMesh@2@AEAUConvexHullInitData@Gu@2@@Z 0000000180013980 f   GuMeshFactory.obj
 0001:00012ab0       ?createConvexMesh@GuMeshFactory@physx@@QEAAPEAVPxConvexMesh@2@AEAVPxInputStream@2@@Z 0000000180013ab0 f   GuMeshFactory.obj
 0001:00012c10       ?createConvexMesh@GuMeshFactory@physx@@QEAAPEAVPxConvexMesh@2@PEAX@Z 0000000180013c10 f   GuMeshFactory.obj
 0001:00012c20       ?createHeightField@GuMeshFactory@physx@@QEAAPEAVPxHeightField@2@AEAVPxInputStream@2@@Z 0000000180013c20 f   GuMeshFactory.obj
 0001:00012d70       ?createHeightField@GuMeshFactory@physx@@QEAAPEAVPxHeightField@2@PEAX@Z 0000000180013d70 f   GuMeshFactory.obj
 0001:00012ea0       ?createTriangleMesh@GuMeshFactory@physx@@IEAAPEAVPxTriangleMesh@2@AEAVTriangleMeshData@Gu@2@@Z 0000000180013ea0 f   GuMeshFactory.obj
 0001:000130c0       ?createTriangleMesh@GuMeshFactory@physx@@QEAAPEAVPxTriangleMesh@2@AEAVPxInputStream@2@@Z 00000001800140c0 f   GuMeshFactory.obj
 0001:00013120       ?createTriangleMesh@GuMeshFactory@physx@@QEAAPEAVPxTriangleMesh@2@PEAX@Z 0000000180014120 f   GuMeshFactory.obj
 0001:00013130       ?erase@?$HashBase@PEAVBVHStructure@Gu@physx@@PEAV123@U?$Hash@PEAVBVHStructure@Gu@physx@@@shdfnd@3@UGetKey@?$HashSetBase@PEAVBVHStructure@Gu@physx@@U?$Hash@PEAVBVHStructure@Gu@physx@@@shdfnd@3@VNonTrackingAllocator@53@$00@internal@53@VNonTrackingAllocator@53@$00@internal@shdfnd@physx@@QEAA_NAEBQEAVBVHStructure@Gu@4@@Z 0000000180014130 f i GuMeshFactory.obj
 0001:00013130       ?erase@?$HashBase@PEAVConvexMesh@Gu@physx@@PEAV123@U?$Hash@PEAVConvexMesh@Gu@physx@@@shdfnd@3@UGetKey@?$HashSetBase@PEAVConvexMesh@Gu@physx@@U?$Hash@PEAVConvexMesh@Gu@physx@@@shdfnd@3@VNonTrackingAllocator@53@$00@internal@53@VNonTrackingAllocator@53@$00@internal@shdfnd@physx@@QEAA_NAEBQEAVConvexMesh@Gu@4@@Z 0000000180014130 f i GuMeshFactory.obj
 0001:00013130       ?erase@?$HashBase@PEAVHeightField@Gu@physx@@PEAV123@U?$Hash@PEAVHeightField@Gu@physx@@@shdfnd@3@UGetKey@?$HashSetBase@PEAVHeightField@Gu@physx@@U?$Hash@PEAVHeightField@Gu@physx@@@shdfnd@3@VNonTrackingAllocator@53@$00@internal@53@VNonTrackingAllocator@53@$00@internal@shdfnd@physx@@QEAA_NAEBQEAVHeightField@Gu@4@@Z 0000000180014130 f i GuMeshFactory.obj
 0001:00013130       ?erase@?$HashBase@PEAVTriangleMesh@Gu@physx@@PEAV123@U?$Hash@PEAVTriangleMesh@Gu@physx@@@shdfnd@3@UGetKey@?$HashSetBase@PEAVTriangleMesh@Gu@physx@@U?$Hash@PEAVTriangleMesh@Gu@physx@@@shdfnd@3@VNonTrackingAllocator@53@$00@internal@53@VNonTrackingAllocator@53@$00@internal@shdfnd@physx@@QEAA_NAEBQEAVTriangleMesh@Gu@4@@Z 0000000180014130 f i GuMeshFactory.obj
 0001:000132b0       ?getBVHStructures@GuMeshFactory@physx@@QEBAIPEAPEAVPxBVHStructure@2@II@Z 00000001800142b0 f   GuMeshFactory.obj
 0001:00013350       ?getConvexMeshes@GuMeshFactory@physx@@QEBAIPEAPEAVPxConvexMesh@2@II@Z 0000000180014350 f   GuMeshFactory.obj
 0001:000133e0       ?getHeightFields@GuMeshFactory@physx@@QEBAIPEAPEAVPxHeightField@2@II@Z 00000001800143e0 f   GuMeshFactory.obj
 0001:00013480       ?getNbBVHStructures@GuMeshFactory@physx@@QEBAIXZ 0000000180014480 f   GuMeshFactory.obj
 0001:000134c0       ?getNbConvexMeshes@GuMeshFactory@physx@@QEBAIXZ 00000001800144c0 f   GuMeshFactory.obj
 0001:00013500       ?getNbHeightFields@GuMeshFactory@physx@@QEBAIXZ 0000000180014500 f   GuMeshFactory.obj
 0001:00013540       ?getNbTriangleMeshes@GuMeshFactory@physx@@QEBAIXZ 0000000180014540 f   GuMeshFactory.obj
 0001:00013580       ?getTriangleMeshes@GuMeshFactory@physx@@QEBAIPEAPEAVPxTriangleMesh@2@II@Z 0000000180014580 f   GuMeshFactory.obj
 0001:00013610       ?growAndPushBack@?$Array@PEAVGuMeshFactoryListener@physx@@VNamedAllocator@shdfnd@2@@shdfnd@physx@@IEAAAEAPEAVGuMeshFactoryListener@3@AEBQEAV43@@Z 0000000180014610 f i GuMeshFactory.obj
 0001:00014570       ?notifyFactoryListener@GuMeshFactory@physx@@QEAAXPEBVPxBase@2@G@Z 0000000180015570 f   GuMeshFactory.obj
 0001:000145e0       ?release@GuMeshFactory@physx@@QEAAXXZ 00000001800155e0 f   GuMeshFactory.obj
 0001:00014690       ?removeBVHStructure@GuMeshFactory@physx@@QEAA_NAEAVPxBVHStructure@2@@Z 0000000180015690 f   GuMeshFactory.obj
 0001:000146e0       ?removeConvexMesh@GuMeshFactory@physx@@QEAA_NAEAVPxConvexMesh@2@@Z 00000001800156e0 f   GuMeshFactory.obj
 0001:00014730       ?removeFactoryListener@GuMeshFactory@physx@@QEAAXAEAVGuMeshFactoryListener@2@@Z 0000000180015730 f   GuMeshFactory.obj
 0001:000147c0       ?removeHeightField@GuMeshFactory@physx@@QEAA_NAEAVPxHeightField@2@@Z 00000001800157c0 f   GuMeshFactory.obj
 0001:00014810       ?removeTriangleMesh@GuMeshFactory@physx@@QEAA_NAEAVPxTriangleMesh@2@@Z 0000000180015810 f   GuMeshFactory.obj
 0001:00014860       ?reserveInternal@?$HashBase@PEAVBVHStructure@Gu@physx@@PEAV123@U?$Hash@PEAVBVHStructure@Gu@physx@@@shdfnd@3@UGetKey@?$HashSetBase@PEAVBVHStructure@Gu@physx@@U?$Hash@PEAVBVHStructure@Gu@physx@@@shdfnd@3@VNonTrackingAllocator@53@$00@internal@53@VNonTrackingAllocator@53@$00@internal@shdfnd@physx@@AEAAXI@Z 0000000180015860 f i GuMeshFactory.obj
 0001:00014860       ?reserveInternal@?$HashBase@PEAVConvexMesh@Gu@physx@@PEAV123@U?$Hash@PEAVConvexMesh@Gu@physx@@@shdfnd@3@UGetKey@?$HashSetBase@PEAVConvexMesh@Gu@physx@@U?$Hash@PEAVConvexMesh@Gu@physx@@@shdfnd@3@VNonTrackingAllocator@53@$00@internal@53@VNonTrackingAllocator@53@$00@internal@shdfnd@physx@@AEAAXI@Z 0000000180015860 f i GuMeshFactory.obj
 0001:00014860       ?reserveInternal@?$HashBase@PEAVHeightField@Gu@physx@@PEAV123@U?$Hash@PEAVHeightField@Gu@physx@@@shdfnd@3@UGetKey@?$HashSetBase@PEAVHeightField@Gu@physx@@U?$Hash@PEAVHeightField@Gu@physx@@@shdfnd@3@VNonTrackingAllocator@53@$00@internal@53@VNonTrackingAllocator@53@$00@internal@shdfnd@physx@@AEAAXI@Z 0000000180015860 f i GuMeshFactory.obj
 0001:00014860       ?reserveInternal@?$HashBase@PEAVTriangleMesh@Gu@physx@@PEAV123@U?$Hash@PEAVTriangleMesh@Gu@physx@@@shdfnd@3@UGetKey@?$HashSetBase@PEAVTriangleMesh@Gu@physx@@U?$Hash@PEAVTriangleMesh@Gu@physx@@@shdfnd@3@VNonTrackingAllocator@53@$00@internal@53@VNonTrackingAllocator@53@$00@internal@shdfnd@physx@@AEAAXI@Z 0000000180015860 f i GuMeshFactory.obj
 0001:00014a30       ??4BigConvexData@physx@@QEAAAEAV01@AEBV01@@Z 0000000180015a30 f i GuMetaData.obj
 0001:00014a50       ?GetAdjacentVerts@BigConvexData@physx@@QEBAPEBEXZ 0000000180015a50 f i GuMetaData.obj
 0001:00014a60       ?GetNbNeighbors@BigConvexData@physx@@QEBAGI@Z 0000000180015a60 f i GuMetaData.obj
 0001:00014a60       ?GetValency@BigConvexData@physx@@QEBAGI@Z 0000000180015a60 f i GuMetaData.obj
 0001:00014a70       ?GetNbSamples@BigConvexData@physx@@QEBAIXZ 0000000180015a70 f i GuMetaData.obj
 0001:00014a80       ?GetNbVerts@BigConvexData@physx@@QEBAIXZ 0000000180015a80 f i GuMetaData.obj
 0001:00014a90       ?GetNeighbors@BigConvexData@physx@@QEBAPEBEI@Z 0000000180015a90 f i GuMetaData.obj
 0001:00014aa0       ?GetOffset@BigConvexData@physx@@QEBAGI@Z 0000000180015aa0 f i GuMetaData.obj
 0001:00014ab0       ?GetSubdiv@BigConvexData@physx@@QEBAIXZ 0000000180015ab0 f i GuMetaData.obj
 0001:00014ac0       ?getBinaryMetaData@BV4Tree@Gu@physx@@SAXAEAVPxOutputStream@3@@Z 0000000180015ac0 f   GuMetaData.obj
 0001:00014e50       ?getBinaryMetaData@BV4TriangleMesh@Gu@physx@@SAXAEAVPxOutputStream@3@@Z 0000000180015e50 f   GuMetaData.obj
 0001:00015130       ?getBinaryMetaData@BigConvexData@physx@@SAXAEAVPxOutputStream@2@@Z 0000000180016130 f   GuMetaData.obj
 0001:000153f0       ?getBinaryMetaData@ConvexMesh@Gu@physx@@SAXAEAVPxOutputStream@3@@Z 00000001800163f0 f   GuMetaData.obj
 0001:00015a80       ?getBinaryMetaData@GeometryUnion@Gu@physx@@SAXAEAVPxOutputStream@3@@Z 0000000180016a80 f   GuMetaData.obj
 0001:000160d0       ?getBinaryMetaData@HeightField@Gu@physx@@SAXAEAVPxOutputStream@3@@Z 00000001800170d0 f   GuMetaData.obj
 0001:00016500       ?getBinaryMetaData@MaterialIndicesStruct@physx@@SAXAEAVPxOutputStream@2@@Z 0000000180017500 f   GuMetaData.obj
 0001:000166a0       ?getBinaryMetaData@RTree@Gu@physx@@SAXAEAVPxOutputStream@3@@Z 00000001800176a0 f   GuMetaData.obj
 0001:000169d0       ?getBinaryMetaData@RTreeTriangleMesh@Gu@physx@@SAXAEAVPxOutputStream@3@@Z 00000001800179d0 f   GuMetaData.obj
 0001:00017270       ?getBinaryMetaData@TriangleMesh@Gu@physx@@SAXAEAVPxOutputStream@3@@Z 0000000180018270 f   GuMetaData.obj
 0001:000186e0       ?doSupport@?$SupportLocalImpl@VBoxV@Gu@physx@@@Gu@physx@@UEBA?AT__m128@@AEBT4@@Z 00000001800196e0 f i GuMTD.obj
 0001:00018710       ?doSupport@?$SupportLocalImpl@VBoxV@Gu@physx@@@Gu@physx@@UEBAXAEBT__m128@@AEAT4@1@Z 0000000180019710 f i GuMTD.obj
 0001:00018760       ?populateVerts@?$SupportLocalImpl@VBoxV@Gu@physx@@@Gu@physx@@UEBAXPEBEIPEBVPxVec3@3@PEAT__m128@@@Z 0000000180019760 f i GuMTD.obj
 0001:00018760       ?populateVerts@?$SupportLocalImpl@VConvexHullNoScaleV@Gu@physx@@@Gu@physx@@UEBAXPEBEIPEBVPxVec3@3@PEAT__m128@@@Z 0000000180019760 f i GuMTD.obj
 0001:000187a0       ??_E?$SupportLocalImpl@VBoxV@Gu@physx@@@Gu@physx@@UEAAPEAXI@Z 00000001800197a0 f i GuMTD.obj
 0001:000187a0       ??_E?$SupportLocalImpl@VConvexHullNoScaleV@Gu@physx@@@Gu@physx@@UEAAPEAXI@Z 00000001800197a0 f i GuMTD.obj
 0001:000187a0       ??_E?$SupportLocalImpl@VConvexHullV@Gu@physx@@@Gu@physx@@UEAAPEAXI@Z 00000001800197a0 f i GuMTD.obj
 0001:000187a0       ??_E?$SupportLocalImpl@VTriangleV@Gu@physx@@@Gu@physx@@UEAAPEAXI@Z 00000001800197a0 f i GuPCMContactConvexCommon.obj
 0001:000187a0       ??_G?$SupportLocalImpl@VBoxV@Gu@physx@@@Gu@physx@@UEAAPEAXI@Z 00000001800197a0 f i GuMTD.obj
 0001:000187a0       ??_G?$SupportLocalImpl@VConvexHullNoScaleV@Gu@physx@@@Gu@physx@@UEAAPEAXI@Z 00000001800197a0 f i GuMTD.obj
 0001:000187a0       ??_G?$SupportLocalImpl@VConvexHullV@Gu@physx@@@Gu@physx@@UEAAPEAXI@Z 00000001800197a0 f i GuMTD.obj
 0001:000187a0       ??_G?$SupportLocalImpl@VTriangleV@Gu@physx@@@Gu@physx@@UEAAPEAXI@Z 00000001800197a0 f i GuPCMContactConvexCommon.obj
 0001:00018990       ??_ESupportLocal@Gu@physx@@UEAAPEAXI@Z 0000000180019990 f i GuMTD.obj
 0001:00018990       ??_GSupportLocal@Gu@physx@@UEAAPEAXI@Z 0000000180019990 f i GuMTD.obj
 0001:0001a780       ?doSupport@?$SupportLocalImpl@VConvexHullV@Gu@physx@@@Gu@physx@@UEBA?AT__m128@@AEBT4@@Z 000000018001b780 f i GuMTD.obj
 0001:0001a860       ?doSupport@?$SupportLocalImpl@VConvexHullV@Gu@physx@@@Gu@physx@@UEBAXAEBT__m128@@AEAT4@1@Z 000000018001b860 f i GuMTD.obj
 0001:0001abc0       ?populateVerts@?$SupportLocalImpl@VConvexHullV@Gu@physx@@@Gu@physx@@UEBAXPEBEIPEBVPxVec3@3@PEAT__m128@@@Z 000000018001bbc0 f i GuMTD.obj
 0001:0001ac20       ?doSupport@?$SupportLocalImpl@VConvexHullNoScaleV@Gu@physx@@@Gu@physx@@UEBA?AT__m128@@AEBT4@@Z 000000018001bc20 f i GuMTD.obj
 0001:0001ac70       ?doSupport@?$SupportLocalImpl@VConvexHullNoScaleV@Gu@physx@@@Gu@physx@@UEBAXAEBT__m128@@AEAT4@1@Z 000000018001bc70 f i GuMTD.obj
 0001:0001adf0       ??$gjk@U?$LocalConvex@VCapsuleV@Gu@physx@@@Gu@physx@@U?$LocalConvex@VConvexHullV@Gu@physx@@@23@@Gu@physx@@YA?AW4GjkStatus@01@AEBU?$LocalConvex@VCapsuleV@Gu@physx@@@01@AEBU?$LocalConvex@VConvexHullV@Gu@physx@@@01@AEBT__m128@@2AEAT5@333@Z 000000018001bdf0 f i GuMTD.obj
 0001:0001bb60       ??0MultiplePersistentContactManifold@Gu@physx@@QEAA@XZ 000000018001cb60 f i GuMTD.obj
 0001:0001bbb0       ??0PolygonalBox@Gu@physx@@QEAA@AEBV012@@Z 000000018001cbb0 f i GuMTD.obj
 0001:0001be30       ??0SeparatingAxes@Gu@physx@@QEAA@$$QEAV012@@Z 000000018001ce30 f i GuMTD.obj
 0001:0001be30       ??0SeparatingAxes@Gu@physx@@QEAA@AEBV012@@Z 000000018001ce30 f i GuMTD.obj
 0001:0001bf40       ??0SeparatingAxes@Gu@physx@@QEAA@XZ 000000018001cf40 f i GuMTD.obj
 0001:0001bf50       ??4MultiplePersistentContactManifold@Gu@physx@@QEAAAEAV012@$$QEAV012@@Z 000000018001cf50 f i GuMTD.obj
 0001:0001c260       ??4MultiplePersistentContactManifold@Gu@physx@@QEAAAEAV012@AEBV012@@Z 000000018001d260 f i GuMTD.obj
 0001:0001c280       ??4SeparatingAxes@Gu@physx@@QEAAAEAV012@$$QEAV012@@Z 000000018001d280 f i GuMTD.obj
 0001:0001c280       ??4SeparatingAxes@Gu@physx@@QEAAAEAV012@AEBV012@@Z 000000018001d280 f i GuMTD.obj
 0001:0001c390       ??_E?$LocalConvex@VBoxV@Gu@physx@@@Gu@physx@@UEAAPEAXI@Z 000000018001d390 f i GuSweepTests.obj
 0001:0001c390       ??_E?$LocalConvex@VCapsuleV@Gu@physx@@@Gu@physx@@UEAAPEAXI@Z 000000018001d390 f i GuMTD.obj
 0001:0001c390       ??_E?$LocalConvex@VConvexHullNoScaleV@Gu@physx@@@Gu@physx@@UEAAPEAXI@Z 000000018001d390 f i GuPCMContactBoxConvex.obj
 0001:0001c390       ??_E?$LocalConvex@VConvexHullV@Gu@physx@@@Gu@physx@@UEAAPEAXI@Z 000000018001d390 f i GuMTD.obj
 0001:0001c390       ??_E?$LocalConvex@VTriangleV@Gu@physx@@@Gu@physx@@UEAAPEAXI@Z 000000018001d390 f i GuSweepTests.obj
 0001:0001c390       ??_EGjkConvexBase@Gu@physx@@UEAAPEAXI@Z 000000018001d390 f i GuMTD.obj
 0001:0001c390       ??_G?$LocalConvex@VBoxV@Gu@physx@@@Gu@physx@@UEAAPEAXI@Z 000000018001d390 f i GuSweepTests.obj
 0001:0001c390       ??_G?$LocalConvex@VCapsuleV@Gu@physx@@@Gu@physx@@UEAAPEAXI@Z 000000018001d390 f i GuMTD.obj
 0001:0001c390       ??_G?$LocalConvex@VConvexHullNoScaleV@Gu@physx@@@Gu@physx@@UEAAPEAXI@Z 000000018001d390 f i GuPCMContactBoxConvex.obj
 0001:0001c390       ??_G?$LocalConvex@VConvexHullV@Gu@physx@@@Gu@physx@@UEAAPEAXI@Z 000000018001d390 f i GuMTD.obj
 0001:0001c390       ??_G?$LocalConvex@VTriangleV@Gu@physx@@@Gu@physx@@UEAAPEAXI@Z 000000018001d390 f i GuSweepTests.obj
 0001:0001c390       ??_GGjkConvexBase@Gu@physx@@UEAAPEAXI@Z 000000018001d390 f i GuMTD.obj
 0001:0001cb10       ?clearManifold@MultiplePersistentContactManifold@Gu@physx@@QEAAXXZ 000000018001db10 f i GuMTD.obj
 0001:00020440       ?getAxes@SeparatingAxes@Gu@physx@@QEBAPEBVPxVec3@3@XZ 0000000180021440 f i GuMTD.obj
 0001:00020450       ?getCenter@?$LocalConvex@VBoxV@Gu@physx@@@Gu@physx@@UEBA?AT__m128@@XZ 0000000180021450 f i GuSweepTests.obj
 0001:00020450       ?getCenter@?$LocalConvex@VCapsuleV@Gu@physx@@@Gu@physx@@UEBA?AT__m128@@XZ 0000000180021450 f i GuMTD.obj
 0001:00020450       ?getCenter@?$LocalConvex@VConvexHullNoScaleV@Gu@physx@@@Gu@physx@@UEBA?AT__m128@@XZ 0000000180021450 f i GuPCMContactBoxConvex.obj
 0001:00020450       ?getCenter@?$LocalConvex@VConvexHullV@Gu@physx@@@Gu@physx@@UEBA?AT__m128@@XZ 0000000180021450 f i GuMTD.obj
 0001:00020450       ?getCenter@?$LocalConvex@VTriangleV@Gu@physx@@@Gu@physx@@UEBA?AT__m128@@XZ 0000000180021450 f i GuSweepTests.obj
 0001:00020460       ?getEmptyManifold@MultiplePersistentContactManifold@Gu@physx@@QEAAPEAVSinglePersistentContactManifold@23@XZ 0000000180021460 f i GuMTD.obj
 0001:00020480       ?getManifold@MultiplePersistentContactManifold@Gu@physx@@QEAAPEAVSinglePersistentContactManifold@23@I@Z 0000000180021480 f i GuMTD.obj
 0001:000204a0       ?getSweepMargin@?$LocalConvex@VCapsuleV@Gu@physx@@@Gu@physx@@UEBA?AT__m128@@XZ 00000001800214a0 f i GuMTD.obj
 0001:000204a0       ?getSweepMargin@?$RelativeConvex@VCapsuleV@Gu@physx@@@Gu@physx@@UEBA?AT__m128@@XZ 00000001800214a0 f i GuCCDSweepPrimitives.obj
 0001:000204b0       ?getSweepMargin@?$LocalConvex@VBoxV@Gu@physx@@@Gu@physx@@UEBA?AT__m128@@XZ 00000001800214b0 f i GuSweepTests.obj
 0001:000204b0       ?getSweepMargin@?$LocalConvex@VConvexHullNoScaleV@Gu@physx@@@Gu@physx@@UEBA?AT__m128@@XZ 00000001800214b0 f i GuPCMContactBoxConvex.obj
 0001:000204b0       ?getSweepMargin@?$LocalConvex@VConvexHullV@Gu@physx@@@Gu@physx@@UEBA?AT__m128@@XZ 00000001800214b0 f i GuMTD.obj
 0001:000204b0       ?getSweepMargin@?$RelativeConvex@VBoxV@Gu@physx@@@Gu@physx@@UEBA?AT__m128@@XZ 00000001800214b0 f i GuOverlapTests.obj
 0001:000204b0       ?getSweepMargin@?$RelativeConvex@VConvexHullNoScaleV@Gu@physx@@@Gu@physx@@UEBA?AT__m128@@XZ 00000001800214b0 f i GuPCMContactConvexConvex.obj
 0001:000204b0       ?getSweepMargin@?$RelativeConvex@VConvexHullV@Gu@physx@@@Gu@physx@@UEBA?AT__m128@@XZ 00000001800214b0 f i GuOverlapTests.obj
 0001:000204d0       ?hillClimbing@ConvexHullV@Gu@physx@@QEBAIAEBT__m128@@@Z 00000001800214d0 f i GuMTD.obj
 0001:00020700       ?initialize@MultiplePersistentContactManifold@Gu@physx@@QEAAXXZ 0000000180021700 f i GuMTD.obj
 0001:00020760       ?invalidate@MultiplePersistentContactManifold@Gu@physx@@QEAAIAEBVPsTransformV@aos@shdfnd@3@AEBT__m128@@1@Z 0000000180021760 f i GuMTD.obj
 0001:000207e0       ?invalidate@MultiplePersistentContactManifold@Gu@physx@@QEAAIAEBVPsTransformV@aos@shdfnd@3@AEBT__m128@@@Z 00000001800217e0 f i GuMTD.obj
 0001:00020860       ?maxTransformPositionDelta@MultiplePersistentContactManifold@Gu@physx@@QEAA?AT__m128@@AEBT4@@Z 0000000180021860 f i GuMTD.obj
 0001:000208a0       ?maxTransformQuatDelta@MultiplePersistentContactManifold@Gu@physx@@QEAA?AT__m128@@AEBT4@@Z 00000001800218a0 f i GuMTD.obj
 0001:000208e0       ?pointConvexDistance@@YA_NAEAVPxVec3@physx@@0AEAMAEBV12@PEBVConvexMesh@Gu@2@AEBVPxMeshScale@2@AEBVPxTransform@2@@Z 00000001800218e0 f   GuMTD.obj
 0001:000216b0       ?reduceManifoldContactsInDifferentPatches@MultiplePersistentContactManifold@Gu@physx@@QEAAIPEAPEAUPCMContactPatch@23@IPEAVMeshPersistentContact@23@IAEBT__m128@@@Z 00000001800226b0 f i GuMTD.obj
 0001:00021820       ?refineContactPatchConnective@MultiplePersistentContactManifold@Gu@physx@@QEAAXPEAPEAUPCMContactPatch@23@IPEAVMeshPersistentContact@23@AEBT__m128@@@Z 0000000180022820 f i GuMTD.obj
 0001:00021910       ?refreshManifold@MultiplePersistentContactManifold@Gu@physx@@QEAAXAEBVPsMatTransformV@aos@shdfnd@3@AEBT__m128@@1@Z 0000000180022910 f i GuMTD.obj
 0001:00021a10       ?reset@SeparatingAxes@Gu@physx@@QEAAXXZ 0000000180022a10 f i GuMTD.obj
 0001:00021a20       ?setRelativeTransform@MultiplePersistentContactManifold@Gu@physx@@QEAAXAEBVPsTransformV@aos@shdfnd@3@@Z 0000000180022a20 f i GuMTD.obj
 0001:00021a30       ?support@?$LocalConvex@VCapsuleV@Gu@physx@@@Gu@physx@@UEBA?AT__m128@@AEBT4@@Z 0000000180022a30 f i GuMTD.obj
 0001:00021a90       ?support@?$LocalConvex@VCapsuleV@Gu@physx@@@Gu@physx@@UEBA?AT__m128@@AEBT4@AEAH@Z 0000000180022a90 f i GuMTD.obj
 0001:00021b00       ?support@?$LocalConvex@VConvexHullV@Gu@physx@@@Gu@physx@@UEBA?AT__m128@@AEBT4@@Z 0000000180022b00 f i GuMTD.obj
 0001:00021be0       ?support@?$LocalConvex@VConvexHullV@Gu@physx@@@Gu@physx@@UEBA?AT__m128@@AEBT4@AEAH@Z 0000000180022be0 f i GuMTD.obj
 0001:00021cb0       ?supportPoint@?$LocalConvex@VCapsuleV@Gu@physx@@@Gu@physx@@UEBA?AT__m128@@H@Z 0000000180022cb0 f i GuMTD.obj
 0001:00021ce0       ?supportPoint@?$LocalConvex@VConvexHullV@Gu@physx@@@Gu@physx@@UEBA?AT__m128@@H@Z 0000000180022ce0 f i GuMTD.obj
 0001:00021d30       ?supportVertexIndex@ConvexHullV@Gu@physx@@QEBAIAEBT__m128@@@Z 0000000180022d30 f i GuMTD.obj
 0001:00021fb0       ?toBuffer@MultiplePersistentContactManifold@Gu@physx@@QEAAXPEIAE@Z 0000000180022fb0 f i GuMTD.obj
 0001:00022090       ?supportPoint@?$RelativeConvex@VBoxV@Gu@physx@@@Gu@physx@@UEBA?AT__m128@@H@Z 0000000180023090 f i GuOverlapTests.obj
 0001:00022100       ?support@?$RelativeConvex@VBoxV@Gu@physx@@@Gu@physx@@UEBA?AT__m128@@AEBT4@@Z 0000000180023100 f i GuOverlapTests.obj
 0001:00022180       ?support@?$RelativeConvex@VBoxV@Gu@physx@@@Gu@physx@@UEBA?AT__m128@@AEBT4@AEAH@Z 0000000180023180 f i GuOverlapTests.obj
 0001:00022210       ?getCenter@?$RelativeConvex@VBoxV@Gu@physx@@@Gu@physx@@UEBA?AT__m128@@XZ 0000000180023210 f i GuOverlapTests.obj
 0001:00022210       ?getCenter@?$RelativeConvex@VCapsuleV@Gu@physx@@@Gu@physx@@UEBA?AT__m128@@XZ 0000000180023210 f i GuCCDSweepPrimitives.obj
 0001:00022210       ?getCenter@?$RelativeConvex@VConvexHullNoScaleV@Gu@physx@@@Gu@physx@@UEBA?AT__m128@@XZ 0000000180023210 f i GuPCMContactConvexConvex.obj
 0001:00022210       ?getCenter@?$RelativeConvex@VConvexHullV@Gu@physx@@@Gu@physx@@UEBA?AT__m128@@XZ 0000000180023210 f i GuOverlapTests.obj
 0001:00022210       ?getCenter@?$RelativeConvex@VTriangleV@Gu@physx@@@Gu@physx@@UEBA?AT__m128@@XZ 0000000180023210 f i GuCCDSweepPrimitives.obj
 0001:00022250       ??_E?$RelativeConvex@VBoxV@Gu@physx@@@Gu@physx@@UEAAPEAXI@Z 0000000180023250 f i GuOverlapTests.obj
 0001:00022250       ??_E?$RelativeConvex@VCapsuleV@Gu@physx@@@Gu@physx@@UEAAPEAXI@Z 0000000180023250 f i GuCCDSweepPrimitives.obj
 0001:00022250       ??_E?$RelativeConvex@VConvexHullNoScaleV@Gu@physx@@@Gu@physx@@UEAAPEAXI@Z 0000000180023250 f i GuPCMContactConvexConvex.obj
 0001:00022250       ??_E?$RelativeConvex@VConvexHullV@Gu@physx@@@Gu@physx@@UEAAPEAXI@Z 0000000180023250 f i GuOverlapTests.obj
 0001:00022250       ??_E?$RelativeConvex@VTriangleV@Gu@physx@@@Gu@physx@@UEAAPEAXI@Z 0000000180023250 f i GuCCDSweepPrimitives.obj
 0001:00022250       ??_G?$RelativeConvex@VBoxV@Gu@physx@@@Gu@physx@@UEAAPEAXI@Z 0000000180023250 f i GuOverlapTests.obj
 0001:00022250       ??_G?$RelativeConvex@VCapsuleV@Gu@physx@@@Gu@physx@@UEAAPEAXI@Z 0000000180023250 f i GuCCDSweepPrimitives.obj
 0001:00022250       ??_G?$RelativeConvex@VConvexHullNoScaleV@Gu@physx@@@Gu@physx@@UEAAPEAXI@Z 0000000180023250 f i GuPCMContactConvexConvex.obj
 0001:00022250       ??_G?$RelativeConvex@VConvexHullV@Gu@physx@@@Gu@physx@@UEAAPEAXI@Z 0000000180023250 f i GuOverlapTests.obj
 0001:00022250       ??_G?$RelativeConvex@VTriangleV@Gu@physx@@@Gu@physx@@UEAAPEAXI@Z 0000000180023250 f i GuCCDSweepPrimitives.obj
 0001:000243f0       ?supportPoint@?$RelativeConvex@VConvexHullV@Gu@physx@@@Gu@physx@@UEBA?AT__m128@@H@Z 00000001800253f0 f i GuOverlapTests.obj
 0001:00024470       ?support@?$RelativeConvex@VConvexHullV@Gu@physx@@@Gu@physx@@UEBA?AT__m128@@AEBT4@@Z 0000000180025470 f i GuOverlapTests.obj
 0001:000245a0       ?support@?$RelativeConvex@VConvexHullV@Gu@physx@@@Gu@physx@@UEBA?AT__m128@@AEBT4@AEAH@Z 00000001800255a0 f i GuOverlapTests.obj
 0001:00024700       ??$gjk@U?$RelativeConvex@VBoxV@Gu@physx@@@Gu@physx@@U?$LocalConvex@VConvexHullV@Gu@physx@@@23@@Gu@physx@@YA?AW4GjkStatus@01@AEBU?$RelativeConvex@VBoxV@Gu@physx@@@01@AEBU?$LocalConvex@VConvexHullV@Gu@physx@@@01@AEBT__m128@@2AEAT5@333@Z 0000000180025700 f i GuOverlapTests.obj
 0001:000254c0       ??$gjk@U?$RelativeConvex@VConvexHullV@Gu@physx@@@Gu@physx@@U?$LocalConvex@VConvexHullV@Gu@physx@@@23@@Gu@physx@@YA?AW4GjkStatus@01@AEBU?$RelativeConvex@VConvexHullV@Gu@physx@@@01@AEBU?$LocalConvex@VConvexHullV@Gu@physx@@@01@AEBT__m128@@2AEAT5@333@Z 00000001800264c0 f i GuOverlapTests.obj
 0001:00026350       ?ComputeCubemapNearestOffset@physx@@YAIAEBVPxVec3@1@I@Z 0000000180027350 f i GuOverlapTests.obj
 0001:00026450       ?getOverlapFuncTable@Gu@physx@@YAPEAY06Q6A_NAEBVPxGeometry@2@AEBVPxTransform@2@01PEAUTriggerCache@12@@ZXZ 0000000180027450 f   GuOverlapTests.obj
 0001:00027f30       ?registerHeightFields@Gu@physx@@YAXXZ 0000000180028f30 f   GuOverlapTests.obj
 0001:00027f80       ?raycast_capsule@@YAIAEBVPxGeometry@physx@@AEBVPxTransform@2@AEBVPxVec3@2@2MV?$PxFlags@W4Enum@PxHitFlag@physx@@G@2@IPEIAUPxRaycastHit@2@@Z 0000000180028f80 f   GuRaycastTests.obj
 0001:000284e0       ?raycast_plane@@YAIAEBVPxGeometry@physx@@AEBVPxTransform@2@AEBVPxVec3@2@2MV?$PxFlags@W4Enum@PxHitFlag@physx@@G@2@IPEIAUPxRaycastHit@2@@Z 00000001800294e0 f   GuRaycastTests.obj
 0001:00028650       ?raycast_convexMesh@@YAIAEBVPxGeometry@physx@@AEBVPxTransform@2@AEBVPxVec3@2@2MV?$PxFlags@W4Enum@PxHitFlag@physx@@G@2@IPEIAUPxRaycastHit@2@@Z 0000000180029650 f   GuRaycastTests.obj
 0001:00029180       ?raycast_triangleMesh@@YAIAEBVPxGeometry@physx@@AEBVPxTransform@2@AEBVPxVec3@2@2MV?$PxFlags@W4Enum@PxHitFlag@physx@@G@2@IPEIAUPxRaycastHit@2@@Z 000000018002a180 f   GuRaycastTests.obj
 0001:00029240       ?raycast_box@@YAIAEBVPxGeometry@physx@@AEBVPxTransform@2@AEBVPxVec3@2@2MV?$PxFlags@W4Enum@PxHitFlag@physx@@G@2@IPEIAUPxRaycastHit@2@@Z 000000018002a240 f   GuRaycastTests.obj
 0001:00029870       ?raycast_sphere@@YAIAEBVPxGeometry@physx@@AEBVPxTransform@2@AEBVPxVec3@2@2MV?$PxFlags@W4Enum@PxHitFlag@physx@@G@2@IPEIAUPxRaycastHit@2@@Z 000000018002a870 f   GuRaycastTests.obj
 0001:0002ac60       ??Dphysx@@YA?AVMatrix34@Cm@0@AEBVPxMeshScale@0@AEBVPxTransform@0@@Z 000000018002bc60 f i GuRaycastTests.obj
 0001:0002b8a0       ?getRaycastFuncTable@Gu@physx@@YAAEAY06Q6AIAEBVPxGeometry@2@AEBVPxTransform@2@AEBVPxVec3@2@2MV?$PxFlags@W4Enum@PxHitFlag@physx@@G@2@IPEIAUPxRaycastHit@2@@ZXZ 000000018002c8a0 f   GuRaycastTests.obj
 0001:0002b8b0       ?raycast_heightField@@YAIAEBVPxGeometry@physx@@AEBVPxTransform@2@AEBVPxVec3@2@2MV?$PxFlags@W4Enum@PxHitFlag@physx@@G@2@IPEIAUPxRaycastHit@2@@Z 000000018002c8b0 f   GuRaycastTests.obj
 0001:0002bff0       ?registerHeightFields_Raycasts@@YAXXZ 000000018002cff0 f   GuRaycastTests.obj
 0001:0002c000       ?ReadHeader@Gu@physx@@YA_NEEEEAEAIAEA_NAEAVPxInputStream@2@@Z 000000018002d000 f   GuSerialize.obj
 0001:0002c160       ?ReadIndices@Gu@physx@@YAXGIPEAGAEAVPxInputStream@2@_N@Z 000000018002d160 f   GuSerialize.obj
 0001:0002c2b0       ?StoreIndices@Gu@physx@@YAXGIPEBGAEAVPxOutputStream@2@_N@Z 000000018002d2b0 f   GuSerialize.obj
 0001:0002c3a0       ?StoreIndices@Gu@physx@@YAXIIPEBIAEAVPxOutputStream@2@_N@Z 000000018002d3a0 f   GuSerialize.obj
 0001:0002c530       ?WriteHeader@Gu@physx@@YA_NEEEEI_NAEAVPxOutputStream@2@@Z 000000018002d530 f   GuSerialize.obj
 0001:0002c660       ?computeMaxIndex@physx@@YAGPEBGI@Z 000000018002d660 f   GuSerialize.obj
 0001:0002c690       ?computeMaxIndex@physx@@YAIPEBII@Z 000000018002d690 f   GuSerialize.obj
 0001:0002c6c0       ?readChunk@physx@@YAXAEAC000AEAVPxInputStream@1@@Z 000000018002d6c0 f   GuSerialize.obj
 0001:0002c740       ?readDword@physx@@YAI_NAEAVPxInputStream@1@@Z 000000018002d740 f   GuSerialize.obj
 0001:0002c7a0       ?readFloat@physx@@YAM_NAEAVPxInputStream@1@@Z 000000018002d7a0 f   GuSerialize.obj
 0001:0002c800       ?readFloatBuffer@physx@@YA_NPEAMI_NAEAVPxInputStream@1@@Z 000000018002d800 f   GuSerialize.obj
 0001:0002c880       ?readHeader@physx@@YA_NCCCCAEAIAEA_NAEAVPxInputStream@1@@Z 000000018002d880 f   GuSerialize.obj
 0001:0002c9d0       ?readIndices@physx@@YAXIIPEAIAEAVPxInputStream@1@_N@Z 000000018002d9d0 f   GuSerialize.obj
 0001:0002cb00       ?readWord@physx@@YAG_NAEAVPxInputStream@1@@Z 000000018002db00 f   GuSerialize.obj
 0001:0002cb40       ?readWordBuffer@physx@@YAXPEAGI_NAEAVPxInputStream@1@@Z 000000018002db40 f   GuSerialize.obj
 0001:0002cbb0       ?storeIndices@physx@@YAXIIPEBIAEAVPxOutputStream@1@_N@Z 000000018002dbb0 f   GuSerialize.obj
 0001:0002ccd0       ?writeDword@physx@@YAXI_NAEAVPxOutputStream@1@@Z 000000018002dcd0 f   GuSerialize.obj
 0001:0002cd20       ?writeFloat@physx@@YAXM_NAEAVPxOutputStream@1@@Z 000000018002dd20 f   GuSerialize.obj
 0001:0002cd70       ?writeFloatBuffer@physx@@YAXPEBMI_NAEAVPxOutputStream@1@@Z 000000018002dd70 f   GuSerialize.obj
 0001:0002ce10       ?writeHeader@physx@@YA_NCCCCI_NAEAVPxOutputStream@1@@Z 000000018002de10 f   GuSerialize.obj
 0001:0002cf40       ?writeWord@physx@@YAXG_NAEAVPxOutputStream@1@@Z 000000018002df40 f   GuSerialize.obj
 0001:0002cf80       ?writeWordBuffer@physx@@YAXPEBGI_NAEAVPxOutputStream@1@@Z 000000018002df80 f   GuSerialize.obj
 0001:0002d000       ??Dphysx@@YA?AVMatrix34@Cm@0@AEBVPxTransform@0@AEBVPxMeshScale@0@@Z 000000018002e000 f i GuSweepMTD.obj
 0001:0002d650       ??_E?$MeshHitCallback@UPxRaycastHit@physx@@@Gu@physx@@UEAAPEAXI@Z 000000018002e650 f i GuSweepMTD.obj
 0001:0002d650       ??_G?$MeshHitCallback@UPxRaycastHit@physx@@@Gu@physx@@UEAAPEAXI@Z 000000018002e650 f i GuSweepMTD.obj
 0001:0002d680       ??_EMeshMTDGenerationCallback@@UEAAPEAXI@Z 000000018002e680 f i GuSweepMTD.obj
 0001:0002d680       ??_GMeshMTDGenerationCallback@@UEAAPEAXI@Z 000000018002e680 f i GuSweepMTD.obj
 0001:0002d6b0       ??_EMidPhaseQueryLocalReport@@UEAAPEAXI@Z 000000018002e6b0 f i GuSweepMTD.obj
 0001:0002d6b0       ??_GMidPhaseQueryLocalReport@@UEAAPEAXI@Z 000000018002e6b0 f i GuSweepMTD.obj
 0001:0002d6e0       ?computeBox_HeightFieldMTD@Gu@physx@@YA_NAEBVPxHeightFieldGeometry@2@AEBVPxTransform@2@AEBVBox@12@1M_NIAEAUPxSweepHit@2@@Z 000000018002e6e0 f   GuSweepMTD.obj
 0001:0002e570       ?computeBox_TriangleMeshMTD@Gu@physx@@YA_NAEBVPxTriangleMeshGeometry@2@AEBVPxTransform@2@AEBVBox@12@1M_NAEAUPxSweepHit@2@@Z 000000018002f570 f   GuSweepMTD.obj
 0001:0002f200       ?computeCapsule_CapsuleMTD@Gu@physx@@YA_NAEBVCapsule@12@0AEAUPxSweepHit@2@@Z 0000000180030200 f   GuSweepMTD.obj
 0001:0002f440       ?computeCapsule_HeightFieldMTD@Gu@physx@@YA_NAEBVPxHeightFieldGeometry@2@AEBVPxTransform@2@AEAVCapsuleV@12@M_NIAEAUPxSweepHit@2@@Z 0000000180030440 f   GuSweepMTD.obj
 0001:0002fc90       ?computeCapsule_TriangleMeshMTD@Gu@physx@@YA_NAEBVPxTriangleMeshGeometry@2@AEBVPxTransform@2@AEAVCapsuleV@12@M_NAEAUPxSweepHit@2@@Z 0000000180030c90 f   GuSweepMTD.obj
 0001:00030560       ?computeConvex_HeightFieldMTD@Gu@physx@@YA_NAEBVPxHeightFieldGeometry@2@AEBVPxTransform@2@AEBVPxConvexMeshGeometry@2@1M_NIAEAUPxSweepHit@2@@Z 0000000180031560 f   GuSweepMTD.obj
 0001:00031900       ?computeConvex_TriangleMeshMTD@Gu@physx@@YA_NAEBVPxTriangleMeshGeometry@2@AEBVPxTransform@2@AEBVPxConvexMeshGeometry@2@1M_NAEAUPxSweepHit@2@@Z 0000000180032900 f   GuSweepMTD.obj
 0001:00032b90       ?computePlane_BoxMTD@Gu@physx@@YA_NAEBVPxPlane@2@AEBVBox@12@AEAUPxSweepHit@2@@Z 0000000180033b90 f   GuSweepMTD.obj
 0001:00032e30       ?computePlane_CapsuleMTD@Gu@physx@@YA_NAEBVPxPlane@2@AEBVCapsule@12@AEAUPxSweepHit@2@@Z 0000000180033e30 f   GuSweepMTD.obj
 0001:00032f40       ?computePlane_ConvexMTD@Gu@physx@@YA_NAEBVPxPlane@2@AEBVPxConvexMeshGeometry@2@AEBVPxTransform@2@AEAUPxSweepHit@2@@Z 0000000180033f40 f   GuSweepMTD.obj
 0001:00033b00       ?computeSphere_CapsuleMTD@Gu@physx@@YA_NAEBVSphere@12@AEBVCapsule@12@AEAUPxSweepHit@2@@Z 0000000180034b00 f   GuSweepMTD.obj
 0001:00033cb0       ?computeSphere_SphereMTD@Gu@physx@@YA_NAEBVSphere@12@0AEAUPxSweepHit@2@@Z 0000000180034cb0 f   GuSweepMTD.obj
 0001:00033da0       ?getInverse@PxMat33@physx@@QEBA?BV12@XZ 0000000180034da0 f i GuSweepMTD.obj
 0001:00033ff0       ?growAndPushBack@?$Array@IVNamedAllocator@shdfnd@physx@@@shdfnd@physx@@IEAAAEAIAEBI@Z 0000000180034ff0 f i GuSweepMTD.obj
 0001:000340e0       ?init@FastVertex2ShapeScaling@Cm@physx@@QEAAXAEBVPxVec3@3@AEBVPxQuat@3@@Z 00000001800350e0 f i GuSweepMTD.obj
 0001:000344d0       ?onEvent@MidPhaseQueryLocalReport@@UEAA_NIPEAI@Z 00000001800354d0 f i GuSweepMTD.obj
 0001:00034540       ?processHit@MeshMTDGenerationCallback@@UEAA_NAEBUPxRaycastHit@physx@@AEBVPxVec3@3@11AEAMPEBI@Z 0000000180035540 f i GuSweepMTD.obj
 0001:00034590       ?recreate@?$Array@IVNamedAllocator@shdfnd@physx@@@shdfnd@physx@@IEAAXI@Z 0000000180035590 f i GuSweepMTD.obj
 0001:00034640       ??$gjkPenetration@U?$LocalConvex@VCapsuleV@Gu@physx@@@Gu@physx@@U?$LocalConvex@VConvexHullV@Gu@physx@@@23@@Gu@physx@@YA?AW4GjkStatus@01@AEBU?$LocalConvex@VCapsuleV@Gu@physx@@@01@AEBU?$LocalConvex@VConvexHullV@Gu@physx@@@01@AEBT__m128@@2_NPEIAE4AEAEAEAUGjkOutput@01@@Z 0000000180035640 f i GuSweepSharedTests.obj
 0001:00035c50       ??$gjkPenetration@U?$RelativeConvex@VBoxV@Gu@physx@@@Gu@physx@@U?$LocalConvex@VConvexHullV@Gu@physx@@@23@@Gu@physx@@YA?AW4GjkStatus@01@AEBU?$RelativeConvex@VBoxV@Gu@physx@@@01@AEBU?$LocalConvex@VConvexHullV@Gu@physx@@@01@AEBT__m128@@2_NPEIAE4AEAEAEAUGjkOutput@01@@Z 0000000180036c50 f i GuSweepSharedTests.obj
 0001:000372d0       ??$gjkPenetration@U?$RelativeConvex@VConvexHullV@Gu@physx@@@Gu@physx@@U?$LocalConvex@VConvexHullV@Gu@physx@@@23@@Gu@physx@@YA?AW4GjkStatus@01@AEBU?$RelativeConvex@VConvexHullV@Gu@physx@@@01@AEBU?$LocalConvex@VConvexHullV@Gu@physx@@@01@AEBT__m128@@2_NPEIAE4AEAEAEAUGjkOutput@01@@Z 00000001800382d0 f i GuSweepSharedTests.obj
 0001:000389a0       ??$gjkRaycast@U?$LocalConvex@VCapsuleV@Gu@physx@@@Gu@physx@@U?$LocalConvex@VConvexHullV@Gu@physx@@@23@@Gu@physx@@YA_NAEBU?$LocalConvex@VCapsuleV@Gu@physx@@@01@AEBU?$LocalConvex@VConvexHullV@Gu@physx@@@01@AEBT__m128@@222AEAT4@33M@Z 00000001800399a0 f i GuSweepSharedTests.obj
 0001:00039700       ??$gjkRaycast@U?$RelativeConvex@VBoxV@Gu@physx@@@Gu@physx@@U?$LocalConvex@VConvexHullV@Gu@physx@@@23@@Gu@physx@@YA_NAEBU?$RelativeConvex@VBoxV@Gu@physx@@@01@AEBU?$LocalConvex@VConvexHullV@Gu@physx@@@01@AEBT__m128@@222AEAT4@33M@Z 000000018003a700 f i GuSweepSharedTests.obj
 0001:0003a500       ??$gjkRaycast@U?$RelativeConvex@VConvexHullV@Gu@physx@@@Gu@physx@@U?$LocalConvex@VConvexHullV@Gu@physx@@@23@@Gu@physx@@YA_NAEBU?$RelativeConvex@VConvexHullV@Gu@physx@@@01@AEBU?$LocalConvex@VConvexHullV@Gu@physx@@@01@AEBT__m128@@222AEAT4@33M@Z 000000018003b500 f i GuSweepSharedTests.obj
 0001:0003b2f0       ??$gjkRaycastPenetration@U?$RelativeConvex@VConvexHullV@Gu@physx@@@Gu@physx@@U?$LocalConvex@VConvexHullV@Gu@physx@@@23@@Gu@physx@@YA_NAEBU?$RelativeConvex@VConvexHullV@Gu@physx@@@01@AEBU?$LocalConvex@VConvexHullV@Gu@physx@@@01@AEBT__m128@@222AEAT4@33M_N@Z 000000018003c2f0 f i GuSweepSharedTests.obj
 0001:0003bec0       ?sweepBox_ConvexGeom@@YA_NAEBVPxGeometry@physx@@AEBVPxTransform@2@AEBVPxBoxGeometry@2@1AEBVBox@Gu@2@AEBVPxVec3@2@MAEAUPxSweepHit@2@V?$PxFlags@W4Enum@PxHitFlag@physx@@G@2@M@Z 000000018003cec0 f   GuSweepSharedTests.obj
 0001:0003ccf0       ?sweepBox_PlaneGeom@@YA_NAEBVPxGeometry@physx@@AEBVPxTransform@2@AEBVPxBoxGeometry@2@1AEBVBox@Gu@2@AEBVPxVec3@2@MAEAUPxSweepHit@2@V?$PxFlags@W4Enum@PxHitFlag@physx@@G@2@M@Z 000000018003dcf0 f   GuSweepSharedTests.obj
 0001:0003d0d0       ?sweepCapsuleTriangles@Gu@physx@@YA_NIPEBVPxTriangle@2@_NAEBVPxCapsuleGeometry@2@AEBVPxTransform@2@AEBVPxVec3@2@MAEAUPxSweepHit@2@PEBIMV?$PxFlags@W4Enum@PxHitFlag@physx@@G@2@@Z 000000018003e0d0 f   GuSweepSharedTests.obj
 0001:0003d2c0       ?sweepCapsule_CapsuleGeom@@YA_NAEBVPxGeometry@physx@@AEBVPxTransform@2@AEBVPxCapsuleGeometry@2@1AEBVCapsule@Gu@2@AEBVPxVec3@2@MAEAUPxSweepHit@2@V?$PxFlags@W4Enum@PxHitFlag@physx@@G@2@M@Z 000000018003e2c0 f   GuSweepSharedTests.obj
 0001:0003d4a0       ?sweepCapsule_ConvexGeom@@YA_NAEBVPxGeometry@physx@@AEBVPxTransform@2@AEBVPxCapsuleGeometry@2@1AEBVCapsule@Gu@2@AEBVPxVec3@2@MAEAUPxSweepHit@2@V?$PxFlags@W4Enum@PxHitFlag@physx@@G@2@M@Z 000000018003e4a0 f   GuSweepSharedTests.obj
 0001:0003e1f0       ?sweepCapsule_PlaneGeom@@YA_NAEBVPxGeometry@physx@@AEBVPxTransform@2@AEBVPxCapsuleGeometry@2@1AEBVCapsule@Gu@2@AEBVPxVec3@2@MAEAUPxSweepHit@2@V?$PxFlags@W4Enum@PxHitFlag@physx@@G@2@M@Z 000000018003f1f0 f   GuSweepSharedTests.obj
 0001:0003e4d0       ?sweepCapsule_SphereGeom@@YA_NAEBVPxGeometry@physx@@AEBVPxTransform@2@AEBVPxCapsuleGeometry@2@1AEBVCapsule@Gu@2@AEBVPxVec3@2@MAEAUPxSweepHit@2@V?$PxFlags@W4Enum@PxHitFlag@physx@@G@2@M@Z 000000018003f4d0 f   GuSweepSharedTests.obj
 0001:0003e670       ?sweepConvex_BoxGeom@@YA_NAEBVPxGeometry@physx@@AEBVPxTransform@2@AEBVPxConvexMeshGeometry@2@1AEBVPxVec3@2@MAEAUPxSweepHit@2@V?$PxFlags@W4Enum@PxHitFlag@physx@@G@2@M@Z 000000018003f670 f   GuSweepSharedTests.obj
 0001:0003e880       ?sweepConvex_CapsuleGeom@@YA_NAEBVPxGeometry@physx@@AEBVPxTransform@2@AEBVPxConvexMeshGeometry@2@1AEBVPxVec3@2@MAEAUPxSweepHit@2@V?$PxFlags@W4Enum@PxHitFlag@physx@@G@2@M@Z 000000018003f880 f   GuSweepSharedTests.obj
 0001:0003eaa0       ?sweepConvex_ConvexGeom@@YA_NAEBVPxGeometry@physx@@AEBVPxTransform@2@AEBVPxConvexMeshGeometry@2@1AEBVPxVec3@2@MAEAUPxSweepHit@2@V?$PxFlags@W4Enum@PxHitFlag@physx@@G@2@M@Z 000000018003faa0 f   GuSweepSharedTests.obj
 0001:0003faa0       ?sweepConvex_PlaneGeom@@YA_NAEBVPxGeometry@physx@@AEBVPxTransform@2@AEBVPxConvexMeshGeometry@2@1AEBVPxVec3@2@MAEAUPxSweepHit@2@V?$PxFlags@W4Enum@PxHitFlag@physx@@G@2@M@Z 0000000180040aa0 f   GuSweepSharedTests.obj
 0001:0003fee0       ?sweepConvex_SphereGeom@@YA_NAEBVPxGeometry@physx@@AEBVPxTransform@2@AEBVPxConvexMeshGeometry@2@1AEBVPxVec3@2@MAEAUPxSweepHit@2@V?$PxFlags@W4Enum@PxHitFlag@physx@@G@2@M@Z 0000000180040ee0 f   GuSweepSharedTests.obj
 0001:00040b10       ?sweepCapsule_BoxGeom@@YA_NAEBVPxGeometry@physx@@AEBVPxTransform@2@AEBVPxCapsuleGeometry@2@1AEBVCapsule@Gu@2@AEBVPxVec3@2@MAEAUPxSweepHit@2@V?$PxFlags@W4Enum@PxHitFlag@physx@@G@2@M@Z 0000000180041b10 f   GuSweepTests.obj
 0001:00041400       ?sweepBox_SphereGeom@@YA_NAEBVPxGeometry@physx@@AEBVPxTransform@2@AEBVPxBoxGeometry@2@1AEBVBox@Gu@2@AEBVPxVec3@2@MAEAUPxSweepHit@2@V?$PxFlags@W4Enum@PxHitFlag@physx@@G@2@M@Z 0000000180042400 f   GuSweepTests.obj
 0001:00041ad0       ?sweepBox_CapsuleGeom@@YA_NAEBVPxGeometry@physx@@AEBVPxTransform@2@AEBVPxBoxGeometry@2@1AEBVBox@Gu@2@AEBVPxVec3@2@MAEAUPxSweepHit@2@V?$PxFlags@W4Enum@PxHitFlag@physx@@G@2@M@Z 0000000180042ad0 f   GuSweepTests.obj
 0001:000423d0       ?sweepBox_BoxGeom@@YA_NAEBVPxGeometry@physx@@AEBVPxTransform@2@AEBVPxBoxGeometry@2@1AEBVBox@Gu@2@AEBVPxVec3@2@MAEAUPxSweepHit@2@V?$PxFlags@W4Enum@PxHitFlag@physx@@G@2@M@Z 00000001800433d0 f   GuSweepTests.obj
 0001:00042d60       ??$gjkPenetration@U?$LocalConvex@VCapsuleV@Gu@physx@@@Gu@physx@@U?$LocalConvex@VBoxV@Gu@physx@@@23@@Gu@physx@@YA?AW4GjkStatus@01@AEBU?$LocalConvex@VCapsuleV@Gu@physx@@@01@AEBU?$LocalConvex@VBoxV@Gu@physx@@@01@AEBT__m128@@2_NPEIAE4AEAEAEAUGjkOutput@01@@Z 0000000180043d60 f i GuSweepTests.obj
 0001:000442d0       ??$gjkPenetration@U?$RelativeConvex@VBoxV@Gu@physx@@@Gu@physx@@U?$LocalConvex@VBoxV@Gu@physx@@@23@@Gu@physx@@YA?AW4GjkStatus@01@AEBU?$RelativeConvex@VBoxV@Gu@physx@@@01@AEBU?$LocalConvex@VBoxV@Gu@physx@@@01@AEBT__m128@@2_NPEIAE4AEAEAEAUGjkOutput@01@@Z 00000001800452d0 f i GuSweepTests.obj
 0001:00045890       ??$gjkRaycast@U?$LocalConvex@VCapsuleV@Gu@physx@@@Gu@physx@@U?$LocalConvex@VBoxV@Gu@physx@@@23@@Gu@physx@@YA_NAEBU?$LocalConvex@VCapsuleV@Gu@physx@@@01@AEBU?$LocalConvex@VBoxV@Gu@physx@@@01@AEBT__m128@@222AEAT4@33M@Z 0000000180046890 f i GuSweepTests.obj
 0001:00046470       ??$gjkRaycast@U?$LocalConvex@VTriangleV@Gu@physx@@@Gu@physx@@U?$LocalConvex@VBoxV@Gu@physx@@@23@@Gu@physx@@YA_NAEBU?$LocalConvex@VTriangleV@Gu@physx@@@01@AEBU?$LocalConvex@VBoxV@Gu@physx@@@01@AEBT__m128@@222AEAT4@33M@Z 0000000180047470 f i GuSweepTests.obj
 0001:000470d0       ??$gjkRaycast@U?$RelativeConvex@VBoxV@Gu@physx@@@Gu@physx@@U?$LocalConvex@VBoxV@Gu@physx@@@23@@Gu@physx@@YA_NAEBU?$RelativeConvex@VBoxV@Gu@physx@@@01@AEBU?$LocalConvex@VBoxV@Gu@physx@@@01@AEBT__m128@@222AEAT4@33M@Z 00000001800480d0 f i GuSweepTests.obj
 0001:00047d10       ?getSweepFuncTable@Gu@physx@@YAAEBUGeomSweepFuncs@12@XZ 0000000180048d10 f   GuSweepTests.obj
 0001:00047d20       ?getSweepMargin@?$LocalConvex@VTriangleV@Gu@physx@@@Gu@physx@@UEBA?AT__m128@@XZ 0000000180048d20 f i GuSweepTests.obj
 0001:00047d20       ?getSweepMargin@?$RelativeConvex@VTriangleV@Gu@physx@@@Gu@physx@@UEBA?AT__m128@@XZ 0000000180048d20 f i GuCCDSweepPrimitives.obj
 0001:00047d30       ?registerHeightFields_Sweeps@@YAXXZ 0000000180048d30 f   GuSweepTests.obj
 0001:00047d70       ?support@?$LocalConvex@VBoxV@Gu@physx@@@Gu@physx@@UEBA?AT__m128@@AEBT4@@Z 0000000180048d70 f i GuSweepTests.obj
 0001:00047da0       ?support@?$LocalConvex@VBoxV@Gu@physx@@@Gu@physx@@UEBA?AT__m128@@AEBT4@AEAH@Z 0000000180048da0 f i GuSweepTests.obj
 0001:00047de0       ?support@?$LocalConvex@VTriangleV@Gu@physx@@@Gu@physx@@UEBA?AT__m128@@AEBT4@@Z 0000000180048de0 f i GuSweepTests.obj
 0001:00047e70       ?support@?$LocalConvex@VTriangleV@Gu@physx@@@Gu@physx@@UEBA?AT__m128@@AEBT4@AEAH@Z 0000000180048e70 f i GuSweepTests.obj
 0001:00047f50       ?supportPoint@?$LocalConvex@VBoxV@Gu@physx@@@Gu@physx@@UEBA?AT__m128@@H@Z 0000000180048f50 f i GuSweepTests.obj
 0001:00047f90       ?supportPoint@?$LocalConvex@VTriangleV@Gu@physx@@@Gu@physx@@UEBA?AT__m128@@H@Z 0000000180048f90 f i GuSweepTests.obj
 0001:00047fb0       ?sweepBoxTriangles@Gu@physx@@YA_NIPEBVPxTriangle@2@_NAEBVPxBoxGeometry@2@AEBVPxTransform@2@AEBVPxVec3@2@MAEAUPxSweepHit@2@PEBIMV?$PxFlags@W4Enum@PxHitFlag@physx@@G@2@@Z 0000000180048fb0 f   GuSweepTests.obj
 0001:00048a40       ??$?_UV?$ReflectionAllocator@VAABBTreeBuildNode@Gu@physx@@@shdfnd@physx@@@UserAllocated@shdfnd@physx@@SAPEAX_KV?$ReflectionAllocator@VAABBTreeBuildNode@Gu@physx@@@12@PEBDH@Z 0000000180049a40 f i GuAABBTreeBuild.obj
 0001:00048ae0       ??$copy@VNamedAllocator@shdfnd@physx@@@?$Array@USlab@NodeAllocator@Gu@physx@@VNamedAllocator@shdfnd@4@@shdfnd@physx@@IEAAXAEBV012@@Z 0000000180049ae0 f i GuAABBTreeBuild.obj
 0001:00048b60       ??0AABBTreeBuildNode@Gu@physx@@QEAA@AEBV012@@Z 0000000180049b60 f i GuAABBTreeBuild.obj
 0001:00048b60       ??4AABBTreeBuildNode@Gu@physx@@QEAAAEAV012@AEBV012@@Z 0000000180049b60 f i GuAABBTreeBuild.obj
 0001:00048ba0       ??0AABBTreeBuildParams@Gu@physx@@QEAA@IIPEBVPxBounds3@2@@Z 0000000180049ba0 f i GuAABBTreeBuild.obj
 0001:00048bc0       ??0BuildStats@Gu@physx@@QEAA@XZ 0000000180049bc0 f i GuAABBTreeBuild.obj
 0001:00048bd0       ??0NodeAllocator@Gu@physx@@QEAA@AEBV012@@Z 0000000180049bd0 f i GuAABBTreeBuild.obj
 0001:00048c40       ??0NodeAllocator@Gu@physx@@QEAA@XZ 0000000180049c40 f   GuAABBTreeBuild.obj
 0001:00048ca0       ??1AABBTreeBuildParams@Gu@physx@@QEAA@XZ 0000000180049ca0 f i GuAABBTreeBuild.obj
 0001:00048ca0       ?reset@AABBTreeBuildParams@Gu@physx@@QEAAXXZ 0000000180049ca0 f i GuAABBTreeBuild.obj
 0001:00048d00       ??1NodeAllocator@Gu@physx@@QEAA@XZ 0000000180049d00 f   GuAABBTreeBuild.obj
 0001:00048d40       ??4AABBTreeBuildParams@Gu@physx@@QEAAAEAV012@AEBV012@@Z 0000000180049d40 f i GuAABBTreeBuild.obj
 0001:00048d60       ??4BuildStats@Gu@physx@@QEAAAEAU012@$$QEAU012@@Z 0000000180049d60 f i GuAABBTreeBuild.obj
 0001:00048d70       ??4BuildStats@Gu@physx@@QEAAAEAU012@AEBU012@@Z 0000000180049d70 f i GuAABBTreeBuild.obj
 0001:00048d80       ??4NodeAllocator@Gu@physx@@QEAAAEAV012@AEBV012@@Z 0000000180049d80 f i GuAABBTreeBuild.obj
 0001:00048e30       ??_FAABBTreeBuildParams@Gu@physx@@QEAAXXZ 0000000180049e30 f i GuAABBTreeBuild.obj
 0001:00048e50       ?_buildHierarchy@AABBTreeBuildNode@Gu@physx@@QEAAXAEAVAABBTreeBuildParams@23@AEAUBuildStats@23@AEAVNodeAllocator@23@QEAI@Z 0000000180049e50 f   GuAABBTreeBuild.obj
 0001:00048ee0       ?allocate@?$Array@USlab@NodeAllocator@Gu@physx@@VNamedAllocator@shdfnd@4@@shdfnd@physx@@IEAAPEAUSlab@NodeAllocator@Gu@3@I@Z 0000000180049ee0 f i GuAABBTreeBuild.obj
 0001:00048f50       ?buildAABBTree@Gu@physx@@YA_NAEAVAABBTreeBuildParams@12@AEAVNodeAllocator@12@AEAUBuildStats@12@AEAPEAI@Z 0000000180049f50 f   GuAABBTreeBuild.obj
 0001:00048fb0       ?getBiNode@NodeAllocator@Gu@physx@@QEAAPEAVAABBTreeBuildNode@23@XZ 0000000180049fb0 f   GuAABBTreeBuild.obj
 0001:000490e0       ?getNbPrimitives@AABBTreeBuildNode@Gu@physx@@QEBAIXZ 000000018004a0e0 f i GuAABBTreeBuild.obj
 0001:000490e0       ?getNbRuntimePrimitives@AABBTreeBuildNode@Gu@physx@@QEBAIXZ 000000018004a0e0 f i GuAABBTreeBuild.obj
 0001:000490e0       ?getNbTriangles@TriangleMesh@Gu@physx@@UEBAIXZ 000000018004a0e0 f i GuTriangleMesh.obj
 0001:000490f0       ?getNeg@AABBTreeBuildNode@Gu@physx@@QEBAPEBV123@XZ 000000018004a0f0 f i GuAABBTreeBuild.obj
 0001:00049110       ?getPrimitives@AABBTreeBuildNode@Gu@physx@@QEAAPEAIPEAI@Z 000000018004a110 f i GuAABBTreeBuild.obj
 0001:00049110       ?getPrimitives@AABBTreeBuildNode@Gu@physx@@QEBAPEBIPEBI@Z 000000018004a110 f i GuAABBTreeBuild.obj
 0001:00049120       ?growAndPushBack@?$Array@USlab@NodeAllocator@Gu@physx@@VNamedAllocator@shdfnd@4@@shdfnd@physx@@IEAAAEAUSlab@NodeAllocator@Gu@3@AEBU4563@@Z 000000018004a120 f i GuAABBTreeBuild.obj
 0001:00049210       ?increaseCount@BuildStats@Gu@physx@@QEAAXI@Z 000000018004a210 f i GuAABBTreeBuild.obj
 0001:00049220       ?init@NodeAllocator@Gu@physx@@QEAAXII@Z 000000018004a220 f   GuAABBTreeBuild.obj
 0001:00049330       ?initAABBTreeBuild@Gu@physx@@YA_NAEAVAABBTreeBuildParams@12@AEAVNodeAllocator@12@AEAUBuildStats@12@AEAPEAI@Z 000000018004a330 f   GuAABBTreeBuild.obj
 0001:00049530       ?isLeaf@AABBTreeBuildNode@Gu@physx@@QEBA_NXZ 000000018004a530 f i GuAABBTreeBuild.obj
 0001:00049540       ?recreate@?$Array@USlab@NodeAllocator@Gu@physx@@VNamedAllocator@shdfnd@4@@shdfnd@physx@@IEAAXI@Z 000000018004a540 f i GuAABBTreeBuild.obj
 0001:000495f0       ?release@NodeAllocator@Gu@physx@@QEAAXXZ 000000018004a5f0 f   GuAABBTreeBuild.obj
 0001:000496a0       ?reset@BuildStats@Gu@physx@@QEAAXXZ 000000018004a6a0 f i GuAABBTreeBuild.obj
 0001:000496b0       ?resize@?$Array@USlab@NodeAllocator@Gu@physx@@VNamedAllocator@shdfnd@4@@shdfnd@physx@@QEAAXIAEBUSlab@NodeAllocator@Gu@3@@Z 000000018004a6b0 f i GuAABBTreeBuild.obj
 0001:00049730       ?setCount@BuildStats@Gu@physx@@QEAAXI@Z 000000018004a730 f i GuAABBTreeBuild.obj
 0001:00049740       ?setNbRunTimePrimitives@AABBTreeBuildNode@Gu@physx@@QEAAXI@Z 000000018004a740 f i GuAABBTreeBuild.obj
 0001:000498b0       ?subdivide@AABBTreeBuildNode@Gu@physx@@QEAAXAEBVAABBTreeBuildParams@23@AEAUBuildStats@23@AEAVNodeAllocator@23@QEAI@Z 000000018004a8b0 f   GuAABBTreeBuild.obj
 0001:00049a90       ??0?$InlineArray@PEBUBVHNode@Gu@physx@@$0BAA@VNamedAllocator@shdfnd@3@@shdfnd@physx@@QEAA@AEBVNamedAllocator@12@@Z 000000018004aa90 f i GuBVHStructure.obj
 0001:00049b50       ??0BVHStructure@Gu@physx@@QEAA@PEAVGuMeshFactory@2@@Z 000000018004ab50 f   GuBVHStructure.obj
 0001:00049bb0       ??0BVHStructure@Gu@physx@@QEAA@PEAVGuMeshFactory@2@AEAUBVHStructureData@12@@Z 000000018004abb0 f   GuBVHStructure.obj
 0001:00049c20       ??R?$AABBTreeOverlap@UAABBAABBTest@Gu@physx@@UBVHTree@23@UBVHNode@23@IUBVHCallback@23@@Gu@physx@@QEAA_NPEBIPEBVPxBounds3@2@AEBUBVHTree@12@AEBUAABBAABBTest@12@AEAUBVHCallback@12@@Z 000000018004ac20 f i GuBVHStructure.obj
 0001:00049f80       ??R?$AABBTreeRaycast@$00UBVHTree@Gu@physx@@UBVHNode@23@IUBVHCallback@23@@Gu@physx@@QEAA_NPEBIPEBVPxBounds3@2@AEBUBVHTree@12@AEBVPxVec3@2@3AEAM3AEAUBVHCallback@12@@Z 000000018004af80 f i GuBVHStructure.obj
 0001:0004a640       ??R?$AABBTreeRaycast@$0A@UBVHTree@Gu@physx@@UBVHNode@23@IUBVHCallback@23@@Gu@physx@@QEAA_NPEBIPEBVPxBounds3@2@AEBUBVHTree@12@AEBVPxVec3@2@3AEAM3AEAUBVHCallback@12@@Z 000000018004b640 f i GuBVHStructure.obj
 0001:0004aca0       ??_EBVHStructure@Gu@physx@@WBA@EAAPEAXI@Z 000000018004bca0 f i GuBVHStructure.obj
 0001:0004acb0       ??_EBVHStructure@Gu@physx@@UEAAPEAXI@Z 000000018004bcb0 f i GuBVHStructure.obj
 0001:0004acb0       ??_GBVHStructure@Gu@physx@@UEAAPEAXI@Z 000000018004bcb0 f i GuBVHStructure.obj
 0001:0004ad10       ??_ERefCountable@Cm@physx@@UEAAPEAXI@Z 000000018004bd10 f i GuBVHStructure.obj
 0001:0004ad10       ??_GRefCountable@Cm@physx@@UEAAPEAXI@Z 000000018004bd10 f i GuBVHStructure.obj
 0001:0004ad40       ?allocate@?$Array@PEBUBVHNode@Gu@physx@@V?$InlineAllocator@$0IAA@VNamedAllocator@shdfnd@physx@@@shdfnd@3@@shdfnd@physx@@IEAAPEAPEBUBVHNode@Gu@3@I@Z 000000018004bd40 f i GuBVHStructure.obj
 0001:0004add0       ?createVolumes@BVHStructure@Gu@physx@@AEBAXXZ 000000018004bdd0 f   GuBVHStructure.obj
 0001:0004ae50       ?getBounds@BVHStructure@Gu@physx@@UEBAPEBVPxBounds3@3@XZ 000000018004be50 f i GuBVHStructure.obj
 0001:0004ae50       ?getTriangles@TriangleMesh@Gu@physx@@UEBAPEBXXZ 000000018004be50 f i GuTriangleMesh.obj
 0001:0004ae60       ?getConcreteTypeName@PxBVHStructure@physx@@UEBAPEBDXZ 000000018004be60 f i GuBVHStructure.obj
 0001:0004ae70       ?getNbBounds@BVHStructure@Gu@physx@@UEBAIXZ 000000018004be70 f i GuBVHStructure.obj
 0001:0004ae80       ?isKindOf@PxBVHStructure@physx@@MEBA_NPEBD@Z 000000018004be80 f i GuBVHStructure.obj
 0001:0004aed0       ?load@BVHStructure@Gu@physx@@QEAA_NAEAVPxInputStream@3@@Z 000000018004bed0 f   GuBVHStructure.obj
 0001:0004b0b0       ?onRefCountZero@BVHStructure@Gu@physx@@UEAAXXZ 000000018004c0b0 f   GuBVHStructure.obj
 0001:0004b1e0       ?onRefCountZero@RefCountable@Cm@physx@@UEAAXXZ 000000018004c1e0 f i GuBVHStructure.obj
 0001:0004b200       ?overlap@BVHStructure@Gu@physx@@UEBAIAEBVPxBounds3@3@IPEIAI@Z 000000018004c200 f   GuBVHStructure.obj
 0001:0004b340       ?raycast@BVHStructure@Gu@physx@@UEBAIAEBVPxVec3@3@0MIPEIAI@Z 000000018004c340 f   GuBVHStructure.obj
 0001:0004b410       ?recreate@?$Array@PEBUBVHNode@Gu@physx@@V?$InlineAllocator@$0IAA@VNamedAllocator@shdfnd@physx@@@shdfnd@3@@shdfnd@physx@@IEAAXI@Z 000000018004c410 f i GuBVHStructure.obj
 0001:0004b4b0       ?release@BVHStructure@Gu@physx@@UEAAXXZ 000000018004c4b0 f   GuBVHStructure.obj
 0001:0004b4b0       ?release@ConvexMesh@Gu@physx@@UEAAXXZ 000000018004c4b0 f   GuConvexMesh.obj
 0001:0004b4b0       ?release@HeightField@Gu@physx@@UEAAXXZ 000000018004c4b0 f   GuHeightField.obj
 0001:0004b4b0       ?release@TriangleMesh@Gu@physx@@UEAAXXZ 000000018004c4b0 f   GuTriangleMesh.obj
 0001:0004b4e0       ?resizeUninitialized@?$Array@PEBUBVHNode@Gu@physx@@V?$InlineAllocator@$0IAA@VNamedAllocator@shdfnd@physx@@@shdfnd@3@@shdfnd@physx@@QEAAXI@Z 000000018004c4e0 f i GuBVHStructure.obj
 0001:0004b530       ?sweep@BVHStructure@Gu@physx@@UEBAIAEBVPxBounds3@3@AEBVPxVec3@3@MIPEIAI@Z 000000018004c530 f   GuBVHStructure.obj
 0001:0004b720       ?SweepAnyShapeHeightfield@Gu@physx@@YAMAEBUCCDShape@12@0AEBVPxTransform@2@111MAEAVPxVec3@2@2MAEAIM@Z 000000018004c720 f   GuCCDSweepConvexMesh.obj
 0001:0004c990       ?SweepAnyShapeMesh@Gu@physx@@YAMAEBUCCDShape@12@0AEBVPxTransform@2@111MAEAVPxVec3@2@2MAEAIM@Z 000000018004d990 f   GuCCDSweepConvexMesh.obj
 0001:0004e2f0       ?SweepEstimateAnyShapeHeightfield@Gu@physx@@YAMAEBUCCDShape@12@0AEBVPxTransform@2@111MM@Z 000000018004f2f0 f   GuCCDSweepConvexMesh.obj
 0001:0004ec40       ?SweepEstimateAnyShapeMesh@Gu@physx@@YAMAEBUCCDShape@12@0AEBVPxTransform@2@111MM@Z 000000018004fc40 f   GuCCDSweepConvexMesh.obj
 0001:0004ef00       ?allocate@?$Array@IV?$InlineAllocator@$0BAA@VNamedAllocator@shdfnd@physx@@@shdfnd@physx@@@shdfnd@physx@@IEAAPEAII@Z 000000018004ff00 f i GuCCDSweepConvexMesh.obj
 0001:0004fb10       ?growAndPushBack@?$Array@IV?$InlineAllocator@$0BAA@VNamedAllocator@shdfnd@physx@@@shdfnd@physx@@@shdfnd@physx@@IEAAAEAIAEBI@Z 0000000180050b10 f i GuCCDSweepConvexMesh.obj
 0001:00050200       ?recreate@?$Array@IV?$InlineAllocator@$0BAA@VNamedAllocator@shdfnd@physx@@@shdfnd@physx@@@shdfnd@physx@@IEAAXI@Z 0000000180051200 f i GuCCDSweepConvexMesh.obj
 0001:000502a0       ?resize@?$Array@IV?$InlineAllocator@$0BAA@VNamedAllocator@shdfnd@physx@@@shdfnd@physx@@@shdfnd@physx@@QEAAXIAEBI@Z 00000001800512a0 f i GuCCDSweepConvexMesh.obj
 0001:00050370       ?resize@?$Array@IVNamedAllocator@shdfnd@physx@@@shdfnd@physx@@QEAAXIAEBI@Z 0000000180051370 f i GuCCDSweepConvexMesh.obj
 0001:00050430       ?transformBoxOrthonormal@physx@@YA?AVBox@Gu@1@AEBV231@AEBVPxTransform@1@@Z 0000000180051430 f i GuCCDSweepConvexMesh.obj
 0001:000508c0       ?UnimplementedSweep@Gu@physx@@YAMAEBUCCDShape@12@0AEBVPxTransform@2@111MAEAVPxVec3@2@2MAEAIM@Z 00000001800518c0 f   GuCCDSweepPrimitives.obj
 0001:000508d0       ??$SweepGeomGeom@VCapsuleV@Gu@physx@@V123@@Gu@physx@@YAMAEBUCCDShape@01@0AEBVPxTransform@1@111MAEAVPxVec3@1@2MAEAIM@Z 00000001800518d0 f i GuCCDSweepPrimitives.obj
 0001:00050a00       ??$SweepGeomGeom@VCapsuleV@Gu@physx@@VBoxV@23@@Gu@physx@@YAMAEBUCCDShape@01@0AEBVPxTransform@1@111MAEAVPxVec3@1@2MAEAIM@Z 0000000180051a00 f i GuCCDSweepPrimitives.obj
 0001:00050b60       ??$SweepGeomGeom@VCapsuleV@Gu@physx@@VConvexHullV@23@@Gu@physx@@YAMAEBUCCDShape@01@0AEBVPxTransform@1@111MAEAVPxVec3@1@2MAEAIM@Z 0000000180051b60 f i GuCCDSweepPrimitives.obj
 0001:000510c0       ??$SweepGeomGeom@VBoxV@Gu@physx@@V123@@Gu@physx@@YAMAEBUCCDShape@01@0AEBVPxTransform@1@111MAEAVPxVec3@1@2MAEAIM@Z 00000001800520c0 f i GuCCDSweepPrimitives.obj
 0001:00051250       ??$SweepGeomGeom@VBoxV@Gu@physx@@VConvexHullV@23@@Gu@physx@@YAMAEBUCCDShape@01@0AEBVPxTransform@1@111MAEAVPxVec3@1@2MAEAIM@Z 0000000180052250 f i GuCCDSweepPrimitives.obj
 0001:000517d0       ??$SweepGeomGeom@VConvexHullV@Gu@physx@@V123@@Gu@physx@@YAMAEBUCCDShape@01@0AEBVPxTransform@1@111MAEAVPxVec3@1@2MAEAIM@Z 00000001800527d0 f i GuCCDSweepPrimitives.obj
 0001:000520f0       ?UnimplementedTriangleSweep@Gu@physx@@YAMAEBVGeometryUnion@12@0AEBVPxTransform@2@111MAEAVPxVec3@2@2AEBVFastVertex2ShapeScaling@Cm@2@AEAVTriangleV@12@M@Z 00000001800530f0 f   GuCCDSweepPrimitives.obj
 0001:00052100       ??$SweepGeomTriangles@VCapsuleV@Gu@physx@@@Gu@physx@@YAMAEBVGeometryUnion@01@0AEBVPxTransform@1@111MAEAVPxVec3@1@2AEBVFastVertex2ShapeScaling@Cm@1@AEAVTriangleV@01@M@Z 0000000180053100 f i GuCCDSweepPrimitives.obj
 0001:000521d0       ??$SweepGeomTriangles@VBoxV@Gu@physx@@@Gu@physx@@YAMAEBVGeometryUnion@01@0AEBVPxTransform@1@111MAEAVPxVec3@1@2AEBVFastVertex2ShapeScaling@Cm@1@AEAVTriangleV@01@M@Z 00000001800531d0 f i GuCCDSweepPrimitives.obj
 0001:000522d0       ??$SweepGeomTriangles@VConvexHullV@Gu@physx@@@Gu@physx@@YAMAEBVGeometryUnion@01@0AEBVPxTransform@1@111MAEAVPxVec3@1@2AEBVFastVertex2ShapeScaling@Cm@1@AEAVTriangleV@01@M@Z 00000001800532d0 f i GuCCDSweepPrimitives.obj
 0001:000527e0       ?supportPoint@?$RelativeConvex@VCapsuleV@Gu@physx@@@Gu@physx@@UEBA?AT__m128@@H@Z 00000001800537e0 f i GuCCDSweepPrimitives.obj
 0001:00052840       ?support@?$RelativeConvex@VCapsuleV@Gu@physx@@@Gu@physx@@UEBA?AT__m128@@AEBT4@@Z 0000000180053840 f i GuCCDSweepPrimitives.obj
 0001:000528f0       ?support@?$RelativeConvex@VCapsuleV@Gu@physx@@@Gu@physx@@UEBA?AT__m128@@AEBT4@AEAH@Z 00000001800538f0 f i GuCCDSweepPrimitives.obj
 0001:000529b0       ?supportPoint@?$RelativeConvex@VTriangleV@Gu@physx@@@Gu@physx@@UEBA?AT__m128@@H@Z 00000001800539b0 f i GuCCDSweepPrimitives.obj
 0001:00052a00       ?support@?$RelativeConvex@VTriangleV@Gu@physx@@@Gu@physx@@UEBA?AT__m128@@AEBT4@@Z 0000000180053a00 f i GuCCDSweepPrimitives.obj
 0001:00052b00       ?support@?$RelativeConvex@VTriangleV@Gu@physx@@@Gu@physx@@UEBA?AT__m128@@AEBT4@AEAH@Z 0000000180053b00 f i GuCCDSweepPrimitives.obj
 0001:00056a20       ??$gjkPenetration@U?$RelativeConvex@VCapsuleV@Gu@physx@@@Gu@physx@@U?$LocalConvex@VBoxV@Gu@physx@@@23@@Gu@physx@@YA?AW4GjkStatus@01@AEBU?$RelativeConvex@VCapsuleV@Gu@physx@@@01@AEBU?$LocalConvex@VBoxV@Gu@physx@@@01@AEBT__m128@@2_NPEIAE4AEAEAEAUGjkOutput@01@@Z 0000000180057a20 f i GuCCDSweepPrimitives.obj
 0001:00058010       ??$gjkPenetration@U?$RelativeConvex@VCapsuleV@Gu@physx@@@Gu@physx@@U?$LocalConvex@VCapsuleV@Gu@physx@@@23@@Gu@physx@@YA?AW4GjkStatus@01@AEBU?$RelativeConvex@VCapsuleV@Gu@physx@@@01@AEBU?$LocalConvex@VCapsuleV@Gu@physx@@@01@AEBT__m128@@2_NPEIAE4AEAEAEAUGjkOutput@01@@Z 0000000180059010 f i GuCCDSweepPrimitives.obj
 0001:00059630       ??$gjkPenetration@U?$RelativeConvex@VCapsuleV@Gu@physx@@@Gu@physx@@U?$LocalConvex@VConvexHullV@Gu@physx@@@23@@Gu@physx@@YA?AW4GjkStatus@01@AEBU?$RelativeConvex@VCapsuleV@Gu@physx@@@01@AEBU?$LocalConvex@VConvexHullV@Gu@physx@@@01@AEBT__m128@@2_NPEIAE4AEAEAEAUGjkOutput@01@@Z 000000018005a630 f i GuCCDSweepPrimitives.obj
 0001:0005acc0       ??$gjkPenetration@U?$RelativeConvex@VTriangleV@Gu@physx@@@Gu@physx@@U?$LocalConvex@VBoxV@Gu@physx@@@23@@Gu@physx@@YA?AW4GjkStatus@01@AEBU?$RelativeConvex@VTriangleV@Gu@physx@@@01@AEBU?$LocalConvex@VBoxV@Gu@physx@@@01@AEBT__m128@@2_NPEIAE4AEAEAEAUGjkOutput@01@@Z 000000018005bcc0 f i GuCCDSweepPrimitives.obj
 0001:0005c2f0       ??$gjkPenetration@U?$RelativeConvex@VTriangleV@Gu@physx@@@Gu@physx@@U?$LocalConvex@VCapsuleV@Gu@physx@@@23@@Gu@physx@@YA?AW4GjkStatus@01@AEBU?$RelativeConvex@VTriangleV@Gu@physx@@@01@AEBU?$LocalConvex@VCapsuleV@Gu@physx@@@01@AEBT__m128@@2_NPEIAE4AEAEAEAUGjkOutput@01@@Z 000000018005d2f0 f i GuCCDSweepPrimitives.obj
 0001:0005d8f0       ??$gjkPenetration@U?$RelativeConvex@VTriangleV@Gu@physx@@@Gu@physx@@U?$LocalConvex@VConvexHullV@Gu@physx@@@23@@Gu@physx@@YA?AW4GjkStatus@01@AEBU?$RelativeConvex@VTriangleV@Gu@physx@@@01@AEBU?$LocalConvex@VConvexHullV@Gu@physx@@@01@AEBT__m128@@2_NPEIAE4AEAEAEAUGjkOutput@01@@Z 000000018005e8f0 f i GuCCDSweepPrimitives.obj
 0001:0005ef80       ??$gjkRaycast@U?$RelativeConvex@VCapsuleV@Gu@physx@@@Gu@physx@@U?$LocalConvex@VBoxV@Gu@physx@@@23@@Gu@physx@@YA_NAEBU?$RelativeConvex@VCapsuleV@Gu@physx@@@01@AEBU?$LocalConvex@VBoxV@Gu@physx@@@01@AEBT__m128@@222AEAT4@33M@Z 000000018005ff80 f i GuCCDSweepPrimitives.obj
 0001:0005fc10       ??$gjkRaycast@U?$RelativeConvex@VCapsuleV@Gu@physx@@@Gu@physx@@U?$LocalConvex@VCapsuleV@Gu@physx@@@23@@Gu@physx@@YA_NAEBU?$RelativeConvex@VCapsuleV@Gu@physx@@@01@AEBU?$LocalConvex@VCapsuleV@Gu@physx@@@01@AEBT__m128@@222AEAT4@33M@Z 0000000180060c10 f i GuCCDSweepPrimitives.obj
 0001:00060920       ??$gjkRaycast@U?$RelativeConvex@VCapsuleV@Gu@physx@@@Gu@physx@@U?$LocalConvex@VConvexHullV@Gu@physx@@@23@@Gu@physx@@YA_NAEBU?$RelativeConvex@VCapsuleV@Gu@physx@@@01@AEBU?$LocalConvex@VConvexHullV@Gu@physx@@@01@AEBT__m128@@222AEAT4@33M@Z 0000000180061920 f i GuCCDSweepPrimitives.obj
 0001:00061750       ??$gjkRaycast@U?$RelativeConvex@VTriangleV@Gu@physx@@@Gu@physx@@U?$LocalConvex@VBoxV@Gu@physx@@@23@@Gu@physx@@YA_NAEBU?$RelativeConvex@VTriangleV@Gu@physx@@@01@AEBU?$LocalConvex@VBoxV@Gu@physx@@@01@AEBT__m128@@222AEAT4@33M@Z 0000000180062750 f i GuCCDSweepPrimitives.obj
 0001:000624a0       ??$gjkRaycast@U?$RelativeConvex@VTriangleV@Gu@physx@@@Gu@physx@@U?$LocalConvex@VCapsuleV@Gu@physx@@@23@@Gu@physx@@YA_NAEBU?$RelativeConvex@VTriangleV@Gu@physx@@@01@AEBU?$LocalConvex@VCapsuleV@Gu@physx@@@01@AEBT__m128@@222AEAT4@33M@Z 00000001800634a0 f i GuCCDSweepPrimitives.obj
 0001:00063230       ??$gjkRaycast@U?$RelativeConvex@VTriangleV@Gu@physx@@@Gu@physx@@U?$LocalConvex@VConvexHullV@Gu@physx@@@23@@Gu@physx@@YA_NAEBU?$RelativeConvex@VTriangleV@Gu@physx@@@01@AEBU?$LocalConvex@VConvexHullV@Gu@physx@@@01@AEBT__m128@@222AEAT4@33M@Z 0000000180064230 f i GuCCDSweepPrimitives.obj
 0001:00064100       ?SweepShapeShape@Gu@physx@@YAMAEBUCCDShape@12@0AEBVPxTransform@2@111MAEAVPxVec3@2@2MAEAIM@Z 0000000180065100 f   GuCCDSweepPrimitives.obj
 0001:00064120       ?SweepShapeTriangle@Gu@physx@@YAMAEBVGeometryUnion@12@0AEBVPxTransform@2@111MAEAVPxVec3@2@2AEBVFastVertex2ShapeScaling@Cm@2@AEAVTriangleV@12@M@Z 0000000180065120 f   GuCCDSweepPrimitives.obj
 0001:00064140       ?barycentricCoordinates@Gu@physx@@YAXAEBT__m128@@000AEAT3@1@Z 0000000180065140 f   GuBarycentricCoordinates.obj
 0001:00064290       ?barycentricCoordinates@Gu@physx@@YAXAEBT__m128@@00AEAT3@@Z 0000000180065290 f   GuBarycentricCoordinates.obj
 0001:00064300       ?addAxis@SeparatingAxes@Gu@physx@@QEAA_NAEBVPxVec3@3@@Z 0000000180065300 f   GuSeparatingAxes.obj
 0001:000643c0       ?contactBoxBox@Gu@physx@@YA_NAEBVGeometryUnion@12@0AEBVPxTransform@2@1AEBUNarrowPhaseParams@12@AEAUCache@12@AEAVContactBuffer@12@PEAVRenderOutput@Cm@2@@Z 00000001800653c0 f   GuContactBoxBox.obj
 0001:000682c0       ?contactCapsuleBox@Gu@physx@@YA_NAEBVGeometryUnion@12@0AEBVPxTransform@2@1AEBUNarrowPhaseParams@12@AEAUCache@12@AEAVContactBuffer@12@PEAVRenderOutput@Cm@2@@Z 00000001800692c0 f   GuContactCapsuleBox.obj
 0001:00068ad0       ?contactCapsuleCapsule@Gu@physx@@YA_NAEBVGeometryUnion@12@0AEBVPxTransform@2@1AEBUNarrowPhaseParams@12@AEAUCache@12@AEAVContactBuffer@12@PEAVRenderOutput@Cm@2@@Z 0000000180069ad0 f   GuContactCapsuleCapsule.obj
 0001:0006b4f0       ?contactCapsuleConvex@Gu@physx@@YA_NAEBVGeometryUnion@12@0AEBVPxTransform@2@1AEBUNarrowPhaseParams@12@AEAUCache@12@AEAVContactBuffer@12@PEAVRenderOutput@Cm@2@@Z 000000018006c4f0 f   GuContactCapsuleConvex.obj
 0001:0006da00       ?contactCapsuleHeightfield@Gu@physx@@YA_NAEBVGeometryUnion@12@0AEBVPxTransform@2@1AEBUNarrowPhaseParams@12@AEAUCache@12@AEAVContactBuffer@12@PEAVRenderOutput@Cm@2@@Z 000000018006ea00 f   GuContactCapsuleMesh.obj
 0001:0006e030       ?contactCapsuleMesh@Gu@physx@@YA_NAEBVGeometryUnion@12@0AEBVPxTransform@2@1AEBUNarrowPhaseParams@12@AEAUCache@12@AEAVContactBuffer@12@PEAVRenderOutput@Cm@2@@Z 000000018006f030 f   GuContactCapsuleMesh.obj
 0001:0006f150       ?transformFast@PxBounds3@physx@@SA?AV12@AEBVPxTransform@2@AEBV12@@Z 0000000180070150 f i GuContactCapsuleMesh.obj
 0001:0006f530       ?transformQueryBounds@FastVertex2ShapeScaling@Cm@physx@@QEBAXAEAVPxVec3@3@0AEAVPxMat33@3@@Z 0000000180070530 f i GuContactCapsuleMesh.obj
 0001:00073a50       ?contactBoxConvex@Gu@physx@@YA_NAEBVGeometryUnion@12@0AEBVPxTransform@2@1AEBUNarrowPhaseParams@12@AEAUCache@12@AEAVContactBuffer@12@PEAVRenderOutput@Cm@2@@Z 0000000180074a50 f   GuContactConvexConvex.obj
 0001:00073be0       ?contactConvexConvex@Gu@physx@@YA_NAEBVGeometryUnion@12@0AEBVPxTransform@2@1AEBUNarrowPhaseParams@12@AEAUCache@12@AEAVContactBuffer@12@PEAVRenderOutput@Cm@2@@Z 0000000180074be0 f   GuContactConvexConvex.obj
 0001:00074030       ?transformPlaneToShapeSpace@FastVertex2ShapeScaling@Cm@physx@@QEBAXAEBVPxVec3@3@MAEAV43@AEAM@Z 0000000180075030 f i GuContactConvexConvex.obj
 0001:00074120       ??0?$CacheMap@UCachedEdge@Gu@physx@@$0IA@@Gu@physx@@QEAA@XZ 0000000180075120 f i GuContactConvexMesh.obj
 0001:000741e0       ??0?$CacheMap@UCachedVertex@Gu@physx@@$0IA@@Gu@physx@@QEAA@XZ 00000001800751e0 f i GuContactConvexMesh.obj
 0001:000742a0       ??0?$InlineArray@I$0EEA@VNamedAllocator@shdfnd@physx@@@shdfnd@physx@@QEAA@AEBVNamedAllocator@12@@Z 00000001800752a0 f i GuContactConvexMesh.obj
 0001:00074880       ??_EConvexMeshContactGenerationCallback@@UEAAPEAXI@Z 0000000180075880 f i GuContactConvexMesh.obj
 0001:00074880       ??_GConvexMeshContactGenerationCallback@@UEAAPEAXI@Z 0000000180075880 f i GuContactConvexMesh.obj
 0001:000748e0       ?addData@?$CacheMap@UCachedEdge@Gu@physx@@$0IA@@Gu@physx@@QEAA_NAEBUCachedEdge@23@@Z 00000001800758e0 f i GuContactConvexMesh.obj
 0001:000749c0       ?addData@?$CacheMap@UCachedVertex@Gu@physx@@$0IA@@Gu@physx@@QEAA_NAEBUCachedVertex@23@@Z 00000001800759c0 f i GuContactConvexMesh.obj
 0001:00074a50       ?allocate@?$Array@IV?$InlineAllocator@$0BBAA@VNamedAllocator@shdfnd@physx@@@shdfnd@physx@@@shdfnd@physx@@IEAAPEAII@Z 0000000180075a50 f i GuContactConvexMesh.obj
 0001:00074e20       ?contactBoxHeightfield@Gu@physx@@YA_NAEBVGeometryUnion@12@0AEBVPxTransform@2@1AEBUNarrowPhaseParams@12@AEAUCache@12@AEAVContactBuffer@12@PEAVRenderOutput@Cm@2@@Z 0000000180075e20 f   GuContactConvexMesh.obj
 0001:00074f80       ?contactBoxMesh@Gu@physx@@YA_NAEBVGeometryUnion@12@0AEBVPxTransform@2@1AEBUNarrowPhaseParams@12@AEAUCache@12@AEAVContactBuffer@12@PEAVRenderOutput@Cm@2@@Z 0000000180075f80 f   GuContactConvexMesh.obj
 0001:00075130       ?contactConvexHeightfield@Gu@physx@@YA_NAEBVGeometryUnion@12@0AEBVPxTransform@2@1AEBUNarrowPhaseParams@12@AEAUCache@12@AEAVContactBuffer@12@PEAVRenderOutput@Cm@2@@Z 0000000180076130 f   GuContactConvexMesh.obj
 0001:00075260       ?contactConvexMesh@Gu@physx@@YA_NAEBVGeometryUnion@12@0AEBVPxTransform@2@1AEBUNarrowPhaseParams@12@AEAUCache@12@AEAVContactBuffer@12@PEAVRenderOutput@Cm@2@@Z 0000000180076260 f   GuContactConvexMesh.obj
 0001:00078960       ?processHit@ConvexMeshContactGenerationCallback@@UEAA_NAEBUPxRaycastHit@physx@@AEBVPxVec3@3@11AEAMPEBI@Z 0000000180079960 f i GuContactConvexMesh.obj
 0001:00079290       ?recreate@?$Array@IV?$InlineAllocator@$0BBAA@VNamedAllocator@shdfnd@physx@@@shdfnd@physx@@@shdfnd@physx@@IEAAXI@Z 000000018007a290 f i GuContactConvexMesh.obj
 0001:0007a2e0       ?contactPlaneBox@Gu@physx@@YA_NAEBVGeometryUnion@12@0AEBVPxTransform@2@1AEBUNarrowPhaseParams@12@AEAUCache@12@AEAVContactBuffer@12@PEAVRenderOutput@Cm@2@@Z 000000018007b2e0 f   GuContactPlaneBox.obj
 0001:0007af10       ?contactPlaneCapsule@Gu@physx@@YA_NAEBVGeometryUnion@12@0AEBVPxTransform@2@1AEBUNarrowPhaseParams@12@AEAUCache@12@AEAVContactBuffer@12@PEAVRenderOutput@Cm@2@@Z 000000018007bf10 f   GuContactPlaneCapsule.obj
 0001:0007b530       ?contactPlaneConvex@Gu@physx@@YA_NAEBVGeometryUnion@12@0AEBVPxTransform@2@1AEBUNarrowPhaseParams@12@AEAUCache@12@AEAVContactBuffer@12@PEAVRenderOutput@Cm@2@@Z 000000018007c530 f   GuContactPlaneConvex.obj
 0001:0007d260       ?contactPolygonPolygonExt@Gu@physx@@YA_NIPEBVPxVec3@2@PEBEAEBVMatrix34@Cm@2@AEBVPxPlane@2@AEBVPxMat33@2@I01234AEBV32@22IIAEAVContactBuffer@12@_N5M@Z 000000018007e260 f   GuContactPolygonPolygon.obj
 0001:0007e9c0       ?findRotationMatrixFromZ@Gu@physx@@YA?AVPxMat33@2@AEBVPxVec3@2@@Z 000000018007f9c0 f   GuContactPolygonPolygon.obj
 0001:0007f3e0       ?contactSphereBox@Gu@physx@@YA_NAEBVGeometryUnion@12@0AEBVPxTransform@2@1AEBUNarrowPhaseParams@12@AEAUCache@12@AEAVContactBuffer@12@PEAVRenderOutput@Cm@2@@Z 00000001800803e0 f   GuContactSphereBox.obj
 0001:0007f9a0       ?contactSphereCapsule@Gu@physx@@YA_NAEBVGeometryUnion@12@0AEBVPxTransform@2@1AEBUNarrowPhaseParams@12@AEAUCache@12@AEAVContactBuffer@12@PEAVRenderOutput@Cm@2@@Z 00000001800809a0 f   GuContactSphereCapsule.obj
 0001:00080770       ?contactSphereHeightfield@Gu@physx@@YA_NAEBVGeometryUnion@12@0AEBVPxTransform@2@1AEBUNarrowPhaseParams@12@AEAUCache@12@AEAVContactBuffer@12@PEAVRenderOutput@Cm@2@@Z 0000000180081770 f   GuContactSphereMesh.obj
 0001:00081190       ?contactSphereMesh@Gu@physx@@YA_NAEBVGeometryUnion@12@0AEBVPxTransform@2@1AEBUNarrowPhaseParams@12@AEAUCache@12@AEAVContactBuffer@12@PEAVRenderOutput@Cm@2@@Z 0000000180082190 f   GuContactSphereMesh.obj
 0001:000835b0       ?contactSpherePlane@Gu@physx@@YA_NAEBVGeometryUnion@12@0AEBVPxTransform@2@1AEBUNarrowPhaseParams@12@AEAUCache@12@AEAVContactBuffer@12@PEAVRenderOutput@Cm@2@@Z 00000001800845b0 f   GuContactSpherePlane.obj
 0001:000837b0       ?contactSphereSphere@Gu@physx@@YA_NAEBVGeometryUnion@12@0AEBVPxTransform@2@1AEBUNarrowPhaseParams@12@AEAUCache@12@AEAVContactBuffer@12@PEAVRenderOutput@Cm@2@@Z 00000001800847b0 f   GuContactSphereSphere.obj
 0001:00083920       ?selectNormal@Gu@physx@@YA_NEMM@Z 0000000180084920 f   GuFeatureCode.obj
 0001:000839a0       ??0BigConvexData@physx@@QEAA@XZ 00000001800849a0 f   GuBigConvexData.obj
 0001:000839c0       ??1BigConvexData@physx@@QEAA@XZ 00000001800849c0 f   GuBigConvexData.obj
 0001:00083a40       ?ComputeNearestOffset@BigConvexData@physx@@QEBAIAEBVPxVec3@2@@Z 0000000180084a40 f   GuBigConvexData.obj
 0001:00083b40       ?ComputeOffset@BigConvexData@physx@@QEBAIAEBVPxVec3@2@@Z 0000000180084b40 f   GuBigConvexData.obj
 0001:00083c40       ?CreateOffsets@BigConvexData@physx@@IEAAXXZ 0000000180084c40 f   GuBigConvexData.obj
 0001:00083c90       ?Load@BigConvexData@physx@@QEAA_NAEAVPxInputStream@2@@Z 0000000180084c90 f   GuBigConvexData.obj
 0001:00083db0       ?VLoad@BigConvexData@physx@@IEAA_NAEAVPxInputStream@2@@Z 0000000180084db0 f   GuBigConvexData.obj
 0001:00083f50       ?exportExtraData@BigConvexData@physx@@QEAAXAEAVPxSerializationContext@2@@Z 0000000180084f50 f   GuBigConvexData.obj
 0001:00083fd0       ?importExtraData@BigConvexData@physx@@QEAAXAEAVPxDeserializationContext@2@@Z 0000000180084fd0 f   GuBigConvexData.obj
 0001:00084040       ?findUniqueConvexEdges@Gu@physx@@YAIIPEIAUConvexEdge@12@IPEIBUHullPolygonData@12@PEIBE@Z 0000000180085040 f   GuConvexHelper.obj
 0001:00084180       ?getConvexData@Gu@physx@@YA_NAEBVGeometryUnion@12@AEAVFastVertex2ShapeScaling@Cm@2@AEAVPxBounds3@2@AEAUPolygonalData@12@@Z 0000000180085180 f   GuConvexHelper.obj
 0001:00084400       ?getScaledConvex@Gu@physx@@YAXAEAPEAVPxVec3@2@AEAPEAEPEAV32@PEAE_NPEBV32@PEBEIAEBVFastVertex2ShapeScaling@Cm@2@@Z 0000000180085400 f   GuConvexHelper.obj
 0001:00084530       ??0ConvexMesh@Gu@physx@@QEAA@AEAVGuMeshFactory@2@AEAUConvexHullInitData@12@@Z 0000000180085530 f   GuConvexMesh.obj
 0001:00084660       ??0ConvexMesh@Gu@physx@@QEAA@XZ 0000000180085660 f   GuConvexMesh.obj
 0001:00084700       ??1ConvexMesh@Gu@physx@@UEAA@XZ 0000000180085700 f   GuConvexMesh.obj
 0001:000847a0       ??_EConvexMesh@Gu@physx@@UEAAPEAXI@Z 00000001800857a0 f i GuConvexMesh.obj
 0001:000848b0       ??_EConvexMesh@Gu@physx@@WBA@EAAPEAXI@Z 00000001800858b0 f i GuConvexMesh.obj
 0001:000848c0       ??_EPxConvexMesh@physx@@MEAAPEAXI@Z 00000001800858c0 f i GuConvexMesh.obj
 0001:000848c0       ??_EPxHeightField@physx@@MEAAPEAXI@Z 00000001800858c0 f i GuHeightField.obj
 0001:00084950       ?acquireReference@ConvexMesh@Gu@physx@@UEAAXXZ 0000000180085950 f   GuConvexMesh.obj
 0001:00084950       ?acquireReference@HeightField@Gu@physx@@UEAAXXZ 0000000180085950 f   GuHeightField.obj
 0001:00084950       ?acquireReference@TriangleMesh@Gu@physx@@UEAAXXZ 0000000180085950 f   GuTriangleMesh.obj
 0001:00084de0       ?createObject@ConvexMesh@Gu@physx@@SAPEAV123@AEAPEAEAEAVPxDeserializationContext@3@@Z 0000000180085de0 f   GuConvexMesh.obj
 0001:00084e30       ?exportExtraData@ConvexMesh@Gu@physx@@UEAAXAEAVPxSerializationContext@3@@Z 0000000180085e30 f   GuConvexMesh.obj
 0001:00084f00       ?getLocalBounds@ConvexMesh@Gu@physx@@UEBA?AVPxBounds3@3@XZ 0000000180085f00 f   GuConvexMesh.obj
 0001:00084f90       ?getMassInformation@ConvexMesh@Gu@physx@@UEBAXAEAMAEAVPxMat33@3@AEAVPxVec3@3@@Z 0000000180085f90 f   GuConvexMesh.obj
 0001:00085000       ?getPolygonData@ConvexMesh@Gu@physx@@UEBA_NIAEAUPxHullPolygon@3@@Z 0000000180086000 f   GuConvexMesh.obj
 0001:00085050       ?getReferenceCount@ConvexMesh@Gu@physx@@UEBAIXZ 0000000180086050 f   GuConvexMesh.obj
 0001:00085050       ?getReferenceCount@HeightField@Gu@physx@@UEBAIXZ 0000000180086050 f   GuHeightField.obj
 0001:00085050       ?getReferenceCount@TriangleMesh@Gu@physx@@UEBAIXZ 0000000180086050 f   GuTriangleMesh.obj
 0001:00085060       ?importExtraData@ConvexMesh@Gu@physx@@QEAAXAEAVPxDeserializationContext@3@@Z 0000000180086060 f   GuConvexMesh.obj
 0001:00085120       ?isGpuCompatible@ConvexMesh@Gu@physx@@UEBA_NXZ 0000000180086120 f   GuConvexMesh.obj
 0001:00085140       ?load@ConvexMesh@Gu@physx@@QEAA_NAEAVPxInputStream@3@@Z 0000000180086140 f   GuConvexMesh.obj
 0001:00085400       ?onRefCountZero@ConvexMesh@Gu@physx@@UEAAXXZ 0000000180086400 f   GuConvexMesh.obj
 0001:000854f0       ??Dphysx@@YA?AVMatrix34@Cm@0@AEBVPxMeshScale@0@AEBV120@@Z 00000001800864f0 f i GuConvexUtilsInternal.obj
 0001:00085ac0       ?computeHullOBB@Gu@physx@@YAXAEAVBox@12@AEBVPxBounds3@2@MAEBVMatrix34@Cm@2@2AEBVFastVertex2ShapeScaling@62@_N@Z 0000000180086ac0 f   GuConvexUtilsInternal.obj
 0001:00085f70       ?computeOBBAroundConvex@Gu@physx@@YAXAEAVBox@12@AEBVPxConvexMeshGeometry@2@PEBVPxConvexMesh@2@AEBVPxTransform@2@@Z 0000000180086f70 f   GuConvexUtilsInternal.obj
 0001:00086880       ?computeVertexSpaceOBB@Gu@physx@@YAXAEAVBox@12@AEBV312@AEBVPxTransform@2@AEBVPxMeshScale@2@@Z 0000000180087880 f   GuConvexUtilsInternal.obj
 0001:00086c30       ?transform@physx@@YA?AVBox@Gu@1@AEBVMatrix34@Cm@1@AEBV231@@Z 0000000180087c30 f i GuConvexUtilsInternal.obj
 0001:00086e80       ?localSearch@physx@@YAXAEAIAEBVPxVec3@1@PEBV21@PEBUBigConvexRawData@Gu@1@@Z 0000000180087e80 f   GuHillClimbing.obj
 0001:00086fb0       ??0PCMPolygonalBox@Gu@physx@@QEAA@AEBVPxVec3@2@@Z 0000000180087fb0 f   GuPCMShapeConvex.obj
 0001:00086fb0       ??0PolygonalBox@Gu@physx@@QEAA@AEBVPxVec3@2@@Z 0000000180087fb0 f   GuShapeConvex.obj
 0001:00088470       ?getPolygonalData@PolygonalBox@Gu@physx@@QEBAXPEIAUPolygonalData@23@@Z 0000000180089470 f   GuShapeConvex.obj
 0001:000884d0       ?getPolygonalData_Convex@Gu@physx@@YAXPEIAUPolygonalData@12@PEIBUConvexHullData@12@AEBVFastVertex2ShapeScaling@Cm@2@@Z 00000001800894d0 f   GuShapeConvex.obj
 0001:00088630       ?distancePointBoxSquared@Gu@physx@@YAMAEBVPxVec3@2@00AEBVPxMat33@2@PEAV32@@Z 0000000180089630 f   GuDistancePointBox.obj
 0001:00088780       ?closestPtPointTriangle@Gu@physx@@YA?AVPxVec3@2@AEBV32@000AEAM1@Z 0000000180089780 f   GuDistancePointTriangle.obj
 0001:00088ca0       ?distancePointTriangleSquared@Gu@physx@@YA?AT__m128@@AEBT3@000AEAT3@11@Z 0000000180089ca0 f   GuDistancePointTriangle.obj
 0001:000899f0       ?distanceSegmentBoxSquared@Gu@physx@@YAMAEBVPxVec3@2@000AEBVPxMat33@2@PEAMPEAV32@@Z 000000018008a9f0 f   GuDistanceSegmentBox.obj
 0001:0008a270       ?distanceSegmentSegmentSquared4@Gu@physx@@YA?AT__m128@@AEBT3@000000000AEAT3@1@Z 000000018008b270 f   GuDistanceSegmentSegment.obj
 0001:0008a580       ?distanceSegmentSegmentSquared@Gu@physx@@YA?AT__m128@@AEBT3@000AEAT3@1@Z 000000018008b580 f   GuDistanceSegmentSegment.obj
 0001:0008a740       ?distanceSegmentSegmentSquared@Gu@physx@@YAMAEBVPxVec3@2@000PEAM1@Z 000000018008b740 f   GuDistanceSegmentSegment.obj
 0001:0008a9d0       ?distanceSegmentSegmentSquared@Gu@physx@@YAMAEBVPxVec3@2@0M00MPEAM1@Z 000000018008b9d0 f   GuDistanceSegmentSegment.obj
 0001:0008b110       ?distanceSegmentTriangleSquared@Gu@physx@@YA?AT__m128@@AEBT3@0000AEAT3@1@Z 000000018008c110 f   GuDistanceSegmentTriangle.obj
 0001:0008b850       ?distanceSegmentTriangleSquared@Gu@physx@@YAMAEBVPxVec3@2@0000PEAM11@Z 000000018008c850 f   GuDistanceSegmentTriangle.obj
 0001:0008cec0       ?PenetrationDepth@EPA@Gu@physx@@QEAA?AW4GjkStatus@23@AEBUGjkConvex@23@0PEIBT__m128@@1E_NT6@AEAUGjkOutput@23@@Z 000000018008dec0 f   GuEPA.obj
 0001:0008da00       ?addFacet@EPA@Gu@physx@@QEAAPEAVFacet@23@IIIAEBT__m128@@@Z 000000018008ea00 f   GuEPA.obj
 0001:0008de40       ?epaPenetration@Gu@physx@@YA?AW4GjkStatus@12@AEBUGjkConvex@12@0PEIBE1E_NT__m128@@AEAUGjkOutput@12@@Z 000000018008ee40 f   GuEPA.obj
 0001:0008dfb0       ?silhouette@Facet@Gu@physx@@QEAAXAEBT__m128@@PEIBT4@1AEAVEdgeBuffer@23@AEAV?$InlineDeferredIDPool@$0EA@@Cm@3@@Z 000000018008efb0 f   GuEPA.obj
 0001:0008e180       ?closestPtPointTetrahedron@Gu@physx@@YA?AT__m128@@PEIAT3@00AEAI@Z 000000018008f180 f   GuGJKSimplex.obj
 0001:0008e900       ?closestPtPointTetrahedron@Gu@physx@@YA?AT__m128@@PEIAT3@00PEIAH1AEAI@Z 000000018008f900 f   GuGJKSimplex.obj
 0001:000903b0       ??$gjk@UGjkConvex@Gu@physx@@U123@@Gu@physx@@YA?AW4GjkStatus@01@AEBUGjkConvex@01@0AEBT__m128@@1AEAT4@222@Z 00000001800913b0 f i GuGJKTest.obj
 0001:00090fd0       ??$gjkPenetration@UGjkConvex@Gu@physx@@U123@@Gu@physx@@YA?AW4GjkStatus@01@AEBUGjkConvex@01@0AEBT__m128@@1_NPEIAE3AEAEAEAUGjkOutput@01@@Z 0000000180091fd0 f i GuGJKTest.obj
 0001:000924c0       ?testEpaPenetration@Gu@physx@@YA?AW4GjkStatus@12@AEAUGjkConvex@12@0PEBE1EAEAUGjkOutput@12@@Z 00000001800934c0 f   GuGJKTest.obj
 0001:00092510       ?testGjk@Gu@physx@@YA?AW4GjkStatus@12@AEAUGjkConvex@12@0AEBT__m128@@1AEAT5@222@Z 0000000180093510 f   GuGJKTest.obj
 0001:00092520       ?testGjkPenetration@Gu@physx@@YA?AW4GjkStatus@12@AEAUGjkConvex@12@0AEBT__m128@@1PEAE2AEAEAEAUGjkOutput@12@@Z 0000000180093520 f   GuGJKTest.obj
 0001:00092570       ??0HeightField@Gu@physx@@QEAA@AEAVGuMeshFactory@2@AEAUHeightFieldData@12@@Z 0000000180093570 f   GuHeightField.obj
 0001:00092640       ??0HeightField@Gu@physx@@QEAA@PEAVGuMeshFactory@2@@Z 0000000180093640 f   GuHeightField.obj
 0001:000926b0       ??1HeightField@Gu@physx@@UEAA@XZ 00000001800936b0 f   GuHeightField.obj
 0001:00092720       ??_EHeightField@Gu@physx@@UEAAPEAXI@Z 0000000180093720 f i GuHeightField.obj
 0001:000928d8       ??_EHeightField@Gu@physx@@WBA@EAAPEAXI@Z 00000001800938d8 f i GuHeightField.obj
 0001:000928f0       ?computeCellCoordinates@HeightField@Gu@physx@@QEBAIMMAEAM0@Z 00000001800938f0 f   GuHeightField.obj
 0001:000929f0       ?createObject@HeightField@Gu@physx@@SAPEAV123@AEAPEAEAEAVPxDeserializationContext@3@@Z 00000001800939f0 f   GuHeightField.obj
 0001:00092a50       ?exportExtraData@HeightField@Gu@physx@@UEAAXAEAVPxSerializationContext@3@@Z 0000000180093a50 f   GuHeightField.obj
 0001:00092aa0       ?getEdgeTriangleIndices@physx@@YAIAEBVHeightField@Gu@1@AEBUEdgeData@1@PEIAI@Z 0000000180093aa0 f   GuHeightField.obj
 0001:00092bd0       ?getVertexEdgeIndices@physx@@YAIAEBVHeightField@Gu@1@IIIQEAUEdgeData@1@@Z 0000000180093bd0 f   GuHeightField.obj
 0001:00092db0       ?importExtraData@HeightField@Gu@physx@@QEAAXAEAVPxDeserializationContext@3@@Z 0000000180093db0 f   GuHeightField.obj
 0001:00092dd0       ?isCollisionVertexPreca@HeightField@Gu@physx@@QEBA_NIIIG@Z 0000000180093dd0 f   GuHeightField.obj
 0001:00092e70       ?isConvexVertex@HeightField@Gu@physx@@QEBA_NIII@Z 0000000180093e70 f i GuHeightField.obj
 0001:00092f40       ?isSolidVertex@HeightField@Gu@physx@@QEBA_NIIIGAEA_N@Z 0000000180093f40 f   GuHeightField.obj
 0001:000930c0       ?load@HeightField@Gu@physx@@QEAA_NAEAVPxInputStream@3@@Z 00000001800940c0 f   GuHeightField.obj
 0001:00093400       ?loadFromDesc@HeightField@Gu@physx@@QEAA_NAEBVPxHeightFieldDesc@3@@Z 0000000180094400 f   GuHeightField.obj
 0001:000936a0       ?modifySamples@HeightField@Gu@physx@@UEAA_NHHAEBVPxHeightFieldDesc@3@_N@Z 00000001800946a0 f   GuHeightField.obj
 0001:00093a50       ?onRefCountZero@HeightField@Gu@physx@@UEAAXXZ 0000000180094a50 f   GuHeightField.obj
 0001:00093ae0       ?parseTrianglesForCollisionVertices@HeightField@Gu@physx@@QEAAXG@Z 0000000180094ae0 f   GuHeightField.obj
 0001:00093fe0       ?releaseMemory@HeightField@Gu@physx@@QEAAXXZ 0000000180094fe0 f   GuHeightField.obj
 0001:00094030       ?resizeAndClear@?$BitMapBase@VNonTrackingAllocator@shdfnd@physx@@@Cm@physx@@QEAAXI@Z 0000000180095030 f i GuHeightField.obj
 0001:000940e0       ?saveCells@HeightField@Gu@physx@@UEBAIPEAXI@Z 00000001800950e0 f   GuHeightField.obj
 0001:00094120       ?computeLocalBounds@HeightFieldUtil@Gu@physx@@QEBAXAEAVPxBounds3@3@@Z 0000000180095120 f   GuHeightFieldUtil.obj
 0001:000941f0       ?findClosestPointOnEdge@HeightFieldUtil@Gu@physx@@QEBAMIIIIAEBVPxVec3@3@AEAV43@@Z 00000001800951f0 f   GuHeightFieldUtil.obj
 0001:000944f0       ?findClosestPointsOnCell@HeightFieldUtil@Gu@physx@@QEBAIIIVPxVec3@3@PEIAV43@PEIAI_N33@Z 00000001800954f0 f   GuHeightFieldUtil.obj
 0001:00094c80       ?findProjectionOnTriangle@HeightFieldUtil@Gu@physx@@QEBA_NIIIAEBVPxVec3@3@AEAV43@@Z 0000000180095c80 f   GuHeightFieldUtil.obj
 0001:00094f30       ?getEdge@HeightFieldUtil@Gu@physx@@QEBAXIIIIAEAVPxVec3@3@0@Z 0000000180095f30 f   GuHeightFieldUtil.obj
 0001:00095170       ?getEdgeFaceIndex@HeightFieldUtil@Gu@physx@@QEBAII@Z 0000000180096170 f   GuHeightFieldUtil.obj
 0001:00095350       ?getEdgeFaceIndex@HeightFieldUtil@Gu@physx@@QEBAIIIII@Z 0000000180096350 f   GuHeightFieldUtil.obj
 0001:000954f0       ?getEdgeFaceIndex@HeightFieldUtil@Gu@physx@@QEBAIIIPEIBI@Z 00000001800964f0 f   GuHeightFieldUtil.obj
 0001:000955a0       ?getFaceIndexAtShapePoint@HeightFieldUtil@Gu@physx@@QEBAIMM@Z 00000001800965a0 f   GuHeightFieldUtil.obj
 0001:000956b0       ?getTriangle@HeightFieldUtil@Gu@physx@@QEBAIAEBVPxTransform@3@AEAVPxTriangle@3@PEAI2I_N3@Z 00000001800966b0 f   GuHeightFieldUtil.obj
 0001:00095ed0       ?getTriangleAdjacencyIndices@HeightField@Gu@physx@@QEBAXIIIIAEAI00@Z 0000000180096ed0 f i GuHeightFieldUtil.obj
 0001:00096080       ?getTriangleVertexIndices@HeightField@Gu@physx@@QEBAXIAEAI00@Z 0000000180097080 f i GuHeightFieldUtil.obj
 0001:00096140       ?getVertexFaceIndex@HeightFieldUtil@Gu@physx@@QEBAIIII@Z 0000000180097140 f   GuHeightFieldUtil.obj
 0001:000963a0       ?getVertexNormal@HeightFieldUtil@Gu@physx@@QEBA?AVPxVec3@3@III@Z 00000001800973a0 f   GuHeightFieldUtil.obj
 0001:00096700       ?overlapAABBTriangles@HeightFieldUtil@Gu@physx@@QEBA_NAEBVPxTransform@3@AEBVPxBounds3@3@IPEAV?$EntityReport@I@23@@Z 0000000180097700 f   GuHeightFieldUtil.obj
 0001:00096d40       ??$traceSegment@UTriggerTraceSegmentCallback@Gu@physx@@$0A@$0A@@HeightFieldTraceUtil@Gu@physx@@QEBAXAEBVPxVec3@2@0MPEAUTriggerTraceSegmentCallback@12@AEBVPxBounds3@2@_NPEBV32@@Z 0000000180097d40 f i GuOverlapTestsHF.obj
 0001:00097d80       ?GeomOverlapCallback_BoxHeightfield@@YA_NAEBVPxGeometry@physx@@AEBVPxTransform@2@01PEAUTriggerCache@Gu@2@@Z 0000000180098d80 f   GuOverlapTestsHF.obj
 0001:000980f0       ?GeomOverlapCallback_CapsuleHeightfield@@YA_NAEBVPxGeometry@physx@@AEBVPxTransform@2@01PEAUTriggerCache@Gu@2@@Z 00000001800990f0 f   GuOverlapTestsHF.obj
 0001:00098330       ?GeomOverlapCallback_ConvexHeightfield@@YA_NAEBVPxGeometry@physx@@AEBVPxTransform@2@01PEAUTriggerCache@Gu@2@@Z 0000000180099330 f   GuOverlapTestsHF.obj
 0001:000983a0       ?GeomOverlapCallback_SphereHeightfield@@YA_NAEBVPxGeometry@physx@@AEBVPxTransform@2@01PEAUTriggerCache@Gu@2@@Z 00000001800993a0 f   GuOverlapTestsHF.obj
 0001:00098570       ?checkOverlapAABB_heightFieldGeom@Gu@physx@@YA_NAEBVPxGeometry@2@AEBVPxTransform@2@AEBVPxBounds3@2@@Z 0000000180099570 f   GuOverlapTestsHF.obj
 0001:0009b800       ??$gjkRaycast@U?$LocalConvex@VTriangleV@Gu@physx@@@Gu@physx@@U?$LocalConvex@VConvexHullV@Gu@physx@@@23@@Gu@physx@@YA_NAEBU?$LocalConvex@VTriangleV@Gu@physx@@@01@AEBU?$LocalConvex@VConvexHullV@Gu@physx@@@01@AEBT__m128@@222AEAT4@33M@Z 000000018009c800 f i GuSweepsHF.obj
 0001:0009c600       ??$traceSegment@VBoxTraceSegmentReport@@$0A@$00@HeightFieldTraceUtil@Gu@physx@@QEBAXAEBVPxVec3@2@0MPEAVBoxTraceSegmentReport@@AEBVPxBounds3@2@_NPEBV32@@Z 000000018009d600 f i GuSweepsHF.obj
 0001:0009c600       ??$traceSegment@VCapsuleTraceSegmentReport@@$0A@$00@HeightFieldTraceUtil@Gu@physx@@QEBAXAEBVPxVec3@2@0MPEAVCapsuleTraceSegmentReport@@AEBVPxBounds3@2@_NPEBV32@@Z 000000018009d600 f i GuSweepsHF.obj
 0001:0009c600       ??$traceSegment@VConvexTraceSegmentReport@@$0A@$00@HeightFieldTraceUtil@Gu@physx@@QEBAXAEBVPxVec3@2@0MPEAVConvexTraceSegmentReport@@AEBVPxBounds3@2@_NPEBV32@@Z 000000018009d600 f i GuSweepsHF.obj
 0001:0009ce20       ??0ConvexTraceSegmentReport@@QEAA@AEBVHeightFieldUtil@Gu@physx@@AEBUConvexHullData@23@AEBVPxMeshScale@3@AEBVPxTransform@3@3AEBVPxVec3@3@MV?$PxFlags@W4Enum@PxHitFlag@physx@@G@3@M@Z 000000018009de20 f i GuSweepsHF.obj
 0001:0009d7c0       ??_EBoxTraceSegmentReport@@UEAAPEAXI@Z 000000018009e7c0 f i GuSweepsHF.obj
 0001:0009d7c0       ??_GBoxTraceSegmentReport@@UEAAPEAXI@Z 000000018009e7c0 f i GuSweepsHF.obj
 0001:0009d7f0       ??_ECapsuleTraceSegmentReport@@UEAAPEAXI@Z 000000018009e7f0 f i GuSweepsHF.obj
 0001:0009d7f0       ??_GCapsuleTraceSegmentReport@@UEAAPEAXI@Z 000000018009e7f0 f i GuSweepsHF.obj
 0001:0009d820       ??_EConvexTraceSegmentReport@@UEAAPEAXI@Z 000000018009e820 f i GuSweepsHF.obj
 0001:0009d820       ??_GConvexTraceSegmentReport@@UEAAPEAXI@Z 000000018009e820 f i GuSweepsHF.obj
 0001:0009d850       ??_EHeightFieldTraceSegmentReport@@UEAAPEAXI@Z 000000018009e850 f i GuSweepsHF.obj
 0001:0009d850       ??_GHeightFieldTraceSegmentReport@@UEAAPEAXI@Z 000000018009e850 f i GuSweepsHF.obj
 0001:0009d880       ?finalizeHit@ConvexTraceSegmentReport@@QEAA_NAEAUPxSweepHit@physx@@AEBVPxHeightFieldGeometry@3@AEBVPxTransform@3@AEBVPxConvexMeshGeometry@3@2AEBVPxVec3@3@M@Z 000000018009e880 f i GuSweepsHF.obj
 0001:0009dad0       ?onEvent@BoxTraceSegmentReport@@UEAA_NIPEAI@Z 000000018009ead0 f i GuSweepsHF.obj
 0001:0009df40       ?onEvent@CapsuleTraceSegmentReport@@UEAA_NIPEAI@Z 000000018009ef40 f i GuSweepsHF.obj
 0001:0009e190       ?onEvent@ConvexTraceSegmentReport@@UEAA_NIPEAI@Z 000000018009f190 f i GuSweepsHF.obj
 0001:0009e750       ?prepare@?$OverlapTraceSegment@VBoxTraceSegmentReport@@@HeightFieldTraceUtil@Gu@physx@@QEAAXAEBVPxVec3@4@00AEAM1@Z 000000018009f750 f i GuSweepsHF.obj
 0001:0009e750       ?prepare@?$OverlapTraceSegment@VCapsuleTraceSegmentReport@@@HeightFieldTraceUtil@Gu@physx@@QEAAXAEBVPxVec3@4@00AEAM1@Z 000000018009f750 f i GuSweepsHF.obj
 0001:0009e750       ?prepare@?$OverlapTraceSegment@VConvexTraceSegmentReport@@@HeightFieldTraceUtil@Gu@physx@@QEAAXAEBVPxVec3@4@00AEAM1@Z 000000018009f750 f i GuSweepsHF.obj
 0001:0009ea10       ?sweepBox_HeightFieldGeom@@YA_NAEBVPxGeometry@physx@@AEBVPxTransform@2@AEBVPxBoxGeometry@2@1AEBVBox@Gu@2@AEBVPxVec3@2@MAEAUPxSweepHit@2@V?$PxFlags@W4Enum@PxHitFlag@physx@@G@2@M@Z 000000018009fa10 f   GuSweepsHF.obj
 0001:0009f870       ?sweepCapsule_HeightFieldGeom@@YA_NAEBVPxGeometry@physx@@AEBVPxTransform@2@AEBVPxCapsuleGeometry@2@1AEBVCapsule@Gu@2@AEBVPxVec3@2@MAEAUPxSweepHit@2@V?$PxFlags@W4Enum@PxHitFlag@physx@@G@2@M@Z 00000001800a0870 f   GuSweepsHF.obj
 0001:000a01d0       ?sweepConvex_HeightFieldGeom@@YA_NAEBVPxGeometry@physx@@AEBVPxTransform@2@AEBVPxConvexMeshGeometry@2@1AEBVPxVec3@2@MAEAUPxSweepHit@2@V?$PxFlags@W4Enum@PxHitFlag@physx@@G@2@M@Z 00000001800a11d0 f   GuSweepsHF.obj
 0001:000a0bb0       ?testVertexIndex@?$OverlapTraceSegment@VBoxTraceSegmentReport@@@HeightFieldTraceUtil@Gu@physx@@QEAA_NI@Z 00000001800a1bb0 f i GuSweepsHF.obj
 0001:000a0bb0       ?testVertexIndex@?$OverlapTraceSegment@VCapsuleTraceSegmentReport@@@HeightFieldTraceUtil@Gu@physx@@QEAA_NI@Z 00000001800a1bb0 f i GuSweepsHF.obj
 0001:000a0bb0       ?testVertexIndex@?$OverlapTraceSegment@VConvexTraceSegmentReport@@@HeightFieldTraceUtil@Gu@physx@@QEAA_NI@Z 00000001800a1bb0 f i GuSweepsHF.obj
 0001:000a0d10       ?visitCells@?$OverlapTraceSegment@VBoxTraceSegmentReport@@@HeightFieldTraceUtil@Gu@physx@@QEAA_NAEBUOverlapRectangle@1234@@Z 00000001800a1d10 f i GuSweepsHF.obj
 0001:000a0d10       ?visitCells@?$OverlapTraceSegment@VCapsuleTraceSegmentReport@@@HeightFieldTraceUtil@Gu@physx@@QEAA_NAEBUOverlapRectangle@1234@@Z 00000001800a1d10 f i GuSweepsHF.obj
 0001:000a0d10       ?visitCells@?$OverlapTraceSegment@VConvexTraceSegmentReport@@@HeightFieldTraceUtil@Gu@physx@@QEAA_NAEBUOverlapRectangle@1234@@Z 00000001800a1d10 f i GuSweepsHF.obj
 0001:000a0f00       ?intersectOBBOBB@Gu@physx@@YA_NAEBVPxVec3@2@0AEBVPxMat33@2@001_N@Z 00000001800a1f00 f   GuIntersectionBoxBox.obj
 0001:000a1550       ?intersectCapsuleTriangle@Gu@physx@@YA_NAEBVPxVec3@2@000AEBVCapsule@12@AEBUCapsuleTriangleOverlapData@12@@Z 00000001800a2550 f   GuIntersectionCapsuleTriangle.obj
 0001:000a2140       ?intersectEdgeEdge@Gu@physx@@YA_NAEBVPxVec3@2@0000AEAMAEAV32@@Z 00000001800a3140 f   GuIntersectionEdgeEdge.obj
 0001:000a2460       ?intersectRayAABB2@Gu@physx@@YA_NAEBT__m128@@0000AEAT3@1@Z 00000001800a3460 f   GuIntersectionRayBox.obj
 0001:000a2520       ?intersectRayAABB2@Gu@physx@@YA_NAEBVPxVec3@2@000MAEAM1@Z 00000001800a3520 f   GuIntersectionRayBox.obj
 0001:000a26d0       ?intersectRayAABB@Gu@physx@@YAHAEBVPxVec3@2@000AEAM1@Z 00000001800a36d0 f   GuIntersectionRayBox.obj
 0001:000a27e0       ?rayAABBIntersect2@Gu@physx@@YAIAEBVPxVec3@2@000AEAV32@AEAM@Z 00000001800a37e0 f   GuIntersectionRayBox.obj
 0001:000a29e0       ?intersectRayCapsuleInternal@Gu@physx@@YAIAEBVPxVec3@2@000MQEAM@Z 00000001800a39e0 f   GuIntersectionRayCapsule.obj
 0001:000a3260       ?intersectRaySphere@Gu@physx@@YA_NAEBVPxVec3@2@0M0MAEAMPEAV32@@Z 00000001800a4260 f   GuIntersectionRaySphere.obj
 0001:000a3350       ?intersectRaySphereBasic@Gu@physx@@YA_NAEBVPxVec3@2@0M0MAEAMPEAV32@@Z 00000001800a4350 f   GuIntersectionRaySphere.obj
 0001:000a34b0       ?intersectSphereBox@Gu@physx@@YA_NAEBVSphere@12@AEBVBox@12@@Z 00000001800a44b0 f   GuIntersectionSphereBox.obj
 0001:000a36e0       ?intersectTriangleBox@Gu@physx@@YAHAEBVBoxPadded@12@AEBVPxVec3@2@11@Z 00000001800a46e0 f   GuIntersectionTriangleBox.obj
 0001:000a3cb0       ?intersectTriangleBoxBV4@@YAHAEBVPxVec3@physx@@00AEBVPxMat33@2@00@Z 00000001800a4cb0 f   GuIntersectionTriangleBox.obj
 0001:000a40f0       ?intersectTriangleBox_ReferenceCode@Gu@physx@@YAHAEBVPxVec3@2@0000@Z 00000001800a50f0 f   GuIntersectionTriangleBox.obj
 0001:000a48c0       ?intersectTriangleBox_Unsafe@Gu@physx@@YAHAEBVPxVec3@2@0000@Z 00000001800a58c0 f   GuIntersectionTriangleBox.obj
 0001:000a4c90       ??0BV4Tree@Gu@physx@@QEAA@PEAVSourceMesh@12@AEBVPxBounds3@2@@Z 00000001800a5c90 f   GuBV4.obj
 0001:000a4d50       ??0BV4Tree@Gu@physx@@QEAA@W4PxEMPTY@2@@Z 00000001800a5d50 f   GuBV4.obj
 0001:000a4d60       ??0BV4Tree@Gu@physx@@QEAA@XZ 00000001800a5d60 f   GuBV4.obj
 0001:000a4d90       ??0SourceMesh@Gu@physx@@QEAA@XZ 00000001800a5d90 f   GuBV4.obj
 0001:000a4db0       ??0SourceMeshBase@Gu@physx@@QEAA@XZ 00000001800a5db0 f   GuBV4.obj
 0001:000a4dc0       ??1BV4Tree@Gu@physx@@QEAA@XZ 00000001800a5dc0 f   GuBV4.obj
 0001:000a4e20       ??1SourceMesh@Gu@physx@@QEAA@XZ 00000001800a5e20 f   GuBV4.obj
 0001:000a4e20       ??1SourceMeshBase@Gu@physx@@QEAA@XZ 00000001800a5e20 f   GuBV4.obj
 0001:000a4e70       ??4BV4Tree@Gu@physx@@QEAAXAEAV012@@Z 00000001800a5e70 f   GuBV4.obj
 0001:000a4f00       ??4SourceMesh@Gu@physx@@QEAAXAEAV012@@Z 00000001800a5f00 f   GuBV4.obj
 0001:000a4f50       ?exportExtraData@BV4Tree@Gu@physx@@QEAAXAEAVPxSerializationContext@3@@Z 00000001800a5f50 f   GuBV4.obj
 0001:000a4fa0       ?importExtraData@BV4Tree@Gu@physx@@QEAAXAEAVPxDeserializationContext@3@@Z 00000001800a5fa0 f   GuBV4.obj
 0001:000a4fd0       ?init@BV32Tree@Gu@physx@@QEAA_NPEAVSourceMesh@23@AEBVPxBounds3@3@@Z 00000001800a5fd0 f   GuBV32.obj
 0001:000a4fd0       ?init@BV4Tree@Gu@physx@@QEAA_NPEAVSourceMesh@23@AEBVPxBounds3@3@@Z 00000001800a5fd0 f   GuBV4.obj
 0001:000a5070       ?load@BV4Tree@Gu@physx@@QEAA_NAEAVPxInputStream@3@_N@Z 00000001800a6070 f   GuBV4.obj
 0001:000a5290       ?remapTopology@SourceMesh@Gu@physx@@QEAAXPEBI@Z 00000001800a6290 f   GuBV4.obj
 0001:000a5580       ??0AABBTree@Gu@physx@@QEAA@XZ 00000001800a6580 f   GuBV4Build.obj
 0001:000a5590       ??0BVData@@QEAA@XZ         00000001800a6590 f   GuBV4Build.obj
 0001:000a55c0       ??1AABBTree@Gu@physx@@QEAA@XZ 00000001800a65c0 f   GuBV4Build.obj
 0001:000a55d0       ?BuildBV4Ex@Gu@physx@@YA_NAEAVBV4Tree@12@AEAVSourceMesh@12@MI@Z 00000001800a65d0 f   GuBV4Build.obj
 0001:000a6ab0       ?allocateNode@BV4BuildParams@@QEAAPEAUBV4Node@@XZ 00000001800a7ab0 f   GuBV4Build.obj
 0001:000a6bd0       ?buildFromMesh@AABBTree@Gu@physx@@QEAA_NAEAVSourceMesh@23@I@Z 00000001800a7bd0 f   GuBV4Build.obj
 0001:000a77a0       ?release@AABBTree@Gu@physx@@QEAAXXZ 00000001800a87a0 f   GuBV4Build.obj
 0001:000a7840       ?releaseNodes@BV4BuildParams@@QEAAXXZ 00000001800a8840 f   GuBV4Build.obj
 0001:000a7b10       ?walk@AABBTree@Gu@physx@@QEBAIP6A_NPEBVAABBTreeNode@23@IPEAX@Z1@Z 00000001800a8b10 f   GuBV4Build.obj
 0001:000a9d00       ?GenericSweep_AABB_CB@@YAXAEBVBox@Gu@physx@@AEBVPxVec3@3@MAEBVBV4Tree@23@P6A_NPEAX111IAEAM@Z3I@Z 00000001800aad00 f   GuBV4_AABBSweep.obj
 0001:000a9e30       ?Sweep_AABB_BV4@@YAHAEBVBox@Gu@physx@@AEBVPxVec3@3@MAEBVBV4Tree@23@PEIAVSweepHit@23@I@Z 00000001800aae30 f   GuBV4_AABBSweep.obj
 0001:000ae150       ?BV4_OverlapBoxAll@@YAIAEBVBox@Gu@physx@@AEBVBV4Tree@23@PEIBVPxMat44@3@PEAIIAEA_N@Z 00000001800af150 f   GuBV4_BoxOverlap.obj
 0001:000ae980       ?BV4_OverlapBoxAny@@YAHAEBVBox@Gu@physx@@AEBVBV4Tree@23@PEIBVPxMat44@3@@Z 00000001800af980 f   GuBV4_BoxOverlap.obj
 0001:000af160       ?BV4_OverlapBoxCB@@YAXAEBVBox@Gu@physx@@AEBVBV4Tree@23@P6A_NPEAXAEBVPxVec3@3@33IPEBI@Z2@Z 00000001800b0160 f   GuBV4_BoxOverlap.obj
 0001:000af620       ?BV4_OverlapCapsuleAll@@YAIAEBVCapsule@Gu@physx@@AEBVBV4Tree@23@PEIBVPxMat44@3@PEAIIAEA_N@Z 00000001800b0620 f   GuBV4_BoxOverlap.obj
 0001:000afd30       ?BV4_OverlapCapsuleAny@@YAHAEBVCapsule@Gu@physx@@AEBVBV4Tree@23@PEIBVPxMat44@3@@Z 00000001800b0d30 f   GuBV4_BoxOverlap.obj
 0001:000b1e70       ?BV4_CapsuleSweepSingle@@YAHAEBVCapsule@Gu@physx@@AEBVPxVec3@3@MAEBVBV4Tree@23@PEIAVSweepHit@23@I@Z 00000001800b2e70 f   GuBV4_CapsuleSweep.obj
 0001:000b5320       ?BV4_CapsuleSweepSingleAA@@YAHAEBVCapsule@Gu@physx@@AEBVPxVec3@3@MAEBVBV4Tree@23@PEIAVSweepHit@23@I@Z 00000001800b6320 f   GuBV4_CapsuleSweepAA.obj
 0001:000b9cb0       ?BV4_BoxSweepSingle@@YAHAEBVBox@Gu@physx@@AEBVPxVec3@3@MAEBVBV4Tree@23@PEIBVPxMat44@3@PEIAVSweepHit@23@I@Z 00000001800bacb0 f   GuBV4_OBBSweep.obj
 0001:000ba3e0       ?BV4_GenericSweepCB@@YAXAEBVBox@Gu@physx@@AEBVPxVec3@3@MAEBVBV4Tree@23@P6A_NPEAX111IAEAM@Z3_N@Z 00000001800bb3e0 f   GuBV4_OBBSweep.obj
 0001:000ba5d0       ?Sweep_OBB_BV4@@YAHAEBVBox@Gu@physx@@AEBVPxVec3@3@MAEBVBV4Tree@23@PEIAVSweepHit@23@I@Z 00000001800bb5d0 f   GuBV4_OBBSweep.obj
 0001:000bc5d0       ?BV4_RaycastCB@@YAXAEBVPxVec3@physx@@0AEBVBV4Tree@Gu@2@PEIBVPxMat44@2@MMIP6A?AW4HitCode@42@PEAX000IMMM@Z3@Z 00000001800bd5d0 f   GuBV4_Raycast.obj
 0001:000bc9f0       ?BV4_RaycastSingle@@YAHAEBVPxVec3@physx@@0AEBVBV4Tree@Gu@2@PEIBVPxMat44@2@PEIAUPxRaycastHit@2@MMIV?$PxFlags@W4Enum@PxHitFlag@physx@@G@2@@Z 00000001800bd9f0 f   GuBV4_Raycast.obj
 0001:000be750       ?BV4_OverlapSphereAll@@YAIAEBVSphere@Gu@physx@@AEBVBV4Tree@23@PEIBVPxMat44@3@PEAIIAEA_N@Z 00000001800bf750 f   GuBV4_SphereOverlap.obj
 0001:000bea70       ?BV4_OverlapSphereAny@@YAHAEBVSphere@Gu@physx@@AEBVBV4Tree@23@PEIBVPxMat44@3@@Z 00000001800bfa70 f   GuBV4_SphereOverlap.obj
 0001:000c0880       ?BV4_GenericSweepCB_Old@@YAXAEBVPxVec3@physx@@00MAEBVBV4Tree@Gu@2@PEIBVPxMat44@2@P6A_NPEAX000IAEAM@Z3@Z 00000001800c1880 f   GuBV4_SphereSweep.obj
 0001:000c0c80       ?BV4_SphereSweepSingle@@YAHAEBVSphere@Gu@physx@@AEBVPxVec3@3@MAEBVBV4Tree@23@PEIBVPxMat44@3@PEIAVSweepHit@23@I@Z 00000001800c1c80 f   GuBV4_SphereSweep.obj
 0001:000c1f30       ?computeSweepData@physx@@YAMAEBVPxTriangleMeshGeometry@1@AEAVPxVec3@1@11M@Z 00000001800c2f30 f i GuMidphaseBV4.obj
 0001:000c33d0       ?intersectBoxVsMesh_BV4@Gu@physx@@YA_NAEBVBox@12@AEBVTriangleMesh@12@AEBVPxTransform@2@AEBVPxMeshScale@2@PEAULimitedResults@12@@Z 00000001800c43d0 f   GuMidphaseBV4.obj
 0001:000c3ec0       ?intersectCapsuleVsMesh_BV4@Gu@physx@@YA_NAEBVCapsule@12@AEBVTriangleMesh@12@AEBVPxTransform@2@AEBVPxMeshScale@2@PEAULimitedResults@12@@Z 00000001800c4ec0 f   GuMidphaseBV4.obj
 0001:000c4700       ?intersectOBB_BV4@Gu@physx@@YAXPEBVTriangleMesh@12@AEBVBox@12@AEAU?$MeshHitCallback@UPxRaycastHit@physx@@@12@_N3@Z 00000001800c5700 f   GuMidphaseBV4.obj
 0001:000c4720       ?intersectSphereVsMesh_BV4@Gu@physx@@YA_NAEBVSphere@12@AEBVTriangleMesh@12@AEBVPxTransform@2@AEBVPxMeshScale@2@PEAULimitedResults@12@@Z 00000001800c5720 f   GuMidphaseBV4.obj
 0001:000c4e60       ?raycast_triangleMesh_BV4@Gu@physx@@YAIPEBVTriangleMesh@12@AEBVPxTriangleMeshGeometry@2@AEBVPxTransform@2@AEBVPxVec3@2@3MV?$PxFlags@W4Enum@PxHitFlag@physx@@G@2@IPEIAUPxRaycastHit@2@@Z 00000001800c5e60 f   GuMidphaseBV4.obj
 0001:000c5c40       ?sweepBox_MeshGeom_BV4@Gu@physx@@YA_NPEBVTriangleMesh@12@AEBVPxTriangleMeshGeometry@2@AEBVPxTransform@2@AEBVBox@12@AEBVPxVec3@2@MAEAUPxSweepHit@2@V?$PxFlags@W4Enum@PxHitFlag@physx@@G@2@M@Z 00000001800c6c40 f   GuMidphaseBV4.obj
 0001:000c7320       ?sweepCapsule_MeshGeom_BV4@Gu@physx@@YA_NPEBVTriangleMesh@12@AEBVPxTriangleMeshGeometry@2@AEBVPxTransform@2@AEBVCapsule@12@AEBVPxVec3@2@MAEAUPxSweepHit@2@V?$PxFlags@W4Enum@PxHitFlag@physx@@G@2@M@Z 00000001800c8320 f   GuMidphaseBV4.obj
 0001:000c7e30       ?sweepConvex_MeshGeom_BV4@Gu@physx@@YAXPEBVTriangleMesh@12@AEBVBox@12@AEBVPxVec3@2@MAEAUSweepConvexMeshHitCallback@12@_N@Z 00000001800c8e30 f   GuMidphaseBV4.obj
 0001:000c7e70       ?transform@PxMeshScale@physx@@QEBA?AVPxVec3@2@AEBV32@@Z 00000001800c8e70 f i GuMidphaseBV4.obj
 0001:000c80b0       ?findOverlapHeightField@PxMeshQuery@physx@@SAIAEBVPxGeometry@2@AEBVPxTransform@2@AEBVPxHeightFieldGeometry@2@1PEAIIIAEA_N@Z 00000001800c90b0 f   GuMeshQuery.obj
 0001:000c8780       ?findOverlapTriangleMesh@PxMeshQuery@physx@@SAIAEBVPxGeometry@2@AEBVPxTransform@2@AEBVPxTriangleMeshGeometry@2@1PEAIIIAEA_N@Z 00000001800c9780 f   GuMeshQuery.obj
 0001:000c8ac0       ?getTriangle@PxMeshQuery@physx@@SAXAEBVPxHeightFieldGeometry@2@AEBVPxTransform@2@IAEAVPxTriangle@2@PEAI3@Z 00000001800c9ac0 f   GuMeshQuery.obj
 0001:000c8b40       ?getTriangle@PxMeshQuery@physx@@SAXAEBVPxTriangleMeshGeometry@2@AEBVPxTransform@2@IAEAVPxTriangle@2@PEAI3@Z 00000001800c9b40 f   GuMeshQuery.obj
 0001:000c90b0       ?sweep@PxMeshQuery@physx@@SA_NAEBVPxVec3@2@MAEBVPxGeometry@2@AEBVPxTransform@2@IPEBVPxTriangle@2@AEAUPxSweepHit@2@V?$PxFlags@W4Enum@PxHitFlag@physx@@G@2@PEBIM_N@Z 00000001800ca0b0 f   GuMeshQuery.obj
 0001:000c9480       ??$collide@$00$00@MeshRayCollider@@SAXAEBVPxVec3@physx@@0M_NPEBVRTreeTriangleMesh@Gu@2@AEAU?$MeshHitCallback@UPxRaycastHit@physx@@@42@PEBV12@@Z 00000001800ca480 f i GuMidphaseRTree.obj
 0001:000c9800       ??$collide@$00$0A@@MeshRayCollider@@SAXAEBVPxVec3@physx@@0M_NPEBVRTreeTriangleMesh@Gu@2@AEAU?$MeshHitCallback@UPxRaycastHit@physx@@@42@PEBV12@@Z 00000001800ca800 f i GuMidphaseRTree.obj
 0001:000c9a40       ??$collide@$0A@$00@MeshRayCollider@@SAXAEBVPxVec3@physx@@0M_NPEBVRTreeTriangleMesh@Gu@2@AEAU?$MeshHitCallback@UPxRaycastHit@physx@@@42@PEBV12@@Z 00000001800caa40 f i GuMidphaseRTree.obj
 0001:000cbe10       ??0?$RayRTreeCallback@$00$0A@@@QEAA@MAEAU?$MeshHitCallback@UPxRaycastHit@physx@@@Gu@physx@@HPEBXPEBVPxVec3@3@AEBV43@3M_N2@Z 00000001800cce10 f i GuMidphaseRTree.obj
 0001:000cbf40       ??1?$RayRTreeCallback@$00$00@@UEAA@XZ 00000001800ccf40 f i GuMidphaseRTree.obj
 0001:000cbfd0       ??1?$RayRTreeCallback@$00$0A@@@UEAA@XZ 00000001800ccfd0 f i GuMidphaseRTree.obj
 0001:000cbfd0       ??1?$RayRTreeCallback@$0A@$0A@@@UEAA@XZ 00000001800ccfd0 f i GuMidphaseRTree.obj
 0001:000cc060       ??1?$RayRTreeCallback@$0A@$00@@UEAA@XZ 00000001800cd060 f i GuMidphaseRTree.obj
 0001:000cc0e8       ??_E?$RayRTreeCallback@$00$00@@W7EAAPEAXI@Z 00000001800cd0e8 f i GuMidphaseRTree.obj
 0001:000cc0f4       ??_E?$RayRTreeCallback@$00$0A@@@W7EAAPEAXI@Z 00000001800cd0f4 f i GuMidphaseRTree.obj
 0001:000cc0f4       ??_E?$RayRTreeCallback@$0A@$0A@@@W7EAAPEAXI@Z 00000001800cd0f4 f i GuMidphaseRTree.obj
 0001:000cc100       ??_E?$RayRTreeCallback@$0A@$00@@W7EAAPEAXI@Z 00000001800cd100 f i GuMidphaseRTree.obj
 0001:000cc170       ??_E?$RayRTreeCallback@$00$00@@UEAAPEAXI@Z 00000001800cd170 f i GuMidphaseRTree.obj
 0001:000cc170       ??_G?$RayRTreeCallback@$00$00@@UEAAPEAXI@Z 00000001800cd170 f i GuMidphaseRTree.obj
 0001:000cc1b0       ??_E?$RayRTreeCallback@$00$0A@@@UEAAPEAXI@Z 00000001800cd1b0 f i GuMidphaseRTree.obj
 0001:000cc1b0       ??_E?$RayRTreeCallback@$0A@$0A@@@UEAAPEAXI@Z 00000001800cd1b0 f i GuMidphaseRTree.obj
 0001:000cc1b0       ??_G?$RayRTreeCallback@$00$0A@@@UEAAPEAXI@Z 00000001800cd1b0 f i GuMidphaseRTree.obj
 0001:000cc1b0       ??_G?$RayRTreeCallback@$0A@$0A@@@UEAAPEAXI@Z 00000001800cd1b0 f i GuMidphaseRTree.obj
 0001:000cc1f0       ??_E?$RayRTreeCallback@$0A@$00@@UEAAPEAXI@Z 00000001800cd1f0 f i GuMidphaseRTree.obj
 0001:000cc1f0       ??_G?$RayRTreeCallback@$0A@$00@@UEAAPEAXI@Z 00000001800cd1f0 f i GuMidphaseRTree.obj
 0001:000cc230       ??_ECallback@RTree@Gu@physx@@UEAAPEAXI@Z 00000001800cd230 f i GuMidphaseRTree.obj
 0001:000cc230       ??_GCallback@RTree@Gu@physx@@UEAAPEAXI@Z 00000001800cd230 f i GuMidphaseRTree.obj
 0001:000cc260       ??_ECallbackRaycast@RTree@Gu@physx@@UEAAPEAXI@Z 00000001800cd260 f i GuMidphaseRTree.obj
 0001:000cc260       ??_ECallbackRefit@RTree@Gu@physx@@UEAAPEAXI@Z 00000001800cd260 f i GuTriangleMeshRTree.obj
 0001:000cc260       ??_GCallbackRaycast@RTree@Gu@physx@@UEAAPEAXI@Z 00000001800cd260 f i GuMidphaseRTree.obj
 0001:000cc260       ??_GCallbackRefit@RTree@Gu@physx@@UEAAPEAXI@Z 00000001800cd260 f i GuTriangleMeshRTree.obj
 0001:000cc290       ??_ERayMeshColliderCallback@@UEAAPEAXI@Z 00000001800cd290 f i GuMidphaseRTree.obj
 0001:000cc290       ??_GRayMeshColliderCallback@@UEAAPEAXI@Z 00000001800cd290 f i GuMidphaseRTree.obj
 0001:000cc2c0       ?collideOBB@MeshRayCollider@@SAXAEBVBox@Gu@physx@@_NPEBVRTreeTriangleMesh@34@AEAU?$MeshHitCallback@UPxRaycastHit@physx@@@34@1@Z 00000001800cd2c0 f   GuMidphaseRTree.obj
 0001:000cc790       ?intersectBoxVsMesh_RTREE@Gu@physx@@YA_NAEBVBox@12@AEBVTriangleMesh@12@AEBVPxTransform@2@AEBVPxMeshScale@2@PEAULimitedResults@12@@Z 00000001800cd790 f   GuMidphaseRTree.obj
 0001:000cc800       ?intersectCapsuleVsMesh_RTREE@Gu@physx@@YA_NAEBVCapsule@12@AEBVTriangleMesh@12@AEBVPxTransform@2@AEBVPxMeshScale@2@PEAULimitedResults@12@@Z 00000001800cd800 f   GuMidphaseRTree.obj
 0001:000cc880       ?intersectOBB_RTREE@Gu@physx@@YAXPEBVTriangleMesh@12@AEBVBox@12@AEAU?$MeshHitCallback@UPxRaycastHit@physx@@@12@_N3@Z 00000001800cd880 f   GuMidphaseRTree.obj
 0001:000cc8b0       ?intersectSphereVsMesh_RTREE@Gu@physx@@YA_NAEBVSphere@12@AEBVTriangleMesh@12@AEBVPxTransform@2@AEBVPxMeshScale@2@PEAULimitedResults@12@@Z 00000001800cd8b0 f   GuMidphaseRTree.obj
 0001:000cd6d0       ?processHit@RayMeshColliderCallback@@UEAA_NAEBUPxRaycastHit@physx@@AEBVPxVec3@3@11AEAMPEBI@Z 00000001800ce6d0 f i GuMidphaseRTree.obj
 0001:000cde50       ?processResults@?$RayRTreeCallback@$00$00@@UEAA_NIPEAI@Z 00000001800cee50 f i GuMidphaseRTree.obj
 0001:000ce200       ?processResults@?$RayRTreeCallback@$00$00@@UEAA_NIPEAIAEAM@Z 00000001800cf200 f i GuMidphaseRTree.obj
 0001:000ce5a0       ?processResults@?$RayRTreeCallback@$00$0A@@@UEAA_NIPEAI@Z 00000001800cf5a0 f i GuMidphaseRTree.obj
 0001:000ce5a0       ?processResults@?$RayRTreeCallback@$0A@$0A@@@UEAA_NIPEAI@Z 00000001800cf5a0 f i GuMidphaseRTree.obj
 0001:000ce830       ?processResults@?$RayRTreeCallback@$00$0A@@@UEAA_NIPEAIAEAM@Z 00000001800cf830 f i GuMidphaseRTree.obj
 0001:000ce830       ?processResults@?$RayRTreeCallback@$0A@$0A@@@UEAA_NIPEAIAEAM@Z 00000001800cf830 f i GuMidphaseRTree.obj
 0001:000ceaf0       ?processResults@?$RayRTreeCallback@$0A@$00@@UEAA_NIPEAI@Z 00000001800cfaf0 f i GuMidphaseRTree.obj
 0001:000cf160       ?processResults@?$RayRTreeCallback@$0A@$00@@UEAA_NIPEAIAEAM@Z 00000001800d0160 f i GuMidphaseRTree.obj
 0001:000cf7e0       ?raycast_triangleMesh_RTREE@Gu@physx@@YAIPEBVTriangleMesh@12@AEBVPxTriangleMeshGeometry@2@AEBVPxTransform@2@AEBVPxVec3@2@3MV?$PxFlags@W4Enum@PxHitFlag@physx@@G@2@IPEIAUPxRaycastHit@2@@Z 00000001800d07e0 f   GuMidphaseRTree.obj
 0001:000cff70       ?sweepBox_MeshGeom_RTREE@Gu@physx@@YA_NPEBVTriangleMesh@12@AEBVPxTriangleMeshGeometry@2@AEBVPxTransform@2@AEBVBox@12@AEBVPxVec3@2@MAEAUPxSweepHit@2@V?$PxFlags@W4Enum@PxHitFlag@physx@@G@2@M@Z 00000001800d0f70 f   GuMidphaseRTree.obj
 0001:000d1440       ?sweepCapsule_MeshGeom_RTREE@Gu@physx@@YA_NPEBVTriangleMesh@12@AEBVPxTriangleMeshGeometry@2@AEBVPxTransform@2@AEBVCapsule@12@AEBVPxVec3@2@MAEAUPxSweepHit@2@V?$PxFlags@W4Enum@PxHitFlag@physx@@G@2@M@Z 00000001800d2440 f   GuMidphaseRTree.obj
 0001:000d1c40       ?sweepConvex_MeshGeom_RTREE@Gu@physx@@YAXPEBVTriangleMesh@12@AEBVBox@12@AEBVPxVec3@2@MAEAUSweepConvexMeshHitCallback@12@_N@Z 00000001800d2c40 f   GuMidphaseRTree.obj
 0001:000d1c90       ??$gjk@U?$RelativeConvex@VTriangleV@Gu@physx@@@Gu@physx@@U?$LocalConvex@VConvexHullV@Gu@physx@@@23@@Gu@physx@@YA?AW4GjkStatus@01@AEBU?$RelativeConvex@VTriangleV@Gu@physx@@@01@AEBU?$LocalConvex@VConvexHullV@Gu@physx@@@01@AEBT__m128@@2AEAT5@333@Z 00000001800d2c90 f i GuOverlapTestsMesh.obj
 0001:000d2b20       ??0ConvexVsMeshOverlapCallback@@QEAA@AEBVConvexMesh@Gu@physx@@AEBVPxMeshScale@3@AEBVFastVertex2ShapeScaling@Cm@3@AEBVPxTransform@3@3_NAEBVBox@23@@Z 00000001800d3b20 f i GuOverlapTestsMesh.obj
 0001:000d33c0       ??_EConvexVsMeshOverlapCallback@@UEAAPEAXI@Z 00000001800d43c0 f i GuOverlapTestsMesh.obj
 0001:000d33c0       ??_GConvexVsMeshOverlapCallback@@UEAAPEAXI@Z 00000001800d43c0 f i GuOverlapTestsMesh.obj
 0001:000d33f0       ?GeomOverlapCallback_BoxMesh@@YA_NAEBVPxGeometry@physx@@AEBVPxTransform@2@01PEAUTriggerCache@Gu@2@@Z 00000001800d43f0 f   GuOverlapTestsMesh.obj
 0001:000d3500       ?GeomOverlapCallback_CapsuleMesh@@YA_NAEBVPxGeometry@physx@@AEBVPxTransform@2@01PEAUTriggerCache@Gu@2@@Z 00000001800d4500 f   GuOverlapTestsMesh.obj
 0001:000d3610       ?GeomOverlapCallback_ConvexMesh@@YA_NAEBVPxGeometry@physx@@AEBVPxTransform@2@01PEAUTriggerCache@Gu@2@@Z 00000001800d4610 f   GuOverlapTestsMesh.obj
 0001:000d3c00       ?GeomOverlapCallback_SphereMesh@@YA_NAEBVPxGeometry@physx@@AEBVPxTransform@2@01PEAUTriggerCache@Gu@2@@Z 00000001800d4c00 f   GuOverlapTestsMesh.obj
 0001:000d3c70       ?checkOverlapAABB_triangleGeom@Gu@physx@@YA_NAEBVPxGeometry@2@AEBVPxTransform@2@AEBVPxBounds3@2@@Z 00000001800d4c70 f   GuOverlapTestsMesh.obj
 0001:000d3d70       ?processHit@ConvexVsMeshOverlapCallback@@UEAA_NAEBUPxRaycastHit@physx@@AEBVPxVec3@3@11AEAMPEBI@Z 00000001800d4d70 f i GuOverlapTestsMesh.obj
 0001:000d40f0       ??0RTree@Gu@physx@@QEAA@W4PxEMPTY@2@@Z 00000001800d50f0 f   GuRTree.obj
 0001:000d4100       ?exportExtraData@RTree@Gu@physx@@QEAAXAEAVPxSerializationContext@3@@Z 00000001800d5100 f   GuRTree.obj
 0001:000d4140       ?importExtraData@RTree@Gu@physx@@QEAAXAEAVPxDeserializationContext@3@@Z 00000001800d5140 f   GuRTree.obj
 0001:000d4170       ?load@RTree@Gu@physx@@QEAA_NAEAVPxInputStream@3@I_N@Z 00000001800d5170 f   GuRTree.obj
 0001:000d4480       ?refitAllStaticTree@RTree@Gu@physx@@QEAAXAEAUCallbackRefit@123@PEAVPxBounds3@3@@Z 00000001800d5480 f   GuRTree.obj
 0001:000d49e0       ?validate@RTree@Gu@physx@@QEAAXPEAUCallbackRefit@123@@Z 00000001800d59e0 f   GuRTree.obj
 0001:000d4c20       ?validateRecursive@RTree@Gu@physx@@IEAAXIURTreeNodeQ@23@PEAURTreePage@23@PEAUCallbackRefit@123@@Z 00000001800d5c20 f   GuRTree.obj
 0001:000d4de0       ??$traverseRay@$00@RTree@Gu@physx@@QEBAXAEBVPxVec3@2@0IPEAIPEAUCallbackRaycast@012@PEBV32@M@Z 00000001800d5de0 f i GuRTreeQueries.obj
 0001:000d5180       ??$traverseRay@$0A@@RTree@Gu@physx@@QEBAXAEBVPxVec3@2@0IPEAIPEAUCallbackRaycast@012@PEBV32@M@Z 00000001800d6180 f i GuRTreeQueries.obj
 0001:000d54d0       ?traverseAABB@RTree@Gu@physx@@QEBAXAEBVPxVec3@3@0IPEAIPEAUCallback@123@@Z 00000001800d64d0 f   GuRTreeQueries.obj
 0001:000d5690       ?traverseOBB@RTree@Gu@physx@@QEBAXAEBVBox@23@IPEAIPEAUCallback@123@@Z 00000001800d6690 f   GuRTreeQueries.obj
 0001:000d5f70       ??0SweepBoxMeshHitCallback@Gu@physx@@QEAA@W4Enum@CallbackMode@12@AEBVMatrix34Padded@12@M_NAEBVBox@12@AEBVPxVec3@2@44AEBV?$PxFlags@W4Enum@PxHitFlag@physx@@G@2@M2M@Z 00000001800d6f70 f   GuSweepsMesh.obj
 0001:000d6080       ??0SweepCapsuleMeshHitCallback@Gu@physx@@QEAA@AEAUPxSweepHit@2@AEBVMatrix34@Cm@2@M_NAEBVCapsule@12@AEBVPxVec3@2@AEBV?$PxFlags@W4Enum@PxHitFlag@physx@@G@2@2M@Z 00000001800d7080 f   GuSweepsMesh.obj
 0001:000d6150       ??0SweepConvexMeshHitCallback@Gu@physx@@QEAA@AEBUConvexHullData@12@AEBVPxMeshScale@2@AEBVFastVertex2ShapeScaling@Cm@2@AEBVPxTransform@2@3AEBVPxVec3@2@MV?$PxFlags@W4Enum@PxHitFlag@physx@@G@2@_NM6M@Z 00000001800d7150 f   GuSweepsMesh.obj
 0001:000d6ad0       ??_ESweepBoxMeshHitCallback@Gu@physx@@UEAAPEAXI@Z 00000001800d7ad0 f i GuSweepsMesh.obj
 0001:000d6ad0       ??_GSweepBoxMeshHitCallback@Gu@physx@@UEAAPEAXI@Z 00000001800d7ad0 f i GuSweepsMesh.obj
 0001:000d6b00       ??_ESweepCapsuleMeshHitCallback@Gu@physx@@UEAAPEAXI@Z 00000001800d7b00 f i GuSweepsMesh.obj
 0001:000d6b00       ??_GSweepCapsuleMeshHitCallback@Gu@physx@@UEAAPEAXI@Z 00000001800d7b00 f i GuSweepsMesh.obj
 0001:000d6b30       ??_ESweepConvexMeshHitCallback@Gu@physx@@UEAAPEAXI@Z 00000001800d7b30 f i GuSweepsMesh.obj
 0001:000d6b30       ??_GSweepConvexMeshHitCallback@Gu@physx@@UEAAPEAXI@Z 00000001800d7b30 f i GuSweepsMesh.obj
 0001:000d6b60       ??_ESweepShapeMeshHitCallback@Gu@physx@@UEAAPEAXI@Z 00000001800d7b60 f i GuSweepsMesh.obj
 0001:000d6b60       ??_GSweepShapeMeshHitCallback@Gu@physx@@UEAAPEAXI@Z 00000001800d7b60 f i GuSweepsMesh.obj
 0001:000d6b90       ?finalizeHit@SweepBoxMeshHitCallback@Gu@physx@@QEBA_NAEAUPxSweepHit@3@AEBVPxTriangleMeshGeometry@3@AEBVPxTransform@3@2AEBVPxVec3@3@_N4@Z 00000001800d7b90 f   GuSweepsMesh.obj
 0001:000d7260       ?finalizeHit@SweepCapsuleMeshHitCallback@Gu@physx@@QEBA_NAEAUPxSweepHit@3@AEBVCapsule@23@AEBVPxTriangleMeshGeometry@3@AEBVPxTransform@3@_N@Z 00000001800d8260 f   GuSweepsMesh.obj
 0001:000d73f0       ?finalizeHit@SweepConvexMeshHitCallback@Gu@physx@@QEAA_NAEAUPxSweepHit@3@AEBVPxTriangleMeshGeometry@3@AEBVPxTransform@3@AEBVPxConvexMeshGeometry@3@2AEBVPxVec3@3@M_N555@Z 00000001800d83f0 f   GuSweepsMesh.obj
 0001:000d78d0       ?processHit@SweepBoxMeshHitCallback@Gu@physx@@UEAA_NAEBUPxRaycastHit@3@AEBVPxVec3@3@11AEAMPEBI@Z 00000001800d88d0 f   GuSweepsMesh.obj
 0001:000d80c0       ?processHit@SweepCapsuleMeshHitCallback@Gu@physx@@UEAA_NAEBUPxRaycastHit@3@AEBVPxVec3@3@11AEAMPEBI@Z 00000001800d90c0 f   GuSweepsMesh.obj
 0001:000d85f0       ?processHit@SweepConvexMeshHitCallback@Gu@physx@@UEAA_NAEBUPxRaycastHit@3@AEBVPxVec3@3@11AEAMPEBI@Z 00000001800d95f0 f   GuSweepsMesh.obj
 0001:000d8d50       ?sweepBox_MeshGeom@@YA_NAEBVPxGeometry@physx@@AEBVPxTransform@2@AEBVPxBoxGeometry@2@1AEBVBox@Gu@2@AEBVPxVec3@2@MAEAUPxSweepHit@2@V?$PxFlags@W4Enum@PxHitFlag@physx@@G@2@M@Z 00000001800d9d50 f   GuSweepsMesh.obj
 0001:000d8de0       ?sweepCapsule_MeshGeom@@YA_NAEBVPxGeometry@physx@@AEBVPxTransform@2@AEBVPxCapsuleGeometry@2@1AEBVCapsule@Gu@2@AEBVPxVec3@2@MAEAUPxSweepHit@2@V?$PxFlags@W4Enum@PxHitFlag@physx@@G@2@M@Z 00000001800d9de0 f   GuSweepsMesh.obj
 0001:000d8e70       ?sweepConvex_MeshGeom@@YA_NAEBVPxGeometry@physx@@AEBVPxTransform@2@AEBVPxConvexMeshGeometry@2@1AEBVPxVec3@2@MAEAUPxSweepHit@2@V?$PxFlags@W4Enum@PxHitFlag@physx@@G@2@M@Z 00000001800d9e70 f   GuSweepsMesh.obj
 0001:000d9ab0       ??0TriangleMesh@Gu@physx@@QEAA@AEAVGuMeshFactory@2@AEAVTriangleMeshData@12@@Z 00000001800daab0 f   GuTriangleMesh.obj
 0001:000d9c40       ??1TriangleMesh@Gu@physx@@UEAA@XZ 00000001800dac40 f   GuTriangleMesh.obj
 0001:000d9df4       ??_ETriangleMesh@Gu@physx@@WBA@EAAPEAXI@Z 00000001800dadf4 f i GuTriangleMesh.obj
 0001:000d9e00       ??_ETriangleMesh@Gu@physx@@UEAAPEAXI@Z 00000001800dae00 f i GuTriangleMesh.obj
 0001:000d9e00       ??_GTriangleMesh@Gu@physx@@UEAAPEAXI@Z 00000001800dae00 f i GuTriangleMesh.obj
 0001:000d9e70       ?exportExtraData@TriangleMesh@Gu@physx@@UEAAXAEAVPxSerializationContext@3@@Z 00000001800dae70 f   GuTriangleMesh.obj
 0001:000d9fb0       ?getLocalBounds@TriangleMesh@Gu@physx@@UEBA?AVPxBounds3@3@XZ 00000001800dafb0 f i GuTriangleMesh.obj
 0001:000da040       ?getNbVertices@TriangleMesh@Gu@physx@@UEBAIXZ 00000001800db040 f i GuTriangleMesh.obj
 0001:000da050       ?getTriangleMaterialIndex@TriangleMesh@Gu@physx@@UEBAGI@Z 00000001800db050 f i GuTriangleMesh.obj
 0001:000da070       ?getTriangleMeshFlags@TriangleMesh@Gu@physx@@UEBA?AV?$PxFlags@W4Enum@PxTriangleMeshFlag@physx@@E@3@XZ 00000001800db070 f i GuTriangleMesh.obj
 0001:000da080       ?getTrianglesRemap@TriangleMesh@Gu@physx@@UEBAPEBIXZ 00000001800db080 f i GuTriangleMesh.obj
 0001:000da090       ?getVertices@TriangleMesh@Gu@physx@@UEBAPEBVPxVec3@3@XZ 00000001800db090 f i GuTriangleMesh.obj
 0001:000da0a0       ?getVerticesForModification@TriangleMesh@Gu@physx@@UEAAPEAVPxVec3@3@XZ 00000001800db0a0 f   GuTriangleMesh.obj
 0001:000da0e0       ?importExtraData@TriangleMesh@Gu@physx@@QEAAXAEAVPxDeserializationContext@3@@Z 00000001800db0e0 f   GuTriangleMesh.obj
 0001:000da1f0       ?isKindOf@PxTriangleMesh@physx@@MEBA_NPEBD@Z 00000001800db1f0 f i GuTriangleMesh.obj
 0001:000da240       ?onRefCountZero@TriangleMesh@Gu@physx@@UEAAXXZ 00000001800db240 f   GuTriangleMesh.obj
 0001:000da2e0       ?refitBVH@TriangleMesh@Gu@physx@@UEAA?AVPxBounds3@3@XZ 00000001800db2e0 f   GuTriangleMesh.obj
 0001:000da3b0       ??0BV4TriangleMesh@Gu@physx@@QEAA@AEAVGuMeshFactory@2@AEAVTriangleMeshData@12@@Z 00000001800db3b0 f   GuTriangleMeshBV4.obj
 0001:000da444       ??_EBV4TriangleMesh@Gu@physx@@WBA@EAAPEAXI@Z 00000001800db444 f i GuTriangleMeshBV4.obj
 0001:000da450       ??_EBV4TriangleMesh@Gu@physx@@UEAAPEAXI@Z 00000001800db450 f i GuTriangleMeshBV4.obj
 0001:000da450       ??_GBV4TriangleMesh@Gu@physx@@UEAAPEAXI@Z 00000001800db450 f i GuTriangleMeshBV4.obj
 0001:000da4e0       ?createObject@BV4TriangleMesh@Gu@physx@@SAPEAVTriangleMesh@23@AEAPEAEAEAVPxDeserializationContext@3@@Z 00000001800db4e0 f   GuTriangleMeshBV4.obj
 0001:000da5b0       ?exportExtraData@BV4TriangleMesh@Gu@physx@@UEAAXAEAVPxSerializationContext@3@@Z 00000001800db5b0 f   GuTriangleMeshBV4.obj
 0001:000da5f0       ?getConcreteTypeName@BV4TriangleMesh@Gu@physx@@UEBAPEBDXZ 00000001800db5f0 f i GuTriangleMeshBV4.obj
 0001:000da600       ?getMidphaseID@BV4TriangleMesh@Gu@physx@@UEBA?AW4Enum@PxMeshMidPhase@3@XZ 00000001800db600 f i GuTriangleMeshBV4.obj
 0001:000da600       _get_startup_argv_mode     00000001800db600 f i MSVCRT:argv_mode.obj
 0001:000da610       ??0RTreeTriangleMesh@Gu@physx@@QEAA@AEAVGuMeshFactory@2@AEAVTriangleMeshData@12@@Z 00000001800db610 f   GuTriangleMeshRTree.obj
 0001:000da788       ??_ERTreeTriangleMesh@Gu@physx@@WBA@EAAPEAXI@Z 00000001800db788 f i GuTriangleMeshRTree.obj
 0001:000da7a0       ??_E?$RefitCallback@G@physx@@UEAAPEAXI@Z 00000001800db7a0 f i GuTriangleMeshRTree.obj
 0001:000da7a0       ??_E?$RefitCallback@I@physx@@UEAAPEAXI@Z 00000001800db7a0 f i GuTriangleMeshRTree.obj
 0001:000da7a0       ??_G?$RefitCallback@G@physx@@UEAAPEAXI@Z 00000001800db7a0 f i GuTriangleMeshRTree.obj
 0001:000da7a0       ??_G?$RefitCallback@I@physx@@UEAAPEAXI@Z 00000001800db7a0 f i GuTriangleMeshRTree.obj
 0001:000da7d0       ??_ERTreeTriangleMesh@Gu@physx@@UEAAPEAXI@Z 00000001800db7d0 f i GuTriangleMeshRTree.obj
 0001:000da7d0       ??_GRTreeTriangleMesh@Gu@physx@@UEAAPEAXI@Z 00000001800db7d0 f i GuTriangleMeshRTree.obj
 0001:000da890       ?createObject@RTreeTriangleMesh@Gu@physx@@SAPEAVTriangleMesh@23@AEAPEAEAEAVPxDeserializationContext@3@@Z 00000001800db890 f   GuTriangleMeshRTree.obj
 0001:000da910       ?exportExtraData@RTreeTriangleMesh@Gu@physx@@UEAAXAEAVPxSerializationContext@3@@Z 00000001800db910 f   GuTriangleMeshRTree.obj
 0001:000da950       ?getConcreteTypeName@RTreeTriangleMesh@Gu@physx@@UEBAPEBDXZ 00000001800db950 f i GuTriangleMeshRTree.obj
 0001:000da960       ?getMidphaseID@RTreeTriangleMesh@Gu@physx@@UEBA?AW4Enum@PxMeshMidPhase@3@XZ 00000001800db960 f i GuTriangleMeshRTree.obj
 0001:000da960       __scrt_stub_for_is_c_termination_complete 00000001800db960 f i MSVCRT:ucrt_stubs.obj
 0001:000da960       _is_c_termination_complete 00000001800db960 f i MSVCRT:ucrt_stubs.obj
 0001:000da970       ?getVerticesForModification@RTreeTriangleMesh@Gu@physx@@UEAAPEAVPxVec3@3@XZ 00000001800db970 f   GuTriangleMeshRTree.obj
 0001:000da980       ?recomputeBounds@?$RefitCallback@G@physx@@UEAAXIAEAT__m128@@0@Z 00000001800db980 f i GuTriangleMeshRTree.obj
 0001:000dacb0       ?recomputeBounds@?$RefitCallback@I@physx@@UEAAXIAEAT__m128@@0@Z 00000001800dbcb0 f i GuTriangleMeshRTree.obj
 0001:000dafd0       ?refitBVH@RTreeTriangleMesh@Gu@physx@@UEAA?AVPxBounds3@3@XZ 00000001800dbfd0 f   GuTriangleMeshRTree.obj
 0001:000db1f0       ??0BV32Tree@Gu@physx@@QEAA@PEAVSourceMesh@12@AEBVPxBounds3@2@@Z 00000001800dc1f0 f   GuBV32.obj
 0001:000db2b0       ??0BV32Tree@Gu@physx@@QEAA@XZ 00000001800dc2b0 f   GuBV32.obj
 0001:000db2e0       ??1BV32Tree@Gu@physx@@QEAA@XZ 00000001800dc2e0 f   GuBV32.obj
 0001:000db2f0       ?calculateLeafNode@BV32Tree@Gu@physx@@QEAAXAEAUBV32Data@23@@Z 00000001800dc2f0 f   GuBV32.obj
 0001:000db530       ?createSOAformatNode@BV32Tree@Gu@physx@@QEAAXAEAUBV32DataPacked@23@AEBUBV32Data@23@IAEAI2@Z 00000001800dc530 f   GuBV32.obj
 0001:000db980       ?load@BV32Tree@Gu@physx@@QEAA_NAEAVPxInputStream@3@_N@Z 00000001800dc980 f   GuBV32.obj
 0001:000dbbc0       ?release@BV32Tree@Gu@physx@@QEAAXXZ 00000001800dcbc0 f   GuBV32.obj
 0001:000dbc50       ??0BV32Node@@QEAA@XZ       00000001800dcc50 f i GuBV32Build.obj
 0001:000dbf70       ?BuildBV32Ex@Gu@physx@@YA_NAEAVBV32Tree@12@AEAVSourceMesh@12@MI@Z 00000001800dcf70 f   GuBV32Build.obj
 0001:000df6e0       ?pcmContactBoxBox@Gu@physx@@YA_NAEBVGeometryUnion@12@0AEBVPxTransform@2@1AEBUNarrowPhaseParams@12@AEAUCache@12@AEAVContactBuffer@12@PEAVRenderOutput@Cm@2@@Z 00000001800e06e0 f   GuPCMContactBoxBox.obj
 0001:000e04e0       ??$gjkPenetration@U?$RelativeConvex@VBoxV@Gu@physx@@@Gu@physx@@U?$LocalConvex@VConvexHullNoScaleV@Gu@physx@@@23@@Gu@physx@@YA?AW4GjkStatus@01@AEBU?$RelativeConvex@VBoxV@Gu@physx@@@01@AEBU?$LocalConvex@VConvexHullNoScaleV@Gu@physx@@@01@AEBT__m128@@2_NPEIAE4AEAEAEAUGjkOutput@01@@Z 00000001800e14e0 f i GuPCMContactBoxConvex.obj
 0001:000e2130       ?pcmContactBoxConvex@Gu@physx@@YA_NAEBVGeometryUnion@12@0AEBVPxTransform@2@1AEBUNarrowPhaseParams@12@AEAUCache@12@AEAVContactBuffer@12@PEAVRenderOutput@Cm@2@@Z 00000001800e3130 f   GuPCMContactBoxConvex.obj
 0001:000e2f50       ?support@?$LocalConvex@VConvexHullNoScaleV@Gu@physx@@@Gu@physx@@UEBA?AT__m128@@AEBT4@@Z 00000001800e3f50 f i GuPCMContactBoxConvex.obj
 0001:000e2fa0       ?support@?$LocalConvex@VConvexHullNoScaleV@Gu@physx@@@Gu@physx@@UEBA?AT__m128@@AEBT4@AEAH@Z 00000001800e3fa0 f i GuPCMContactBoxConvex.obj
 0001:000e3000       ?supportPoint@?$LocalConvex@VConvexHullNoScaleV@Gu@physx@@@Gu@physx@@UEBA?AT__m128@@H@Z 00000001800e4000 f i GuPCMContactBoxConvex.obj
 0001:000e3030       ?pcmContactCapsuleBox@Gu@physx@@YA_NAEBVGeometryUnion@12@0AEBVPxTransform@2@1AEBUNarrowPhaseParams@12@AEAUCache@12@AEAVContactBuffer@12@PEAVRenderOutput@Cm@2@@Z 00000001800e4030 f   GuPCMContactCapsuleBox.obj
 0001:000e3ea0       ?pcmContactCapsuleCapsule@Gu@physx@@YA_NAEBVGeometryUnion@12@0AEBVPxTransform@2@1AEBUNarrowPhaseParams@12@AEAUCache@12@AEAVContactBuffer@12@PEAVRenderOutput@Cm@2@@Z 00000001800e4ea0 f   GuPCMContactCapsuleCapsule.obj
 0001:000e4720       ??$gjkPenetration@U?$LocalConvex@VCapsuleV@Gu@physx@@@Gu@physx@@U?$LocalConvex@VConvexHullNoScaleV@Gu@physx@@@23@@Gu@physx@@YA?AW4GjkStatus@01@AEBU?$LocalConvex@VCapsuleV@Gu@physx@@@01@AEBU?$LocalConvex@VConvexHullNoScaleV@Gu@physx@@@01@AEBT__m128@@2_NPEIAE4AEAEAEAUGjkOutput@01@@Z 00000001800e5720 f i GuPCMContactCapsuleConvex.obj
 0001:000e5ef0       ?pcmContactCapsuleConvex@Gu@physx@@YA_NAEBVGeometryUnion@12@0AEBVPxTransform@2@1AEBUNarrowPhaseParams@12@AEAUCache@12@AEAVContactBuffer@12@PEAVRenderOutput@Cm@2@@Z 00000001800e6ef0 f   GuPCMContactCapsuleConvex.obj
 0001:000e7100       ??0PCMMeshContactGeneration@Gu@physx@@QEAA@AEBT__m128@@0AEBVPsTransformV@aos@shdfnd@2@1AEAVMultiplePersistentContactManifold@12@AEAVContactBuffer@12@PEAV?$InlineArray@I$0EEA@VNamedAllocator@shdfnd@physx@@@62@PEAVRenderOutput@Cm@2@@Z 00000001800e8100 f i GuPCMContactCapsuleHeightField.obj
 0001:000e7a10       ??_EPCMCapsuleVsHeightfieldContactGenerationCallback@physx@@UEAAPEAXI@Z 00000001800e8a10 f i GuPCMContactCapsuleHeightField.obj
 0001:000e7a10       ??_GPCMCapsuleVsHeightfieldContactGenerationCallback@physx@@UEAAPEAXI@Z 00000001800e8a10 f i GuPCMContactCapsuleHeightField.obj
 0001:000e7a40       ?onEvent@?$PCMHeightfieldContactGenerationCallback@UPCMCapsuleVsHeightfieldContactGenerationCallback@physx@@@Gu@physx@@UEAA_NIPEAI@Z 00000001800e8a40 f i GuPCMContactCapsuleHeightField.obj
 0001:000e7ff0       ?pcmContactCapsuleHeightField@Gu@physx@@YA_NAEBVGeometryUnion@12@0AEBVPxTransform@2@1AEBUNarrowPhaseParams@12@AEAUCache@12@AEAVContactBuffer@12@PEAVRenderOutput@Cm@2@@Z 00000001800e8ff0 f   GuPCMContactCapsuleHeightField.obj
 0001:000e8d20       ??$processTriangleCache@$0BA@@PCMCapsuleVsMeshContactGenerationCallback@physx@@QEAAXAEAU?$TriangleCache@$0BA@@Gu@1@@Z 00000001800e9d20 f i GuPCMContactCapsuleMesh.obj
 0001:000e8db0       ??_EPCMCapsuleVsMeshContactGenerationCallback@physx@@UEAAPEAXI@Z 00000001800e9db0 f i GuPCMContactCapsuleMesh.obj
 0001:000e8db0       ??_GPCMCapsuleVsMeshContactGenerationCallback@physx@@UEAAPEAXI@Z 00000001800e9db0 f i GuPCMContactCapsuleMesh.obj
 0001:000e8de0       ?pcmContactCapsuleMesh@Gu@physx@@YA_NAEBVGeometryUnion@12@0AEBVPxTransform@2@1AEBUNarrowPhaseParams@12@AEAUCache@12@AEAVContactBuffer@12@PEAVRenderOutput@Cm@2@@Z 00000001800e9de0 f   GuPCMContactCapsuleMesh.obj
 0001:000e9d10       ?processHit@?$PCMMeshContactGenerationCallback@UPCMCapsuleVsMeshContactGenerationCallback@physx@@@Gu@physx@@UEAA_NAEBUPxRaycastHit@3@AEBVPxVec3@3@11AEAMPEBI@Z 00000001800ead10 f i GuPCMContactCapsuleMesh.obj
 0001:000ea0e0       ??$sort@USortedTriangle@Gu@physx@@U?$Less@USortedTriangle@Gu@physx@@@shdfnd@3@VNamedAllocator@53@@shdfnd@physx@@YAXPEAUSortedTriangle@Gu@1@IAEBU?$Less@USortedTriangle@Gu@physx@@@01@AEBVNamedAllocator@01@I@Z 00000001800eb0e0 f i GuPCMContactConvexCommon.obj
 0001:000ea580       ?addContactsToPatch@PCMConvexVsMeshContactGeneration@Gu@physx@@QEAAXAEBT__m128@@I@Z 00000001800eb580 f   GuPCMContactConvexCommon.obj
 0001:000eaec0       ?addToPatch@PCMSphereVsMeshContactGeneration@Gu@physx@@QEAAXAEBT__m128@@0T4@I@Z 00000001800ebec0 f   GuPCMContactConvexCommon.obj
 0001:000eb580       ?allocate@?$Array@USortedTriangle@Gu@physx@@V?$InlineAllocator@$0IAA@VNamedAllocator@shdfnd@physx@@@shdfnd@3@@shdfnd@physx@@IEAAPEAUSortedTriangle@Gu@3@I@Z 00000001800ec580 f i GuPCMContactConvexCommon.obj
 0001:000eb610       ?doSupport@?$SupportLocalImpl@VTriangleV@Gu@physx@@@Gu@physx@@UEBA?AT__m128@@AEBT4@@Z 00000001800ec610 f i GuPCMContactConvexCommon.obj
 0001:000eb6a0       ?doSupport@?$SupportLocalImpl@VTriangleV@Gu@physx@@@Gu@physx@@UEBAXAEBT__m128@@AEAT4@1@Z 00000001800ec6a0 f i GuPCMContactConvexCommon.obj
 0001:000eb710       ?generateContacts@PCMCapsuleVsMeshContactGeneration@Gu@physx@@SA_NAEBT__m128@@0000I000PEAVMeshPersistentContact@23@AEAI@Z 00000001800ec710 f   GuPCMContactConvexCommon.obj
 0001:000ebb40       ?generateEE@PCMCapsuleVsMeshContactGeneration@Gu@physx@@QEAAXAEBT__m128@@000I00PEAVMeshPersistentContact@23@AEAI@Z 00000001800ecb40 f   GuPCMContactConvexCommon.obj
 0001:000ebdc0       ?generateEEMTD@PCMCapsuleVsMeshContactGeneration@Gu@physx@@SAXAEBT__m128@@000I00PEAVMeshPersistentContact@23@AEAI@Z 00000001800ecdc0 f   GuPCMContactConvexCommon.obj
 0001:000ec010       ?generateLastContacts@PCMConvexVsMeshContactGeneration@Gu@physx@@QEAAXXZ 00000001800ed010 f   GuPCMContactConvexCommon.obj
 0001:000ec570       ?generateLastContacts@PCMSphereVsMeshContactGeneration@Gu@physx@@QEAAXXZ 00000001800ed570 f   GuPCMContactConvexCommon.obj
 0001:000ec990       ?growAndPushBack@?$Array@USortedTriangle@Gu@physx@@V?$InlineAllocator@$0IAA@VNamedAllocator@shdfnd@physx@@@shdfnd@3@@shdfnd@physx@@IEAAAEAUSortedTriangle@Gu@3@AEBU453@@Z 00000001800ed990 f i GuPCMContactConvexCommon.obj
 0001:000ecfd0       ?pcmDistanceSegmentTriangleSquared@Gu@physx@@YA?AT__m128@@AEBT3@0000AEAT3@11@Z 00000001800edfd0 f   GuPCMContactConvexCommon.obj
 0001:000ed910       ?populateVerts@?$SupportLocalImpl@VTriangleV@Gu@physx@@@Gu@physx@@UEBAXPEBEIPEBVPxVec3@3@PEAT__m128@@@Z 00000001800ee910 f i GuPCMContactConvexCommon.obj
 0001:000eda50       ?processTriangle@PCMCapsuleVsMeshContactGeneration@Gu@physx@@QEAA_NPEBVPxVec3@3@IEPEBI@Z 00000001800eea50 f   GuPCMContactConvexCommon.obj
 0001:000ee640       ?processTriangle@PCMCapsuleVsMeshContactGeneration@Gu@physx@@SA_NAEBVTriangleV@23@IAEBVCapsuleV@23@AEBT__m128@@EPEAVMeshPersistentContact@23@AEAI@Z 00000001800ef640 f   GuPCMContactConvexCommon.obj
 0001:000ee980       ?processTriangle@PCMConvexVsMeshContactGeneration@Gu@physx@@QEAA_NPEBVPxVec3@3@IEPEBI@Z 00000001800ef980 f   GuPCMContactConvexCommon.obj
 0001:000eeed0       ?processTriangle@PCMConvexVsMeshContactGeneration@Gu@physx@@SA_NAEBUPolygonalData@23@PEAVSupportLocal@23@PEBVPxVec3@3@IEAEBT__m128@@_NAEBVPsTransformV@aos@shdfnd@3@AEBVPsMatTransformV@9shdfnd@3@PEAVMeshPersistentContact@23@AEAI@Z 00000001800efed0 f   GuPCMContactConvexCommon.obj
 0001:000ef150       ?processTriangle@PCMSphereVsMeshContactGeneration@Gu@physx@@QEAA_NPEBVPxVec3@3@IEPEBI@Z 00000001800f0150 f   GuPCMContactConvexCommon.obj
 0001:000ef560       ??$gjkPenetration@U?$RelativeConvex@VConvexHullNoScaleV@Gu@physx@@@Gu@physx@@U?$LocalConvex@VConvexHullNoScaleV@Gu@physx@@@23@@Gu@physx@@YA?AW4GjkStatus@01@AEBU?$RelativeConvex@VConvexHullNoScaleV@Gu@physx@@@01@AEBU?$LocalConvex@VConvexHullNoScaleV@Gu@physx@@@01@AEBT__m128@@2_NPEIAE4AEAEAEAUGjkOutput@01@@Z 00000001800f0560 f i GuPCMContactConvexConvex.obj
 0001:000f0b20       ??$gjkPenetration@U?$RelativeConvex@VConvexHullNoScaleV@Gu@physx@@@Gu@physx@@U?$LocalConvex@VConvexHullV@Gu@physx@@@23@@Gu@physx@@YA?AW4GjkStatus@01@AEBU?$RelativeConvex@VConvexHullNoScaleV@Gu@physx@@@01@AEBU?$LocalConvex@VConvexHullV@Gu@physx@@@01@AEBT__m128@@2_NPEIAE4AEAEAEAUGjkOutput@01@@Z 00000001800f1b20 f i GuPCMContactConvexConvex.obj
 0001:000f2190       ??$gjkPenetration@U?$RelativeConvex@VConvexHullV@Gu@physx@@@Gu@physx@@U?$LocalConvex@VConvexHullNoScaleV@Gu@physx@@@23@@Gu@physx@@YA?AW4GjkStatus@01@AEBU?$RelativeConvex@VConvexHullV@Gu@physx@@@01@AEBU?$LocalConvex@VConvexHullNoScaleV@Gu@physx@@@01@AEBT__m128@@2_NPEIAE4AEAEAEAUGjkOutput@01@@Z 00000001800f3190 f i GuPCMContactConvexConvex.obj
 0001:000f41f0       ?pcmContactConvexConvex@Gu@physx@@YA_NAEBVGeometryUnion@12@0AEBVPxTransform@2@1AEBUNarrowPhaseParams@12@AEAUCache@12@AEAVContactBuffer@12@PEAVRenderOutput@Cm@2@@Z 00000001800f51f0 f   GuPCMContactConvexConvex.obj
 0001:000f5350       ?support@?$RelativeConvex@VConvexHullNoScaleV@Gu@physx@@@Gu@physx@@UEBA?AT__m128@@AEBT4@@Z 00000001800f6350 f i GuPCMContactConvexConvex.obj
 0001:000f5400       ?support@?$RelativeConvex@VConvexHullNoScaleV@Gu@physx@@@Gu@physx@@UEBA?AT__m128@@AEBT4@AEAH@Z 00000001800f6400 f i GuPCMContactConvexConvex.obj
 0001:000f54c0       ?supportPoint@?$RelativeConvex@VConvexHullNoScaleV@Gu@physx@@@Gu@physx@@UEBA?AT__m128@@H@Z 00000001800f64c0 f i GuPCMContactConvexConvex.obj
 0001:000f5520       ??_EPCMConvexVsHeightfieldContactGenerationCallback@physx@@UEAAPEAXI@Z 00000001800f6520 f i GuPCMContactConvexHeightField.obj
 0001:000f5520       ??_GPCMConvexVsHeightfieldContactGenerationCallback@physx@@UEAAPEAXI@Z 00000001800f6520 f i GuPCMContactConvexHeightField.obj
 0001:000f5550       ?PCMContactConvexHeightfield@Gu@physx@@YA_NAEBUPolygonalData@12@PEAVSupportLocal@12@AEBT__m128@@AEBVPxBounds3@2@AEBVPxHeightFieldGeometry@2@AEBVPxTransform@2@5MAEAVContactBuffer@12@AEBVFastVertex2ShapeScaling@Cm@2@_NAEAVMultiplePersistentContactManifold@12@PEAVRenderOutput@Cm@2@@Z 00000001800f6550 f   GuPCMContactConvexHeightField.obj
 0001:000f60e0       ?onEvent@?$PCMHeightfieldContactGenerationCallback@UPCMConvexVsHeightfieldContactGenerationCallback@physx@@@Gu@physx@@UEAA_NIPEAI@Z 00000001800f70e0 f i GuPCMContactConvexHeightField.obj
 0001:000f6690       ?pcmContactBoxHeightField@Gu@physx@@YA_NAEBVGeometryUnion@12@0AEBVPxTransform@2@1AEBUNarrowPhaseParams@12@AEAUCache@12@AEAVContactBuffer@12@PEAVRenderOutput@Cm@2@@Z 00000001800f7690 f   GuPCMContactConvexHeightField.obj
 0001:000f6910       ?pcmContactConvexHeightField@Gu@physx@@YA_NAEBVGeometryUnion@12@0AEBVPxTransform@2@1AEBUNarrowPhaseParams@12@AEAUCache@12@AEAVContactBuffer@12@PEAVRenderOutput@Cm@2@@Z 00000001800f7910 f   GuPCMContactConvexHeightField.obj
 0001:000f6fb0       ??$processTriangleCache@$0BA@@PCMConvexVsMeshContactGenerationCallback@physx@@QEAAXAEAU?$TriangleCache@$0BA@@Gu@1@@Z 00000001800f7fb0 f i GuPCMContactConvexMesh.obj
 0001:000f7040       ??_EPCMConvexVsMeshContactGenerationCallback@physx@@UEAAPEAXI@Z 00000001800f8040 f i GuPCMContactConvexMesh.obj
 0001:000f7040       ??_GPCMConvexVsMeshContactGenerationCallback@physx@@UEAAPEAXI@Z 00000001800f8040 f i GuPCMContactConvexMesh.obj
 0001:000f7070       ?PCMContactConvexMesh@Gu@physx@@YA_NAEBUPolygonalData@12@PEAVSupportLocal@12@AEBT__m128@@AEBVPxBounds3@2@AEBUPxTriangleMeshGeometryLL@2@AEBVPxTransform@2@5MAEAVContactBuffer@12@AEBVFastVertex2ShapeScaling@Cm@2@7_N8AEAVMultiplePersistentContactManifold@12@PEAVRenderOutput@Cm@2@@Z 00000001800f8070 f   GuPCMContactConvexMesh.obj
 0001:000f7d00       ?pcmContactBoxMesh@Gu@physx@@YA_NAEBVGeometryUnion@12@0AEBVPxTransform@2@1AEBUNarrowPhaseParams@12@AEAUCache@12@AEAVContactBuffer@12@PEAVRenderOutput@Cm@2@@Z 00000001800f8d00 f   GuPCMContactConvexMesh.obj
 0001:000f8020       ?pcmContactConvexMesh@Gu@physx@@YA_NAEBVGeometryUnion@12@0AEBVPxTransform@2@1AEBUNarrowPhaseParams@12@AEAUCache@12@AEAVContactBuffer@12@PEAVRenderOutput@Cm@2@@Z 00000001800f9020 f   GuPCMContactConvexMesh.obj
 0001:000f87d0       ?processHit@?$PCMMeshContactGenerationCallback@UPCMConvexVsMeshContactGenerationCallback@physx@@@Gu@physx@@UEAA_NAEBUPxRaycastHit@3@AEBVPxVec3@3@11AEAMPEBI@Z 00000001800f97d0 f i GuPCMContactConvexMesh.obj
 0001:000f8c00       ?addGJKEPAContacts@Gu@physx@@YA_NPEBUGjkConvex@12@0AEBVPsMatTransformV@aos@shdfnd@2@W4GjkStatus@12@PEAVPersistentContact@12@T__m128@@4AEAUGjkOutput@12@AEAVPersistentContactManifold@12@@Z 00000001800f9c00 f   GuPCMContactGenBoxConvex.obj
 0001:000f8e00       ?buildPartialHull@Gu@physx@@YAXAEBUPolygonalData@12@PEAVSupportLocal@12@AEAVSeparatingAxes@12@AEBT__m128@@3@Z 00000001800f9e00 f   GuPCMContactGenBoxConvex.obj
 0001:000f90e0       ?computeMTD@Gu@physx@@YA_NAEAUPolygonalData@12@0PEAVSupportLocal@12@1AEAT__m128@@2@Z 00000001800fa0e0 f   GuPCMContactGenBoxConvex.obj
 0001:000f9740       ?generateFullContactManifold@Gu@physx@@YA_NAEAUPolygonalData@12@0PEAVSupportLocal@12@1PEAVPersistentContact@12@AEAIAEBT__m128@@444MM_NPEAVRenderOutput@Cm@2@M@Z 00000001800fa740 f   GuPCMContactGenBoxConvex.obj
 0001:000fafd0       ?generatedContacts@Gu@physx@@YAXAEAUPolygonalData@12@0AEBUHullPolygonData@12@1PEAVSupportLocal@12@2AEBVPsMatTransformV@aos@shdfnd@2@PEAVPersistentContact@12@AEAIAEBT__m128@@PEAVRenderOutput@Cm@2@@Z 00000001800fbfd0 f   GuPCMContactGenBoxConvex.obj
 0001:000fc6d0       ?computeMTD@Gu@physx@@YA_NAEBVCapsuleV@12@AEAUPolygonalData@12@PEAVSupportLocal@12@AEAT__m128@@3@Z 00000001800fd6d0 f   GuPCMContactGenSphereCapsule.obj
 0001:000fc7c0       ?generateCapsuleBoxFullContactManifold@Gu@physx@@YA_NAEBVCapsuleV@12@AEAUPolygonalData@12@PEAVSupportLocal@12@AEBVPsMatTransformV@aos@shdfnd@2@PEAVPersistentContact@12@AEAIAEBT__m128@@AEAT__m128@@6M_NMPEAVRenderOutput@Cm@2@@Z 00000001800fd7c0 f   GuPCMContactGenSphereCapsule.obj
 0001:000fd030       ?generateFullContactManifold@Gu@physx@@YA_NAEBVCapsuleV@12@AEAUPolygonalData@12@PEAVSupportLocal@12@AEBVPsMatTransformV@aos@shdfnd@2@PEAVPersistentContact@12@AEAIAEBT__m128@@AEAT__m128@@6M_NM@Z 00000001800fe030 f   GuPCMContactGenSphereCapsule.obj
 0001:000fd930       ?generateSphereFullContactManifold@Gu@physx@@YA_NAEBVCapsuleV@12@AEAUPolygonalData@12@PEAVSupportLocal@12@PEAVPersistentContact@12@AEAIAEBT__m128@@AEAT7@_N@Z 00000001800fe930 f   GuPCMContactGenSphereCapsule.obj
 0001:000fdd60       ?generatedCapsuleBoxFaceContacts@Gu@physx@@YAXAEBVCapsuleV@12@AEAUPolygonalData@12@AEBUHullPolygonData@12@PEAVSupportLocal@12@AEBVPsMatTransformV@aos@shdfnd@2@PEAVPersistentContact@12@AEAIAEBT__m128@@7@Z 00000001800fed60 f   GuPCMContactGenSphereCapsule.obj
 0001:000fe500       ?generatedContactsEEContacts@Gu@physx@@YAXAEBVCapsuleV@12@AEAUPolygonalData@12@AEBUHullPolygonData@12@PEAVSupportLocal@12@AEBVPsMatTransformV@aos@shdfnd@2@PEAVPersistentContact@12@AEAIAEBT__m128@@7@Z 00000001800ff500 f   GuPCMContactGenSphereCapsule.obj
 0001:000ff190       ?pcmContactPlaneBox@Gu@physx@@YA_NAEBVGeometryUnion@12@0AEBVPxTransform@2@1AEBUNarrowPhaseParams@12@AEAUCache@12@AEAVContactBuffer@12@PEAVRenderOutput@Cm@2@@Z 0000000180100190 f   GuPCMContactPlaneBox.obj
 0001:000ffd80       ?pcmContactPlaneCapsule@Gu@physx@@YA_NAEBVGeometryUnion@12@0AEBVPxTransform@2@1AEBUNarrowPhaseParams@12@AEAUCache@12@AEAVContactBuffer@12@PEAVRenderOutput@Cm@2@@Z 0000000180100d80 f   GuPCMContactPlaneCapsule.obj
 0001:00100520       ?pcmContactPlaneConvex@Gu@physx@@YA_NAEBVGeometryUnion@12@0AEBVPxTransform@2@1AEBUNarrowPhaseParams@12@AEAUCache@12@AEAVContactBuffer@12@PEAVRenderOutput@Cm@2@@Z 0000000180101520 f   GuPCMContactPlaneConvex.obj
 0001:00100e90       ?pcmContactSphereBox@Gu@physx@@YA_NAEBVGeometryUnion@12@0AEBVPxTransform@2@1AEBUNarrowPhaseParams@12@AEAUCache@12@AEAVContactBuffer@12@PEAVRenderOutput@Cm@2@@Z 0000000180101e90 f   GuPCMContactSphereBox.obj
 0001:00101300       ?pcmContactSphereCapsule@Gu@physx@@YA_NAEBVGeometryUnion@12@0AEBVPxTransform@2@1AEBUNarrowPhaseParams@12@AEAUCache@12@AEAVContactBuffer@12@PEAVRenderOutput@Cm@2@@Z 0000000180102300 f   GuPCMContactSphereCapsule.obj
 0001:00101750       ?pcmContactSphereConvex@Gu@physx@@YA_NAEBVGeometryUnion@12@0AEBVPxTransform@2@1AEBUNarrowPhaseParams@12@AEAUCache@12@AEAVContactBuffer@12@PEAVRenderOutput@Cm@2@@Z 0000000180102750 f   GuPCMContactSphereConvex.obj
 0001:00102430       ??1PCMSphereVsHeightfieldContactGenerationCallback@physx@@UEAA@XZ 0000000180103430 f i GuPCMContactSphereHeightField.obj
 0001:001024a0       ??_EPCMSphereVsHeightfieldContactGenerationCallback@physx@@UEAAPEAXI@Z 00000001801034a0 f i GuPCMContactSphereHeightField.obj
 0001:001024a0       ??_GPCMSphereVsHeightfieldContactGenerationCallback@physx@@UEAAPEAXI@Z 00000001801034a0 f i GuPCMContactSphereHeightField.obj
 0001:001024e0       ?onEvent@?$PCMHeightfieldContactGenerationCallback@UPCMSphereVsHeightfieldContactGenerationCallback@physx@@@Gu@physx@@UEAA_NIPEAI@Z 00000001801034e0 f i GuPCMContactSphereHeightField.obj
 0001:00102a90       ?pcmContactSphereHeightField@Gu@physx@@YA_NAEBVGeometryUnion@12@0AEBVPxTransform@2@1AEBUNarrowPhaseParams@12@AEAUCache@12@AEAVContactBuffer@12@PEAVRenderOutput@Cm@2@@Z 0000000180103a90 f   GuPCMContactSphereHeightField.obj
 0001:001036b0       ??$processTriangleCache@$0BA@@PCMSphereVsMeshContactGenerationCallback@physx@@QEAAXAEAU?$TriangleCache@$0BA@@Gu@1@@Z 00000001801046b0 f i GuPCMContactSphereMesh.obj
 0001:00103740       ??1PCMSphereVsMeshContactGenerationCallback@physx@@UEAA@XZ 0000000180104740 f i GuPCMContactSphereMesh.obj
 0001:001037b0       ??_EPCMSphereVsMeshContactGenerationCallback@physx@@UEAAPEAXI@Z 00000001801047b0 f i GuPCMContactSphereMesh.obj
 0001:001037b0       ??_GPCMSphereVsMeshContactGenerationCallback@physx@@UEAAPEAXI@Z 00000001801047b0 f i GuPCMContactSphereMesh.obj
 0001:001037f0       ?pcmContactSphereMesh@Gu@physx@@YA_NAEBVGeometryUnion@12@0AEBVPxTransform@2@1AEBUNarrowPhaseParams@12@AEAUCache@12@AEAVContactBuffer@12@PEAVRenderOutput@Cm@2@@Z 00000001801047f0 f   GuPCMContactSphereMesh.obj
 0001:00104570       ?processHit@?$PCMMeshContactGenerationCallback@UPCMSphereVsMeshContactGenerationCallback@physx@@@Gu@physx@@UEAA_NAEBUPxRaycastHit@3@AEBVPxVec3@3@11AEAMPEBI@Z 0000000180105570 f i GuPCMContactSphereMesh.obj
 0001:00104940       ?pcmContactSpherePlane@Gu@physx@@YA_NAEBVGeometryUnion@12@0AEBVPxTransform@2@1AEBUNarrowPhaseParams@12@AEAUCache@12@AEAVContactBuffer@12@PEAVRenderOutput@Cm@2@@Z 0000000180105940 f   GuPCMContactSpherePlane.obj
 0001:00104ad0       ?pcmContactSphereSphere@Gu@physx@@YA_NAEBVGeometryUnion@12@0AEBVPxTransform@2@1AEBUNarrowPhaseParams@12@AEAUCache@12@AEAVContactBuffer@12@PEAVRenderOutput@Cm@2@@Z 0000000180105ad0 f   GuPCMContactSphereSphere.obj
 0001:00104bb0       ?getPCMConvexData@Gu@physx@@YAXAEBVConvexHullV@12@_NAEAUPolygonalData@12@@Z 0000000180105bb0 f   GuPCMShapeConvex.obj
 0001:00104d10       ?getPCMConvexData@Gu@physx@@YA_NAEBVGeometryUnion@12@AEAVFastVertex2ShapeScaling@Cm@2@AEAVPxBounds3@2@AEAUPolygonalData@12@@Z 0000000180105d10 f   GuPCMShapeConvex.obj
 0001:001050d0       ?getPolygonalData@PCMPolygonalBox@Gu@physx@@QEBAXPEIAUPolygonalData@23@@Z 00000001801060d0 f   GuPCMShapeConvex.obj
 0001:00105120       ?generatePolyDataContactManifold@PCMConvexVsMeshContactGeneration@Gu@physx@@QEAA_NAEAVTriangleV@23@IIEPEAVMeshPersistentContact@23@AEAIAEBT__m128@@AEAT6@@Z 0000000180106120 f   GuPCMTriangleContactGen.obj
 0001:00105240       ?generateTriangleFullContactManifold@PCMConvexVsMeshContactGeneration@Gu@physx@@QEAA_NAEAVTriangleV@23@IPEBIEAEBUPolygonalData@23@PEAV?$SupportLocalImpl@VTriangleV@Gu@physx@@@23@PEAVSupportLocal@23@PEAVMeshPersistentContact@23@AEAIAEBT__m128@@AEAT9@@Z 0000000180106240 f   GuPCMTriangleContactGen.obj
 0001:00105b40       ?generateTriangleFullContactManifold@PCMConvexVsMeshContactGeneration@Gu@physx@@SA_NAEAVTriangleV@23@IEAEBUPolygonalData@23@PEAV?$SupportLocalImpl@VTriangleV@Gu@physx@@@23@PEAVSupportLocal@23@PEAVMeshPersistentContact@23@AEAIAEBT__m128@@AEAT9@PEAVRenderOutput@Cm@3@@Z 0000000180106b40 f   GuPCMTriangleContactGen.obj
 0001:00108290       ?addBatchManifoldContacts2@PersistentContactManifold@Gu@physx@@QEAAXPEBVPersistentContact@23@I@Z 0000000180109290 f   GuPersistentContactManifold.obj
 0001:00108300       ?addBatchManifoldContacts@PersistentContactManifold@Gu@physx@@QEAAXPEBVPersistentContact@23@IM@Z 0000000180109300 f   GuPersistentContactManifold.obj
 0001:00108380       ?addBatchManifoldContactsCluster@PersistentContactManifold@Gu@physx@@QEAAXPEBVPersistentContact@23@I@Z 0000000180109380 f   GuPersistentContactManifold.obj
 0001:00108600       ?addManifoldContactPoints@MultiplePersistentContactManifold@Gu@physx@@QEAAXPEAVMeshPersistentContact@23@IPEAPEAUPCMContactPatch@23@IAEBT__m128@@2E@Z 0000000180109600 f   GuPersistentContactManifold.obj
 0001:001089f0       ?addManifoldContactsToContactBuffer@MultiplePersistentContactManifold@Gu@physx@@QEAA_NAEAVContactBuffer@23@AEBVPsTransformV@aos@shdfnd@3@1AEBT__m128@@@Z 00000001801099f0 f   GuPersistentContactManifold.obj
 0001:00108cb0       ?addManifoldContactsToContactBuffer@MultiplePersistentContactManifold@Gu@physx@@QEAA_NAEAVContactBuffer@23@AEBVPsTransformV@aos@shdfnd@3@@Z 0000000180109cb0 f   GuPersistentContactManifold.obj
 0001:00108f40       ?addManifoldContactsToContactBuffer@PersistentContactManifold@Gu@physx@@QEAAXAEAVContactBuffer@23@AEBT__m128@@1AEBVPsTransformV@aos@shdfnd@3@11@Z 0000000180109f40 f   GuPersistentContactManifold.obj
 0001:001090d0       ?addManifoldContactsToContactBuffer@PersistentContactManifold@Gu@physx@@QEAAXAEAVContactBuffer@23@AEBT__m128@@AEBVPsMatTransformV@aos@shdfnd@3@@Z 000000018010a0d0 f   GuPersistentContactManifold.obj
 0001:00109170       ?addManifoldContactsToContactBuffer@PersistentContactManifold@Gu@physx@@QEAAXAEAVContactBuffer@23@AEBT__m128@@AEBVPsTransformV@aos@shdfnd@3@1@Z 000000018010a170 f   GuPersistentContactManifold.obj
 0001:001092d0       ?addManifoldPoint2@PersistentContactManifold@Gu@physx@@QEAAIAEBT__m128@@000@Z 000000018010a2d0 f   GuPersistentContactManifold.obj
 0001:00109400       ?addManifoldPoint@Gu@physx@@YAXPEAVPersistentContact@12@AEAVPersistentContactManifold@12@AEAUGjkOutput@12@AEBVPsMatTransformV@aos@shdfnd@2@T__m128@@@Z 000000018010a400 f   GuPersistentContactManifold.obj
 0001:001095b0       ?addManifoldPoint@PersistentContactManifold@Gu@physx@@QEAAIAEBT__m128@@000@Z 000000018010a5b0 f   GuPersistentContactManifold.obj
 0001:00109a00       ?drawLine@MultiplePersistentContactManifold@Gu@physx@@SAXAEAVRenderOutput@Cm@3@AEBT__m128@@1I@Z 000000018010aa00 f   GuPersistentContactManifold.obj
 0001:00109ac0       ?drawLine@MultiplePersistentContactManifold@Gu@physx@@SAXAEAVRenderOutput@Cm@3@VPxVec3@3@1I@Z 000000018010aac0 f   GuPersistentContactManifold.obj
 0001:00109b80       ?drawManifold@MultiplePersistentContactManifold@Gu@physx@@QEAAXAEAVRenderOutput@Cm@3@AEBVPsTransformV@aos@shdfnd@3@1@Z 000000018010ab80 f   GuPersistentContactManifold.obj
 0001:0010a330       ?drawPoint@MultiplePersistentContactManifold@Gu@physx@@SAXAEAVRenderOutput@Cm@3@AEBT__m128@@MI@Z 000000018010b330 f   GuPersistentContactManifold.obj
 0001:0010a510       ?drawPolygon@MultiplePersistentContactManifold@Gu@physx@@SAXAEAVRenderOutput@Cm@3@AEBVPsTransformV@aos@shdfnd@3@PEAT__m128@@II@Z 000000018010b510 f   GuPersistentContactManifold.obj
 0001:0010a780       ?findRotationMatrixFromZAxis@Gu@physx@@YA?AUMat33V@aos@shdfnd@2@AEBT__m128@@@Z 000000018010b780 f   GuPersistentContactManifold.obj
 0001:0010aa00       ?fromBuffer@MultiplePersistentContactManifold@Gu@physx@@QEAAXPEIAE@Z 000000018010ba00 f   GuPersistentContactManifold.obj
 0001:0010ab50       ?reduceBatchContacts2@PersistentContactManifold@Gu@physx@@QEAAXPEBVPersistentContact@23@I@Z 000000018010bb50 f   GuPersistentContactManifold.obj
 0001:0010ad50       ?reduceBatchContacts@PersistentContactManifold@Gu@physx@@QEAAXPEBVPersistentContact@23@IM@Z 000000018010bd50 f   GuPersistentContactManifold.obj
 0001:0010b220       ?reduceBatchContactsCapsule@SinglePersistentContactManifold@Gu@physx@@QEAA?AT__m128@@PEBVMeshPersistentContact@23@IAEAUPCMContactPatch@23@@Z 000000018010c220 f   GuPersistentContactManifold.obj
 0001:0010b4b0       ?reduceBatchContactsCluster@PersistentContactManifold@Gu@physx@@QEAAXPEBVPersistentContact@23@I@Z 000000018010c4b0 f   GuPersistentContactManifold.obj
 0001:0010b950       ?reduceBatchContactsConvex@SinglePersistentContactManifold@Gu@physx@@QEAA?AT__m128@@PEBVMeshPersistentContact@23@IAEAUPCMContactPatch@23@@Z 000000018010c950 f   GuPersistentContactManifold.obj
 0001:0010bf50       ?reduceContacts@SinglePersistentContactManifold@Gu@physx@@SAIPEAVMeshPersistentContact@23@I@Z 000000018010cf50 f   GuPersistentContactManifold.obj
 0001:0010c460       ?reduceContactsForPCM@PersistentContactManifold@Gu@physx@@QEAAIAEBT__m128@@00@Z 000000018010d460 f   GuPersistentContactManifold.obj
 0001:0010ca00       ?refreshContactPoints@SinglePersistentContactManifold@Gu@physx@@QEAA?AT__m128@@AEBVPsMatTransformV@aos@shdfnd@3@AEBT4@1@Z 000000018010da00 f   GuPersistentContactManifold.obj
 0001:0010cb50       ?replaceManifoldPoint@PersistentContactManifold@Gu@physx@@QEAA_NAEBT__m128@@000@Z 000000018010db50 f   GuPersistentContactManifold.obj
 0001:0010cc10       ?sweepBoxBox@Gu@physx@@YA_NAEBVBox@12@0AEBVPxVec3@2@MV?$PxFlags@W4Enum@PxHitFlag@physx@@G@2@AEAUPxSweepHit@2@@Z 000000018010dc10 f   GuSweepBoxBox.obj
 0001:0010e250       ?sweepBoxSphere@Gu@physx@@YA_NAEBVBox@12@MAEBVPxVec3@2@1MAEAMAEAV42@V?$PxFlags@W4Enum@PxHitFlag@physx@@G@2@@Z 000000018010f250 f   GuSweepBoxSphere.obj
 0001:0010ef10       ?sweepBoxTriangle@Gu@physx@@YA_NAEBVPxTriangle@2@AEBVPxBounds3@2@AEBVPxVec3@2@2AEAV52@3AEAM_N@Z 000000018010ff10 f   GuSweepBoxTriangle_FeatureBased.obj
 0001:00110630       ?triBoxSweepTestBoxSpace@Gu@physx@@YAHAEBVPxTriangle@2@AEBVPxVec3@2@11MAEAM_N@Z 0000000180111630 f   GuSweepBoxTriangle_SAT.obj
 0001:00111f30       ?sweepCapsuleBox@Gu@physx@@YA_NAEBVCapsule@12@AEBVPxTransform@2@AEBVPxVec3@2@2MAEAV52@AEAM3V?$PxFlags@W4Enum@PxHitFlag@physx@@G@2@@Z 0000000180112f30 f   GuSweepCapsuleBox.obj
 0001:001122b0       ?distancePointSegmentSquared@Gu@physx@@YAMAEBVSegment@12@AEBVPxVec3@2@PEAM@Z 00000001801132b0 f i GuSweepCapsuleCapsule.obj
 0001:00112630       ?sweepCapsuleCapsule@Gu@physx@@YA_NAEBVCapsule@12@0AEBVPxVec3@2@MAEAMAEAV42@3IAEAG@Z 0000000180113630 f   GuSweepCapsuleCapsule.obj
 0001:00113440       ?sweepCapsuleTriangles_Precise@Gu@physx@@YA_NIPEIBVPxTriangle@2@AEBVCapsule@12@AEBVPxVec3@2@MPEIBIAEAUPxSweepHit@2@AEAV52@V?$PxFlags@W4Enum@PxHitFlag@physx@@G@2@_NPEBVBoxPadded@12@@Z 0000000180114440 f   GuSweepCapsuleTriangle.obj
 0001:001155c0       ?sweepSphereCapsule@Gu@physx@@YA_NAEBVSphere@12@AEBVCapsule@12@AEBVPxVec3@2@MAEAMAEAV52@4V?$PxFlags@W4Enum@PxHitFlag@physx@@G@2@@Z 00000001801165c0 f   GuSweepSphereCapsule.obj
 0001:00115c60       ?sweepSphereSphere@Gu@physx@@YA_NAEBVPxVec3@2@M0M0AEAMAEAV32@@Z 0000000180116c60 f   GuSweepSphereSphere.obj
 0001:00115ed0       ?sweepSphereTriangles@Gu@physx@@YA_NIPEIBVPxTriangle@2@AEBVPxVec3@2@M1MPEIBIAEAUPxSweepHit@2@AEAV42@_N555@Z 0000000180116ed0 f   GuSweepSphereTriangle.obj
 0001:001167a0       ?sweepSphereVSQuad@Gu@physx@@YA_NPEIBVPxVec3@2@AEBV32@1M1AEAM@Z 00000001801177a0 f   GuSweepSphereTriangle.obj
 0001:00117d00       ?sweepSphereVSTri@Gu@physx@@YA_NPEIBVPxVec3@2@AEBV32@1M1AEAMAEA_N_N@Z 0000000180118d00 f   GuSweepSphereTriangle.obj
 0001:00118bd0       ??$gjk@U?$LocalConvex@VTriangleV@Gu@physx@@@Gu@physx@@U?$LocalConvex@VBoxV@Gu@physx@@@23@@Gu@physx@@YA?AW4GjkStatus@01@AEBU?$LocalConvex@VTriangleV@Gu@physx@@@01@AEBU?$LocalConvex@VBoxV@Gu@physx@@@01@AEBT__m128@@2AEAT5@333@Z 0000000180119bd0 f i GuSweepTriangleUtils.obj
 0001:001198c0       ?computeBoxTriImpactData@Gu@physx@@YAXAEAVPxVec3@2@0AEBV32@1AEBVPxTriangle@2@M@Z 000000018011a8c0 f   GuSweepTriangleUtils.obj
 0001:00119b50       ?computeEdgeEdgeNormal@Gu@physx@@YAXAEAVPxVec3@2@AEBV32@1111M@Z 000000018011ab50 f   GuSweepTriangleUtils.obj
 0001:00119e10       ?computeSphereTriImpactData@Gu@physx@@YAXAEAVPxVec3@2@0AEBV32@1MAEBVPxTriangle@2@@Z 000000018011ae10 f   GuSweepTriangleUtils.obj
 0001:0011a2ec       __imp_load_PxGetFoundation 000000018011b2ec f   PhysXFoundation_64:PhysXFoundation_64.dll
 0001:0011a2f8       __tailMerge_physxfoundation_64_dll 000000018011b2f8     PhysXFoundation_64:PhysXFoundation_64.dll
 0001:0011a371       __imp_load_?getAllocator@shdfnd@physx@@YAAEAVPxAllocatorCallback@2@XZ 000000018011b371 f   PhysXFoundation_64:PhysXFoundation_64.dll
 0001:0011a37d       __imp_load_?getInstance@Foundation@shdfnd@physx@@SAAEAV123@XZ 000000018011b37d f   PhysXFoundation_64:PhysXFoundation_64.dll
 0001:0011a389       __imp_load_?error@Foundation@shdfnd@physx@@QEAAXW4Enum@PxErrorCode@3@PEBDH1ZZ 000000018011b389 f   PhysXFoundation_64:PhysXFoundation_64.dll
 0001:0011a395       __imp_load_??0NamedAllocator@shdfnd@physx@@QEAA@PEBD@Z 000000018011b395 f   PhysXFoundation_64:PhysXFoundation_64.dll
 0001:0011a3a1       __imp_load_??1NamedAllocator@shdfnd@physx@@QEAA@XZ 000000018011b3a1 f   PhysXFoundation_64:PhysXFoundation_64.dll
 0001:0011a3ad       __imp_load_?allocate@NamedAllocator@shdfnd@physx@@QEAAPEAX_KPEBDH@Z 000000018011b3ad f   PhysXFoundation_64:PhysXFoundation_64.dll
 0001:0011a3b9       __imp_load_?deallocate@NamedAllocator@shdfnd@physx@@QEAAXPEAX@Z 000000018011b3b9 f   PhysXFoundation_64:PhysXFoundation_64.dll
 0001:0011a3c5       __imp_load_?vsnprintf@shdfnd@physx@@YAHPEAD_KPEBD0@Z 000000018011b3c5 f   PhysXFoundation_64:PhysXFoundation_64.dll
 0001:0011a3d1       __imp_load_??0NamedAllocator@shdfnd@physx@@QEAA@AEBV012@@Z 000000018011b3d1 f   PhysXFoundation_64:PhysXFoundation_64.dll
 0001:0011a3dd       __imp_load_??0MutexImpl@shdfnd@physx@@QEAA@XZ 000000018011b3dd f   PhysXFoundation_64:PhysXFoundation_64.dll
 0001:0011a3e9       __imp_load_??1MutexImpl@shdfnd@physx@@QEAA@XZ 000000018011b3e9 f   PhysXFoundation_64:PhysXFoundation_64.dll
 0001:0011a3f5       __imp_load_?lock@MutexImpl@shdfnd@physx@@QEAAXXZ 000000018011b3f5 f   PhysXFoundation_64:PhysXFoundation_64.dll
 0001:0011a401       __imp_load_?unlock@MutexImpl@shdfnd@physx@@QEAAXXZ 000000018011b401 f   PhysXFoundation_64:PhysXFoundation_64.dll
 0001:0011a40d       __imp_load_?getSize@MutexImpl@shdfnd@physx@@SAIXZ 000000018011b40d f   PhysXFoundation_64:PhysXFoundation_64.dll
 0001:0011a419       __imp_load_?atomicDecrement@shdfnd@physx@@YAHPECH@Z 000000018011b419 f   PhysXFoundation_64:PhysXFoundation_64.dll
 0001:0011a425       __imp_load_?PxTransformFromSegment@physx@@YA?AVPxTransform@1@AEBVPxVec3@1@0PEAM@Z 000000018011b425 f   PhysXFoundation_64:PhysXFoundation_64.dll
 0001:0011a431       __imp_load_?optimizeBoundingBox@shdfnd@physx@@YA?AVPxVec3@2@AEAVPxMat33@2@@Z 000000018011b431 f   PhysXFoundation_64:PhysXFoundation_64.dll
 0001:0011a43d       __imp_load_?allocate@TempAllocator@shdfnd@physx@@QEAAPEAX_KPEBDH@Z 000000018011b43d f   PhysXFoundation_64:PhysXFoundation_64.dll
 0001:0011a449       __imp_load_?deallocate@TempAllocator@shdfnd@physx@@QEAAXPEAX@Z 000000018011b449 f   PhysXFoundation_64:PhysXFoundation_64.dll
 0001:0011a455       __imp_load_?atomicIncrement@shdfnd@physx@@YAHPECH@Z 000000018011b455 f   PhysXFoundation_64:PhysXFoundation_64.dll
 0001:0011a461       __imp_load_PxGetProfilerCallback 000000018011b461 f   PhysXFoundation_64:PhysXFoundation_64.dll
 0001:0011a470       ?DloadAcquireSectionWriteAccess@@YAXXZ 000000018011b470 f i Delayimp:delayhlp.obj
 0001:0011a51c       ?DloadGetSRWLockFunctionPointers@@YAEXZ 000000018011b51c f i Delayimp:delayhlp.obj
 0001:0011a5bc       ?DloadMakePermanentImageCommit@@YAXPEAX_K@Z 000000018011b5bc f i Delayimp:delayhlp.obj
 0001:0011a654       ?DloadObtainSection@@YAPEAXPEAK0@Z 000000018011b654 f i Delayimp:delayhlp.obj
 0001:0011a6f0       ?DloadProtectSection@@YAXKPEAK@Z 000000018011b6f0 f i Delayimp:delayhlp.obj
 0001:0011a780       ?DloadReleaseSectionWriteAccess@@YAXXZ 000000018011b780 f i Delayimp:delayhlp.obj
 0001:0011a814       __delayLoadHelper2         000000018011b814 f   Delayimp:delayhlp.obj
 0001:0011aaec       ??3@YAXPEAX_K@Z            000000018011baec f   MSVCRT:delete_scalar_size.obj
 0001:0011aaec       ??_V@YAXPEAX@Z             000000018011baec f   MSVCRT:delete_array.obj
 0001:0011aaf4       ??_Etype_info@@UEAAPEAXI@Z 000000018011baf4 f i MSVCRT:std_type_info_static.obj
 0001:0011aaf4       ??_Gtype_info@@UEAAPEAXI@Z 000000018011baf4 f i MSVCRT:std_type_info_static.obj
 0001:0011ab20       ?__scrt_initialize_type_info@@YAXXZ 000000018011bb20 f   MSVCRT:tncleanup.obj
 0001:0011ab30       ?__scrt_uninitialize_type_info@@YAXXZ 000000018011bb30 f   MSVCRT:tncleanup.obj
 0001:0011ab50       __chkstk                   000000018011bb50 f   MSVCRT:chkstk.obj
 0001:0011ab50       _alloca_probe              000000018011bb50 f   MSVCRT:chkstk.obj
 0001:0011aba0       __vdecl_sinf4              000000018011bba0 f   MSVCRT:svml_ssinf4_dispatch.obj
 0001:0011abc0       __libm_sse2_sincosf_       000000018011bbc0 f   MSVCRT:svml_ssinf4_dispatch.obj
 0001:0011ac03       __libm_sse2_sincosf4_      000000018011bc03 f   MSVCRT:svml_ssinf4_dispatch.obj
 0001:0011ac10       ??3@YAXPEAX@Z              000000018011bc10 f   MSVCRT:delete_scalar.obj
 0001:0011af38       _DllMainCRTStartup         000000018011bf38 f   MSVCRT:dll_dllmain.obj
 0001:0011af78       __isa_available_init       000000018011bf78 f   MSVCRT:cpu_disp.obj
 0001:0011b130       __sse2_sinf4@@16           000000018011c130 f   MSVCRT:svml_ssinf4_sse2.obj
 0001:0011ba70       __sse4_sinf4@@16           000000018011ca70 f   MSVCRT:svml_ssinf4_sse4.obj
 0001:0011c1e4       __security_init_cookie     000000018011d1e4 f   MSVCRT:gs_support.obj
 0001:0011c290       DllMain                    000000018011d290 f   MSVCRT:dll_dllmain_stub.obj
 0001:0011c2b4       __local_stdio_printf_options 000000018011d2b4 f i MSVCRT:default_local_stdio_options.obj
 0001:0011c2bc       __local_stdio_scanf_options 000000018011d2bc f i MSVCRT:default_local_stdio_options.obj
 0001:0011c2c4       __scrt_initialize_default_local_stdio_options 000000018011d2c4 f   MSVCRT:default_local_stdio_options.obj
 0001:0011c2e0       __scrt_acquire_startup_lock 000000018011d2e0 f   MSVCRT:utility.obj
 0001:0011c31c       __scrt_dllmain_after_initialize_c 000000018011d31c f   MSVCRT:utility.obj
 0001:0011c350       __scrt_dllmain_before_initialize_c 000000018011d350 f   MSVCRT:utility.obj
 0001:0011c368       __scrt_dllmain_crt_thread_attach 000000018011d368 f   MSVCRT:utility.obj
 0001:0011c390       __scrt_dllmain_crt_thread_detach 000000018011d390 f   MSVCRT:utility.obj
 0001:0011c3a8       __scrt_dllmain_exception_filter 000000018011d3a8 f   MSVCRT:utility.obj
 0001:0011c408       __scrt_dllmain_uninitialize_c 000000018011d408 f   MSVCRT:utility.obj
 0001:0011c438       __scrt_dllmain_uninitialize_critical 000000018011d438 f   MSVCRT:utility.obj
 0001:0011c44c       __scrt_initialize_crt      000000018011d44c f   MSVCRT:utility.obj
 0001:0011c498       __scrt_initialize_onexit_tables 000000018011d498 f   MSVCRT:utility.obj
 0001:0011c524       __scrt_is_nonwritable_in_current_image 000000018011d524 f   MSVCRT:utility.obj
 0001:0011c5bc       __scrt_release_startup_lock 000000018011d5bc f   MSVCRT:utility.obj
 0001:0011c5e0       __scrt_uninitialize_crt    000000018011d5e0 f   MSVCRT:utility.obj
 0001:0011c60c       __scrt_get_dyn_tls_init_callback 000000018011d60c f   MSVCRT:dyn_tls_init.obj
 0001:0011c614       __crt_debugger_hook        000000018011d614 f   MSVCRT:utility_desktop.obj
 0001:0011c61c       __scrt_fastfail            000000018011d61c f   MSVCRT:utility_desktop.obj
 0001:0011c768       _RTC_Initialize            000000018011d768 f   MSVCRT:initsect.obj
 0001:0011c7a4       _RTC_Terminate             000000018011d7a4 f   MSVCRT:initsect.obj
 0001:0011c7e0       __common_ssin_cout_rare    000000018011d7e0 f   MSVCRT:svml_s_sin_cout.obj
 0001:0011c850       __scrt_is_ucrt_dll_in_use  000000018011d850 f   MSVCRT:ucrt_detection.obj
 0001:0011c85c       _purecall                  000000018011d85c f   vcruntime:VCRUNTIME140.dll
 0001:0011c862       __std_type_info_name       000000018011d862 f   vcruntime:VCRUNTIME140.dll
 0001:0011c868       memcpy                     000000018011d868 f   vcruntime:VCRUNTIME140.dll
 0001:0011c86e       memset                     000000018011d86e f   vcruntime:VCRUNTIME140.dll
 0001:0011c874       strstr                     000000018011d874 f   vcruntime:VCRUNTIME140.dll
 0001:0011c87a       __std_type_info_destroy_list 000000018011d87a f   vcruntime:VCRUNTIME140.dll
 0001:0011c880       __C_specific_handler       000000018011d880 f   vcruntime:VCRUNTIME140.dll
 0001:0011c886       tanf                       000000018011d886 f   ucrt:api-ms-win-crt-math-l1-1-0.dll
 0001:0011c88c       strcmp                     000000018011d88c f   ucrt:api-ms-win-crt-string-l1-1-0.dll
 0001:0011c892       acosf                      000000018011d892 f   ucrt:api-ms-win-crt-math-l1-1-0.dll
 0001:0011c898       free                       000000018011d898 f   ucrt:api-ms-win-crt-heap-l1-1-0.dll
 0001:0011c89e       _initterm                  000000018011d89e f   ucrt:api-ms-win-crt-runtime-l1-1-0.dll
 0001:0011c8a4       _initterm_e                000000018011d8a4 f   ucrt:api-ms-win-crt-runtime-l1-1-0.dll
 0001:0011c8aa       _seh_filter_dll            000000018011d8aa f   ucrt:api-ms-win-crt-runtime-l1-1-0.dll
 0001:0011c8b0       _configure_narrow_argv     000000018011d8b0 f   ucrt:api-ms-win-crt-runtime-l1-1-0.dll
 0001:0011c8b6       _initialize_narrow_environment 000000018011d8b6 f   ucrt:api-ms-win-crt-runtime-l1-1-0.dll
 0001:0011c8bc       _initialize_onexit_table   000000018011d8bc f   ucrt:api-ms-win-crt-runtime-l1-1-0.dll
 0001:0011c8c2       _execute_onexit_table      000000018011d8c2 f   ucrt:api-ms-win-crt-runtime-l1-1-0.dll
 0001:0011c8c8       _cexit                     000000018011d8c8 f   ucrt:api-ms-win-crt-runtime-l1-1-0.dll
 0001:0011c8d0       __acrt_initialize          000000018011d8d0 f   MSVCRT:ucrt_stubs.obj
 0001:0011c8d0       __acrt_thread_attach       000000018011d8d0 f   MSVCRT:ucrt_stubs.obj
 0001:0011c8d0       __acrt_thread_detach       000000018011d8d0 f   MSVCRT:ucrt_stubs.obj
 0001:0011c8d0       __acrt_uninitialize        000000018011d8d0 f   MSVCRT:ucrt_stubs.obj
 0001:0011c8d0       __acrt_uninitialize_critical 000000018011d8d0 f   MSVCRT:ucrt_stubs.obj
 0001:0011c8d0       __scrt_stub_for_acrt_initialize 000000018011d8d0 f   MSVCRT:ucrt_stubs.obj
 0001:0011c8d0       __scrt_stub_for_acrt_thread_attach 000000018011d8d0 f   MSVCRT:ucrt_stubs.obj
 0001:0011c8d0       __scrt_stub_for_acrt_thread_detach 000000018011d8d0 f   MSVCRT:ucrt_stubs.obj
 0001:0011c8d0       __scrt_stub_for_acrt_uninitialize 000000018011d8d0 f   MSVCRT:ucrt_stubs.obj
 0001:0011c8d0       __scrt_stub_for_acrt_uninitialize_critical 000000018011d8d0 f   MSVCRT:ucrt_stubs.obj
 0001:0011c8d0       __vcrt_initialize          000000018011d8d0 f   MSVCRT:ucrt_stubs.obj
 0001:0011c8d0       __vcrt_thread_attach       000000018011d8d0 f   MSVCRT:ucrt_stubs.obj
 0001:0011c8d0       __vcrt_thread_detach       000000018011d8d0 f   MSVCRT:ucrt_stubs.obj
 0001:0011c8d0       __vcrt_uninitialize        000000018011d8d0 f   MSVCRT:ucrt_stubs.obj
 0001:0011c8d0       __vcrt_uninitialize_critical 000000018011d8d0 f   MSVCRT:ucrt_stubs.obj
 0001:0011c8f0       _guard_dispatch_icall_nop  000000018011d8f0 f   MSVCRT:guard_dispatch.obj
 0001:0011c910       _guard_xfg_dispatch_icall_nop 000000018011d910 f   MSVCRT:guard_xfg_dispatch.obj
 0002:00000000       __imp_FreeLibrary          000000018011e000     kernel32:KERNEL32.dll
 0002:00000008       __imp_GetProcAddress       000000018011e008     kernel32:KERNEL32.dll
 0002:00000010       __imp_LoadLibraryA         000000018011e010     kernel32:KERNEL32.dll
 0002:00000018       __imp_SetUnhandledExceptionFilter 000000018011e018     kernel32:KERNEL32.dll
 0002:00000020       __imp_UnhandledExceptionFilter 000000018011e020     kernel32:KERNEL32.dll
 0002:00000028       __imp_IsDebuggerPresent    000000018011e028     kernel32:KERNEL32.dll
 0002:00000030       __imp_RtlVirtualUnwind     000000018011e030     kernel32:KERNEL32.dll
 0002:00000038       __imp_RtlLookupFunctionEntry 000000018011e038     kernel32:KERNEL32.dll
 0002:00000040       __imp_RtlCaptureContext    000000018011e040     kernel32:KERNEL32.dll
 0002:00000048       __imp_DisableThreadLibraryCalls 000000018011e048     kernel32:KERNEL32.dll
 0002:00000050       __imp_GetSystemTimeAsFileTime 000000018011e050     kernel32:KERNEL32.dll
 0002:00000058       __imp_GetCurrentThreadId   000000018011e058     kernel32:KERNEL32.dll
 0002:00000060       __imp_GetCurrentProcessId  000000018011e060     kernel32:KERNEL32.dll
 0002:00000068       __imp_QueryPerformanceCounter 000000018011e068     kernel32:KERNEL32.dll
 0002:00000070       __imp_InitializeSListHead  000000018011e070     kernel32:KERNEL32.dll
 0002:00000078       __imp_LoadLibraryExA       000000018011e078     kernel32:KERNEL32.dll
 0002:00000080       __imp_GetModuleHandleW     000000018011e080     kernel32:KERNEL32.dll
 0002:00000088       __imp_VirtualQuery         000000018011e088     kernel32:KERNEL32.dll
 0002:00000090       __imp_VirtualProtect       000000018011e090     kernel32:KERNEL32.dll
 0002:00000098       __imp_GetSystemInfo        000000018011e098     kernel32:KERNEL32.dll
 0002:000000a0       __imp_GetLastError         000000018011e0a0     kernel32:KERNEL32.dll
 0002:000000a8       __imp_RaiseException       000000018011e0a8     kernel32:KERNEL32.dll
 0002:000000b0       __imp_IsProcessorFeaturePresent 000000018011e0b0     kernel32:KERNEL32.dll
 0002:000000b8       \177KERNEL32_NULL_THUNK_DATA 000000018011e0b8     kernel32:KERNEL32.dll
 0002:000000c0       __imp_strstr               000000018011e0c0     vcruntime:VCRUNTIME140.dll
 0002:000000c8       __imp___std_type_info_destroy_list 000000018011e0c8     vcruntime:VCRUNTIME140.dll
 0002:000000d0       __imp___C_specific_handler 000000018011e0d0     vcruntime:VCRUNTIME140.dll
 0002:000000d8       __imp_memset               000000018011e0d8     vcruntime:VCRUNTIME140.dll
 0002:000000e0       __imp_memcpy               000000018011e0e0     vcruntime:VCRUNTIME140.dll
 0002:000000e8       __imp___std_type_info_name 000000018011e0e8     vcruntime:VCRUNTIME140.dll
 0002:000000f0       __imp__purecall            000000018011e0f0     vcruntime:VCRUNTIME140.dll
 0002:000000f8       \177VCRUNTIME140_NULL_THUNK_DATA 000000018011e0f8     vcruntime:VCRUNTIME140.dll
 0002:00000100       __imp_free                 000000018011e100     ucrt:api-ms-win-crt-heap-l1-1-0.dll
 0002:00000108       \177api-ms-win-crt-heap-l1-1-0_NULL_THUNK_DATA 000000018011e108     ucrt:api-ms-win-crt-heap-l1-1-0.dll
 0002:00000110       __imp_tanf                 000000018011e110     ucrt:api-ms-win-crt-math-l1-1-0.dll
 0002:00000118       __imp_acosf                000000018011e118     ucrt:api-ms-win-crt-math-l1-1-0.dll
 0002:00000120       __imp__fpclass             000000018011e120     ucrt:api-ms-win-crt-math-l1-1-0.dll
 0002:00000128       \177api-ms-win-crt-math-l1-1-0_NULL_THUNK_DATA 000000018011e128     ucrt:api-ms-win-crt-math-l1-1-0.dll
 0002:00000130       __imp__initterm            000000018011e130     ucrt:api-ms-win-crt-runtime-l1-1-0.dll
 0002:00000138       __imp__initterm_e          000000018011e138     ucrt:api-ms-win-crt-runtime-l1-1-0.dll
 0002:00000140       __imp__cexit               000000018011e140     ucrt:api-ms-win-crt-runtime-l1-1-0.dll
 0002:00000148       __imp__seh_filter_dll      000000018011e148     ucrt:api-ms-win-crt-runtime-l1-1-0.dll
 0002:00000150       __imp__execute_onexit_table 000000018011e150     ucrt:api-ms-win-crt-runtime-l1-1-0.dll
 0002:00000158       __imp__initialize_onexit_table 000000018011e158     ucrt:api-ms-win-crt-runtime-l1-1-0.dll
 0002:00000160       __imp__initialize_narrow_environment 000000018011e160     ucrt:api-ms-win-crt-runtime-l1-1-0.dll
 0002:00000168       __imp__configure_narrow_argv 000000018011e168     ucrt:api-ms-win-crt-runtime-l1-1-0.dll
 0002:00000170       \177api-ms-win-crt-runtime-l1-1-0_NULL_THUNK_DATA 000000018011e170     ucrt:api-ms-win-crt-runtime-l1-1-0.dll
 0002:00000178       __imp_strcmp               000000018011e178     ucrt:api-ms-win-crt-string-l1-1-0.dll
 0002:00000180       \177api-ms-win-crt-string-l1-1-0_NULL_THUNK_DATA 000000018011e180     ucrt:api-ms-win-crt-string-l1-1-0.dll
 0002:00000188       __guard_check_icall_fptr   000000018011e188     MSVCRT:guard_support.obj
 0002:00000190       __guard_xfg_check_icall_fptr 000000018011e190     MSVCRT:guard_support.obj
 0002:00000198       __guard_dispatch_icall_fptr 000000018011e198     MSVCRT:guard_support.obj
 0002:000001a0       __guard_xfg_dispatch_icall_fptr 000000018011e1a0     MSVCRT:guard_support.obj
 0002:000001a8       __guard_xfg_table_dispatch_icall_fptr 000000018011e1a8     MSVCRT:guard_support.obj
 0002:000001b0       __castguard_check_failure_os_handled_fptr 000000018011e1b0     MSVCRT:guard_support.obj
 0002:000001b8       __guard_memcpy_fptr        000000018011e1b8     vcruntime:softmemtag.obj
 0002:000001c0       __xc_a                     000000018011e1c0     MSVCRT:initializers.obj
 0002:000015f0       __xc_z                     000000018011f5f0     MSVCRT:initializers.obj
 0002:000015f8       __xi_a                     000000018011f5f8     MSVCRT:initializers.obj
 0002:00001600       __xi_z                     000000018011f600     MSVCRT:initializers.obj
 0002:00001608       __xp_a                     000000018011f608     MSVCRT:initializers.obj
 0002:00001610       __xp_z                     000000018011f610     MSVCRT:initializers.obj
 0002:00001618       __xt_a                     000000018011f618     MSVCRT:initializers.obj
 0002:00001620       __xt_z                     000000018011f620     MSVCRT:initializers.obj
 0002:00001630       ??_7PxCollection@physx@@6B@ 000000018011f630     CmCollection.obj
 0002:000016b0       ??_C@_0BA@DLCJDKDM@NonTrackedAlloc@ 000000018011f6b0     CmCollection.obj
 0002:000016c0       ??_7Collection@Cm@physx@@6B@ 000000018011f6c0     CmCollection.obj
 0002:00001740       ??_C@_0GE@GBACBMOC@PxCollection?3?3add?5called?5for?5an@ 000000018011f740     CmCollection.obj
 0002:000017a8       ??_C@_0DH@FBIALKPI@C?3?2_GIT?2PhysX?2physx?2source?2comm@ 000000018011f7a8     CmCollection.obj
 0002:000017e0       ??_C@_0EM@OMMGDOMK@PxCollection?3?3add?5called?5with?5a@ 000000018011f7e0     CmCollection.obj
 0002:00001830       ??_C@_0EL@CBFFIHFG@PxCollection?3?3remove?5called?5for@ 000000018011f830     CmCollection.obj
 0002:00001880       ??_C@_0EP@DBNENNLL@PxCollection?3?3addId?5called?5for?5@ 000000018011f880     CmCollection.obj
 0002:000018d0       ??_C@_0FL@DACPFKDD@PxCollection?3?3addId?5called?5with@ 000000018011f8d0     CmCollection.obj
 0002:00001930       ??_C@_0EP@GMPAMDKI@PxCollection?3?3addId?5called?5with@ 000000018011f930     CmCollection.obj
 0002:00001980       ??_C@_0FO@DIHIGAFD@PxCollection?3?3removeId?5called?5w@ 000000018011f980     CmCollection.obj
 0002:000019e0       ??_C@_0FF@MENHIPMD@PxCollection?3?3removeId?5called?5w@ 000000018011f9e0     CmCollection.obj
 0002:00001a40       ??_C@_0FK@BAFICJEM@PxCollection?3?3find?5called?5with?5@ 000000018011fa40     CmCollection.obj
 0002:00001aa0       ??_C@_0DF@CLGAFPLL@PxCollection?3?3add?$CIPxCollection?$CG@ 000000018011faa0     CmCollection.obj
 0002:00001ad8       ??_C@_0DN@DMJACFO@PxCollection?3?3add?$CIPxCollection?$CG@ 000000018011fad8     CmCollection.obj
 0002:00001b18       ??_C@_0DI@DICAIAPC@PxCollection?3?3remove?$CIPxCollecti@ 000000018011fb18     CmCollection.obj
 0002:00001b50       ??_C@_0DG@LOILDLGN@PxCollection?3?3getObjects?5called@ 000000018011fb50     CmCollection.obj
 0002:00001b88       ??_C@_0DD@GMICJLDJ@PxCollection?3?3getObjects?5called@ 000000018011fb88     CmCollection.obj
 0002:00001bc0       ??_C@_0DC@GILGGBAI@PxCollection?3?3getIds?5called?5wit@ 000000018011fbc0     CmCollection.obj
 0002:00001bf8       ??_C@_0CP@LFEKADKN@PxCollection?3?3getIds?5called?5wit@ 000000018011fbf8     CmCollection.obj
 0002:00001c30       ??_C@_0EA@FFGKAHOO@C?3?2_GIT?2PhysX?2physx?2source?2foun@ 000000018011fc30     CmCollection.obj
 0002:00001c70       ??_C@_0BM@OIFKLHDN@?$DMallocation?5names?5disabled?$DO@ 000000018011fc70     CmCollection.obj
 0002:00001c90       ??_C@_08MDGMHCHN@PtrTable@ 000000018011fc90     CmPtrTable.obj
 0002:00001c9c       ??_C@_04GKJNKENE@void@     000000018011fc9c     CmPtrTable.obj
 0002:00001ca8       ??_C@_07DFEBJDHE@mSingle@  000000018011fca8     CmPtrTable.obj
 0002:00001cb0       ??_C@_05NLHHBMOH@PxU16@    000000018011fcb0     CmPtrTable.obj
 0002:00001cb8       ??_C@_06EPKHJPIM@mCount@   000000018011fcb8     CmPtrTable.obj
 0002:00001cc0       ??_C@_04DDKJGDCM@bool@     000000018011fcc0     CmPtrTable.obj
 0002:00001cc8       ??_C@_0M@DAGELID@mOwnsMemory@ 000000018011fcc8     CmPtrTable.obj
 0002:00001cd8       ??_C@_0M@MMPOMMLP@mBufferUsed@ 000000018011fcd8     CmPtrTable.obj
 0002:00001ce8       ??_7RadixSort@Cm@physx@@6B@ 000000018011fce8     CmRadixSort.obj
 0002:00001cf0       __xmm@00000001000000010000000100000001 000000018011fcf0     CmRadixSort.obj
 0002:00001d00       __xmm@00000003000000020000000100000000 000000018011fd00     CmRadixSort.obj
 0002:00001d10       ??_7RadixSortBuffered@Cm@physx@@6B@ 000000018011fd10     CmRadixSortBuffered.obj
 0002:00001d18       ??_C@_0BJ@LFNCOACD@RadixSortBuffered?3mRanks@ 000000018011fd18     CmRadixSortBuffered.obj
 0002:00001d38       ??_C@_0DO@FKGDMALE@C?3?2_GIT?2PhysX?2physx?2source?2comm@ 000000018011fd38     CmRadixSortBuffered.obj
 0002:00001d78       ??_C@_0BK@EPKCPHOD@RadixSortBuffered?3mRanks2@ 000000018011fd78     CmRadixSortBuffered.obj
 0002:00001d94       ?sBufferSize@DebugText@Cm@physx@@2HB 000000018011fd94     CmRenderOutput.obj
 0002:00001d98       ??_C@_0DI@MNOGMMEK@C?3?2_GIT?2PhysX?2physx?2source?2foun@ 000000018011fd98     CmRenderOutput.obj
 0002:00001dd0       __real@3e19999a            000000018011fdd0     CmRenderOutput.obj
 0002:00001dd4       __real@3e800000            000000018011fdd4     CmRenderOutput.obj
 0002:00001dd8       __real@3f3504f3            000000018011fdd8     CmRenderOutput.obj
 0002:00001ddc       __real@3f800000            000000018011fddc     CmRenderOutput.obj
 0002:00001de0       __real@3fddb3d7            000000018011fde0     CmRenderOutput.obj
 0002:00001de4       __real@40c90fdb            000000018011fde4     CmRenderOutput.obj
 0002:00001df0       __xmm@7fffffff7fffffff7fffffff7fffffff 000000018011fdf0     CmRenderOutput.obj
 0002:00001e00       __xmm@80000000800000008000000080000000 000000018011fe00     CmRenderOutput.obj
 0002:00001e10       __real@3d4ccccd            000000018011fe10     CmVisualization.obj
 0002:00001e14       __real@3e490fdb            000000018011fe14     CmVisualization.obj
 0002:00001e18       __real@3e99999a            000000018011fe18     CmVisualization.obj
 0002:00001e1c       __real@3fc00000            000000018011fe1c     CmVisualization.obj
 0002:00001e20       __real@c0000000            000000018011fe20     CmVisualization.obj
 0002:00001e30       __xmm@3f800000000000000000000000000000 000000018011fe30     CmVisualization.obj
 0002:00001e40       ??_C@_0BB@CPDDPFKD@GetUpdatedModule@ 000000018011fe40     CmWindowsModuleUpdateLoader.obj
 0002:00001e58       ??_C@_0BA@EGLNOO@PhysXFoundation@ 000000018011fe58     CmWindowsDelayLoadHook.obj
 0002:00001e68       ??_C@_0M@ILKNCJKN@PhysXCommon@ 000000018011fe68     CmWindowsDelayLoadHook.obj
 0002:00001ea0       ??_C@_06EJKDJEDO@PxBase@   000000018011fea0     GuBounds.obj
 0002:00001ea8       ??_C@_0N@CDGINLLF@PxConvexMesh@ 000000018011fea8     GuBounds.obj
 0002:00001eb8       ??_C@_0O@PBAKPCEC@PxHeightField@ 000000018011feb8     GuBounds.obj
 0002:00001ec8       ??_7PxBase@physx@@6B@      000000018011fec8     GuBounds.obj
 0002:00001ef0       ??_C@_0DG@DFOCGHP@Gu?3?3GeometryUnion?3?3computeBound@ 000000018011fef0     GuBounds.obj
 0002:00001f28       ??_C@_0DG@CLODMOGO@C?3?2_GIT?2PhysX?2physx?2source?2geom@ 000000018011ff28     GuBounds.obj
 0002:00001f60       __real@358637bd            000000018011ff60     GuBounds.obj
 0002:00001f64       __real@3f000000            000000018011ff64     GuBounds.obj
 0002:00001f68       __real@3f400000            000000018011ff68     GuBounds.obj
 0002:00001f6c       __real@3f7fffef            000000018011ff6c     GuBounds.obj
 0002:00001f70       __real@3f8147ae            000000018011ff70     GuBounds.obj
 0002:00001f74       __real@7e7fffff            000000018011ff74     GuBounds.obj
 0002:00001f78       __real@7f7fffff            000000018011ff78     GuBounds.obj
 0002:00001f7c       __real@fe7fffff            000000018011ff7c     GuBounds.obj
 0002:00001f80       __xmm@000000003a83126f3a83126f3a83126f 000000018011ff80     GuBounds.obj
 0002:00001f90       __xmm@00000000ba83126fba83126fba83126f 000000018011ff90     GuBounds.obj
 0002:00001fa0       __xmm@3a83126f3a83126f3a83126f3a83126f 000000018011ffa0     GuBounds.obj
 0002:00001fb0       __xmm@3f0000003f0000003f0000003f000000 000000018011ffb0     GuBounds.obj
 0002:00001fc0       __xmm@3f8147ae3f8147ae3f8147ae3f8147ae 000000018011ffc0     GuBounds.obj
 0002:00001fd0       __xmm@ba83126fba83126fba83126fba83126f 000000018011ffd0     GuBounds.obj
 0002:00002000       __real@3f7ff972            0000000180120000     GuBox.obj
 0002:00002030       ??_7?$EntityReport@I@Gu@physx@@6B@ 0000000180120030     GuCCTSweepTests.obj
 0002:00002050       __real@3b03126f            0000000180120050     GuCCTSweepTests.obj
 0002:00002054       __real@40000000            0000000180120054     GuCCTSweepTests.obj
 0002:00002080       ??_C@_0CD@CGJJEFHC@Gu?3?3overlap?$CI?$CJ?3?5pose0?5is?5not?5val@ 0000000180120080     GuGeometryQuery.obj
 0002:000020a8       ??_C@_0DK@OFIFKHHN@C?3?2_GIT?2PhysX?2physx?2source?2geom@ 00000001801200a8     GuGeometryQuery.obj
 0002:000020e8       ??_C@_0CD@IIPBNEOD@Gu?3?3overlap?$CI?$CJ?3?5pose1?5is?5not?5val@ 00000001801200e8     GuGeometryQuery.obj
 0002:00002110       ??_C@_0CO@DGHGHPPJ@PxGeometryQuery?3?3sweep?$CI?$CJ?3?5pose0@ 0000000180120110     GuGeometryQuery.obj
 0002:00002140       ??_C@_0DN@KBDCCHIO@C?3?2_GIT?2PhysX?2physx?2source?2geom@ 0000000180120140     GuGeometryQuery.obj
 0002:00002180       ??_C@_0CO@JIBOOOGI@PxGeometryQuery?3?3sweep?$CI?$CJ?3?5pose1@ 0000000180120180     GuGeometryQuery.obj
 0002:000021b0       ??_C@_0DA@JEEBDBEM@PxGeometryQuery?3?3sweep?$CI?$CJ?3?5unitD@ 00000001801201b0     GuGeometryQuery.obj
 0002:000021e0       ??_C@_0DB@KCEKJBPE@PxGeometryQuery?3?3sweep?$CI?$CJ?3?5dista@ 00000001801201e0     GuGeometryQuery.obj
 0002:00002220       ??_C@_0FM@HAJNNJNC@PxGeometryQuery?3?3sweep?$CI?$CJ?3?5sweep@ 0000000180120220     GuGeometryQuery.obj
 0002:00002280       ??_C@_0CB@JDDBKCNL@Provided?5geometry?50?5is?5not?5vali@ 0000000180120280     GuGeometryQuery.obj
 0002:000022a8       ??_C@_0CB@CKMKHJDD@Provided?5geometry?51?5is?5not?5vali@ 00000001801202a8     GuGeometryQuery.obj
 0002:000022d0       ??_C@_0GL@GJKJELMB@PxGeometryQuery?3?3sweep?$CI?$CJ?3?5first@ 00000001801202d0     GuGeometryQuery.obj
 0002:00002340       ??_C@_0DB@OMDGMOND@PxGeometryQuery?3?3raycast?$CI?$CJ?3?5ray@ 0000000180120340     GuGeometryQuery.obj
 0002:00002378       ??_C@_0DE@MGFNMBNA@PxGeometryQuery?3?3raycast?$CI?$CJ?3?5ray@ 0000000180120378     GuGeometryQuery.obj
 0002:000023b0       ??_C@_0CP@NHLDPNEB@PxGeometryQuery?3?3raycast?$CI?$CJ?3?5pos@ 00000001801203b0     GuGeometryQuery.obj
 0002:000023e0       ??_C@_0DB@HPNPNEMP@PxGeometryQuery?3?3raycast?$CI?$CJ?3?5max@ 00000001801203e0     GuGeometryQuery.obj
 0002:00002418       ??_C@_0DC@BLMIOBO@PxGeometryQuery?3?3raycast?$CI?$CJ?3?5max@ 0000000180120418     GuGeometryQuery.obj
 0002:00002450       ??_C@_0DP@IPJGHFJE@PxGeometryQuery?3?3raycast?$CI?$CJ?3?5ray@ 0000000180120450     GuGeometryQuery.obj
 0002:00002490       ??_C@_0DF@BMEFDPAL@PxGeometryQuery?3?3pointDistance?$CI@ 0000000180120490     GuGeometryQuery.obj
 0002:000024d0       ??_C@_0GM@KKKGKIEH@PxGeometryQuery?3?3pointDistance?$CI@ 00000001801204d0     GuGeometryQuery.obj
 0002:00002540       ??_C@_0DG@IHHENNM@PxGeometryQuery?3?3getWorldBounds@ 0000000180120540     GuGeometryQuery.obj
 0002:00002578       ??_C@_0DL@LECAKFBF@PxGeometryQuery?3?3computePenetra@ 0000000180120578     GuGeometryQuery.obj
 0002:000025b8       ??_C@_0DL@BKEIDEIE@PxGeometryQuery?3?3computePenetra@ 00000001801205b8     GuGeometryQuery.obj
 0002:000025f4       __real@38d1b717            00000001801205f4     GuGeometryQuery.obj
 0002:000025f8       __real@49742400            00000001801205f8     GuGeometryQuery.obj
 0002:000025fc       __real@bf800000            00000001801205fc     GuGeometryQuery.obj
 0002:00002620       ??_C@_0CA@KJFNONEO@MaterialIndicesStruct?3?3allocate@ 0000000180120620     GuGeometryUnion.obj
 0002:00002640       ??_C@_0DL@KHOFCBKP@C?3?2_GIT?2PhysX?2physx?2source?2geom@ 0000000180120640     GuGeometryUnion.obj
 0002:000026c0       ??_7GuMeshFactory@physx@@6B@ 00000001801206c0     GuMeshFactory.obj
 0002:000026c8       ??_7MeshDataBase@Gu@physx@@6B@ 00000001801206c8     GuMeshFactory.obj
 0002:000026d0       ??_C@_06KDGGGLIJ@PxVec3@   00000001801206d0     GuMeshFactory.obj
 0002:000026d8       ??_C@_0DL@KBKAGOAF@C?3?2_GIT?2PhysX?2physx?2source?2geom@ 00000001801206d8     GuMeshFactory.obj
 0002:00002718       ??_7TriangleMeshData@Gu@physx@@6B@ 0000000180120718     GuMeshFactory.obj
 0002:00002720       ??_C@_0L@KBOFAKLO@mTriangles@ 0000000180120720     GuMeshFactory.obj
 0002:00002730       ??_C@_0BA@OCOIGPII@mGRB_triIndices@ 0000000180120730     GuMeshFactory.obj
 0002:00002740       ??_7RTreeTriangleData@Gu@physx@@6B@ 0000000180120740     GuMeshFactory.obj
 0002:00002748       ??_7BV4TriangleData@Gu@physx@@6B@ 0000000180120748     GuMeshFactory.obj
 0002:00002750       ??_C@_0BB@PAEMNLHP@FactoryListeners@ 0000000180120750     GuMeshFactory.obj
 0002:00002768       ??_C@_0DL@EPHGGAIC@C?3?2_GIT?2PhysX?2physx?2source?2geom@ 0000000180120768     GuMeshFactory.obj
 0002:000027b0       ??_C@_0GP@NHELMDAL@Loading?5triangle?5mesh?5failed?3?5D@ 00000001801207b0     GuMeshFactory.obj
 0002:00002820       ??_C@_0BP@CDOKDACA@RTree?5binary?5image?5load?5error?4@ 0000000180120820     GuMeshFactory.obj
 0002:00002840       ??_C@_0BN@MJPNIELF@BV4?5binary?5image?5load?5error?4@ 0000000180120840     GuMeshFactory.obj
 0002:00002860       ??_C@_0BO@JDPABAOF@BV32?5binary?5image?5load?5error?4@ 0000000180120860     GuMeshFactory.obj
 0002:00002880       ??_C@_0DI@MEILMFDD@C?3?2_GIT?2PhysX?2physx?2source?2foun@ 0000000180120880     GuMeshFactory.obj
 0002:000028c0       __xmm@cdcdcdcdcdcdcdcdcdcdcdcdcdcdcdcd 00000001801208c0     GuMeshFactory.obj
 0002:000028f0       ??_C@_0P@GGNFNHKF@PxTriangleMesh@ 00000001801208f0     GuMetaData.obj
 0002:00002900       ??_C@_07GFCEJNGM@Valency@  0000000180120900     GuMetaData.obj
 0002:00002908       ??_C@_07NHGKEEIN@mOffset@  0000000180120908     GuMetaData.obj
 0002:00002910       ??_C@_0BB@BAGHBMNJ@BigConvexRawData@ 0000000180120910     GuMetaData.obj
 0002:00002928       ??_C@_07PBDEJAAC@mSubdiv@  0000000180120928     GuMetaData.obj
 0002:00002930       ??_C@_0L@HNPACPGH@mNbSamples@ 0000000180120930     GuMetaData.obj
 0002:0000293c       ??_C@_04NCKNBPPK@PxU8@     000000018012093c     GuMetaData.obj
 0002:00002948       ??_C@_08DEPEKJNI@mSamples@ 0000000180120948     GuMetaData.obj
 0002:00002954       ??_C@_05LMJPANIN@PxU32@    0000000180120954     GuMetaData.obj
 0002:00002960       ??_C@_08IJDNJBMI@mNbVerts@ 0000000180120960     GuMetaData.obj
 0002:00002970       ??_C@_0M@MMKMIJAF@mNbAdjVerts@ 0000000180120970     GuMetaData.obj
 0002:00002980       ??_C@_0L@EOKMNILC@mValencies@ 0000000180120980     GuMetaData.obj
 0002:00002990       ??_C@_0P@DLGEAMHJ@mAdjacentVerts@ 0000000180120990     GuMetaData.obj
 0002:000029a0       ??_C@_0O@PFOPBKAM@BigConvexData@ 00000001801209a0     GuMetaData.obj
 0002:000029b0       ??_C@_05PLKALGFN@mData@    00000001801209b0     GuMetaData.obj
 0002:000029b8       ??_C@_08PEMCLHEM@mVBuffer@ 00000001801209b8     GuMetaData.obj
 0002:000029c8       ??_C@_09FBMAGD@Alignment@  00000001801209c8     GuMetaData.obj
 0002:000029d8       ??_C@_0BE@KFHIBEEA@InternalObjectsData@ 00000001801209d8     GuMetaData.obj
 0002:000029ec       ??_C@_06GIEBFILM@PxReal@   00000001801209ec     GuMetaData.obj
 0002:000029f8       ??_C@_07NKGFFIBH@mRadius@  00000001801209f8     GuMetaData.obj
 0002:00002a00       ??_C@_08EHFCACAE@mExtents@ 0000000180120a00     GuMetaData.obj
 0002:00002a10       ??_C@_0BA@LFMGGCBK@HullPolygonData@ 0000000180120a10     GuMetaData.obj
 0002:00002a20       ??_C@_06BOHHGLB@mPlane@    0000000180120a20     GuMetaData.obj
 0002:00002a28       ??_C@_06EHMLHGLN@mVRef8@   0000000180120a28     GuMetaData.obj
 0002:00002a30       ??_C@_09BAHHHINI@mMinIndex@ 0000000180120a30     GuMetaData.obj
 0002:00002a40       ??_C@_0P@GBLBPIPB@ConvexHullData@ 0000000180120a40     GuMetaData.obj
 0002:00002a50       ??_C@_09JDCJAPKD@PxBounds3@ 0000000180120a50     GuMetaData.obj
 0002:00002a5c       ??_C@_05NDNHIFA@mAABB@     0000000180120a5c     GuMetaData.obj
 0002:00002a68       ??_C@_0O@LNOGEMJI@mCenterOfMass@ 0000000180120a68     GuMetaData.obj
 0002:00002a78       ??_C@_09CNMCBBKH@mPolygons@ 0000000180120a78     GuMetaData.obj
 0002:00002a88       ??_C@_0BC@KKPDCFJC@mBigConvexRawData@ 0000000180120a88     GuMetaData.obj
 0002:00002aa0       ??_C@_08ELDMKGKH@mNbEdges@ 0000000180120aa0     GuMetaData.obj
 0002:00002ab0       ??_C@_0BA@CGLOHBAC@mNbHullVertices@ 0000000180120ab0     GuMetaData.obj
 0002:00002ac0       ??_C@_0M@HGFFLLDM@mNbPolygons@ 0000000180120ac0     GuMetaData.obj
 0002:00002ad0       ??_C@_09BHJEMDGO@mInternal@ 0000000180120ad0     GuMetaData.obj
 0002:00002ae0       ??_C@_0L@GMFHOMKA@ConvexMesh@ 0000000180120ae0     GuMetaData.obj
 0002:00002af0       ??_C@_0N@KECKKFLK@RefCountable@ 0000000180120af0     GuMetaData.obj
 0002:00002b00       ??_C@_09ILEBDLJH@mHullData@ 0000000180120b00     GuMetaData.obj
 0002:00002b0c       ??_C@_03DKDIKGNC@mNb@      0000000180120b0c     GuMetaData.obj
 0002:00002b10       ??_C@_0P@ENLHFHMD@mBigConvexData@ 0000000180120b10     GuMetaData.obj
 0002:00002b20       ??_C@_05ILALLCHK@mMass@    0000000180120b20     GuMetaData.obj
 0002:00002b28       ??_C@_07DBPDADGB@PxMat33@  0000000180120b28     GuMetaData.obj
 0002:00002b30       ??_C@_08FNBHNDBI@mInertia@ 0000000180120b30     GuMetaData.obj
 0002:00002b40       ??_C@_0O@FCKNKLMJ@GuMeshFactory@ 0000000180120b40     GuMetaData.obj
 0002:00002b50       ??_C@_0N@EGBCLMAK@mMeshFactory@ 0000000180120b50     GuMetaData.obj
 0002:00002b60       ??_C@_0BE@CJJAMAMK@PxHeightFieldSample@ 0000000180120b60     GuMetaData.obj
 0002:00002b74       ??_C@_05MBLIPEMA@PxI16@    0000000180120b74     GuMetaData.obj
 0002:00002b7c       ??_C@_06LNLHEAAG@height@   0000000180120b7c     GuMetaData.obj
 0002:00002b88       ??_C@_0N@HHDGHJN@PxBitAndByte@ 0000000180120b88     GuMetaData.obj
 0002:00002b98       ??_C@_0P@MBBMLBO@materialIndex0@ 0000000180120b98     GuMetaData.obj
 0002:00002ba8       ??_C@_0P@BFAKPKFP@materialIndex1@ 0000000180120ba8     GuMetaData.obj
 0002:00002bb8       ??_C@_0BD@EBLPJEOE@PxHeightFieldFlags@ 0000000180120bb8     GuMetaData.obj
 0002:00002bd0       ??_C@_0BK@FNNCFFCN@PxHeightFieldFormat?3?3Enum@ 0000000180120bd0     GuMetaData.obj
 0002:00002bf0       ??_C@_0BA@CLNFMAAA@HeightFieldData@ 0000000180120bf0     GuMetaData.obj
 0002:00002c00       ??_C@_04IMCGAIPI@rows@     0000000180120c00     GuMetaData.obj
 0002:00002c08       ??_C@_07HIFEPIJN@columns@  0000000180120c08     GuMetaData.obj
 0002:00002c10       ??_C@_08MOAGOABI@rowLimit@ 0000000180120c10     GuMetaData.obj
 0002:00002c20       ??_C@_08BAGEHOBO@colLimit@ 0000000180120c20     GuMetaData.obj
 0002:00002c30       ??_C@_09LKDBLADF@nbColumns@ 0000000180120c30     GuMetaData.obj
 0002:00002c40       ??_C@_07ODIFGGLK@samples@  0000000180120c40     GuMetaData.obj
 0002:00002c48       ??_C@_0BE@POHEGOJG@convexEdgeThreshold@ 0000000180120c48     GuMetaData.obj
 0002:00002c5c       ??_C@_05GECEPKB@flags@     0000000180120c5c     GuMetaData.obj
 0002:00002c64       ??_C@_06DLEPGFEF@format@   0000000180120c64     GuMetaData.obj
 0002:00002c70       ??_C@_0BF@MOGDNMPL@PxMaterialTableIndex@ 0000000180120c70     GuMetaData.obj
 0002:00002c88       ??_C@_0M@JMJICJJO@HeightField@ 0000000180120c88     GuMetaData.obj
 0002:00002c98       ??_C@_0O@ENGHMLJP@mSampleStride@ 0000000180120c98     GuMetaData.obj
 0002:00002ca8       ??_C@_0L@EBEEMFFB@mMinHeight@ 0000000180120ca8     GuMetaData.obj
 0002:00002cb8       ??_C@_0L@EAEIFPOF@mMaxHeight@ 0000000180120cb8     GuMetaData.obj
 0002:00002cc8       ??_C@_0N@FEFJOKKE@mModifyCount@ 0000000180120cc8     GuMetaData.obj
 0002:00002cd8       ??_C@_09PHDKHCK@RTreePage@ 0000000180120cd8     GuMetaData.obj
 0002:00002ce4       ??_C@_04LLPOBGED@minx@     0000000180120ce4     GuMetaData.obj
 0002:00002cec       ??_C@_04KCOFCHAC@miny@     0000000180120cec     GuMetaData.obj
 0002:00002cf4       ??_C@_04IJMIHEMB@minz@     0000000180120cf4     GuMetaData.obj
 0002:00002cfc       ??_C@_04GGOBOBGO@maxx@     0000000180120cfc     GuMetaData.obj
 0002:00002d04       ??_C@_04HPPKNACP@maxy@     0000000180120d04     GuMetaData.obj
 0002:00002d0c       ??_C@_04FENHIDOM@maxz@     0000000180120d0c     GuMetaData.obj
 0002:00002d14       ??_C@_04HHDFEJON@ptrs@     0000000180120d14     GuMetaData.obj
 0002:00002d1c       ??_C@_05FFEIGAJF@RTree@    0000000180120d1c     GuMetaData.obj
 0002:00002d24       ??_C@_06OMCHPNEO@PxVec4@   0000000180120d24     GuMetaData.obj
 0002:00002d30       ??_C@_0L@NBIFEFLN@mBoundsMin@ 0000000180120d30     GuMetaData.obj
 0002:00002d40       ??_C@_0L@MDAOKBNC@mBoundsMax@ 0000000180120d40     GuMetaData.obj
 0002:00002d50       ??_C@_0N@NJEHLCOF@mInvDiagonal@ 0000000180120d50     GuMetaData.obj
 0002:00002d60       ??_C@_0BA@BEFIGPFG@mDiagonalScaler@ 0000000180120d60     GuMetaData.obj
 0002:00002d70       ??_C@_09DICGGKGO@mPageSize@ 0000000180120d70     GuMetaData.obj
 0002:00002d80       ??_C@_0O@BOFFCNOL@mNumRootPages@ 0000000180120d80     GuMetaData.obj
 0002:00002d90       ??_C@_0L@JKLGBKAE@mNumLevels@ 0000000180120d90     GuMetaData.obj
 0002:00002da0       ??_C@_0M@PHDOHJGK@mTotalNodes@ 0000000180120da0     GuMetaData.obj
 0002:00002db0       ??_C@_0M@GDGHALAO@mTotalPages@ 0000000180120db0     GuMetaData.obj
 0002:00002dbc       ??_C@_06MHCBBJGP@mFlags@   0000000180120dbc     GuMetaData.obj
 0002:00002dc4       ??_C@_06MMNBLHOK@mPages@   0000000180120dc4     GuMetaData.obj
 0002:00002dd0       ??_C@_0L@LEOGNOEC@SourceMesh@ 0000000180120dd0     GuMetaData.obj
 0002:00002ddc       ??_C@_06JFCLJMNN@mVerts@   0000000180120ddc     GuMetaData.obj
 0002:00002de8       ??_C@_07MPIKOOAP@mNbTris@  0000000180120de8     GuMetaData.obj
 0002:00002df0       ??_C@_0N@FBMOMEHF@mTriangles32@ 0000000180120df0     GuMetaData.obj
 0002:00002e00       ??_C@_0N@DGCGNFBP@mTriangles16@ 0000000180120e00     GuMetaData.obj
 0002:00002e10       ??_C@_06DHAAKLFK@mRemap@   0000000180120e10     GuMetaData.obj
 0002:00002e18       ??_C@_0O@NLNHFNO@QuantizedAABB@ 0000000180120e18     GuMetaData.obj
 0002:00002e28       ??_C@_0BC@OOGBEMHH@mData?$FL0?$FN?4mExtents@ 0000000180120e28     GuMetaData.obj
 0002:00002e40       ??_C@_0BB@OCEDKIEF@mData?$FL0?$FN?4mCenter@ 0000000180120e40     GuMetaData.obj
 0002:00002e58       ??_C@_0BC@HFMEAABI@mData?$FL1?$FN?4mExtents@ 0000000180120e58     GuMetaData.obj
 0002:00002e70       ??_C@_0BB@CDMNHHIF@mData?$FL1?$FN?4mCenter@ 0000000180120e70     GuMetaData.obj
 0002:00002e88       ??_C@_0BC@CFKNCOI@mData?$FL2?$FN?4mExtents@ 0000000180120e88     GuMetaData.obj
 0002:00002ea0       ??_C@_0BB@LKCPBBIE@mData?$FL2?$FN?4mCenter@ 0000000180120ea0     GuMetaData.obj
 0002:00002eb8       ??_C@_0O@MJJKKPFN@BVDataPackedQ@ 0000000180120eb8     GuMetaData.obj
 0002:00002ec8       ??_C@_0M@PNCEBOG@LocalBounds@ 0000000180120ec8     GuMetaData.obj
 0002:00002ed8       ??_C@_07GNKDIIKJ@mCenter@  0000000180120ed8     GuMetaData.obj
 0002:00002ee0       ??_C@_05KNFBNCOH@float@    0000000180120ee0     GuMetaData.obj
 0002:00002ee8       ??_C@_0BC@LADJKHPL@mExtentsMagnitude@ 0000000180120ee8     GuMetaData.obj
 0002:00002f00       ??_C@_07HELIOLAF@BV4Tree@  0000000180120f00     GuMetaData.obj
 0002:00002f08       ??_C@_0P@EMMDNPMH@mMeshInterface@ 0000000180120f08     GuMetaData.obj
 0002:00002f18       ??_C@_0N@DCKMHLCL@mLocalBounds@ 0000000180120f18     GuMetaData.obj
 0002:00002f28       ??_C@_08EEJOMIJL@mNbNodes@ 0000000180120f28     GuMetaData.obj
 0002:00002f38       ??_C@_09FGKNPI@mInitData@  0000000180120f38     GuMetaData.obj
 0002:00002f48       ??_C@_0BC@CLDEHKCO@mCenterOrMinCoeff@ 0000000180120f48     GuMetaData.obj
 0002:00002f60       ??_C@_0BD@LAOLBNJ@mExtentsOrMaxCoeff@ 0000000180120f60     GuMetaData.obj
 0002:00002f78       ??_C@_0P@JEECKKBL@mUserAllocated@ 0000000180120f78     GuMetaData.obj
 0002:00002f88       ??_C@_0L@GLIMNECG@mQuantized@ 0000000180120f88     GuMetaData.obj
 0002:00002f98       ??_C@_08BNDBAGDH@mPadding@ 0000000180120f98     GuMetaData.obj
 0002:00002fa8       ??_C@_0N@OJNNNLIB@TriangleMesh@ 0000000180120fa8     GuMetaData.obj
 0002:00002fb8       ??_C@_0M@OGEDMEAL@mNbVertices@ 0000000180120fb8     GuMetaData.obj
 0002:00002fc8       ??_C@_0N@MGGDNHNI@mNbTriangles@ 0000000180120fc8     GuMetaData.obj
 0002:00002fd8       ??_C@_09LNNEGOJA@mVertices@ 0000000180120fd8     GuMetaData.obj
 0002:00002fe8       ??_C@_0P@MHDFIHLD@mExtraTrigData@ 0000000180120fe8     GuMetaData.obj
 0002:00002ff8       ??_C@_0N@MGIKKCI@mGeomEpsilon@ 0000000180120ff8     GuMetaData.obj
 0002:00003008       ??_C@_0BB@IFLOOCNA@mMaterialIndices@ 0000000180121008     GuMetaData.obj
 0002:00003020       ??_C@_0L@OPJMBFMI@mFaceRemap@ 0000000180121020     GuMetaData.obj
 0002:00003030       ??_C@_0N@BIOECAPM@mAdjacencies@ 0000000180121030     GuMetaData.obj
 0002:00003040       ??_C@_0BE@JPINNDAH@mGRB_triAdjacencies@ 0000000180121040     GuMetaData.obj
 0002:00003058       ??_C@_0P@EDFJJHEF@mGRB_faceRemap@ 0000000180121058     GuMetaData.obj
 0002:00003068       ??_C@_0O@CKMBAIFN@mGRB_BV32Tree@ 0000000180121068     GuMetaData.obj
 0002:00003078       ??_C@_0BC@IFGECKF@RTreeTriangleMesh@ 0000000180121078     GuMetaData.obj
 0002:0000308c       ??_C@_06JDIHDDGN@mRTree@   000000018012108c     GuMetaData.obj
 0002:00003098       ??_C@_0BA@LNNFPOKA@BV4TriangleMesh@ 0000000180121098     GuMetaData.obj
 0002:000030a8       ??_C@_08FKLPEGDB@mBV4Tree@ 00000001801210a8     GuMetaData.obj
 0002:000030b8       ??_C@_0BG@EAPGHGEI@MaterialIndicesStruct@ 00000001801210b8     GuMetaData.obj
 0002:000030d0       ??_C@_07OKCKIPNN@indices@  00000001801210d0     GuMetaData.obj
 0002:000030d8       ??_C@_0L@KCBHBGBP@numIndices@ 00000001801210d8     GuMetaData.obj
 0002:000030e4       ??_C@_03PNAAIPML@pad@      00000001801210e4     GuMetaData.obj
 0002:000030e8       ??_C@_05MOMFAHOB@pad64@    00000001801210e8     GuMetaData.obj
 0002:000030f0       ??_C@_0BK@GNJGHDGO@PxConvexMeshGeometryFlags@ 00000001801210f0     GuMetaData.obj
 0002:00003110       ??_C@_0BJ@LIOOOKID@ShadowConvexMeshGeometry@ 0000000180121110     GuMetaData.obj
 0002:00003130       ??_C@_0BF@PJFPGDNP@PxGeometryType?3?3Enum@ 0000000180121130     GuMetaData.obj
 0002:00003148       ??_C@_05GNIIDDHH@mType@    0000000180121148     GuMetaData.obj
 0002:00003150       ??_C@_0M@JFNDEGCE@PxMeshScale@ 0000000180121150     GuMetaData.obj
 0002:0000315c       ??_C@_05MHMEBBGO@scale@    000000018012115c     GuMetaData.obj
 0002:00003168       ??_C@_0L@OKMLGDHH@convexMesh@ 0000000180121168     GuMetaData.obj
 0002:00003178       ??_C@_09PLMNFMJI@meshFlags@ 0000000180121178     GuMetaData.obj
 0002:00003188       ??_C@_0BB@EINMAHMD@paddingFromFlags@ 0000000180121188     GuMetaData.obj
 0002:000031a0       ??_C@_08CICKEKCM@hullData@ 00000001801211a0     GuMetaData.obj
 0002:000031b0       ??_C@_0O@EOELHBFF@gpuCompatible@ 00000001801211b0     GuMetaData.obj
 0002:000031c0       ??_C@_0BE@FFPGAPHN@PxMeshGeometryFlags@ 00000001801211c0     GuMetaData.obj
 0002:000031d8       ??_C@_0BL@KABFLNEB@ShadowTriangleMeshGeometry@ 00000001801211d8     GuMetaData.obj
 0002:000031f8       ??_C@_0N@FKKDJAHE@triangleMesh@ 00000001801211f8     GuMetaData.obj
 0002:00003208       ??_C@_08BEABJAHJ@meshData@ 0000000180121208     GuMetaData.obj
 0002:00003218       ??_C@_0BA@NGIONHFJ@materialIndices@ 0000000180121218     GuMetaData.obj
 0002:00003228       ??_C@_09JGGNEAGH@materials@ 0000000180121228     GuMetaData.obj
 0002:00003238       ??_C@_0BK@OIFEOHNJ@ShadowHeightFieldGeometry@ 0000000180121238     GuMetaData.obj
 0002:00003258       ??_C@_0M@IEKJPCGG@heightField@ 0000000180121258     GuMetaData.obj
 0002:00003268       ??_C@_0M@LHLNPPJ@heightScale@ 0000000180121268     GuMetaData.obj
 0002:00003278       ??_C@_08GJPCBGLE@rowScale@ 0000000180121278     GuMetaData.obj
 0002:00003288       ??_C@_0M@HHBHEPCE@columnScale@ 0000000180121288     GuMetaData.obj
 0002:00003298       ??_C@_0BB@PMIIHDKK@heightFieldFlags@ 0000000180121298     GuMetaData.obj
 0002:000032b0       ??_C@_0BA@DMOKLLHN@heightFieldData@ 00000001801212b0     GuMetaData.obj
 0002:000032c0       ??_C@_0BE@IKADPPC@ShadowPlaneGeometry@ 00000001801212c0     GuMetaData.obj
 0002:000032d8       ??_C@_0BF@PIKLLBGN@ShadowSphereGeometry@ 00000001801212d8     GuMetaData.obj
 0002:000032f0       ??_C@_06KGHINEPG@radius@   00000001801212f0     GuMetaData.obj
 0002:000032f8       ??_C@_0BG@OBHJHKMO@ShadowCapsuleGeometry@ 00000001801212f8     GuMetaData.obj
 0002:00003310       ??_C@_0L@PMAANELH@halfHeight@ 0000000180121310     GuMetaData.obj
 0002:00003320       ??_C@_0BC@DMJNHLLO@ShadowBoxGeometry@ 0000000180121320     GuMetaData.obj
 0002:00003338       ??_C@_0M@CMAEPJOI@halfExtents@ 0000000180121338     GuMetaData.obj
 0002:00003348       ??_C@_0BH@PKALDLFA@PxConvexMeshGeometryLL@ 0000000180121348     GuMetaData.obj
 0002:00003360       ??_C@_0BJ@GAFBNAAE@PxTriangleMeshGeometryLL@ 0000000180121360     GuMetaData.obj
 0002:00003380       ??_C@_0BI@IIFLCNOC@PxHeightFieldGeometryLL@ 0000000180121380     GuMetaData.obj
 0002:00003398       ??_C@_0BA@NAHKMBFO@PxPlaneGeometry@ 0000000180121398     GuMetaData.obj
 0002:000033a8       ??_C@_0BB@CHBDIEFA@PxSphereGeometry@ 00000001801213a8     GuMetaData.obj
 0002:000033c0       ??_C@_0BC@LJMOIOOK@PxCapsuleGeometry@ 00000001801213c0     GuMetaData.obj
 0002:000033d8       ??_C@_0O@OEDJDNFP@PxBoxGeometry@ 00000001801213d8     GuMetaData.obj
 0002:000033e8       ??_C@_0BC@ICOOCLFG@Gu?3?3GeometryUnion@ 00000001801213e8     GuMetaData.obj
 0002:00003400       ??_7?$SupportLocalImpl@VBoxV@Gu@physx@@@Gu@physx@@6B@ 0000000180121400     GuMTD.obj
 0002:00003420       ??_7SupportLocal@Gu@physx@@6B@ 0000000180121420     GuMTD.obj
 0002:00003460       ??_7?$SupportLocalImpl@VConvexHullV@Gu@physx@@@Gu@physx@@6B@ 0000000180121460     GuMTD.obj
 0002:00003480       ??_7?$SupportLocalImpl@VConvexHullNoScaleV@Gu@physx@@@Gu@physx@@6B@ 0000000180121480     GuMTD.obj
 0002:000034a0       ?absMask@?1??FAbs@aos@shdfnd@physx@@YA?AT__m128@@T5@@Z@4QBIB 00000001801214a0     GuMTD.obj
 0002:000034b0       ??_7GjkConvexBase@Gu@physx@@6B@ 00000001801214b0     GuMTD.obj
 0002:000034e0       ??_7?$LocalConvex@VCapsuleV@Gu@physx@@@Gu@physx@@6B@ 00000001801214e0     GuMTD.obj
 0002:00003510       ??_7?$LocalConvex@VConvexHullV@Gu@physx@@@Gu@physx@@6B@ 0000000180121510     GuMTD.obj
 0002:00003540       __real@2edbe6ff            0000000180121540     GuMTD.obj
 0002:00003544       __real@3ccccccd            0000000180121544     GuMTD.obj
 0002:00003548       __real@3dcccccd            0000000180121548     GuMTD.obj
 0002:0000354c       __real@ff7fffff            000000018012154c     GuMTD.obj
 0002:00003550       __xmm@0000000000000000000000003f800000 0000000180121550     GuMTD.obj
 0002:00003560       __xmm@00000000000000003f80000000000000 0000000180121560     GuMTD.obj
 0002:00003570       __xmm@000000003f8000000000000000000000 0000000180121570     GuMTD.obj
 0002:00003580       __xmm@000000003f8000003f8000003f800000 0000000180121580     GuMTD.obj
 0002:00003590       __xmm@00000000ffffffffffffffffffffffff 0000000180121590     GuMTD.obj
 0002:000035a0       __xmm@34000000340000003400000034000000 00000001801215a0     GuMTD.obj
 0002:000035b0       __xmm@358637bd358637bd358637bd358637bd 00000001801215b0     GuMTD.obj
 0002:000035c0       __xmm@3dcccccd3dcccccd3dcccccd3dcccccd 00000001801215c0     GuMTD.obj
 0002:000035d0       __xmm@3e4ccccd3e4ccccd3e4ccccd3e4ccccd 00000001801215d0     GuMTD.obj
 0002:000035e0       __xmm@3f7ff1413f7ff1413f7ff1413f7ff141 00000001801215e0     GuMTD.obj
 0002:000035f0       __xmm@3f7ff2e53f7ff2e53f7ff2e53f7ff2e5 00000001801215f0     GuMTD.obj
 0002:00003600       __xmm@3f8000003f8000003f8000003f800000 0000000180121600     GuMTD.obj
 0002:00003610       __xmm@7f7fffff7f7fffff7f7fffff7f7fffff 0000000180121610     GuMTD.obj
 0002:00003620       __xmm@bf000000bf000000bf000000bf000000 0000000180121620     GuMTD.obj
 0002:00003650       ??_7?$RelativeConvex@VBoxV@Gu@physx@@@Gu@physx@@6B@ 0000000180121650     GuOverlapTests.obj
 0002:00003680       ??_7?$RelativeConvex@VConvexHullV@Gu@physx@@@Gu@physx@@6B@ 0000000180121680     GuOverlapTests.obj
 0002:000036b0       ??_C@_0EC@MLIJOGHA@Height?5Field?5Overlap?5test?5calle@ 00000001801216b0     GuOverlapTests.obj
 0002:000036f8       ??_C@_0DM@HOOMECNC@C?3?2_GIT?2PhysX?2physx?2source?2geom@ 00000001801216f8     GuOverlapTests.obj
 0002:00003740       ??_C@_0EC@GJLDADPE@Height?5Field?5Raycast?5test?5calle@ 0000000180121740     GuRaycastTests.obj
 0002:00003788       ??_C@_0DM@INCBDFHI@C?3?2_GIT?2PhysX?2physx?2source?2geom@ 0000000180121788     GuRaycastTests.obj
 0002:00003800       __real@1e3ce508            0000000180121800     GuRaycastTests.obj
 0002:00003804       __real@28800000            0000000180121804     GuRaycastTests.obj
 0002:00003808       __real@33d6bf95            0000000180121808     GuRaycastTests.obj
 0002:0000380c       __real@3727c5ac            000000018012180c     GuRaycastTests.obj
 0002:00003810       __real@3f0147ae            0000000180121810     GuRaycastTests.obj
 0002:00003814       __real@3f7ffffe            0000000180121814     GuRaycastTests.obj
 0002:00003818       __real@3f800347            0000000180121818     GuRaycastTests.obj
 0002:0000381c       __real@41200000            000000018012181c     GuRaycastTests.obj
 0002:00003820       __real@80000000            0000000180121820     GuRaycastTests.obj
 0002:00003824       __real@b3d6bf95            0000000180121824     GuRaycastTests.obj
 0002:00003828       __real@b8d1b717            0000000180121828     GuRaycastTests.obj
 0002:0000382c       __real@c1200000            000000018012182c     GuRaycastTests.obj
 0002:00003860       ??_7?$MeshHitCallback@UPxRaycastHit@physx@@@Gu@physx@@6B@ 0000000180121860     GuSweepMTD.obj
 0002:00003870       ??_7MeshMTDGenerationCallback@@6B@ 0000000180121870     GuSweepMTD.obj
 0002:00003880       ??_7MidPhaseQueryLocalReport@@6B@ 0000000180121880     GuSweepMTD.obj
 0002:00003890       __real@3f933333            0000000180121890     GuSweepMTD.obj
 0002:000038a0       __xmm@00000000000000003f8000003f800000 00000001801218a0     GuSweepMTD.obj
 0002:000038b0       __xmm@3e19999a3e19999a3e19999a3e19999a 00000001801218b0     GuSweepMTD.obj
 0002:000038c0       __xmm@3e8000003e8000003e8000003e800000 00000001801218c0     GuSweepMTD.obj
 0002:000038f0       __real@3c23d70a            00000001801218f0     GuSweepSharedTests.obj
 0002:000038f4       __real@42c80000            00000001801218f4     GuSweepSharedTests.obj
 0002:00003900       __xmm@ffffffffffffffffffffffffffffffff 0000000180121900     GuSweepSharedTests.obj
 0002:00003930       ??_C@_0EA@GNDJNJGB@Height?5Field?5Sweep?5test?5called?5@ 0000000180121930     GuSweepTests.obj
 0002:00003970       ??_C@_0DK@DJGFILLO@C?3?2_GIT?2PhysX?2physx?2source?2geom@ 0000000180121970     GuSweepTests.obj
 0002:000039b0       ??_7?$LocalConvex@VBoxV@Gu@physx@@@Gu@physx@@6B@ 00000001801219b0     GuSweepTests.obj
 0002:000039e0       ??_7?$LocalConvex@VTriangleV@Gu@physx@@@Gu@physx@@6B@ 00000001801219e0     GuSweepTests.obj
 0002:00003a10       __xmm@00000002000000020000000200000002 0000000180121a10     GuSweepTests.obj
 0002:00003a20       __xmm@3eaaaa9f3eaaaa9f3eaaaa9f3eaaaa9f 0000000180121a20     GuSweepTests.obj
 0002:00003a50       ??_C@_0DN@GJBCLLAL@C?3?2_GIT?2PhysX?2physx?2source?2geom@ 0000000180121a50     GuAABBTreeBuild.obj
 0002:00003a90       ??_C@_0BC@EHGLOIPG@AABB?5tree?5indices@ 0000000180121a90     GuAABBTreeBuild.obj
 0002:00003aa4       ??_C@_05BDNCCAMC@cache@    0000000180121aa4     GuAABBTreeBuild.obj
 0002:00003ad0       ??_7PxBVHStructure@physx@@6B@ 0000000180121ad0     GuBVHStructure.obj
 0002:00003b20       ??_C@_0P@CDPKBIIF@PxBVHStructure@ 0000000180121b20     GuBVHStructure.obj
 0002:00003b30       ??_7RefCountable@Cm@physx@@6B@ 0000000180121b30     GuBVHStructure.obj
 0002:00003b40       ??_7BVHStructure@Gu@physx@@6BPxBVHStructure@2@@ 0000000180121b40     GuBVHStructure.obj
 0002:00003b90       ??_7BVHStructure@Gu@physx@@6BRefCountable@Cm@2@@ 0000000180121b90     GuBVHStructure.obj
 0002:00003ba0       ??_C@_0M@LHBCGNCE@BVH?5indices@ 0000000180121ba0     GuBVHStructure.obj
 0002:00003bb0       ??_C@_0DM@PKLMLLDA@C?3?2_GIT?2PhysX?2physx?2source?2geom@ 0000000180121bb0     GuBVHStructure.obj
 0002:00003bf0       ??_C@_0L@HGOGJNHO@BVH?5bounds@ 0000000180121bf0     GuBVHStructure.obj
 0002:00003c00       ??_C@_09GFGBFFDA@BVH?5nodes@ 0000000180121c00     GuBVHStructure.obj
 0002:00003c10       ??_C@_0DF@GMOKOMPK@Gu?3?3BVHStructure?3?3release?3?5doub@ 0000000180121c10     GuBVHStructure.obj
 0002:00003c48       ??_C@_0BA@DMBHEKGP@BVH?5volume?5list@ 0000000180121c48     GuBVHStructure.obj
 0002:00003cc0       __real@00000000            0000000180121cc0     GuCCDSweepConvexMesh.obj
 0002:00003cc4       __real@3c343958            0000000180121cc4     GuCCDSweepConvexMesh.obj
 0002:00003cc8       __real@3ca3d70a            0000000180121cc8     GuCCDSweepConvexMesh.obj
 0002:00003ccc       __real@3f0ccccd            0000000180121ccc     GuCCDSweepConvexMesh.obj
 0002:00003cd0       __real@3f8ccccd            0000000180121cd0     GuCCDSweepConvexMesh.obj
 0002:00003cd4       __real@b58637bd            0000000180121cd4     GuCCDSweepConvexMesh.obj
 0002:00003ce0       __xmm@000000000000000000000000fe7fffff 0000000180121ce0     GuCCDSweepConvexMesh.obj
 0002:00003cf0       __xmm@fe7ffffffe7fffff7e7fffff7e7fffff 0000000180121cf0     GuCCDSweepConvexMesh.obj
 0002:00003d20       ??_7?$RelativeConvex@VCapsuleV@Gu@physx@@@Gu@physx@@6B@ 0000000180121d20     GuCCDSweepPrimitives.obj
 0002:00003d50       ??_7?$RelativeConvex@VTriangleV@Gu@physx@@@Gu@physx@@6B@ 0000000180121d50     GuCCDSweepPrimitives.obj
 0002:00003d80       __real@3ba3d70a            0000000180121d80     GuCCDSweepPrimitives.obj
 0002:00003d84       __real@501502f9            0000000180121d84     GuCCDSweepPrimitives.obj
 0002:00003e90       __real@3f7fbe77            0000000180121e90     GuContactBoxBox.obj
 0002:00003ee0       __real@3a83126f            0000000180121ee0     GuContactCapsuleCapsule.obj
 0002:00003ee4       __real@3f7ff2e5            0000000180121ee4     GuContactCapsuleCapsule.obj
 0002:00003ee8       __real@40800000            0000000180121ee8     GuContactCapsuleCapsule.obj
 0002:00003f70       __real@358637be            0000000180121f70     GuContactCapsuleMesh.obj
 0002:00003f74       __real@3eaaaaab            0000000180121f74     GuContactCapsuleMesh.obj
 0002:00003f78       __real@3f8020c5            0000000180121f78     GuContactCapsuleMesh.obj
 0002:00003f7c       __real@ba83126f            0000000180121f7c     GuContactCapsuleMesh.obj
 0002:00003fd0       ??_7ConvexMeshContactGenerationCallback@@6B@ 0000000180121fd0     GuContactConvexMesh.obj
 0002:00004050       __real@3ec90fdb            0000000180122050     GuContactPolygonPolygon.obj
 0002:00004054       __real@3f490fdb            0000000180122054     GuContactPolygonPolygon.obj
 0002:00004058       __real@3f96cbe4            0000000180122058     GuContactPolygonPolygon.obj
 0002:0000405c       __real@3fc90fdb            000000018012205c     GuContactPolygonPolygon.obj
 0002:00004060       __real@3ffb53d2            0000000180122060     GuContactPolygonPolygon.obj
 0002:00004064       __real@4016cbe4            0000000180122064     GuContactPolygonPolygon.obj
 0002:00004068       __real@402feddf            0000000180122068     GuContactPolygonPolygon.obj
 0002:000040e0       ??_C@_0DL@OAFGOMGB@Dropping?5contacts?5in?5sphere?5vs?5@ 00000001801220e0     GuContactSphereMesh.obj
 0002:00004120       ??_C@_0EJ@DJINHHLF@C?3?2_GIT?2PhysX?2physx?2source?2geom@ 0000000180122120     GuContactSphereMesh.obj
 0002:000041a0       ??_C@_0DH@JFLNNLCG@C?3?2_GIT?2PhysX?2physx?2source?2foun@ 00000001801221a0     GuContactSphereMesh.obj
 0002:00004220       __real@bf000000            0000000180122220     GuContactSphereSphere.obj
 0002:00004228       ??_C@_0BD@PGLLAGCI@BigConvexData?5data@ 0000000180122228     GuBigConvexData.obj
 0002:00004240       ??_C@_0EE@GIPCAOIC@C?3?2_GIT?2PhysX?2physx?2source?2geom@ 0000000180122240     GuBigConvexData.obj
 0002:00004288       ??_C@_0BH@NIMDLCCM@BigConvex?5Samples?5Data@ 0000000180122288     GuBigConvexData.obj
 0002:000042c0       ??_7PxConvexMesh@physx@@6B@ 00000001801222c0     GuConvexMesh.obj
 0002:00004338       ??_7ConvexMesh@Gu@physx@@6BPxConvexMesh@2@@ 0000000180122338     GuConvexMesh.obj
 0002:000043c0       ??_7ConvexMesh@Gu@physx@@6BRefCountable@Cm@2@@ 00000001801223c0     GuConvexMesh.obj
 0002:000043d0       ??_C@_0BE@EJGGFHND@ConvexHullData?5data@ 00000001801223d0     GuConvexMesh.obj
 0002:000043f0       ??_C@_0EB@KNOOCFKG@C?3?2_GIT?2PhysX?2physx?2source?2geom@ 00000001801223f0     GuConvexMesh.obj
 0002:00004438       ??_C@_0DM@NEJKOFIP@Loading?5convex?5mesh?5failed?3?5Dep@ 0000000180122438     GuConvexMesh.obj
 0002:00004478       ??_C@_0DD@GDAMDLJL@Gu?3?3ConvexMesh?3?3release?3?5double@ 0000000180122478     GuConvexMesh.obj
 0002:000044d0       __xmm@000000000000000000000000ffffffff 00000001801224d0     GuConvexSupportTable.obj
 0002:000044e0       __xmm@0000000000000000ffffffff00000000 00000001801224e0     GuConvexSupportTable.obj
 0002:000044f0       __xmm@0000000000000000ffffffffffffffff 00000001801224f0     GuConvexSupportTable.obj
 0002:00004500       __xmm@00000000ffffffff0000000000000000 0000000180122500     GuConvexSupportTable.obj
 0002:00004510       __xmm@00000000ffffffff00000000ffffffff 0000000180122510     GuConvexSupportTable.obj
 0002:00004520       __xmm@00000000ffffffffffffffff00000000 0000000180122520     GuConvexSupportTable.obj
 0002:000045d0       __real@2b8cbccc            00000001801225d0     GuDistanceSegmentTriangle.obj
 0002:000045e0       __xmm@3f8000013f8000013f8000013f800001 00000001801225e0     GuDistanceSegmentTriangle.obj
 0002:000045f0       __xmm@b4000000b4000000b4000000b4000000 00000001801225f0     GuDistanceSegmentTriangle.obj
 0002:00004650       __xmm@38d1b71738d1b71738d1b71738d1b717 0000000180122650     GuGJKSimplex.obj
 0002:00004660       __xmm@b58637bdb58637bdb58637bdb58637bd 0000000180122660     GuGJKSimplex.obj
 0002:00004690       ??_7PxHeightField@physx@@6B@ 0000000180122690     GuHeightField.obj
 0002:00004730       ??_7HeightField@Gu@physx@@6BPxHeightField@2@@ 0000000180122730     GuHeightField.obj
 0002:000047e0       ??_7HeightField@Gu@physx@@6BRefCountable@Cm@2@@ 00000001801227e0     GuHeightField.obj
 0002:000047f0       ??_C@_0DL@DNGFPCEG@Gu?3?3HeightField?3?3onRefCountZero@ 00000001801227f0     GuHeightField.obj
 0002:00004830       ??_C@_0DO@GKGCONDK@C?3?2_GIT?2PhysX?2physx?2source?2geom@ 0000000180122830     GuHeightField.obj
 0002:00004870       ??_C@_0DF@LLAFPPKJ@Gu?3?3HeightField?3?3modifySamples?3@ 0000000180122870     GuHeightField.obj
 0002:000048a8       ??_C@_0CI@DMKEKGNK@Gu?3?3HeightField?3?3load?3?5PX_ALLOC@ 00000001801228a8     GuHeightField.obj
 0002:000048d0       ??_C@_0DG@LACOBMDE@Gu?3?3HeightField?3?3loadFromDesc?3?5@ 00000001801228d0     GuHeightField.obj
 0002:00004908       ??_C@_0DB@OLBNLHJP@C?3?2_GIT?2PhysX?2physx?2source?2comm@ 0000000180122908     GuHeightField.obj
 0002:00004960       ??_C@_0DH@EJDJIMCB@HeightFieldShape?3?3getTriangle?3?5@ 0000000180122960     GuHeightFieldUtil.obj
 0002:000049a0       ??_C@_0EC@GKHGHMLM@C?3?2_GIT?2PhysX?2physx?2source?2geom@ 00000001801229a0     GuHeightFieldUtil.obj
 0002:000049e4       __real@3a03126f            00000001801229e4     GuHeightFieldUtil.obj
 0002:000049e8       __real@3f19999a            00000001801229e8     GuHeightFieldUtil.obj
 0002:00004a50       ??_7HeightFieldTraceSegmentReport@@6B@ 0000000180122a50     GuSweepsHF.obj
 0002:00004a60       ??_7CapsuleTraceSegmentReport@@6B@ 0000000180122a60     GuSweepsHF.obj
 0002:00004a70       ??_7ConvexTraceSegmentReport@@6B@ 0000000180122a70     GuSweepsHF.obj
 0002:00004a80       ??_7BoxTraceSegmentReport@@6B@ 0000000180122a80     GuSweepsHF.obj
 0002:00004a90       __real@aedbe6ff            0000000180122a90     GuSweepsHF.obj
 0002:00004ac0       __real@3089705f            0000000180122ac0     GuIntersectionRayBox.obj
 0002:00004ac4       __real@34000000            0000000180122ac4     GuIntersectionRayBox.obj
 0002:00004ac8       __real@b4000000            0000000180122ac8     GuIntersectionRayBox.obj
 0002:00004ad0       __xmm@000000003089705f3089705f3089705f 0000000180122ad0     GuIntersectionRayBox.obj
 0002:00004ae0       __xmm@00000000bf800000bf800000bf800000 0000000180122ae0     GuIntersectionRayBox.obj
 0002:00004b30       ??_C@_0DI@GMKFICFL@C?3?2_GIT?2PhysX?2physx?2source?2geom@ 0000000180122b30     GuBV4.obj
 0002:00004b68       ??_C@_04LHNPKPDA@OPC2@     0000000180122b68     GuBV4.obj
 0002:00004b70       ??_C@_09JOJONBOP@BV4?5nodes@ 0000000180122b70     GuBV4.obj
 0002:00004ba0       ??_C@_03DMLNBBKA@BV4@      0000000180122ba0     GuBV4Build.obj
 0002:00004ba8       ??_C@_0DN@HGCKKNJH@C?3?2_GIT?2PhysX?2physx?2source?2geom@ 0000000180122ba8     GuBV4Build.obj
 0002:00004be8       ??_C@_0M@FLGHAIDC@BV4?5indices@ 0000000180122be8     GuBV4Build.obj
 0002:00004bf4       __real@38000100            0000000180122bf4     GuBV4Build.obj
 0002:00004bf8       __real@3e93cd3a            0000000180122bf8     GuBV4Build.obj
 0002:00004bfc       __real@46fffe00            0000000180122bfc     GuBV4Build.obj
 0002:00004c00       __real@be93cd3a            0000000180122c00     GuBV4Build.obj
 0002:00004c30       __xmm@0000ffff0000ffff0000ffff0000ffff 0000000180122c30     GuBV4_AABBSweep.obj
 0002:00004c40       __xmm@3089705f3089705f3089705f3089705f 0000000180122c40     GuBV4_AABBSweep.obj
 0002:00004c50       __xmm@33d6bf9533d6bf9533d6bf9533d6bf95 0000000180122c50     GuBV4_AABBSweep.obj
 0002:00004c60       __xmm@40000000400000004000000040000000 0000000180122c60     GuBV4_AABBSweep.obj
 0002:00004d70       __xmm@00000000000000007f7fffff00000000 0000000180122d70     GuMidphaseBV4.obj
 0002:00004de0       ??_C@_0DK@FFHPKGEP@PxMeshQuery?3?3getTriangle?3?5trian@ 0000000180122de0     GuMeshQuery.obj
 0002:00004e20       ??_C@_0DO@GJIKBFFB@C?3?2_GIT?2PhysX?2physx?2source?2geom@ 0000000180122e20     GuMeshQuery.obj
 0002:00004e60       ??_C@_0FD@EHCCILIF@Adjacency?5information?5not?5creat@ 0000000180122e60     GuMeshQuery.obj
 0002:00004ec0       ??_C@_0FA@MCAAGAGM@findOverlapTriangleMesh?3?5Only?5b@ 0000000180122ec0     GuMeshQuery.obj
 0002:00004f10       ??_C@_0EM@BEFNLPHI@findOverlapHeightField?3?5Only?5bo@ 0000000180122f10     GuMeshQuery.obj
 0002:00004f60       ??_C@_0CJ@NLNHIMDM@PxMeshQuery?3?3sweep?$CI?$CJ?3?5pose?5is?5n@ 0000000180122f60     GuMeshQuery.obj
 0002:00004f90       ??_C@_0CM@BFKJPOOO@PxMeshQuery?3?3sweep?$CI?$CJ?3?5unitDir?5i@ 0000000180122f90     GuMeshQuery.obj
 0002:00004fc0       ??_C@_0CN@JKBDLLPP@PxMeshQuery?3?3sweep?$CI?$CJ?3?5distance?5@ 0000000180122fc0     GuMeshQuery.obj
 0002:00004ff0       ??_C@_0DN@DPNNFGGF@PxMeshQuery?3?3sweep?$CI?$CJ?3?5sweep?5dis@ 0000000180122ff0     GuMeshQuery.obj
 0002:00005030       ??_C@_0BA@MBAFFELP@MeshQuery?4sweep@ 0000000180123030     GuMeshQuery.obj
 0002:00005040       ??_C@_0FJ@GNAHJJCM@PxMeshQuery?3?3sweep?$CI?$CJ?3?5geometry?5@ 0000000180123040     GuMeshQuery.obj
 0002:0000509c       __real@4cbebc20            000000018012309c     GuMeshQuery.obj
 0002:000050c0       ??_7Callback@RTree@Gu@physx@@6B@ 00000001801230c0     GuMidphaseRTree.obj
 0002:000050d8       ??_7CallbackRaycast@RTree@Gu@physx@@6B@ 00000001801230d8     GuMidphaseRTree.obj
 0002:000050d8       ??_7CallbackRefit@RTree@Gu@physx@@6B@ 00000001801230d8     GuTriangleMeshRTree.obj
 0002:000050e8       ??_7?$RayRTreeCallback@$00$0A@@@6BCallbackRaycast@RTree@Gu@physx@@@ 00000001801230e8     GuMidphaseRTree.obj
 0002:000050e8       ??_7?$RayRTreeCallback@$0A@$0A@@@6BCallbackRaycast@RTree@Gu@physx@@@ 00000001801230e8     GuMidphaseRTree.obj
 0002:000050f8       ??_7?$RayRTreeCallback@$00$0A@@@6BCallback@RTree@Gu@physx@@@ 00000001801230f8     GuMidphaseRTree.obj
 0002:000050f8       ??_7?$RayRTreeCallback@$0A@$0A@@@6BCallback@RTree@Gu@physx@@@ 00000001801230f8     GuMidphaseRTree.obj
 0002:00005110       ??_7RayMeshColliderCallback@@6B@ 0000000180123110     GuMidphaseRTree.obj
 0002:00005120       ??_7?$RayRTreeCallback@$0A@$00@@6BCallbackRaycast@RTree@Gu@physx@@@ 0000000180123120     GuMidphaseRTree.obj
 0002:00005130       ??_7?$RayRTreeCallback@$0A@$00@@6BCallback@RTree@Gu@physx@@@ 0000000180123130     GuMidphaseRTree.obj
 0002:00005148       ??_7?$RayRTreeCallback@$00$00@@6BCallbackRaycast@RTree@Gu@physx@@@ 0000000180123148     GuMidphaseRTree.obj
 0002:00005158       ??_7?$RayRTreeCallback@$00$00@@6BCallback@RTree@Gu@physx@@@ 0000000180123158     GuMidphaseRTree.obj
 0002:00005230       ??_7ConvexVsMeshOverlapCallback@@6B@ 0000000180123230     GuOverlapTestsMesh.obj
 0002:00005260       ?MN@RTreePage@Gu@physx@@2MB 0000000180123260     GuRTree.obj
 0002:00005264       ?MX@RTreePage@Gu@physx@@2MB 0000000180123264     GuRTree.obj
 0002:00005268       ??_C@_0DK@JCEHDCNB@C?3?2_GIT?2PhysX?2physx?2source?2geom@ 0000000180123268     GuRTree.obj
 0002:00005320       ??_7SweepShapeMeshHitCallback@Gu@physx@@6B@ 0000000180123320     GuSweepsMesh.obj
 0002:00005330       ??_7SweepCapsuleMeshHitCallback@Gu@physx@@6B@ 0000000180123330     GuSweepsMesh.obj
 0002:00005340       ??_7SweepBoxMeshHitCallback@Gu@physx@@6B@ 0000000180123340     GuSweepsMesh.obj
 0002:00005350       ??_7SweepConvexMeshHitCallback@Gu@physx@@6B@ 0000000180123350     GuSweepsMesh.obj
 0002:00005380       ??_7PxTriangleMesh@physx@@6B@ 0000000180123380     GuTriangleMesh.obj
 0002:00005408       ??_7TriangleMesh@Gu@physx@@6BPxTriangleMesh@2@@ 0000000180123408     GuTriangleMesh.obj
 0002:000054a8       ??_7TriangleMesh@Gu@physx@@6BRefCountable@Cm@2@@ 00000001801234a8     GuTriangleMesh.obj
 0002:000054b8       ??_C@_0DF@DNLKAHAL@Gu?3?3TriangleMesh?3?3release?3?5doub@ 00000001801234b8     GuTriangleMesh.obj
 0002:000054f0       ??_C@_0EB@JDLOIKEH@C?3?2_GIT?2PhysX?2physx?2source?2geom@ 00000001801234f0     GuTriangleMesh.obj
 0002:00005540       ??_C@_0GH@IGKFPLIJ@PxTriangleMesh?3?3getVerticesForM@ 0000000180123540     GuTriangleMesh.obj
 0002:000055b0       ??_C@_0FF@LHAOBIMM@PxTriangleMesh?3?3refitBVH?$CI?$CJ?5is?5o@ 00000001801235b0     GuTriangleMesh.obj
 0002:00005630       ??_C@_0BE@CNJKIINO@PxBVH34TriangleMesh@ 0000000180123630     GuTriangleMeshBV4.obj
 0002:00005648       ??_7BV4TriangleMesh@Gu@physx@@6BPxTriangleMesh@2@@ 0000000180123648     GuTriangleMeshBV4.obj
 0002:000056e8       ??_7BV4TriangleMesh@Gu@physx@@6BRefCountable@Cm@2@@ 00000001801236e8     GuTriangleMeshBV4.obj
 0002:00005720       ??_C@_0BE@EIFHCCBO@PxBVH33TriangleMesh@ 0000000180123720     GuTriangleMeshRTree.obj
 0002:00005738       ??_7RTreeTriangleMesh@Gu@physx@@6BPxTriangleMesh@2@@ 0000000180123738     GuTriangleMeshRTree.obj
 0002:000057d8       ??_7RTreeTriangleMesh@Gu@physx@@6BRefCountable@Cm@2@@ 00000001801237d8     GuTriangleMeshRTree.obj
 0002:000057e8       ??_7?$RefitCallback@G@physx@@6B@ 00000001801237e8     GuTriangleMeshRTree.obj
 0002:000057f8       ??_7?$RefitCallback@I@physx@@6B@ 00000001801237f8     GuTriangleMeshRTree.obj
 0002:00005810       __xmm@38383838383838383838383838383838 0000000180123810     GuTriangleMeshRTree.obj
 0002:00005820       ??_C@_0P@KDMGEHMF@BV32DataPacked@ 0000000180123820     GuBV32.obj
 0002:00005830       ??_C@_0DJ@IAJGMMOP@C?3?2_GIT?2PhysX?2physx?2source?2geom@ 0000000180123830     GuBV32.obj
 0002:00005890       ??_C@_0DO@DMEAMLGE@C?3?2_GIT?2PhysX?2physx?2source?2geom@ 0000000180123890     GuBV32Build.obj
 0002:000058d0       ??_C@_04DONFFMAN@BV32@     00000001801238d0     GuBV32Build.obj
 0002:00005900       __xmm@00000000358637bd358637bd358637bd 0000000180123900     GuPCMContactBoxBox.obj
 0002:00005910       __xmm@3d4ccccd3d4ccccd3d4ccccd3d4ccccd 0000000180123910     GuPCMContactBoxBox.obj
 0002:00005920       __xmm@3f4ccccd3f4ccccd3f4ccccd3f4ccccd 0000000180123920     GuPCMContactBoxBox.obj
 0002:00005930       __xmm@ffffffff00000000ffffffffffffffff 0000000180123930     GuPCMContactBoxBox.obj
 0002:00005960       ??_7?$LocalConvex@VConvexHullNoScaleV@Gu@physx@@@Gu@physx@@6B@ 0000000180123960     GuPCMContactBoxConvex.obj
 0002:00005990       __xmm@3f3504f33f3504f33f3504f33f3504f3 0000000180123990     GuPCMContactBoxConvex.obj
 0002:000059e0       __xmm@ffffffffffffffffffffffff00000000 00000001801239e0     GuPCMContactCapsuleCapsule.obj
 0002:00005a10       __xmm@3fa000003fa000003fa000003fa00000 0000000180123a10     GuPCMContactCapsuleConvex.obj
 0002:00005a40       ??_7PCMCapsuleVsHeightfieldContactGenerationCallback@physx@@6B@ 0000000180123a40     GuPCMContactCapsuleHeightField.obj
 0002:00005a50       __real@3f7f3b64            0000000180123a50     GuPCMContactCapsuleHeightField.obj
 0002:00005a60       __xmm@3f7ef9db3f7ef9db3f7ef9db3f7ef9db 0000000180123a60     GuPCMContactCapsuleHeightField.obj
 0002:00005aa0       ??_7PCMCapsuleVsMeshContactGenerationCallback@physx@@6B@ 0000000180123aa0     GuPCMContactCapsuleMesh.obj
 0002:00005ad0       ??_7?$SupportLocalImpl@VTriangleV@Gu@physx@@@Gu@physx@@6B@ 0000000180123ad0     GuPCMContactConvexCommon.obj
 0002:00005af0       ??_C@_0EA@LHFHPEOP@C?3?2_GIT?2PhysX?2physx?2source?2foun@ 0000000180123af0     GuPCMContactConvexCommon.obj
 0002:00005b30       __xmm@3cf5c2803cf5c2803cf5c2803cf5c280 0000000180123b30     GuPCMContactConvexCommon.obj
 0002:00005b40       __xmm@3f7851ec3f7851ec3f7851ec3f7851ec 0000000180123b40     GuPCMContactConvexCommon.obj
 0002:00005b50       __xmm@3f7ff9723f7ff9723f7ff9723f7ff972 0000000180123b50     GuPCMContactConvexCommon.obj
 0002:00005b60       __xmm@3f7fffef3f7fffef3f7fffef3f7fffef 0000000180123b60     GuPCMContactConvexCommon.obj
 0002:00005b90       ??_7?$RelativeConvex@VConvexHullNoScaleV@Gu@physx@@@Gu@physx@@6B@ 0000000180123b90     GuPCMContactConvexConvex.obj
 0002:00005be0       ??_7PCMConvexVsHeightfieldContactGenerationCallback@physx@@6B@ 0000000180123be0     GuPCMContactConvexHeightField.obj
 0002:00005bf0       __xmm@3f19999a3f19999a3f19999a3f19999a 0000000180123bf0     GuPCMContactConvexHeightField.obj
 0002:00005c30       ??_7PCMConvexVsMeshContactGenerationCallback@physx@@6B@ 0000000180123c30     GuPCMContactConvexMesh.obj
 0002:00005c60       __xmm@3f34fdf43f34fdf43f34fdf43f34fdf4 0000000180123c60     GuPCMContactGenBoxConvex.obj
 0002:00005c90       __xmm@3f80a3d73f80a3d73f80a3d73f80a3d7 0000000180123c90     GuPCMContactGenSphereCapsule.obj
 0002:00005ca0       __xmm@bba3d70abba3d70abba3d70abba3d70a 0000000180123ca0     GuPCMContactGenSphereCapsule.obj
 0002:00005cf0       __real@3b23d70b            0000000180123cf0     GuPCMContactPlaneCapsule.obj
 0002:00005d00       __xmm@3ca3d70a3ca3d70a3ca3d70a3ca3d70a 0000000180123d00     GuPCMContactPlaneCapsule.obj
 0002:00005db0       ??_7PCMSphereVsHeightfieldContactGenerationCallback@physx@@6B@ 0000000180123db0     GuPCMContactSphereHeightField.obj
 0002:00005df0       ??_7PCMSphereVsMeshContactGenerationCallback@physx@@6B@ 0000000180123df0     GuPCMContactSphereMesh.obj
 0002:00005e40       __xmm@3727c5ac3727c5ac3727c5ac3727c5ac 0000000180123e40     GuPCMContactSphereSphere.obj
 0002:00005e50       ?gPCMBoxPolygonData@Gu@physx@@3QBEB 0000000180123e50     GuPCMShapeConvex.obj
 0002:00005eb0       ?invalidateThresholds@Gu@physx@@3QBMB 0000000180123eb0     GuPersistentContactManifold.obj
 0002:00005ec8       ?invalidateQuatThresholds@Gu@physx@@3QBMB 0000000180123ec8     GuPersistentContactManifold.obj
 0002:00005ee0       ?invalidateThresholds2@Gu@physx@@3QBMB 0000000180123ee0     GuPersistentContactManifold.obj
 0002:00005ef0       ?invalidateQuatThresholds2@Gu@physx@@3QBMB 0000000180123ef0     GuPersistentContactManifold.obj
 0002:00005f20       __xmm@000000003f8000003f80000000000000 0000000180123f20     GuPersistentContactManifold.obj
 0002:00005f30       __xmm@00000000bf8000003f80000000000000 0000000180123f30     GuPersistentContactManifold.obj
 0002:00005f40       __xmm@ff7fffffff7fffffff7fffffff7fffff 0000000180123f40     GuPersistentContactManifold.obj
 0002:00005f50       __xmm@ffffffffffffffff00000000ffffffff 0000000180123f50     GuPersistentContactManifold.obj
 0002:00005fa0       __real@b727c5ac            0000000180123fa0     GuSweepBoxSphere.obj
 0002:00006010       ??_C@_0EF@FJIMBKIE@C?3?2_GIT?2PhysX?2physx?2source?2geom@ 0000000180124010     GuSweepCapsuleBox.obj
 0002:00006080       __real@3f7fff58            0000000180124080     GuSweepCapsuleTriangle.obj
 0002:000060d0       __sz_PhysXFoundation_64_dll 00000001801240d0     PhysXFoundation_64:PhysXFoundation_64.dll
 0002:000060e8       ??_C@_1BK@DBDEIDLH@?$AAK?$AAE?$AAR?$AAN?$AAE?$AAL?$AA3?$AA2?$AA?4?$AAD?$AAL?$AAL@ 00000001801240e8     Delayimp:delayhlp.obj
 0002:00006108       ??_C@_0BI@OMNLIJDB@AcquireSRWLockExclusive@ 0000000180124108     Delayimp:delayhlp.obj
 0002:00006120       ??_C@_0BI@HMIEPCNJ@ReleaseSRWLockExclusive@ 0000000180124120     Delayimp:delayhlp.obj
 0002:00006138       __pfnDliFailureHook2       0000000180124138     Delayimp:delayhk1.obj
 0002:00006148       ??_7type_info@@6B@         0000000180124148     MSVCRT:std_type_info_static.obj
 0002:000061b0       _pDefaultRawDllMain        00000001801241b0     MSVCRT:dll_dllmain.obj
 0002:000061b0       _pRawDllMain               00000001801241b0     MSVCRT:dll_dllmain.obj
 0002:000061c0       _load_config_used          00000001801241c0     MSVCRT:loadcfg.obj
 0002:00006380       ??_R4type_info@@6B@        0000000180124380     MSVCRT:std_type_info_static.obj
 0002:000063a8       ??_R3type_info@@8          00000001801243a8     MSVCRT:std_type_info_static.obj
 0002:000063c0       ??_R2type_info@@8          00000001801243c0     MSVCRT:std_type_info_static.obj
 0002:000063d0       ??_R1A@?0A@EA@type_info@@8 00000001801243d0     MSVCRT:std_type_info_static.obj
 0002:000063f4       __volatile_metadata        00000001801243f4     <linker-defined>
 0002:000068b0       __rtc_iaa                  00000001801248b0     MSVCRT:initsect.obj
 0002:000068b8       __rtc_izz                  00000001801248b8     MSVCRT:initsect.obj
 0002:000068c0       __rtc_taa                  00000001801248c0     MSVCRT:initsect.obj
 0002:000068c8       __rtc_tzz                  00000001801248c8     MSVCRT:initsect.obj
 0002:00011e98       __DELAY_IMPORT_DESCRIPTOR_physxfoundation_64_dll 000000018012fe98     PhysXFoundation_64:PhysXFoundation_64.dll
 0002:00011eb8       __NULL_DELAY_IMPORT_DESCRIPTOR 000000018012feb8     PhysXFoundation_64:PhysXFoundation_64.dll
 0002:00011f88       \177PhysXFoundation_64_NULL_THUNK_DATA_DLN 000000018012ff88     PhysXFoundation_64:PhysXFoundation_64.dll
 0002:000123c8       \177PhysXFoundation_64_NULL_THUNK_DATA_DLB 00000001801303c8     PhysXFoundation_64:PhysXFoundation_64.dll
 0002:0001c55c       __IMPORT_DESCRIPTOR_KERNEL32 000000018013a55c     kernel32:KERNEL32.dll
 0002:0001c570       __IMPORT_DESCRIPTOR_VCRUNTIME140 000000018013a570     vcruntime:VCRUNTIME140.dll
 0002:0001c584       __IMPORT_DESCRIPTOR_api-ms-win-crt-math-l1-1-0 000000018013a584     ucrt:api-ms-win-crt-math-l1-1-0.dll
 0002:0001c598       __IMPORT_DESCRIPTOR_api-ms-win-crt-string-l1-1-0 000000018013a598     ucrt:api-ms-win-crt-string-l1-1-0.dll
 0002:0001c5ac       __IMPORT_DESCRIPTOR_api-ms-win-crt-heap-l1-1-0 000000018013a5ac     ucrt:api-ms-win-crt-heap-l1-1-0.dll
 0002:0001c5c0       __IMPORT_DESCRIPTOR_api-ms-win-crt-runtime-l1-1-0 000000018013a5c0     ucrt:api-ms-win-crt-runtime-l1-1-0.dll
 0002:0001c5d4       __NULL_IMPORT_DESCRIPTOR   000000018013a5d4     kernel32:KERNEL32.dll
 0003:00000000       __pfnDliNotifyHook2        000000018013b000     CmWindowsDelayLoadHook.obj
 0003:00000020       ?gGeomMTDMethodTable@@3PAY06P6A_NAEAVPxVec3@physx@@AEAMAEBVPxGeometry@2@AEBVPxTransform@2@23@ZA 000000018013b020     GuMTD.obj
 0003:000001b0       ?gGeomOverlapMethodTable@@3PAY06P6A_NAEBVPxGeometry@physx@@AEBVPxTransform@2@01PEAUTriggerCache@Gu@2@@ZA 000000018013b1b0     GuOverlapTests.obj
 0003:00000338       ?gRaycastMap@@3PAP6AIAEBVPxGeometry@physx@@AEBVPxTransform@2@AEBVPxVec3@2@2MV?$PxFlags@W4Enum@PxHitFlag@physx@@G@2@IPEIAUPxRaycastHit@2@@ZA 000000018013b338     GuRaycastTests.obj
 0003:00000370       ?gGeomSweepFuncs@@3UGeomSweepFuncs@Gu@physx@@A 000000018013b370     GuSweepTests.obj
 0003:00000490       ?g_SweepMethodTable@Gu@physx@@3PAY06P6AMAEBUCCDShape@12@0AEBVPxTransform@2@111MAEAVPxVec3@2@2MAEAIM@ZA 000000018013b490     GuCCDSweepPrimitives.obj
 0003:00000618       ?g_TriangleSweepMethodTable@Gu@physx@@3PAP6AMAEBVGeometryUnion@12@0AEBVPxTransform@2@111MAEAVPxVec3@2@2AEBVFastVertex2ShapeScaling@Cm@2@AEAVTriangleV@12@M@ZA 000000018013b618     GuCCDSweepPrimitives.obj
 0003:00000a14       _fltused                   000000018013ba14     MSVCRT:fltused.obj
 0003:00000a20       __isa_available            000000018013ba20     MSVCRT:cpu_disp.obj
 0003:00000a24       __isa_enabled              000000018013ba24     MSVCRT:cpu_disp.obj
 0003:00000a28       __memset_fast_string_threshold 000000018013ba28     MSVCRT:cpu_disp.obj
 0003:00000a30       __memset_nt_threshold      000000018013ba30     MSVCRT:cpu_disp.obj
 0003:00000a40       __scrt_native_dllmain_reason 000000018013ba40     MSVCRT:utility.obj
 0003:00000a48       __security_cookie_complement 000000018013ba48     MSVCRT:gs_cookie.obj
 0003:00000a50       __security_cookie          000000018013ba50     MSVCRT:gs_cookie.obj
 0003:00000a60       __scrt_ucrt_dll_is_in_use  000000018013ba60     MSVCRT:ucrt_stubs.obj
 0003:00000a70       ??_R0?AVCollection@Cm@physx@@@8 000000018013ba70     CmCollection.obj
 0003:00000aa0       ??_R0?AVBVHStructure@Gu@physx@@@8 000000018013baa0     GuMeshFactory.obj
 0003:00000ad0       ??_R0?AVHeightField@Gu@physx@@@8 000000018013bad0     GuMeshFactory.obj
 0003:00000b00       ??_R0?AVConvexMesh@Gu@physx@@@8 000000018013bb00     GuMeshFactory.obj
 0003:00000b30       ??_R0?AVBV4TriangleMesh@Gu@physx@@@8 000000018013bb30     GuMeshFactory.obj
 0003:00000b60       ??_R0?AVRTreeTriangleMesh@Gu@physx@@@8 000000018013bb60     GuMeshFactory.obj
 0003:00000b98       ??_R0?AVMutexImpl@shdfnd@physx@@@8 000000018013bb98     GuMeshFactory.obj
 0003:00000bc8       ??_R0?AVBV32Tree@Gu@physx@@@8 000000018013bbc8     GuMeshFactory.obj
 0003:00000bf0       ??_R0?AVBV4TriangleData@Gu@physx@@@8 000000018013bbf0     GuMeshFactory.obj
 0003:00000c20       ??_R0?AVRTreeTriangleData@Gu@physx@@@8 000000018013bc20     GuMeshFactory.obj
 0003:00000c58       ??_R0E@8                   000000018013bc58     GuMeshFactory.obj
 0003:00000c70       ??_R0G@8                   000000018013bc70     GuMeshFactory.obj
 0003:00000c88       ??_R0I@8                   000000018013bc88     GuMeshFactory.obj
 0003:00000ca0       ??_R0?AVAABBTreeBuildNode@Gu@physx@@@8 000000018013bca0     GuAABBTreeBuild.obj
 0003:00000cd8       ??_R0?AVBigConvexData@physx@@@8 000000018013bcd8     GuConvexMesh.obj
 0003:00000d08       ??_R0?AVIndTri16@Gu@physx@@@8 000000018013bd08     GuBV4.obj
 0003:00000d30       ??_R0?AVIndTri32@Gu@physx@@@8 000000018013bd30     GuBV4.obj
 0003:00000d60       ??_R0?AU?$BVDataPackedT@VQuantizedAABB@Gu@physx@@@Gu@physx@@@8 000000018013bd60     GuBV4Build.obj
 0003:00000db0       ??_R0?AUSlab@BV4BuildParams@@@8 000000018013bdb0     GuBV4Build.obj
 0003:00000de0       ??_R0?AVAABBTreeNode@Gu@physx@@@8 000000018013bde0     GuBV4Build.obj
 0003:00000e10       ??_R0?AUBV32Data@Gu@physx@@@8 000000018013be10     GuBV32Build.obj
 0003:00000e38       ??_R0?AUBV32Node@@@8       000000018013be38     GuBV32Build.obj
 0003:00000e58       ??_R0?AVtype_info@@@8      000000018013be58     MSVCRT:std_type_info_static.obj
 0003:00000e78       __imp_PxGetFoundation      000000018013be78     PhysXFoundation_64:PhysXFoundation_64.dll
 0003:00000e80       __imp_?atomicIncrement@shdfnd@physx@@YAHPECH@Z 000000018013be80     PhysXFoundation_64:PhysXFoundation_64.dll
 0003:00000e88       __imp_?getAllocator@shdfnd@physx@@YAAEAVPxAllocatorCallback@2@XZ 000000018013be88     PhysXFoundation_64:PhysXFoundation_64.dll
 0003:00000e90       __imp_?getInstance@Foundation@shdfnd@physx@@SAAEAV123@XZ 000000018013be90     PhysXFoundation_64:PhysXFoundation_64.dll
 0003:00000e98       __imp_?error@Foundation@shdfnd@physx@@QEAAXW4Enum@PxErrorCode@3@PEBDH1ZZ 000000018013be98     PhysXFoundation_64:PhysXFoundation_64.dll
 0003:00000ea0       __imp_??0NamedAllocator@shdfnd@physx@@QEAA@PEBD@Z 000000018013bea0     PhysXFoundation_64:PhysXFoundation_64.dll
 0003:00000ea8       __imp_??1NamedAllocator@shdfnd@physx@@QEAA@XZ 000000018013bea8     PhysXFoundation_64:PhysXFoundation_64.dll
 0003:00000eb0       __imp_?allocate@NamedAllocator@shdfnd@physx@@QEAAPEAX_KPEBDH@Z 000000018013beb0     PhysXFoundation_64:PhysXFoundation_64.dll
 0003:00000eb8       __imp_?deallocate@NamedAllocator@shdfnd@physx@@QEAAXPEAX@Z 000000018013beb8     PhysXFoundation_64:PhysXFoundation_64.dll
 0003:00000ec0       __imp_?vsnprintf@shdfnd@physx@@YAHPEAD_KPEBD0@Z 000000018013bec0     PhysXFoundation_64:PhysXFoundation_64.dll
 0003:00000ec8       __imp_??0NamedAllocator@shdfnd@physx@@QEAA@AEBV012@@Z 000000018013bec8     PhysXFoundation_64:PhysXFoundation_64.dll
 0003:00000ed0       __imp_??0MutexImpl@shdfnd@physx@@QEAA@XZ 000000018013bed0     PhysXFoundation_64:PhysXFoundation_64.dll
 0003:00000ed8       __imp_??1MutexImpl@shdfnd@physx@@QEAA@XZ 000000018013bed8     PhysXFoundation_64:PhysXFoundation_64.dll
 0003:00000ee0       __imp_?lock@MutexImpl@shdfnd@physx@@QEAAXXZ 000000018013bee0     PhysXFoundation_64:PhysXFoundation_64.dll
 0003:00000ee8       __imp_?unlock@MutexImpl@shdfnd@physx@@QEAAXXZ 000000018013bee8     PhysXFoundation_64:PhysXFoundation_64.dll
 0003:00000ef0       __imp_?getSize@MutexImpl@shdfnd@physx@@SAIXZ 000000018013bef0     PhysXFoundation_64:PhysXFoundation_64.dll
 0003:00000ef8       __imp_?atomicDecrement@shdfnd@physx@@YAHPECH@Z 000000018013bef8     PhysXFoundation_64:PhysXFoundation_64.dll
 0003:00000f00       __imp_?PxTransformFromSegment@physx@@YA?AVPxTransform@1@AEBVPxVec3@1@0PEAM@Z 000000018013bf00     PhysXFoundation_64:PhysXFoundation_64.dll
 0003:00000f08       __imp_?optimizeBoundingBox@shdfnd@physx@@YA?AVPxVec3@2@AEAVPxMat33@2@@Z 000000018013bf08     PhysXFoundation_64:PhysXFoundation_64.dll
 0003:00000f10       __imp_?allocate@TempAllocator@shdfnd@physx@@QEAAPEAX_KPEBDH@Z 000000018013bf10     PhysXFoundation_64:PhysXFoundation_64.dll
 0003:00000f18       __imp_?deallocate@TempAllocator@shdfnd@physx@@QEAAXPEAX@Z 000000018013bf18     PhysXFoundation_64:PhysXFoundation_64.dll
 0003:00000f20       __imp_PxGetProfilerCallback 000000018013bf20     PhysXFoundation_64:PhysXFoundation_64.dll
 0003:00000f28       \177PhysXFoundation_64_NULL_THUNK_DATA_DLA 000000018013bf28     PhysXFoundation_64:PhysXFoundation_64.dll
 0003:00001cc0       ?boxVertexTable@physx@@3QBT__m128@@B 000000018013ccc0     GuConvexSupportTable.obj
 0003:00003810       __hmod__PhysXFoundation_64_dll 000000018013e810     PhysXFoundation_64:PhysXFoundation_64.dll
 0003:00003818       ?DloadKernel32@@3PEAUHINSTANCE__@@EA 000000018013e818     Delayimp:delayhlp.obj
 0003:00003820       ?DloadAcquireSRWLockExclusive@@3P6AXPEA_K@ZEA 000000018013e820     Delayimp:delayhlp.obj
 0003:00003828       ?DloadReleaseSRWLockExclusive@@3P6AXPEA_K@ZEA 000000018013e828     Delayimp:delayhlp.obj
 0003:00003830       ?DloadSrwLock@@3_KA        000000018013e830     Delayimp:delayhlp.obj
 0003:00003838       ?DloadSectionLockCount@@3KA 000000018013e838     Delayimp:delayhlp.obj
 0003:0000383c       ?DloadSectionOldProtection@@3KA 000000018013e83c     Delayimp:delayhlp.obj
 0003:00003840       ?DloadSectionCommitPermanent@@3KA 000000018013e840     Delayimp:delayhlp.obj
 0003:00003850       ?__type_info_root_node@@3U__type_info_node@@A 000000018013e850     MSVCRT:tncleanup.obj
 0003:00003864       __favor                    000000018013e864     MSVCRT:cpu_disp.obj
 0003:00003868       ?_OptionsStorage@?1??__local_stdio_printf_options@@9@4_KA 000000018013e868     MSVCRT:default_local_stdio_options.obj
 0003:00003870       ?_OptionsStorage@?1??__local_stdio_scanf_options@@9@4_KA 000000018013e870     MSVCRT:default_local_stdio_options.obj
 0003:00003878       __scrt_current_native_startup_state 000000018013e878     MSVCRT:utility.obj
 0003:00003880       __scrt_native_startup_lock 000000018013e880     MSVCRT:utility.obj
 0003:000038c0       __scrt_debugger_hook_flag  000000018013e8c0     MSVCRT:utility_desktop.obj
 0003:000038c8       __dyn_tls_init_callback    000000018013e8c8     <common>
 0005:00000100       __common_ssin_reduction_data 0000000180145100     MSVCRT:svml_s_sin_data.obj
 0005:00000d00       __common_ssin_data         0000000180145d00     MSVCRT:svml_s_sin_data.obj

 entry point at        0001:0011af38

 Static symbols

 0000:ffeb5000       .debug$S                   0000000180000000     PhysXCommon_64.exp
 0000:ffeb5000       .debug$S                   0000000180000000     ucrt:api-ms-win-crt-heap-l1-1-0.dll
 0000:ffeb5000       .debug$S                   0000000180000000     ucrt:api-ms-win-crt-math-l1-1-0.dll
 0000:ffeb5000       .debug$S                   0000000180000000     ucrt:api-ms-win-crt-math-l1-1-0.dll
 0000:ffeb5000       .debug$S                   0000000180000000     ucrt:api-ms-win-crt-math-l1-1-0.dll
 0000:ffeb5000       .debug$S                   0000000180000000     ucrt:api-ms-win-crt-math-l1-1-0.dll
 0000:ffeb5000       .debug$S                   0000000180000000     ucrt:api-ms-win-crt-math-l1-1-0.dll
 0000:ffeb5000       .debug$S                   0000000180000000     ucrt:api-ms-win-crt-runtime-l1-1-0.dll
 0000:ffeb5000       .debug$S                   0000000180000000     ucrt:api-ms-win-crt-runtime-l1-1-0.dll
 0000:ffeb5000       .debug$S                   0000000180000000     ucrt:api-ms-win-crt-runtime-l1-1-0.dll
 0000:ffeb5000       .debug$S                   0000000180000000     ucrt:api-ms-win-crt-runtime-l1-1-0.dll
 0000:ffeb5000       .debug$S                   0000000180000000     ucrt:api-ms-win-crt-runtime-l1-1-0.dll
 0000:ffeb5000       .debug$S                   0000000180000000     ucrt:api-ms-win-crt-runtime-l1-1-0.dll
 0000:ffeb5000       .debug$S                   0000000180000000     ucrt:api-ms-win-crt-runtime-l1-1-0.dll
 0000:ffeb5000       .debug$S                   0000000180000000     ucrt:api-ms-win-crt-runtime-l1-1-0.dll
 0000:ffeb5000       .debug$S                   0000000180000000     ucrt:api-ms-win-crt-runtime-l1-1-0.dll
 0000:ffeb5000       .debug$S                   0000000180000000     ucrt:api-ms-win-crt-runtime-l1-1-0.dll
 0000:ffeb5000       .debug$S                   0000000180000000     ucrt:api-ms-win-crt-runtime-l1-1-0.dll
 0000:ffeb5000       .debug$S                   0000000180000000     ucrt:api-ms-win-crt-runtime-l1-1-0.dll
 0000:ffeb5000       .debug$S                   0000000180000000     ucrt:api-ms-win-crt-string-l1-1-0.dll
 0000:ffeb5000       .debug$S                   0000000180000000     kernel32:KERNEL32.dll
 0000:ffeb5000       .debug$S                   0000000180000000     kernel32:KERNEL32.dll
 0000:ffeb5000       .debug$S                   0000000180000000     kernel32:KERNEL32.dll
 0000:ffeb5000       .debug$S                   0000000180000000     kernel32:KERNEL32.dll
 0000:ffeb5000       .debug$S                   0000000180000000     kernel32:KERNEL32.dll
 0000:ffeb5000       .debug$S                   0000000180000000     kernel32:KERNEL32.dll
 0000:ffeb5000       .debug$S                   0000000180000000     kernel32:KERNEL32.dll
 0000:ffeb5000       .debug$S                   0000000180000000     kernel32:KERNEL32.dll
 0000:ffeb5000       .debug$S                   0000000180000000     kernel32:KERNEL32.dll
 0000:ffeb5000       .debug$S                   0000000180000000     kernel32:KERNEL32.dll
 0000:ffeb5000       .debug$S                   0000000180000000     kernel32:KERNEL32.dll
 0000:ffeb5000       .debug$S                   0000000180000000     kernel32:KERNEL32.dll
 0000:ffeb5000       .debug$S                   0000000180000000     kernel32:KERNEL32.dll
 0000:ffeb5000       .debug$S                   0000000180000000     kernel32:KERNEL32.dll
 0000:ffeb5000       .debug$S                   0000000180000000     kernel32:KERNEL32.dll
 0000:ffeb5000       .debug$S                   0000000180000000     kernel32:KERNEL32.dll
 0000:ffeb5000       .debug$S                   0000000180000000     kernel32:KERNEL32.dll
 0000:ffeb5000       .debug$S                   0000000180000000     kernel32:KERNEL32.dll
 0000:ffeb5000       .debug$S                   0000000180000000     kernel32:KERNEL32.dll
 0000:ffeb5000       .debug$S                   0000000180000000     kernel32:KERNEL32.dll
 0000:ffeb5000       .debug$S                   0000000180000000     kernel32:KERNEL32.dll
 0000:ffeb5000       .debug$S                   0000000180000000     kernel32:KERNEL32.dll
 0000:ffeb5000       .debug$S                   0000000180000000     kernel32:KERNEL32.dll
 0000:ffeb5000       .debug$S                   0000000180000000     kernel32:KERNEL32.dll
 0000:ffeb5000       .debug$S                   0000000180000000     vcruntime:VCRUNTIME140.dll
 0000:ffeb5000       .debug$S                   0000000180000000     vcruntime:VCRUNTIME140.dll
 0000:ffeb5000       .debug$S                   0000000180000000     vcruntime:VCRUNTIME140.dll
 0000:ffeb5000       .debug$S                   0000000180000000     vcruntime:VCRUNTIME140.dll
 0000:ffeb5000       .debug$S                   0000000180000000     vcruntime:VCRUNTIME140.dll
 0000:ffeb5000       .debug$S                   0000000180000000     vcruntime:VCRUNTIME140.dll
 0000:ffeb5000       .debug$S                   0000000180000000     vcruntime:VCRUNTIME140.dll
 0000:ffeb5000       .debug$S                   0000000180000000     vcruntime:VCRUNTIME140.dll
 0000:ffeb5000       .debug$S                   0000000180000000     vcruntime:VCRUNTIME140.dll
 0000:ffeb5000       .debug$S                   0000000180000000     PhysXFoundation_64:PhysXFoundation_64.dll
 0000:ffeb5000       .debug$S                   0000000180000000     PhysXFoundation_64:PhysXFoundation_64.dll
 0000:ffeb5000       .debug$S                   0000000180000000     PhysXFoundation_64:PhysXFoundation_64.dll
 0000:ffeb5000       .debug$S                   0000000180000000     PhysXFoundation_64:PhysXFoundation_64.dll
 0000:ffeb5000       .debug$S                   0000000180000000     PhysXFoundation_64:PhysXFoundation_64.dll
 0000:ffeb5000       .debug$S                   0000000180000000     PhysXFoundation_64:PhysXFoundation_64.dll
 0000:ffeb5000       .debug$S                   0000000180000000     PhysXFoundation_64:PhysXFoundation_64.dll
 0000:ffeb5000       .debug$S                   0000000180000000     PhysXFoundation_64:PhysXFoundation_64.dll
 0000:ffeb5000       .debug$S                   0000000180000000     PhysXFoundation_64:PhysXFoundation_64.dll
 0000:ffeb5000       .debug$S                   0000000180000000     PhysXFoundation_64:PhysXFoundation_64.dll
 0000:ffeb5000       .debug$S                   0000000180000000     PhysXFoundation_64:PhysXFoundation_64.dll
 0000:ffeb5000       .debug$S                   0000000180000000     PhysXFoundation_64:PhysXFoundation_64.dll
 0000:ffeb5000       .debug$S                   0000000180000000     PhysXFoundation_64:PhysXFoundation_64.dll
 0000:ffeb5000       .debug$S                   0000000180000000     PhysXFoundation_64:PhysXFoundation_64.dll
 0000:ffeb5000       .debug$S                   0000000180000000     PhysXFoundation_64:PhysXFoundation_64.dll
 0000:ffeb5000       .debug$S                   0000000180000000     PhysXFoundation_64:PhysXFoundation_64.dll
 0000:ffeb5000       .debug$S                   0000000180000000     PhysXFoundation_64:PhysXFoundation_64.dll
 0000:ffeb5000       .debug$S                   0000000180000000     PhysXFoundation_64:PhysXFoundation_64.dll
 0000:ffeb5000       .debug$S                   0000000180000000     PhysXFoundation_64:PhysXFoundation_64.dll
 0000:ffeb5000       .debug$S                   0000000180000000     PhysXFoundation_64:PhysXFoundation_64.dll
 0000:ffeb5000       .debug$S                   0000000180000000     PhysXFoundation_64:PhysXFoundation_64.dll
 0000:ffeb5000       .debug$S                   0000000180000000     PhysXFoundation_64:PhysXFoundation_64.dll
 0001:00000000       ??__EmaxFError@_VecMathTests@aos@shdfnd@physx@@YAXXZ 0000000180001000 f   GuBounds.obj
 0001:00000010       ??__EmaxV3Error@_VecMathTests@aos@shdfnd@physx@@YAXXZ 0000000180001010 f   GuBounds.obj
 0001:00000020       ??__EmaxV4Error@_VecMathTests@aos@shdfnd@physx@@YAXXZ 0000000180001020 f   GuBounds.obj
 0001:00000030       ??__EminFError@_VecMathTests@aos@shdfnd@physx@@YAXXZ 0000000180001030 f   GuBounds.obj
 0001:00000040       ??__EminV3Error@_VecMathTests@aos@shdfnd@physx@@YAXXZ 0000000180001040 f   GuBounds.obj
 0001:00000050       ??__EminV4Error@_VecMathTests@aos@shdfnd@physx@@YAXXZ 0000000180001050 f   GuBounds.obj
 0001:00000060       ??__EmaxFError@_VecMathTests@aos@shdfnd@physx@@YAXXZ 0000000180001060 f   GuBox.obj
 0001:00000070       ??__EmaxV3Error@_VecMathTests@aos@shdfnd@physx@@YAXXZ 0000000180001070 f   GuBox.obj
 0001:00000080       ??__EmaxV4Error@_VecMathTests@aos@shdfnd@physx@@YAXXZ 0000000180001080 f   GuBox.obj
 0001:00000090       ??__EminFError@_VecMathTests@aos@shdfnd@physx@@YAXXZ 0000000180001090 f   GuBox.obj
 0001:000000a0       ??__EminV3Error@_VecMathTests@aos@shdfnd@physx@@YAXXZ 00000001800010a0 f   GuBox.obj
 0001:000000b0       ??__EminV4Error@_VecMathTests@aos@shdfnd@physx@@YAXXZ 00000001800010b0 f   GuBox.obj
 0001:000000c0       ??__EmaxFError@_VecMathTests@aos@shdfnd@physx@@YAXXZ 00000001800010c0 f   GuCCTSweepTests.obj
 0001:000000d0       ??__EmaxV3Error@_VecMathTests@aos@shdfnd@physx@@YAXXZ 00000001800010d0 f   GuCCTSweepTests.obj
 0001:000000e0       ??__EmaxV4Error@_VecMathTests@aos@shdfnd@physx@@YAXXZ 00000001800010e0 f   GuCCTSweepTests.obj
 0001:000000f0       ??__EminFError@_VecMathTests@aos@shdfnd@physx@@YAXXZ 00000001800010f0 f   GuCCTSweepTests.obj
 0001:00000100       ??__EminV3Error@_VecMathTests@aos@shdfnd@physx@@YAXXZ 0000000180001100 f   GuCCTSweepTests.obj
 0001:00000110       ??__EminV4Error@_VecMathTests@aos@shdfnd@physx@@YAXXZ 0000000180001110 f   GuCCTSweepTests.obj
 0001:00000120       ??__EmaxFError@_VecMathTests@aos@shdfnd@physx@@YAXXZ 0000000180001120 f   GuGeometryQuery.obj
 0001:00000130       ??__EmaxV3Error@_VecMathTests@aos@shdfnd@physx@@YAXXZ 0000000180001130 f   GuGeometryQuery.obj
 0001:00000140       ??__EmaxV4Error@_VecMathTests@aos@shdfnd@physx@@YAXXZ 0000000180001140 f   GuGeometryQuery.obj
 0001:00000150       ??__EminFError@_VecMathTests@aos@shdfnd@physx@@YAXXZ 0000000180001150 f   GuGeometryQuery.obj
 0001:00000160       ??__EminV3Error@_VecMathTests@aos@shdfnd@physx@@YAXXZ 0000000180001160 f   GuGeometryQuery.obj
 0001:00000170       ??__EminV4Error@_VecMathTests@aos@shdfnd@physx@@YAXXZ 0000000180001170 f   GuGeometryQuery.obj
 0001:00000180       ??__EmaxFError@_VecMathTests@aos@shdfnd@physx@@YAXXZ 0000000180001180 f   GuGeometryUnion.obj
 0001:00000190       ??__EmaxV3Error@_VecMathTests@aos@shdfnd@physx@@YAXXZ 0000000180001190 f   GuGeometryUnion.obj
 0001:000001a0       ??__EmaxV4Error@_VecMathTests@aos@shdfnd@physx@@YAXXZ 00000001800011a0 f   GuGeometryUnion.obj
 0001:000001b0       ??__EminFError@_VecMathTests@aos@shdfnd@physx@@YAXXZ 00000001800011b0 f   GuGeometryUnion.obj
 0001:000001c0       ??__EminV3Error@_VecMathTests@aos@shdfnd@physx@@YAXXZ 00000001800011c0 f   GuGeometryUnion.obj
 0001:000001d0       ??__EminV4Error@_VecMathTests@aos@shdfnd@physx@@YAXXZ 00000001800011d0 f   GuGeometryUnion.obj
 0001:000001e0       ??__EmaxFError@_VecMathTests@aos@shdfnd@physx@@YAXXZ 00000001800011e0 f   GuInternal.obj
 0001:000001f0       ??__EmaxV3Error@_VecMathTests@aos@shdfnd@physx@@YAXXZ 00000001800011f0 f   GuInternal.obj
 0001:00000200       ??__EmaxV4Error@_VecMathTests@aos@shdfnd@physx@@YAXXZ 0000000180001200 f   GuInternal.obj
 0001:00000210       ??__EminFError@_VecMathTests@aos@shdfnd@physx@@YAXXZ 0000000180001210 f   GuInternal.obj
 0001:00000220       ??__EminV3Error@_VecMathTests@aos@shdfnd@physx@@YAXXZ 0000000180001220 f   GuInternal.obj
 0001:00000230       ??__EminV4Error@_VecMathTests@aos@shdfnd@physx@@YAXXZ 0000000180001230 f   GuInternal.obj
 0001:00000240       ??__EmaxFError@_VecMathTests@aos@shdfnd@physx@@YAXXZ 0000000180001240 f   GuMeshFactory.obj
 0001:00000250       ??__EmaxV3Error@_VecMathTests@aos@shdfnd@physx@@YAXXZ 0000000180001250 f   GuMeshFactory.obj
 0001:00000260       ??__EmaxV4Error@_VecMathTests@aos@shdfnd@physx@@YAXXZ 0000000180001260 f   GuMeshFactory.obj
 0001:00000270       ??__EminFError@_VecMathTests@aos@shdfnd@physx@@YAXXZ 0000000180001270 f   GuMeshFactory.obj
 0001:00000280       ??__EminV3Error@_VecMathTests@aos@shdfnd@physx@@YAXXZ 0000000180001280 f   GuMeshFactory.obj
 0001:00000290       ??__EminV4Error@_VecMathTests@aos@shdfnd@physx@@YAXXZ 0000000180001290 f   GuMeshFactory.obj
 0001:000002a0       ??__EmaxFError@_VecMathTests@aos@shdfnd@physx@@YAXXZ 00000001800012a0 f   GuMetaData.obj
 0001:000002b0       ??__EmaxV3Error@_VecMathTests@aos@shdfnd@physx@@YAXXZ 00000001800012b0 f   GuMetaData.obj
 0001:000002c0       ??__EmaxV4Error@_VecMathTests@aos@shdfnd@physx@@YAXXZ 00000001800012c0 f   GuMetaData.obj
 0001:000002d0       ??__EminFError@_VecMathTests@aos@shdfnd@physx@@YAXXZ 00000001800012d0 f   GuMetaData.obj
 0001:000002e0       ??__EminV3Error@_VecMathTests@aos@shdfnd@physx@@YAXXZ 00000001800012e0 f   GuMetaData.obj
 0001:000002f0       ??__EminV4Error@_VecMathTests@aos@shdfnd@physx@@YAXXZ 00000001800012f0 f   GuMetaData.obj
 0001:00000300       ??__EmaxFError@_VecMathTests@aos@shdfnd@physx@@YAXXZ 0000000180001300 f   GuMTD.obj
 0001:00000310       ??__EmaxV3Error@_VecMathTests@aos@shdfnd@physx@@YAXXZ 0000000180001310 f   GuMTD.obj
 0001:00000320       ??__EmaxV4Error@_VecMathTests@aos@shdfnd@physx@@YAXXZ 0000000180001320 f   GuMTD.obj
 0001:00000330       ??__EminFError@_VecMathTests@aos@shdfnd@physx@@YAXXZ 0000000180001330 f   GuMTD.obj
 0001:00000340       ??__EminV3Error@_VecMathTests@aos@shdfnd@physx@@YAXXZ 0000000180001340 f   GuMTD.obj
 0001:00000350       ??__EminV4Error@_VecMathTests@aos@shdfnd@physx@@YAXXZ 0000000180001350 f   GuMTD.obj
 0001:00000360       ??__EmaxFError@_VecMathTests@aos@shdfnd@physx@@YAXXZ 0000000180001360 f   GuOverlapTests.obj
 0001:00000370       ??__EmaxV3Error@_VecMathTests@aos@shdfnd@physx@@YAXXZ 0000000180001370 f   GuOverlapTests.obj
 0001:00000380       ??__EmaxV4Error@_VecMathTests@aos@shdfnd@physx@@YAXXZ 0000000180001380 f   GuOverlapTests.obj
 0001:00000390       ??__EminFError@_VecMathTests@aos@shdfnd@physx@@YAXXZ 0000000180001390 f   GuOverlapTests.obj
 0001:000003a0       ??__EminV3Error@_VecMathTests@aos@shdfnd@physx@@YAXXZ 00000001800013a0 f   GuOverlapTests.obj
 0001:000003b0       ??__EminV4Error@_VecMathTests@aos@shdfnd@physx@@YAXXZ 00000001800013b0 f   GuOverlapTests.obj
 0001:000003c0       ??__EmaxFError@_VecMathTests@aos@shdfnd@physx@@YAXXZ 00000001800013c0 f   GuRaycastTests.obj
 0001:000003d0       ??__EmaxV3Error@_VecMathTests@aos@shdfnd@physx@@YAXXZ 00000001800013d0 f   GuRaycastTests.obj
 0001:000003e0       ??__EmaxV4Error@_VecMathTests@aos@shdfnd@physx@@YAXXZ 00000001800013e0 f   GuRaycastTests.obj
 0001:000003f0       ??__EminFError@_VecMathTests@aos@shdfnd@physx@@YAXXZ 00000001800013f0 f   GuRaycastTests.obj
 0001:00000400       ??__EminV3Error@_VecMathTests@aos@shdfnd@physx@@YAXXZ 0000000180001400 f   GuRaycastTests.obj
 0001:00000410       ??__EminV4Error@_VecMathTests@aos@shdfnd@physx@@YAXXZ 0000000180001410 f   GuRaycastTests.obj
 0001:00000420       ??__EmaxFError@_VecMathTests@aos@shdfnd@physx@@YAXXZ 0000000180001420 f   GuSweepMTD.obj
 0001:00000430       ??__EmaxV3Error@_VecMathTests@aos@shdfnd@physx@@YAXXZ 0000000180001430 f   GuSweepMTD.obj
 0001:00000440       ??__EmaxV4Error@_VecMathTests@aos@shdfnd@physx@@YAXXZ 0000000180001440 f   GuSweepMTD.obj
 0001:00000450       ??__EminFError@_VecMathTests@aos@shdfnd@physx@@YAXXZ 0000000180001450 f   GuSweepMTD.obj
 0001:00000460       ??__EminV3Error@_VecMathTests@aos@shdfnd@physx@@YAXXZ 0000000180001460 f   GuSweepMTD.obj
 0001:00000470       ??__EminV4Error@_VecMathTests@aos@shdfnd@physx@@YAXXZ 0000000180001470 f   GuSweepMTD.obj
 0001:00000480       ??__EmaxFError@_VecMathTests@aos@shdfnd@physx@@YAXXZ 0000000180001480 f   GuSweepSharedTests.obj
 0001:00000490       ??__EmaxV3Error@_VecMathTests@aos@shdfnd@physx@@YAXXZ 0000000180001490 f   GuSweepSharedTests.obj
 0001:000004a0       ??__EmaxV4Error@_VecMathTests@aos@shdfnd@physx@@YAXXZ 00000001800014a0 f   GuSweepSharedTests.obj
 0001:000004b0       ??__EminFError@_VecMathTests@aos@shdfnd@physx@@YAXXZ 00000001800014b0 f   GuSweepSharedTests.obj
 0001:000004c0       ??__EminV3Error@_VecMathTests@aos@shdfnd@physx@@YAXXZ 00000001800014c0 f   GuSweepSharedTests.obj
 0001:000004d0       ??__EminV4Error@_VecMathTests@aos@shdfnd@physx@@YAXXZ 00000001800014d0 f   GuSweepSharedTests.obj
 0001:000004e0       ??__EmaxFError@_VecMathTests@aos@shdfnd@physx@@YAXXZ 00000001800014e0 f   GuSweepTests.obj
 0001:000004f0       ??__EmaxV3Error@_VecMathTests@aos@shdfnd@physx@@YAXXZ 00000001800014f0 f   GuSweepTests.obj
 0001:00000500       ??__EmaxV4Error@_VecMathTests@aos@shdfnd@physx@@YAXXZ 0000000180001500 f   GuSweepTests.obj
 0001:00000510       ??__EminFError@_VecMathTests@aos@shdfnd@physx@@YAXXZ 0000000180001510 f   GuSweepTests.obj
 0001:00000520       ??__EminV3Error@_VecMathTests@aos@shdfnd@physx@@YAXXZ 0000000180001520 f   GuSweepTests.obj
 0001:00000530       ??__EminV4Error@_VecMathTests@aos@shdfnd@physx@@YAXXZ 0000000180001530 f   GuSweepTests.obj
 0001:00000540       ??__EmaxFError@_VecMathTests@aos@shdfnd@physx@@YAXXZ 0000000180001540 f   GuAABBTreeBuild.obj
 0001:00000550       ??__EmaxV3Error@_VecMathTests@aos@shdfnd@physx@@YAXXZ 0000000180001550 f   GuAABBTreeBuild.obj
 0001:00000560       ??__EmaxV4Error@_VecMathTests@aos@shdfnd@physx@@YAXXZ 0000000180001560 f   GuAABBTreeBuild.obj
 0001:00000570       ??__EminFError@_VecMathTests@aos@shdfnd@physx@@YAXXZ 0000000180001570 f   GuAABBTreeBuild.obj
 0001:00000580       ??__EminV3Error@_VecMathTests@aos@shdfnd@physx@@YAXXZ 0000000180001580 f   GuAABBTreeBuild.obj
 0001:00000590       ??__EminV4Error@_VecMathTests@aos@shdfnd@physx@@YAXXZ 0000000180001590 f   GuAABBTreeBuild.obj
 0001:000005a0       ??__EmaxFError@_VecMathTests@aos@shdfnd@physx@@YAXXZ 00000001800015a0 f   GuBVHStructure.obj
 0001:000005b0       ??__EmaxV3Error@_VecMathTests@aos@shdfnd@physx@@YAXXZ 00000001800015b0 f   GuBVHStructure.obj
 0001:000005c0       ??__EmaxV4Error@_VecMathTests@aos@shdfnd@physx@@YAXXZ 00000001800015c0 f   GuBVHStructure.obj
 0001:000005d0       ??__EminFError@_VecMathTests@aos@shdfnd@physx@@YAXXZ 00000001800015d0 f   GuBVHStructure.obj
 0001:000005e0       ??__EminV3Error@_VecMathTests@aos@shdfnd@physx@@YAXXZ 00000001800015e0 f   GuBVHStructure.obj
 0001:000005f0       ??__EminV4Error@_VecMathTests@aos@shdfnd@physx@@YAXXZ 00000001800015f0 f   GuBVHStructure.obj
 0001:00000600       ??__EmaxFError@_VecMathTests@aos@shdfnd@physx@@YAXXZ 0000000180001600 f   GuCCDSweepConvexMesh.obj
 0001:00000610       ??__EmaxV3Error@_VecMathTests@aos@shdfnd@physx@@YAXXZ 0000000180001610 f   GuCCDSweepConvexMesh.obj
 0001:00000620       ??__EmaxV4Error@_VecMathTests@aos@shdfnd@physx@@YAXXZ 0000000180001620 f   GuCCDSweepConvexMesh.obj
 0001:00000630       ??__EminFError@_VecMathTests@aos@shdfnd@physx@@YAXXZ 0000000180001630 f   GuCCDSweepConvexMesh.obj
 0001:00000640       ??__EminV3Error@_VecMathTests@aos@shdfnd@physx@@YAXXZ 0000000180001640 f   GuCCDSweepConvexMesh.obj
 0001:00000650       ??__EminV4Error@_VecMathTests@aos@shdfnd@physx@@YAXXZ 0000000180001650 f   GuCCDSweepConvexMesh.obj
 0001:00000660       ??__EmaxFError@_VecMathTests@aos@shdfnd@physx@@YAXXZ 0000000180001660 f   GuCCDSweepPrimitives.obj
 0001:00000670       ??__EmaxV3Error@_VecMathTests@aos@shdfnd@physx@@YAXXZ 0000000180001670 f   GuCCDSweepPrimitives.obj
 0001:00000680       ??__EmaxV4Error@_VecMathTests@aos@shdfnd@physx@@YAXXZ 0000000180001680 f   GuCCDSweepPrimitives.obj
 0001:00000690       ??__EminFError@_VecMathTests@aos@shdfnd@physx@@YAXXZ 0000000180001690 f   GuCCDSweepPrimitives.obj
 0001:000006a0       ??__EminV3Error@_VecMathTests@aos@shdfnd@physx@@YAXXZ 00000001800016a0 f   GuCCDSweepPrimitives.obj
 0001:000006b0       ??__EminV4Error@_VecMathTests@aos@shdfnd@physx@@YAXXZ 00000001800016b0 f   GuCCDSweepPrimitives.obj
 0001:000006c0       ??__EmaxFError@_VecMathTests@aos@shdfnd@physx@@YAXXZ 00000001800016c0 f   GuBarycentricCoordinates.obj
 0001:000006d0       ??__EmaxV3Error@_VecMathTests@aos@shdfnd@physx@@YAXXZ 00000001800016d0 f   GuBarycentricCoordinates.obj
 0001:000006e0       ??__EmaxV4Error@_VecMathTests@aos@shdfnd@physx@@YAXXZ 00000001800016e0 f   GuBarycentricCoordinates.obj
 0001:000006f0       ??__EminFError@_VecMathTests@aos@shdfnd@physx@@YAXXZ 00000001800016f0 f   GuBarycentricCoordinates.obj
 0001:00000700       ??__EminV3Error@_VecMathTests@aos@shdfnd@physx@@YAXXZ 0000000180001700 f   GuBarycentricCoordinates.obj
 0001:00000710       ??__EminV4Error@_VecMathTests@aos@shdfnd@physx@@YAXXZ 0000000180001710 f   GuBarycentricCoordinates.obj
 0001:00000720       ??__EmaxFError@_VecMathTests@aos@shdfnd@physx@@YAXXZ 0000000180001720 f   GuContactBoxBox.obj
 0001:00000730       ??__EmaxV3Error@_VecMathTests@aos@shdfnd@physx@@YAXXZ 0000000180001730 f   GuContactBoxBox.obj
 0001:00000740       ??__EmaxV4Error@_VecMathTests@aos@shdfnd@physx@@YAXXZ 0000000180001740 f   GuContactBoxBox.obj
 0001:00000750       ??__EminFError@_VecMathTests@aos@shdfnd@physx@@YAXXZ 0000000180001750 f   GuContactBoxBox.obj
 0001:00000760       ??__EminV3Error@_VecMathTests@aos@shdfnd@physx@@YAXXZ 0000000180001760 f   GuContactBoxBox.obj
 0001:00000770       ??__EminV4Error@_VecMathTests@aos@shdfnd@physx@@YAXXZ 0000000180001770 f   GuContactBoxBox.obj
 0001:00000780       ??__EmaxFError@_VecMathTests@aos@shdfnd@physx@@YAXXZ 0000000180001780 f   GuContactCapsuleBox.obj
 0001:00000790       ??__EmaxV3Error@_VecMathTests@aos@shdfnd@physx@@YAXXZ 0000000180001790 f   GuContactCapsuleBox.obj
 0001:000007a0       ??__EmaxV4Error@_VecMathTests@aos@shdfnd@physx@@YAXXZ 00000001800017a0 f   GuContactCapsuleBox.obj
 0001:000007b0       ??__EminFError@_VecMathTests@aos@shdfnd@physx@@YAXXZ 00000001800017b0 f   GuContactCapsuleBox.obj
 0001:000007c0       ??__EminV3Error@_VecMathTests@aos@shdfnd@physx@@YAXXZ 00000001800017c0 f   GuContactCapsuleBox.obj
 0001:000007d0       ??__EminV4Error@_VecMathTests@aos@shdfnd@physx@@YAXXZ 00000001800017d0 f   GuContactCapsuleBox.obj
 0001:000007e0       ??__EmaxFError@_VecMathTests@aos@shdfnd@physx@@YAXXZ 00000001800017e0 f   GuContactCapsuleCapsule.obj
 0001:000007f0       ??__EmaxV3Error@_VecMathTests@aos@shdfnd@physx@@YAXXZ 00000001800017f0 f   GuContactCapsuleCapsule.obj
 0001:00000800       ??__EmaxV4Error@_VecMathTests@aos@shdfnd@physx@@YAXXZ 0000000180001800 f   GuContactCapsuleCapsule.obj
 0001:00000810       ??__EminFError@_VecMathTests@aos@shdfnd@physx@@YAXXZ 0000000180001810 f   GuContactCapsuleCapsule.obj
 0001:00000820       ??__EminV3Error@_VecMathTests@aos@shdfnd@physx@@YAXXZ 0000000180001820 f   GuContactCapsuleCapsule.obj
 0001:00000830       ??__EminV4Error@_VecMathTests@aos@shdfnd@physx@@YAXXZ 0000000180001830 f   GuContactCapsuleCapsule.obj
 0001:00000840       ??__EmaxFError@_VecMathTests@aos@shdfnd@physx@@YAXXZ 0000000180001840 f   GuContactCapsuleConvex.obj
 0001:00000850       ??__EmaxV3Error@_VecMathTests@aos@shdfnd@physx@@YAXXZ 0000000180001850 f   GuContactCapsuleConvex.obj
 0001:00000860       ??__EmaxV4Error@_VecMathTests@aos@shdfnd@physx@@YAXXZ 0000000180001860 f   GuContactCapsuleConvex.obj
 0001:00000870       ??__EminFError@_VecMathTests@aos@shdfnd@physx@@YAXXZ 0000000180001870 f   GuContactCapsuleConvex.obj
 0001:00000880       ??__EminV3Error@_VecMathTests@aos@shdfnd@physx@@YAXXZ 0000000180001880 f   GuContactCapsuleConvex.obj
 0001:00000890       ??__EminV4Error@_VecMathTests@aos@shdfnd@physx@@YAXXZ 0000000180001890 f   GuContactCapsuleConvex.obj
 0001:000008a0       ??__EmaxFError@_VecMathTests@aos@shdfnd@physx@@YAXXZ 00000001800018a0 f   GuContactCapsuleMesh.obj
 0001:000008b0       ??__EmaxV3Error@_VecMathTests@aos@shdfnd@physx@@YAXXZ 00000001800018b0 f   GuContactCapsuleMesh.obj
 0001:000008c0       ??__EmaxV4Error@_VecMathTests@aos@shdfnd@physx@@YAXXZ 00000001800018c0 f   GuContactCapsuleMesh.obj
 0001:000008d0       ??__EminFError@_VecMathTests@aos@shdfnd@physx@@YAXXZ 00000001800018d0 f   GuContactCapsuleMesh.obj
 0001:000008e0       ??__EminV3Error@_VecMathTests@aos@shdfnd@physx@@YAXXZ 00000001800018e0 f   GuContactCapsuleMesh.obj
 0001:000008f0       ??__EminV4Error@_VecMathTests@aos@shdfnd@physx@@YAXXZ 00000001800018f0 f   GuContactCapsuleMesh.obj
 0001:00000900       ??__EmaxFError@_VecMathTests@aos@shdfnd@physx@@YAXXZ 0000000180001900 f   GuContactConvexConvex.obj
 0001:00000910       ??__EmaxV3Error@_VecMathTests@aos@shdfnd@physx@@YAXXZ 0000000180001910 f   GuContactConvexConvex.obj
 0001:00000920       ??__EmaxV4Error@_VecMathTests@aos@shdfnd@physx@@YAXXZ 0000000180001920 f   GuContactConvexConvex.obj
 0001:00000930       ??__EminFError@_VecMathTests@aos@shdfnd@physx@@YAXXZ 0000000180001930 f   GuContactConvexConvex.obj
 0001:00000940       ??__EminV3Error@_VecMathTests@aos@shdfnd@physx@@YAXXZ 0000000180001940 f   GuContactConvexConvex.obj
 0001:00000950       ??__EminV4Error@_VecMathTests@aos@shdfnd@physx@@YAXXZ 0000000180001950 f   GuContactConvexConvex.obj
 0001:00000960       ??__EmaxFError@_VecMathTests@aos@shdfnd@physx@@YAXXZ 0000000180001960 f   GuContactConvexMesh.obj
 0001:00000970       ??__EmaxV3Error@_VecMathTests@aos@shdfnd@physx@@YAXXZ 0000000180001970 f   GuContactConvexMesh.obj
 0001:00000980       ??__EmaxV4Error@_VecMathTests@aos@shdfnd@physx@@YAXXZ 0000000180001980 f   GuContactConvexMesh.obj
 0001:00000990       ??__EminFError@_VecMathTests@aos@shdfnd@physx@@YAXXZ 0000000180001990 f   GuContactConvexMesh.obj
 0001:000009a0       ??__EminV3Error@_VecMathTests@aos@shdfnd@physx@@YAXXZ 00000001800019a0 f   GuContactConvexMesh.obj
 0001:000009b0       ??__EminV4Error@_VecMathTests@aos@shdfnd@physx@@YAXXZ 00000001800019b0 f   GuContactConvexMesh.obj
 0001:000009c0       ??__EmaxFError@_VecMathTests@aos@shdfnd@physx@@YAXXZ 00000001800019c0 f   GuContactPlaneBox.obj
 0001:000009d0       ??__EmaxV3Error@_VecMathTests@aos@shdfnd@physx@@YAXXZ 00000001800019d0 f   GuContactPlaneBox.obj
 0001:000009e0       ??__EmaxV4Error@_VecMathTests@aos@shdfnd@physx@@YAXXZ 00000001800019e0 f   GuContactPlaneBox.obj
 0001:000009f0       ??__EminFError@_VecMathTests@aos@shdfnd@physx@@YAXXZ 00000001800019f0 f   GuContactPlaneBox.obj
 0001:00000a00       ??__EminV3Error@_VecMathTests@aos@shdfnd@physx@@YAXXZ 0000000180001a00 f   GuContactPlaneBox.obj
 0001:00000a10       ??__EminV4Error@_VecMathTests@aos@shdfnd@physx@@YAXXZ 0000000180001a10 f   GuContactPlaneBox.obj
 0001:00000a20       ??__EmaxFError@_VecMathTests@aos@shdfnd@physx@@YAXXZ 0000000180001a20 f   GuContactPlaneCapsule.obj
 0001:00000a30       ??__EmaxV3Error@_VecMathTests@aos@shdfnd@physx@@YAXXZ 0000000180001a30 f   GuContactPlaneCapsule.obj
 0001:00000a40       ??__EmaxV4Error@_VecMathTests@aos@shdfnd@physx@@YAXXZ 0000000180001a40 f   GuContactPlaneCapsule.obj
 0001:00000a50       ??__EminFError@_VecMathTests@aos@shdfnd@physx@@YAXXZ 0000000180001a50 f   GuContactPlaneCapsule.obj
 0001:00000a60       ??__EminV3Error@_VecMathTests@aos@shdfnd@physx@@YAXXZ 0000000180001a60 f   GuContactPlaneCapsule.obj
 0001:00000a70       ??__EminV4Error@_VecMathTests@aos@shdfnd@physx@@YAXXZ 0000000180001a70 f   GuContactPlaneCapsule.obj
 0001:00000a80       ??__EmaxFError@_VecMathTests@aos@shdfnd@physx@@YAXXZ 0000000180001a80 f   GuContactPlaneConvex.obj
 0001:00000a90       ??__EmaxV3Error@_VecMathTests@aos@shdfnd@physx@@YAXXZ 0000000180001a90 f   GuContactPlaneConvex.obj
 0001:00000aa0       ??__EmaxV4Error@_VecMathTests@aos@shdfnd@physx@@YAXXZ 0000000180001aa0 f   GuContactPlaneConvex.obj
 0001:00000ab0       ??__EminFError@_VecMathTests@aos@shdfnd@physx@@YAXXZ 0000000180001ab0 f   GuContactPlaneConvex.obj
 0001:00000ac0       ??__EminV3Error@_VecMathTests@aos@shdfnd@physx@@YAXXZ 0000000180001ac0 f   GuContactPlaneConvex.obj
 0001:00000ad0       ??__EminV4Error@_VecMathTests@aos@shdfnd@physx@@YAXXZ 0000000180001ad0 f   GuContactPlaneConvex.obj
 0001:00000ae0       ??__EmaxFError@_VecMathTests@aos@shdfnd@physx@@YAXXZ 0000000180001ae0 f   GuContactSphereBox.obj
 0001:00000af0       ??__EmaxV3Error@_VecMathTests@aos@shdfnd@physx@@YAXXZ 0000000180001af0 f   GuContactSphereBox.obj
 0001:00000b00       ??__EmaxV4Error@_VecMathTests@aos@shdfnd@physx@@YAXXZ 0000000180001b00 f   GuContactSphereBox.obj
 0001:00000b10       ??__EminFError@_VecMathTests@aos@shdfnd@physx@@YAXXZ 0000000180001b10 f   GuContactSphereBox.obj
 0001:00000b20       ??__EminV3Error@_VecMathTests@aos@shdfnd@physx@@YAXXZ 0000000180001b20 f   GuContactSphereBox.obj
 0001:00000b30       ??__EminV4Error@_VecMathTests@aos@shdfnd@physx@@YAXXZ 0000000180001b30 f   GuContactSphereBox.obj
 0001:00000b40       ??__EmaxFError@_VecMathTests@aos@shdfnd@physx@@YAXXZ 0000000180001b40 f   GuContactSphereCapsule.obj
 0001:00000b50       ??__EmaxV3Error@_VecMathTests@aos@shdfnd@physx@@YAXXZ 0000000180001b50 f   GuContactSphereCapsule.obj
 0001:00000b60       ??__EmaxV4Error@_VecMathTests@aos@shdfnd@physx@@YAXXZ 0000000180001b60 f   GuContactSphereCapsule.obj
 0001:00000b70       ??__EminFError@_VecMathTests@aos@shdfnd@physx@@YAXXZ 0000000180001b70 f   GuContactSphereCapsule.obj
 0001:00000b80       ??__EminV3Error@_VecMathTests@aos@shdfnd@physx@@YAXXZ 0000000180001b80 f   GuContactSphereCapsule.obj
 0001:00000b90       ??__EminV4Error@_VecMathTests@aos@shdfnd@physx@@YAXXZ 0000000180001b90 f   GuContactSphereCapsule.obj
 0001:00000ba0       ??__EmaxFError@_VecMathTests@aos@shdfnd@physx@@YAXXZ 0000000180001ba0 f   GuContactSphereMesh.obj
 0001:00000bb0       ??__EmaxV3Error@_VecMathTests@aos@shdfnd@physx@@YAXXZ 0000000180001bb0 f   GuContactSphereMesh.obj
 0001:00000bc0       ??__EmaxV4Error@_VecMathTests@aos@shdfnd@physx@@YAXXZ 0000000180001bc0 f   GuContactSphereMesh.obj
 0001:00000bd0       ??__EminFError@_VecMathTests@aos@shdfnd@physx@@YAXXZ 0000000180001bd0 f   GuContactSphereMesh.obj
 0001:00000be0       ??__EminV3Error@_VecMathTests@aos@shdfnd@physx@@YAXXZ 0000000180001be0 f   GuContactSphereMesh.obj
 0001:00000bf0       ??__EminV4Error@_VecMathTests@aos@shdfnd@physx@@YAXXZ 0000000180001bf0 f   GuContactSphereMesh.obj
 0001:00000c00       ??__EmaxFError@_VecMathTests@aos@shdfnd@physx@@YAXXZ 0000000180001c00 f   GuContactSpherePlane.obj
 0001:00000c10       ??__EmaxV3Error@_VecMathTests@aos@shdfnd@physx@@YAXXZ 0000000180001c10 f   GuContactSpherePlane.obj
 0001:00000c20       ??__EmaxV4Error@_VecMathTests@aos@shdfnd@physx@@YAXXZ 0000000180001c20 f   GuContactSpherePlane.obj
 0001:00000c30       ??__EminFError@_VecMathTests@aos@shdfnd@physx@@YAXXZ 0000000180001c30 f   GuContactSpherePlane.obj
 0001:00000c40       ??__EminV3Error@_VecMathTests@aos@shdfnd@physx@@YAXXZ 0000000180001c40 f   GuContactSpherePlane.obj
 0001:00000c50       ??__EminV4Error@_VecMathTests@aos@shdfnd@physx@@YAXXZ 0000000180001c50 f   GuContactSpherePlane.obj
 0001:00000c60       ??__EmaxFError@_VecMathTests@aos@shdfnd@physx@@YAXXZ 0000000180001c60 f   GuContactSphereSphere.obj
 0001:00000c70       ??__EmaxV3Error@_VecMathTests@aos@shdfnd@physx@@YAXXZ 0000000180001c70 f   GuContactSphereSphere.obj
 0001:00000c80       ??__EmaxV4Error@_VecMathTests@aos@shdfnd@physx@@YAXXZ 0000000180001c80 f   GuContactSphereSphere.obj
 0001:00000c90       ??__EminFError@_VecMathTests@aos@shdfnd@physx@@YAXXZ 0000000180001c90 f   GuContactSphereSphere.obj
 0001:00000ca0       ??__EminV3Error@_VecMathTests@aos@shdfnd@physx@@YAXXZ 0000000180001ca0 f   GuContactSphereSphere.obj
 0001:00000cb0       ??__EminV4Error@_VecMathTests@aos@shdfnd@physx@@YAXXZ 0000000180001cb0 f   GuContactSphereSphere.obj
 0001:00000cc0       ??__EmaxFError@_VecMathTests@aos@shdfnd@physx@@YAXXZ 0000000180001cc0 f   GuConvexHelper.obj
 0001:00000cd0       ??__EmaxV3Error@_VecMathTests@aos@shdfnd@physx@@YAXXZ 0000000180001cd0 f   GuConvexHelper.obj
 0001:00000ce0       ??__EmaxV4Error@_VecMathTests@aos@shdfnd@physx@@YAXXZ 0000000180001ce0 f   GuConvexHelper.obj
 0001:00000cf0       ??__EminFError@_VecMathTests@aos@shdfnd@physx@@YAXXZ 0000000180001cf0 f   GuConvexHelper.obj
 0001:00000d00       ??__EminV3Error@_VecMathTests@aos@shdfnd@physx@@YAXXZ 0000000180001d00 f   GuConvexHelper.obj
 0001:00000d10       ??__EminV4Error@_VecMathTests@aos@shdfnd@physx@@YAXXZ 0000000180001d10 f   GuConvexHelper.obj
 0001:00000d20       ??__EboxVertexTable@physx@@YAXXZ 0000000180001d20 f   GuConvexSupportTable.obj
 0001:00000da0       ??__EmaxFError@_VecMathTests@aos@shdfnd@physx@@YAXXZ 0000000180001da0 f   GuConvexSupportTable.obj
 0001:00000db0       ??__EmaxV3Error@_VecMathTests@aos@shdfnd@physx@@YAXXZ 0000000180001db0 f   GuConvexSupportTable.obj
 0001:00000dc0       ??__EmaxV4Error@_VecMathTests@aos@shdfnd@physx@@YAXXZ 0000000180001dc0 f   GuConvexSupportTable.obj
 0001:00000dd0       ??__EminFError@_VecMathTests@aos@shdfnd@physx@@YAXXZ 0000000180001dd0 f   GuConvexSupportTable.obj
 0001:00000de0       ??__EminV3Error@_VecMathTests@aos@shdfnd@physx@@YAXXZ 0000000180001de0 f   GuConvexSupportTable.obj
 0001:00000df0       ??__EminV4Error@_VecMathTests@aos@shdfnd@physx@@YAXXZ 0000000180001df0 f   GuConvexSupportTable.obj
 0001:00000e00       ??__EmaxFError@_VecMathTests@aos@shdfnd@physx@@YAXXZ 0000000180001e00 f   GuConvexUtilsInternal.obj
 0001:00000e10       ??__EmaxV3Error@_VecMathTests@aos@shdfnd@physx@@YAXXZ 0000000180001e10 f   GuConvexUtilsInternal.obj
 0001:00000e20       ??__EmaxV4Error@_VecMathTests@aos@shdfnd@physx@@YAXXZ 0000000180001e20 f   GuConvexUtilsInternal.obj
 0001:00000e30       ??__EminFError@_VecMathTests@aos@shdfnd@physx@@YAXXZ 0000000180001e30 f   GuConvexUtilsInternal.obj
 0001:00000e40       ??__EminV3Error@_VecMathTests@aos@shdfnd@physx@@YAXXZ 0000000180001e40 f   GuConvexUtilsInternal.obj
 0001:00000e50       ??__EminV4Error@_VecMathTests@aos@shdfnd@physx@@YAXXZ 0000000180001e50 f   GuConvexUtilsInternal.obj
 0001:00000e60       ??__EmaxFError@_VecMathTests@aos@shdfnd@physx@@YAXXZ 0000000180001e60 f   GuDistancePointTriangle.obj
 0001:00000e70       ??__EmaxV3Error@_VecMathTests@aos@shdfnd@physx@@YAXXZ 0000000180001e70 f   GuDistancePointTriangle.obj
 0001:00000e80       ??__EmaxV4Error@_VecMathTests@aos@shdfnd@physx@@YAXXZ 0000000180001e80 f   GuDistancePointTriangle.obj
 0001:00000e90       ??__EminFError@_VecMathTests@aos@shdfnd@physx@@YAXXZ 0000000180001e90 f   GuDistancePointTriangle.obj
 0001:00000ea0       ??__EminV3Error@_VecMathTests@aos@shdfnd@physx@@YAXXZ 0000000180001ea0 f   GuDistancePointTriangle.obj
 0001:00000eb0       ??__EminV4Error@_VecMathTests@aos@shdfnd@physx@@YAXXZ 0000000180001eb0 f   GuDistancePointTriangle.obj
 0001:00000ec0       ??__EmaxFError@_VecMathTests@aos@shdfnd@physx@@YAXXZ 0000000180001ec0 f   GuDistanceSegmentSegment.obj
 0001:00000ed0       ??__EmaxV3Error@_VecMathTests@aos@shdfnd@physx@@YAXXZ 0000000180001ed0 f   GuDistanceSegmentSegment.obj
 0001:00000ee0       ??__EmaxV4Error@_VecMathTests@aos@shdfnd@physx@@YAXXZ 0000000180001ee0 f   GuDistanceSegmentSegment.obj
 0001:00000ef0       ??__EminFError@_VecMathTests@aos@shdfnd@physx@@YAXXZ 0000000180001ef0 f   GuDistanceSegmentSegment.obj
 0001:00000f00       ??__EminV3Error@_VecMathTests@aos@shdfnd@physx@@YAXXZ 0000000180001f00 f   GuDistanceSegmentSegment.obj
 0001:00000f10       ??__EminV4Error@_VecMathTests@aos@shdfnd@physx@@YAXXZ 0000000180001f10 f   GuDistanceSegmentSegment.obj
 0001:00000f20       ??__EmaxFError@_VecMathTests@aos@shdfnd@physx@@YAXXZ 0000000180001f20 f   GuDistanceSegmentTriangle.obj
 0001:00000f30       ??__EmaxV3Error@_VecMathTests@aos@shdfnd@physx@@YAXXZ 0000000180001f30 f   GuDistanceSegmentTriangle.obj
 0001:00000f40       ??__EmaxV4Error@_VecMathTests@aos@shdfnd@physx@@YAXXZ 0000000180001f40 f   GuDistanceSegmentTriangle.obj
 0001:00000f50       ??__EminFError@_VecMathTests@aos@shdfnd@physx@@YAXXZ 0000000180001f50 f   GuDistanceSegmentTriangle.obj
 0001:00000f60       ??__EminV3Error@_VecMathTests@aos@shdfnd@physx@@YAXXZ 0000000180001f60 f   GuDistanceSegmentTriangle.obj
 0001:00000f70       ??__EminV4Error@_VecMathTests@aos@shdfnd@physx@@YAXXZ 0000000180001f70 f   GuDistanceSegmentTriangle.obj
 0001:00000f80       ??__EmaxFError@_VecMathTests@aos@shdfnd@physx@@YAXXZ 0000000180001f80 f   GuEPA.obj
 0001:00000f90       ??__EmaxV3Error@_VecMathTests@aos@shdfnd@physx@@YAXXZ 0000000180001f90 f   GuEPA.obj
 0001:00000fa0       ??__EmaxV4Error@_VecMathTests@aos@shdfnd@physx@@YAXXZ 0000000180001fa0 f   GuEPA.obj
 0001:00000fb0       ??__EminFError@_VecMathTests@aos@shdfnd@physx@@YAXXZ 0000000180001fb0 f   GuEPA.obj
 0001:00000fc0       ??__EminV3Error@_VecMathTests@aos@shdfnd@physx@@YAXXZ 0000000180001fc0 f   GuEPA.obj
 0001:00000fd0       ??__EminV4Error@_VecMathTests@aos@shdfnd@physx@@YAXXZ 0000000180001fd0 f   GuEPA.obj
 0001:00000fe0       ??__EmaxFError@_VecMathTests@aos@shdfnd@physx@@YAXXZ 0000000180001fe0 f   GuGJKSimplex.obj
 0001:00000ff0       ??__EmaxV3Error@_VecMathTests@aos@shdfnd@physx@@YAXXZ 0000000180001ff0 f   GuGJKSimplex.obj
 0001:00001000       ??__EmaxV4Error@_VecMathTests@aos@shdfnd@physx@@YAXXZ 0000000180002000 f   GuGJKSimplex.obj
 0001:00001010       ??__EminFError@_VecMathTests@aos@shdfnd@physx@@YAXXZ 0000000180002010 f   GuGJKSimplex.obj
 0001:00001020       ??__EminV3Error@_VecMathTests@aos@shdfnd@physx@@YAXXZ 0000000180002020 f   GuGJKSimplex.obj
 0001:00001030       ??__EminV4Error@_VecMathTests@aos@shdfnd@physx@@YAXXZ 0000000180002030 f   GuGJKSimplex.obj
 0001:00001040       ??__EmaxFError@_VecMathTests@aos@shdfnd@physx@@YAXXZ 0000000180002040 f   GuGJKTest.obj
 0001:00001050       ??__EmaxV3Error@_VecMathTests@aos@shdfnd@physx@@YAXXZ 0000000180002050 f   GuGJKTest.obj
 0001:00001060       ??__EmaxV4Error@_VecMathTests@aos@shdfnd@physx@@YAXXZ 0000000180002060 f   GuGJKTest.obj
 0001:00001070       ??__EminFError@_VecMathTests@aos@shdfnd@physx@@YAXXZ 0000000180002070 f   GuGJKTest.obj
 0001:00001080       ??__EminV3Error@_VecMathTests@aos@shdfnd@physx@@YAXXZ 0000000180002080 f   GuGJKTest.obj
 0001:00001090       ??__EminV4Error@_VecMathTests@aos@shdfnd@physx@@YAXXZ 0000000180002090 f   GuGJKTest.obj
 0001:000010a0       ??__EmaxFError@_VecMathTests@aos@shdfnd@physx@@YAXXZ 00000001800020a0 f   GuHeightFieldUtil.obj
 0001:000010b0       ??__EmaxV3Error@_VecMathTests@aos@shdfnd@physx@@YAXXZ 00000001800020b0 f   GuHeightFieldUtil.obj
 0001:000010c0       ??__EmaxV4Error@_VecMathTests@aos@shdfnd@physx@@YAXXZ 00000001800020c0 f   GuHeightFieldUtil.obj
 0001:000010d0       ??__EminFError@_VecMathTests@aos@shdfnd@physx@@YAXXZ 00000001800020d0 f   GuHeightFieldUtil.obj
 0001:000010e0       ??__EminV3Error@_VecMathTests@aos@shdfnd@physx@@YAXXZ 00000001800020e0 f   GuHeightFieldUtil.obj
 0001:000010f0       ??__EminV4Error@_VecMathTests@aos@shdfnd@physx@@YAXXZ 00000001800020f0 f   GuHeightFieldUtil.obj
 0001:00001100       ??__EmaxFError@_VecMathTests@aos@shdfnd@physx@@YAXXZ 0000000180002100 f   GuOverlapTestsHF.obj
 0001:00001110       ??__EmaxV3Error@_VecMathTests@aos@shdfnd@physx@@YAXXZ 0000000180002110 f   GuOverlapTestsHF.obj
 0001:00001120       ??__EmaxV4Error@_VecMathTests@aos@shdfnd@physx@@YAXXZ 0000000180002120 f   GuOverlapTestsHF.obj
 0001:00001130       ??__EminFError@_VecMathTests@aos@shdfnd@physx@@YAXXZ 0000000180002130 f   GuOverlapTestsHF.obj
 0001:00001140       ??__EminV3Error@_VecMathTests@aos@shdfnd@physx@@YAXXZ 0000000180002140 f   GuOverlapTestsHF.obj
 0001:00001150       ??__EminV4Error@_VecMathTests@aos@shdfnd@physx@@YAXXZ 0000000180002150 f   GuOverlapTestsHF.obj
 0001:00001160       ??__EmaxFError@_VecMathTests@aos@shdfnd@physx@@YAXXZ 0000000180002160 f   GuSweepsHF.obj
 0001:00001170       ??__EmaxV3Error@_VecMathTests@aos@shdfnd@physx@@YAXXZ 0000000180002170 f   GuSweepsHF.obj
 0001:00001180       ??__EmaxV4Error@_VecMathTests@aos@shdfnd@physx@@YAXXZ 0000000180002180 f   GuSweepsHF.obj
 0001:00001190       ??__EminFError@_VecMathTests@aos@shdfnd@physx@@YAXXZ 0000000180002190 f   GuSweepsHF.obj
 0001:000011a0       ??__EminV3Error@_VecMathTests@aos@shdfnd@physx@@YAXXZ 00000001800021a0 f   GuSweepsHF.obj
 0001:000011b0       ??__EminV4Error@_VecMathTests@aos@shdfnd@physx@@YAXXZ 00000001800021b0 f   GuSweepsHF.obj
 0001:000011c0       ??__EmaxFError@_VecMathTests@aos@shdfnd@physx@@YAXXZ 00000001800021c0 f   GuIntersectionRayBox.obj
 0001:000011d0       ??__EmaxV3Error@_VecMathTests@aos@shdfnd@physx@@YAXXZ 00000001800021d0 f   GuIntersectionRayBox.obj
 0001:000011e0       ??__EmaxV4Error@_VecMathTests@aos@shdfnd@physx@@YAXXZ 00000001800021e0 f   GuIntersectionRayBox.obj
 0001:000011f0       ??__EminFError@_VecMathTests@aos@shdfnd@physx@@YAXXZ 00000001800021f0 f   GuIntersectionRayBox.obj
 0001:00001200       ??__EminV3Error@_VecMathTests@aos@shdfnd@physx@@YAXXZ 0000000180002200 f   GuIntersectionRayBox.obj
 0001:00001210       ??__EminV4Error@_VecMathTests@aos@shdfnd@physx@@YAXXZ 0000000180002210 f   GuIntersectionRayBox.obj
 0001:00001220       ??__EmaxFError@_VecMathTests@aos@shdfnd@physx@@YAXXZ 0000000180002220 f   GuIntersectionTriangleBox.obj
 0001:00001230       ??__EmaxV3Error@_VecMathTests@aos@shdfnd@physx@@YAXXZ 0000000180002230 f   GuIntersectionTriangleBox.obj
 0001:00001240       ??__EmaxV4Error@_VecMathTests@aos@shdfnd@physx@@YAXXZ 0000000180002240 f   GuIntersectionTriangleBox.obj
 0001:00001250       ??__EminFError@_VecMathTests@aos@shdfnd@physx@@YAXXZ 0000000180002250 f   GuIntersectionTriangleBox.obj
 0001:00001260       ??__EminV3Error@_VecMathTests@aos@shdfnd@physx@@YAXXZ 0000000180002260 f   GuIntersectionTriangleBox.obj
 0001:00001270       ??__EminV4Error@_VecMathTests@aos@shdfnd@physx@@YAXXZ 0000000180002270 f   GuIntersectionTriangleBox.obj
 0001:00001280       ??__EsignV@@YAXXZ          0000000180002280 f   GuIntersectionTriangleBox.obj
 0001:000012c0       ??__EmaxFError@_VecMathTests@aos@shdfnd@physx@@YAXXZ 00000001800022c0 f   GuBV4.obj
 0001:000012d0       ??__EmaxV3Error@_VecMathTests@aos@shdfnd@physx@@YAXXZ 00000001800022d0 f   GuBV4.obj
 0001:000012e0       ??__EmaxV4Error@_VecMathTests@aos@shdfnd@physx@@YAXXZ 00000001800022e0 f   GuBV4.obj
 0001:000012f0       ??__EminFError@_VecMathTests@aos@shdfnd@physx@@YAXXZ 00000001800022f0 f   GuBV4.obj
 0001:00001300       ??__EminV3Error@_VecMathTests@aos@shdfnd@physx@@YAXXZ 0000000180002300 f   GuBV4.obj
 0001:00001310       ??__EminV4Error@_VecMathTests@aos@shdfnd@physx@@YAXXZ 0000000180002310 f   GuBV4.obj
 0001:00001320       ??__EmaxFError@_VecMathTests@aos@shdfnd@physx@@YAXXZ 0000000180002320 f   GuBV4Build.obj
 0001:00001330       ??__EmaxV3Error@_VecMathTests@aos@shdfnd@physx@@YAXXZ 0000000180002330 f   GuBV4Build.obj
 0001:00001340       ??__EmaxV4Error@_VecMathTests@aos@shdfnd@physx@@YAXXZ 0000000180002340 f   GuBV4Build.obj
 0001:00001350       ??__EminFError@_VecMathTests@aos@shdfnd@physx@@YAXXZ 0000000180002350 f   GuBV4Build.obj
 0001:00001360       ??__EminV3Error@_VecMathTests@aos@shdfnd@physx@@YAXXZ 0000000180002360 f   GuBV4Build.obj
 0001:00001370       ??__EminV4Error@_VecMathTests@aos@shdfnd@physx@@YAXXZ 0000000180002370 f   GuBV4Build.obj
 0001:00001380       ??__EepsFloat4@?A0x788c2204@@YAXXZ 0000000180002380 f   GuBV4_AABBSweep.obj
 0001:00001390       ??__EepsInflateFloat4@?A0x788c2204@@YAXXZ 0000000180002390 f   GuBV4_AABBSweep.obj
 0001:000013a0       ??__EmaxFError@_VecMathTests@aos@shdfnd@physx@@YAXXZ 00000001800023a0 f   GuBV4_AABBSweep.obj
 0001:000013b0       ??__EmaxV3Error@_VecMathTests@aos@shdfnd@physx@@YAXXZ 00000001800023b0 f   GuBV4_AABBSweep.obj
 0001:000013c0       ??__EmaxV4Error@_VecMathTests@aos@shdfnd@physx@@YAXXZ 00000001800023c0 f   GuBV4_AABBSweep.obj
 0001:000013d0       ??__EminFError@_VecMathTests@aos@shdfnd@physx@@YAXXZ 00000001800023d0 f   GuBV4_AABBSweep.obj
 0001:000013e0       ??__EminV3Error@_VecMathTests@aos@shdfnd@physx@@YAXXZ 00000001800023e0 f   GuBV4_AABBSweep.obj
 0001:000013f0       ??__EminV4Error@_VecMathTests@aos@shdfnd@physx@@YAXXZ 00000001800023f0 f   GuBV4_AABBSweep.obj
 0001:00001400       ??__EsignMask@?A0x788c2204@@YAXXZ 0000000180002400 f   GuBV4_AABBSweep.obj
 0001:00001440       ??__Etwos@?A0x788c2204@@YAXXZ 0000000180002440 f   GuBV4_AABBSweep.obj
 0001:00001450       ??__Ezeroes@?A0x788c2204@@YAXXZ 0000000180002450 f   GuBV4_AABBSweep.obj
 0001:00001460       ??__EmaxFError@_VecMathTests@aos@shdfnd@physx@@YAXXZ 0000000180002460 f   GuBV4_BoxOverlap.obj
 0001:00001470       ??__EmaxV3Error@_VecMathTests@aos@shdfnd@physx@@YAXXZ 0000000180002470 f   GuBV4_BoxOverlap.obj
 0001:00001480       ??__EmaxV4Error@_VecMathTests@aos@shdfnd@physx@@YAXXZ 0000000180002480 f   GuBV4_BoxOverlap.obj
 0001:00001490       ??__EminFError@_VecMathTests@aos@shdfnd@physx@@YAXXZ 0000000180002490 f   GuBV4_BoxOverlap.obj
 0001:000014a0       ??__EminV3Error@_VecMathTests@aos@shdfnd@physx@@YAXXZ 00000001800024a0 f   GuBV4_BoxOverlap.obj
 0001:000014b0       ??__EminV4Error@_VecMathTests@aos@shdfnd@physx@@YAXXZ 00000001800024b0 f   GuBV4_BoxOverlap.obj
 0001:000014c0       ??__EmaxFError@_VecMathTests@aos@shdfnd@physx@@YAXXZ 00000001800024c0 f   GuBV4_CapsuleSweep.obj
 0001:000014d0       ??__EmaxV3Error@_VecMathTests@aos@shdfnd@physx@@YAXXZ 00000001800024d0 f   GuBV4_CapsuleSweep.obj
 0001:000014e0       ??__EmaxV4Error@_VecMathTests@aos@shdfnd@physx@@YAXXZ 00000001800024e0 f   GuBV4_CapsuleSweep.obj
 0001:000014f0       ??__EminFError@_VecMathTests@aos@shdfnd@physx@@YAXXZ 00000001800024f0 f   GuBV4_CapsuleSweep.obj
 0001:00001500       ??__EminV3Error@_VecMathTests@aos@shdfnd@physx@@YAXXZ 0000000180002500 f   GuBV4_CapsuleSweep.obj
 0001:00001510       ??__EminV4Error@_VecMathTests@aos@shdfnd@physx@@YAXXZ 0000000180002510 f   GuBV4_CapsuleSweep.obj
 0001:00001520       ??__EepsFloat4@?A0xf567e8b1@@YAXXZ 0000000180002520 f   GuBV4_CapsuleSweepAA.obj
 0001:00001530       ??__EepsInflateFloat4@?A0xf567e8b1@@YAXXZ 0000000180002530 f   GuBV4_CapsuleSweepAA.obj
 0001:00001540       ??__EmaxFError@_VecMathTests@aos@shdfnd@physx@@YAXXZ 0000000180002540 f   GuBV4_CapsuleSweepAA.obj
 0001:00001550       ??__EmaxV3Error@_VecMathTests@aos@shdfnd@physx@@YAXXZ 0000000180002550 f   GuBV4_CapsuleSweepAA.obj
 0001:00001560       ??__EmaxV4Error@_VecMathTests@aos@shdfnd@physx@@YAXXZ 0000000180002560 f   GuBV4_CapsuleSweepAA.obj
 0001:00001570       ??__EminFError@_VecMathTests@aos@shdfnd@physx@@YAXXZ 0000000180002570 f   GuBV4_CapsuleSweepAA.obj
 0001:00001580       ??__EminV3Error@_VecMathTests@aos@shdfnd@physx@@YAXXZ 0000000180002580 f   GuBV4_CapsuleSweepAA.obj
 0001:00001590       ??__EminV4Error@_VecMathTests@aos@shdfnd@physx@@YAXXZ 0000000180002590 f   GuBV4_CapsuleSweepAA.obj
 0001:000015a0       ??__EsignMask@?A0xf567e8b1@@YAXXZ 00000001800025a0 f   GuBV4_CapsuleSweepAA.obj
 0001:000015e0       ??__Etwos@?A0xf567e8b1@@YAXXZ 00000001800025e0 f   GuBV4_CapsuleSweepAA.obj
 0001:000015f0       ??__Ezeroes@?A0xf567e8b1@@YAXXZ 00000001800025f0 f   GuBV4_CapsuleSweepAA.obj
 0001:00001600       ??__EmaxFError@_VecMathTests@aos@shdfnd@physx@@YAXXZ 0000000180002600 f   GuBV4_OBBSweep.obj
 0001:00001610       ??__EmaxV3Error@_VecMathTests@aos@shdfnd@physx@@YAXXZ 0000000180002610 f   GuBV4_OBBSweep.obj
 0001:00001620       ??__EmaxV4Error@_VecMathTests@aos@shdfnd@physx@@YAXXZ 0000000180002620 f   GuBV4_OBBSweep.obj
 0001:00001630       ??__EminFError@_VecMathTests@aos@shdfnd@physx@@YAXXZ 0000000180002630 f   GuBV4_OBBSweep.obj
 0001:00001640       ??__EminV3Error@_VecMathTests@aos@shdfnd@physx@@YAXXZ 0000000180002640 f   GuBV4_OBBSweep.obj
 0001:00001650       ??__EminV4Error@_VecMathTests@aos@shdfnd@physx@@YAXXZ 0000000180002650 f   GuBV4_OBBSweep.obj
 0001:00001660       ??__EepsFloat4@?A0xdeb1923c@@YAXXZ 0000000180002660 f   GuBV4_Raycast.obj
 0001:00001670       ??__EepsInflateFloat4@?A0xdeb1923c@@YAXXZ 0000000180002670 f   GuBV4_Raycast.obj
 0001:00001680       ??__EmaxFError@_VecMathTests@aos@shdfnd@physx@@YAXXZ 0000000180002680 f   GuBV4_Raycast.obj
 0001:00001690       ??__EmaxV3Error@_VecMathTests@aos@shdfnd@physx@@YAXXZ 0000000180002690 f   GuBV4_Raycast.obj
 0001:000016a0       ??__EmaxV4Error@_VecMathTests@aos@shdfnd@physx@@YAXXZ 00000001800026a0 f   GuBV4_Raycast.obj
 0001:000016b0       ??__EminFError@_VecMathTests@aos@shdfnd@physx@@YAXXZ 00000001800026b0 f   GuBV4_Raycast.obj
 0001:000016c0       ??__EminV3Error@_VecMathTests@aos@shdfnd@physx@@YAXXZ 00000001800026c0 f   GuBV4_Raycast.obj
 0001:000016d0       ??__EminV4Error@_VecMathTests@aos@shdfnd@physx@@YAXXZ 00000001800026d0 f   GuBV4_Raycast.obj
 0001:000016e0       ??__EsignMask@?A0xdeb1923c@@YAXXZ 00000001800026e0 f   GuBV4_Raycast.obj
 0001:00001720       ??__Etwos@?A0xdeb1923c@@YAXXZ 0000000180002720 f   GuBV4_Raycast.obj
 0001:00001730       ??__Ezeroes@?A0xdeb1923c@@YAXXZ 0000000180002730 f   GuBV4_Raycast.obj
 0001:00001740       ??__EmaxFError@_VecMathTests@aos@shdfnd@physx@@YAXXZ 0000000180002740 f   GuBV4_SphereOverlap.obj
 0001:00001750       ??__EmaxV3Error@_VecMathTests@aos@shdfnd@physx@@YAXXZ 0000000180002750 f   GuBV4_SphereOverlap.obj
 0001:00001760       ??__EmaxV4Error@_VecMathTests@aos@shdfnd@physx@@YAXXZ 0000000180002760 f   GuBV4_SphereOverlap.obj
 0001:00001770       ??__EminFError@_VecMathTests@aos@shdfnd@physx@@YAXXZ 0000000180002770 f   GuBV4_SphereOverlap.obj
 0001:00001780       ??__EminV3Error@_VecMathTests@aos@shdfnd@physx@@YAXXZ 0000000180002780 f   GuBV4_SphereOverlap.obj
 0001:00001790       ??__EminV4Error@_VecMathTests@aos@shdfnd@physx@@YAXXZ 0000000180002790 f   GuBV4_SphereOverlap.obj
 0001:000017a0       ??__EepsFloat4@?A0x0ebb234c@@YAXXZ 00000001800027a0 f   GuBV4_SphereSweep.obj
 0001:000017b0       ??__EepsInflateFloat4@?A0x0ebb234c@@YAXXZ 00000001800027b0 f   GuBV4_SphereSweep.obj
 0001:000017c0       ??__EmaxFError@_VecMathTests@aos@shdfnd@physx@@YAXXZ 00000001800027c0 f   GuBV4_SphereSweep.obj
 0001:000017d0       ??__EmaxV3Error@_VecMathTests@aos@shdfnd@physx@@YAXXZ 00000001800027d0 f   GuBV4_SphereSweep.obj
 0001:000017e0       ??__EmaxV4Error@_VecMathTests@aos@shdfnd@physx@@YAXXZ 00000001800027e0 f   GuBV4_SphereSweep.obj
 0001:000017f0       ??__EminFError@_VecMathTests@aos@shdfnd@physx@@YAXXZ 00000001800027f0 f   GuBV4_SphereSweep.obj
 0001:00001800       ??__EminV3Error@_VecMathTests@aos@shdfnd@physx@@YAXXZ 0000000180002800 f   GuBV4_SphereSweep.obj
 0001:00001810       ??__EminV4Error@_VecMathTests@aos@shdfnd@physx@@YAXXZ 0000000180002810 f   GuBV4_SphereSweep.obj
 0001:00001820       ??__EsignMask@?A0x0ebb234c@@YAXXZ 0000000180002820 f   GuBV4_SphereSweep.obj
 0001:00001860       ??__Etwos@?A0x0ebb234c@@YAXXZ 0000000180002860 f   GuBV4_SphereSweep.obj
 0001:00001870       ??__Ezeroes@?A0x0ebb234c@@YAXXZ 0000000180002870 f   GuBV4_SphereSweep.obj
 0001:00001880       ??__EmaxFError@_VecMathTests@aos@shdfnd@physx@@YAXXZ 0000000180002880 f   GuMidphaseBV4.obj
 0001:00001890       ??__EmaxV3Error@_VecMathTests@aos@shdfnd@physx@@YAXXZ 0000000180002890 f   GuMidphaseBV4.obj
 0001:000018a0       ??__EmaxV4Error@_VecMathTests@aos@shdfnd@physx@@YAXXZ 00000001800028a0 f   GuMidphaseBV4.obj
 0001:000018b0       ??__EminFError@_VecMathTests@aos@shdfnd@physx@@YAXXZ 00000001800028b0 f   GuMidphaseBV4.obj
 0001:000018c0       ??__EminV3Error@_VecMathTests@aos@shdfnd@physx@@YAXXZ 00000001800028c0 f   GuMidphaseBV4.obj
 0001:000018d0       ??__EminV4Error@_VecMathTests@aos@shdfnd@physx@@YAXXZ 00000001800028d0 f   GuMidphaseBV4.obj
 0001:000018e0       ??__EmaxFError@_VecMathTests@aos@shdfnd@physx@@YAXXZ 00000001800028e0 f   GuMeshQuery.obj
 0001:000018f0       ??__EmaxV3Error@_VecMathTests@aos@shdfnd@physx@@YAXXZ 00000001800028f0 f   GuMeshQuery.obj
 0001:00001900       ??__EmaxV4Error@_VecMathTests@aos@shdfnd@physx@@YAXXZ 0000000180002900 f   GuMeshQuery.obj
 0001:00001910       ??__EminFError@_VecMathTests@aos@shdfnd@physx@@YAXXZ 0000000180002910 f   GuMeshQuery.obj
 0001:00001920       ??__EminV3Error@_VecMathTests@aos@shdfnd@physx@@YAXXZ 0000000180002920 f   GuMeshQuery.obj
 0001:00001930       ??__EminV4Error@_VecMathTests@aos@shdfnd@physx@@YAXXZ 0000000180002930 f   GuMeshQuery.obj
 0001:00001940       ??__EmaxFError@_VecMathTests@aos@shdfnd@physx@@YAXXZ 0000000180002940 f   GuMidphaseRTree.obj
 0001:00001950       ??__EmaxV3Error@_VecMathTests@aos@shdfnd@physx@@YAXXZ 0000000180002950 f   GuMidphaseRTree.obj
 0001:00001960       ??__EmaxV4Error@_VecMathTests@aos@shdfnd@physx@@YAXXZ 0000000180002960 f   GuMidphaseRTree.obj
 0001:00001970       ??__EminFError@_VecMathTests@aos@shdfnd@physx@@YAXXZ 0000000180002970 f   GuMidphaseRTree.obj
 0001:00001980       ??__EminV3Error@_VecMathTests@aos@shdfnd@physx@@YAXXZ 0000000180002980 f   GuMidphaseRTree.obj
 0001:00001990       ??__EminV4Error@_VecMathTests@aos@shdfnd@physx@@YAXXZ 0000000180002990 f   GuMidphaseRTree.obj
 0001:000019a0       ??__EmaxFError@_VecMathTests@aos@shdfnd@physx@@YAXXZ 00000001800029a0 f   GuOverlapTestsMesh.obj
 0001:000019b0       ??__EmaxV3Error@_VecMathTests@aos@shdfnd@physx@@YAXXZ 00000001800029b0 f   GuOverlapTestsMesh.obj
 0001:000019c0       ??__EmaxV4Error@_VecMathTests@aos@shdfnd@physx@@YAXXZ 00000001800029c0 f   GuOverlapTestsMesh.obj
 0001:000019d0       ??__EminFError@_VecMathTests@aos@shdfnd@physx@@YAXXZ 00000001800029d0 f   GuOverlapTestsMesh.obj
 0001:000019e0       ??__EminV3Error@_VecMathTests@aos@shdfnd@physx@@YAXXZ 00000001800029e0 f   GuOverlapTestsMesh.obj
 0001:000019f0       ??__EminV4Error@_VecMathTests@aos@shdfnd@physx@@YAXXZ 00000001800029f0 f   GuOverlapTestsMesh.obj
 0001:00001a00       ??__EmaxFError@_VecMathTests@aos@shdfnd@physx@@YAXXZ 0000000180002a00 f   GuRTree.obj
 0001:00001a10       ??__EmaxV3Error@_VecMathTests@aos@shdfnd@physx@@YAXXZ 0000000180002a10 f   GuRTree.obj
 0001:00001a20       ??__EmaxV4Error@_VecMathTests@aos@shdfnd@physx@@YAXXZ 0000000180002a20 f   GuRTree.obj
 0001:00001a30       ??__EminFError@_VecMathTests@aos@shdfnd@physx@@YAXXZ 0000000180002a30 f   GuRTree.obj
 0001:00001a40       ??__EminV3Error@_VecMathTests@aos@shdfnd@physx@@YAXXZ 0000000180002a40 f   GuRTree.obj
 0001:00001a50       ??__EminV4Error@_VecMathTests@aos@shdfnd@physx@@YAXXZ 0000000180002a50 f   GuRTree.obj
 0001:00001a60       ??__EepsFloat4@?A0x28b72d2e@@YAXXZ 0000000180002a60 f   GuRTreeQueries.obj
 0001:00001a70       ??__EepsInflateFloat4@?A0x28b72d2e@@YAXXZ 0000000180002a70 f   GuRTreeQueries.obj
 0001:00001a80       ??__EmaxFError@_VecMathTests@aos@shdfnd@physx@@YAXXZ 0000000180002a80 f   GuRTreeQueries.obj
 0001:00001a90       ??__EmaxV3Error@_VecMathTests@aos@shdfnd@physx@@YAXXZ 0000000180002a90 f   GuRTreeQueries.obj
 0001:00001aa0       ??__EmaxV4Error@_VecMathTests@aos@shdfnd@physx@@YAXXZ 0000000180002aa0 f   GuRTreeQueries.obj
 0001:00001ab0       ??__EminFError@_VecMathTests@aos@shdfnd@physx@@YAXXZ 0000000180002ab0 f   GuRTreeQueries.obj
 0001:00001ac0       ??__EminV3Error@_VecMathTests@aos@shdfnd@physx@@YAXXZ 0000000180002ac0 f   GuRTreeQueries.obj
 0001:00001ad0       ??__EminV4Error@_VecMathTests@aos@shdfnd@physx@@YAXXZ 0000000180002ad0 f   GuRTreeQueries.obj
 0001:00001ae0       ??__EsignMask@?A0x28b72d2e@@YAXXZ 0000000180002ae0 f   GuRTreeQueries.obj
 0001:00001b20       ??__Etwos@?A0x28b72d2e@@YAXXZ 0000000180002b20 f   GuRTreeQueries.obj
 0001:00001b30       ??__Ezeroes@?A0x28b72d2e@@YAXXZ 0000000180002b30 f   GuRTreeQueries.obj
 0001:00001b40       ??__EmaxFError@_VecMathTests@aos@shdfnd@physx@@YAXXZ 0000000180002b40 f   GuSweepsMesh.obj
 0001:00001b50       ??__EmaxV3Error@_VecMathTests@aos@shdfnd@physx@@YAXXZ 0000000180002b50 f   GuSweepsMesh.obj
 0001:00001b60       ??__EmaxV4Error@_VecMathTests@aos@shdfnd@physx@@YAXXZ 0000000180002b60 f   GuSweepsMesh.obj
 0001:00001b70       ??__EminFError@_VecMathTests@aos@shdfnd@physx@@YAXXZ 0000000180002b70 f   GuSweepsMesh.obj
 0001:00001b80       ??__EminV3Error@_VecMathTests@aos@shdfnd@physx@@YAXXZ 0000000180002b80 f   GuSweepsMesh.obj
 0001:00001b90       ??__EminV4Error@_VecMathTests@aos@shdfnd@physx@@YAXXZ 0000000180002b90 f   GuSweepsMesh.obj
 0001:00001ba0       ??__EmaxFError@_VecMathTests@aos@shdfnd@physx@@YAXXZ 0000000180002ba0 f   GuTriangleMesh.obj
 0001:00001bb0       ??__EmaxV3Error@_VecMathTests@aos@shdfnd@physx@@YAXXZ 0000000180002bb0 f   GuTriangleMesh.obj
 0001:00001bc0       ??__EmaxV4Error@_VecMathTests@aos@shdfnd@physx@@YAXXZ 0000000180002bc0 f   GuTriangleMesh.obj
 0001:00001bd0       ??__EminFError@_VecMathTests@aos@shdfnd@physx@@YAXXZ 0000000180002bd0 f   GuTriangleMesh.obj
 0001:00001be0       ??__EminV3Error@_VecMathTests@aos@shdfnd@physx@@YAXXZ 0000000180002be0 f   GuTriangleMesh.obj
 0001:00001bf0       ??__EminV4Error@_VecMathTests@aos@shdfnd@physx@@YAXXZ 0000000180002bf0 f   GuTriangleMesh.obj
 0001:00001c00       ??__EmaxFError@_VecMathTests@aos@shdfnd@physx@@YAXXZ 0000000180002c00 f   GuTriangleMeshBV4.obj
 0001:00001c10       ??__EmaxV3Error@_VecMathTests@aos@shdfnd@physx@@YAXXZ 0000000180002c10 f   GuTriangleMeshBV4.obj
 0001:00001c20       ??__EmaxV4Error@_VecMathTests@aos@shdfnd@physx@@YAXXZ 0000000180002c20 f   GuTriangleMeshBV4.obj
 0001:00001c30       ??__EminFError@_VecMathTests@aos@shdfnd@physx@@YAXXZ 0000000180002c30 f   GuTriangleMeshBV4.obj
 0001:00001c40       ??__EminV3Error@_VecMathTests@aos@shdfnd@physx@@YAXXZ 0000000180002c40 f   GuTriangleMeshBV4.obj
 0001:00001c50       ??__EminV4Error@_VecMathTests@aos@shdfnd@physx@@YAXXZ 0000000180002c50 f   GuTriangleMeshBV4.obj
 0001:00001c60       ??__EmaxFError@_VecMathTests@aos@shdfnd@physx@@YAXXZ 0000000180002c60 f   GuTriangleMeshRTree.obj
 0001:00001c70       ??__EmaxV3Error@_VecMathTests@aos@shdfnd@physx@@YAXXZ 0000000180002c70 f   GuTriangleMeshRTree.obj
 0001:00001c80       ??__EmaxV4Error@_VecMathTests@aos@shdfnd@physx@@YAXXZ 0000000180002c80 f   GuTriangleMeshRTree.obj
 0001:00001c90       ??__EminFError@_VecMathTests@aos@shdfnd@physx@@YAXXZ 0000000180002c90 f   GuTriangleMeshRTree.obj
 0001:00001ca0       ??__EminV3Error@_VecMathTests@aos@shdfnd@physx@@YAXXZ 0000000180002ca0 f   GuTriangleMeshRTree.obj
 0001:00001cb0       ??__EminV4Error@_VecMathTests@aos@shdfnd@physx@@YAXXZ 0000000180002cb0 f   GuTriangleMeshRTree.obj
 0001:00001cc0       ??__EmaxFError@_VecMathTests@aos@shdfnd@physx@@YAXXZ 0000000180002cc0 f   GuBV32Build.obj
 0001:00001cd0       ??__EmaxV3Error@_VecMathTests@aos@shdfnd@physx@@YAXXZ 0000000180002cd0 f   GuBV32Build.obj
 0001:00001ce0       ??__EmaxV4Error@_VecMathTests@aos@shdfnd@physx@@YAXXZ 0000000180002ce0 f   GuBV32Build.obj
 0001:00001cf0       ??__EminFError@_VecMathTests@aos@shdfnd@physx@@YAXXZ 0000000180002cf0 f   GuBV32Build.obj
 0001:00001d00       ??__EminV3Error@_VecMathTests@aos@shdfnd@physx@@YAXXZ 0000000180002d00 f   GuBV32Build.obj
 0001:00001d10       ??__EminV4Error@_VecMathTests@aos@shdfnd@physx@@YAXXZ 0000000180002d10 f   GuBV32Build.obj
 0001:00001d20       ??__EmaxFError@_VecMathTests@aos@shdfnd@physx@@YAXXZ 0000000180002d20 f   GuPCMContactBoxBox.obj
 0001:00001d30       ??__EmaxV3Error@_VecMathTests@aos@shdfnd@physx@@YAXXZ 0000000180002d30 f   GuPCMContactBoxBox.obj
 0001:00001d40       ??__EmaxV4Error@_VecMathTests@aos@shdfnd@physx@@YAXXZ 0000000180002d40 f   GuPCMContactBoxBox.obj
 0001:00001d50       ??__EminFError@_VecMathTests@aos@shdfnd@physx@@YAXXZ 0000000180002d50 f   GuPCMContactBoxBox.obj
 0001:00001d60       ??__EminV3Error@_VecMathTests@aos@shdfnd@physx@@YAXXZ 0000000180002d60 f   GuPCMContactBoxBox.obj
 0001:00001d70       ??__EminV4Error@_VecMathTests@aos@shdfnd@physx@@YAXXZ 0000000180002d70 f   GuPCMContactBoxBox.obj
 0001:00001d80       ??__EmaxFError@_VecMathTests@aos@shdfnd@physx@@YAXXZ 0000000180002d80 f   GuPCMContactBoxConvex.obj
 0001:00001d90       ??__EmaxV3Error@_VecMathTests@aos@shdfnd@physx@@YAXXZ 0000000180002d90 f   GuPCMContactBoxConvex.obj
 0001:00001da0       ??__EmaxV4Error@_VecMathTests@aos@shdfnd@physx@@YAXXZ 0000000180002da0 f   GuPCMContactBoxConvex.obj
 0001:00001db0       ??__EminFError@_VecMathTests@aos@shdfnd@physx@@YAXXZ 0000000180002db0 f   GuPCMContactBoxConvex.obj
 0001:00001dc0       ??__EminV3Error@_VecMathTests@aos@shdfnd@physx@@YAXXZ 0000000180002dc0 f   GuPCMContactBoxConvex.obj
 0001:00001dd0       ??__EminV4Error@_VecMathTests@aos@shdfnd@physx@@YAXXZ 0000000180002dd0 f   GuPCMContactBoxConvex.obj
 0001:00001de0       ??__EmaxFError@_VecMathTests@aos@shdfnd@physx@@YAXXZ 0000000180002de0 f   GuPCMContactCapsuleBox.obj
 0001:00001df0       ??__EmaxV3Error@_VecMathTests@aos@shdfnd@physx@@YAXXZ 0000000180002df0 f   GuPCMContactCapsuleBox.obj
 0001:00001e00       ??__EmaxV4Error@_VecMathTests@aos@shdfnd@physx@@YAXXZ 0000000180002e00 f   GuPCMContactCapsuleBox.obj
 0001:00001e10       ??__EminFError@_VecMathTests@aos@shdfnd@physx@@YAXXZ 0000000180002e10 f   GuPCMContactCapsuleBox.obj
 0001:00001e20       ??__EminV3Error@_VecMathTests@aos@shdfnd@physx@@YAXXZ 0000000180002e20 f   GuPCMContactCapsuleBox.obj
 0001:00001e30       ??__EminV4Error@_VecMathTests@aos@shdfnd@physx@@YAXXZ 0000000180002e30 f   GuPCMContactCapsuleBox.obj
 0001:00001e40       ??__EmaxFError@_VecMathTests@aos@shdfnd@physx@@YAXXZ 0000000180002e40 f   GuPCMContactCapsuleCapsule.obj
 0001:00001e50       ??__EmaxV3Error@_VecMathTests@aos@shdfnd@physx@@YAXXZ 0000000180002e50 f   GuPCMContactCapsuleCapsule.obj
 0001:00001e60       ??__EmaxV4Error@_VecMathTests@aos@shdfnd@physx@@YAXXZ 0000000180002e60 f   GuPCMContactCapsuleCapsule.obj
 0001:00001e70       ??__EminFError@_VecMathTests@aos@shdfnd@physx@@YAXXZ 0000000180002e70 f   GuPCMContactCapsuleCapsule.obj
 0001:00001e80       ??__EminV3Error@_VecMathTests@aos@shdfnd@physx@@YAXXZ 0000000180002e80 f   GuPCMContactCapsuleCapsule.obj
 0001:00001e90       ??__EminV4Error@_VecMathTests@aos@shdfnd@physx@@YAXXZ 0000000180002e90 f   GuPCMContactCapsuleCapsule.obj
 0001:00001ea0       ??__EmaxFError@_VecMathTests@aos@shdfnd@physx@@YAXXZ 0000000180002ea0 f   GuPCMContactCapsuleConvex.obj
 0001:00001eb0       ??__EmaxV3Error@_VecMathTests@aos@shdfnd@physx@@YAXXZ 0000000180002eb0 f   GuPCMContactCapsuleConvex.obj
 0001:00001ec0       ??__EmaxV4Error@_VecMathTests@aos@shdfnd@physx@@YAXXZ 0000000180002ec0 f   GuPCMContactCapsuleConvex.obj
 0001:00001ed0       ??__EminFError@_VecMathTests@aos@shdfnd@physx@@YAXXZ 0000000180002ed0 f   GuPCMContactCapsuleConvex.obj
 0001:00001ee0       ??__EminV3Error@_VecMathTests@aos@shdfnd@physx@@YAXXZ 0000000180002ee0 f   GuPCMContactCapsuleConvex.obj
 0001:00001ef0       ??__EminV4Error@_VecMathTests@aos@shdfnd@physx@@YAXXZ 0000000180002ef0 f   GuPCMContactCapsuleConvex.obj
 0001:00001f00       ??__EmaxFError@_VecMathTests@aos@shdfnd@physx@@YAXXZ 0000000180002f00 f   GuPCMContactCapsuleHeightField.obj
 0001:00001f10       ??__EmaxV3Error@_VecMathTests@aos@shdfnd@physx@@YAXXZ 0000000180002f10 f   GuPCMContactCapsuleHeightField.obj
 0001:00001f20       ??__EmaxV4Error@_VecMathTests@aos@shdfnd@physx@@YAXXZ 0000000180002f20 f   GuPCMContactCapsuleHeightField.obj
 0001:00001f30       ??__EminFError@_VecMathTests@aos@shdfnd@physx@@YAXXZ 0000000180002f30 f   GuPCMContactCapsuleHeightField.obj
 0001:00001f40       ??__EminV3Error@_VecMathTests@aos@shdfnd@physx@@YAXXZ 0000000180002f40 f   GuPCMContactCapsuleHeightField.obj
 0001:00001f50       ??__EminV4Error@_VecMathTests@aos@shdfnd@physx@@YAXXZ 0000000180002f50 f   GuPCMContactCapsuleHeightField.obj
 0001:00001f60       ??__EmaxFError@_VecMathTests@aos@shdfnd@physx@@YAXXZ 0000000180002f60 f   GuPCMContactCapsuleMesh.obj
 0001:00001f70       ??__EmaxV3Error@_VecMathTests@aos@shdfnd@physx@@YAXXZ 0000000180002f70 f   GuPCMContactCapsuleMesh.obj
 0001:00001f80       ??__EmaxV4Error@_VecMathTests@aos@shdfnd@physx@@YAXXZ 0000000180002f80 f   GuPCMContactCapsuleMesh.obj
 0001:00001f90       ??__EminFError@_VecMathTests@aos@shdfnd@physx@@YAXXZ 0000000180002f90 f   GuPCMContactCapsuleMesh.obj
 0001:00001fa0       ??__EminV3Error@_VecMathTests@aos@shdfnd@physx@@YAXXZ 0000000180002fa0 f   GuPCMContactCapsuleMesh.obj
 0001:00001fb0       ??__EminV4Error@_VecMathTests@aos@shdfnd@physx@@YAXXZ 0000000180002fb0 f   GuPCMContactCapsuleMesh.obj
 0001:00001fc0       ??__EmaxFError@_VecMathTests@aos@shdfnd@physx@@YAXXZ 0000000180002fc0 f   GuPCMContactConvexCommon.obj
 0001:00001fd0       ??__EmaxV3Error@_VecMathTests@aos@shdfnd@physx@@YAXXZ 0000000180002fd0 f   GuPCMContactConvexCommon.obj
 0001:00001fe0       ??__EmaxV4Error@_VecMathTests@aos@shdfnd@physx@@YAXXZ 0000000180002fe0 f   GuPCMContactConvexCommon.obj
 0001:00001ff0       ??__EminFError@_VecMathTests@aos@shdfnd@physx@@YAXXZ 0000000180002ff0 f   GuPCMContactConvexCommon.obj
 0001:00002000       ??__EminV3Error@_VecMathTests@aos@shdfnd@physx@@YAXXZ 0000000180003000 f   GuPCMContactConvexCommon.obj
 0001:00002010       ??__EminV4Error@_VecMathTests@aos@shdfnd@physx@@YAXXZ 0000000180003010 f   GuPCMContactConvexCommon.obj
 0001:00002020       ??__EmaxFError@_VecMathTests@aos@shdfnd@physx@@YAXXZ 0000000180003020 f   GuPCMContactConvexConvex.obj
 0001:00002030       ??__EmaxV3Error@_VecMathTests@aos@shdfnd@physx@@YAXXZ 0000000180003030 f   GuPCMContactConvexConvex.obj
 0001:00002040       ??__EmaxV4Error@_VecMathTests@aos@shdfnd@physx@@YAXXZ 0000000180003040 f   GuPCMContactConvexConvex.obj
 0001:00002050       ??__EminFError@_VecMathTests@aos@shdfnd@physx@@YAXXZ 0000000180003050 f   GuPCMContactConvexConvex.obj
 0001:00002060       ??__EminV3Error@_VecMathTests@aos@shdfnd@physx@@YAXXZ 0000000180003060 f   GuPCMContactConvexConvex.obj
 0001:00002070       ??__EminV4Error@_VecMathTests@aos@shdfnd@physx@@YAXXZ 0000000180003070 f   GuPCMContactConvexConvex.obj
 0001:00002080       ??__EmaxFError@_VecMathTests@aos@shdfnd@physx@@YAXXZ 0000000180003080 f   GuPCMContactConvexHeightField.obj
 0001:00002090       ??__EmaxV3Error@_VecMathTests@aos@shdfnd@physx@@YAXXZ 0000000180003090 f   GuPCMContactConvexHeightField.obj
 0001:000020a0       ??__EmaxV4Error@_VecMathTests@aos@shdfnd@physx@@YAXXZ 00000001800030a0 f   GuPCMContactConvexHeightField.obj
 0001:000020b0       ??__EminFError@_VecMathTests@aos@shdfnd@physx@@YAXXZ 00000001800030b0 f   GuPCMContactConvexHeightField.obj
 0001:000020c0       ??__EminV3Error@_VecMathTests@aos@shdfnd@physx@@YAXXZ 00000001800030c0 f   GuPCMContactConvexHeightField.obj
 0001:000020d0       ??__EminV4Error@_VecMathTests@aos@shdfnd@physx@@YAXXZ 00000001800030d0 f   GuPCMContactConvexHeightField.obj
 0001:000020e0       ??__EmaxFError@_VecMathTests@aos@shdfnd@physx@@YAXXZ 00000001800030e0 f   GuPCMContactConvexMesh.obj
 0001:000020f0       ??__EmaxV3Error@_VecMathTests@aos@shdfnd@physx@@YAXXZ 00000001800030f0 f   GuPCMContactConvexMesh.obj
 0001:00002100       ??__EmaxV4Error@_VecMathTests@aos@shdfnd@physx@@YAXXZ 0000000180003100 f   GuPCMContactConvexMesh.obj
 0001:00002110       ??__EminFError@_VecMathTests@aos@shdfnd@physx@@YAXXZ 0000000180003110 f   GuPCMContactConvexMesh.obj
 0001:00002120       ??__EminV3Error@_VecMathTests@aos@shdfnd@physx@@YAXXZ 0000000180003120 f   GuPCMContactConvexMesh.obj
 0001:00002130       ??__EminV4Error@_VecMathTests@aos@shdfnd@physx@@YAXXZ 0000000180003130 f   GuPCMContactConvexMesh.obj
 0001:00002140       ??__EmaxFError@_VecMathTests@aos@shdfnd@physx@@YAXXZ 0000000180003140 f   GuPCMContactGenBoxConvex.obj
 0001:00002150       ??__EmaxV3Error@_VecMathTests@aos@shdfnd@physx@@YAXXZ 0000000180003150 f   GuPCMContactGenBoxConvex.obj
 0001:00002160       ??__EmaxV4Error@_VecMathTests@aos@shdfnd@physx@@YAXXZ 0000000180003160 f   GuPCMContactGenBoxConvex.obj
 0001:00002170       ??__EminFError@_VecMathTests@aos@shdfnd@physx@@YAXXZ 0000000180003170 f   GuPCMContactGenBoxConvex.obj
 0001:00002180       ??__EminV3Error@_VecMathTests@aos@shdfnd@physx@@YAXXZ 0000000180003180 f   GuPCMContactGenBoxConvex.obj
 0001:00002190       ??__EminV4Error@_VecMathTests@aos@shdfnd@physx@@YAXXZ 0000000180003190 f   GuPCMContactGenBoxConvex.obj
 0001:000021a0       ??__EmaxFError@_VecMathTests@aos@shdfnd@physx@@YAXXZ 00000001800031a0 f   GuPCMContactGenSphereCapsule.obj
 0001:000021b0       ??__EmaxV3Error@_VecMathTests@aos@shdfnd@physx@@YAXXZ 00000001800031b0 f   GuPCMContactGenSphereCapsule.obj
 0001:000021c0       ??__EmaxV4Error@_VecMathTests@aos@shdfnd@physx@@YAXXZ 00000001800031c0 f   GuPCMContactGenSphereCapsule.obj
 0001:000021d0       ??__EminFError@_VecMathTests@aos@shdfnd@physx@@YAXXZ 00000001800031d0 f   GuPCMContactGenSphereCapsule.obj
 0001:000021e0       ??__EminV3Error@_VecMathTests@aos@shdfnd@physx@@YAXXZ 00000001800031e0 f   GuPCMContactGenSphereCapsule.obj
 0001:000021f0       ??__EminV4Error@_VecMathTests@aos@shdfnd@physx@@YAXXZ 00000001800031f0 f   GuPCMContactGenSphereCapsule.obj
 0001:00002200       ??__EmaxFError@_VecMathTests@aos@shdfnd@physx@@YAXXZ 0000000180003200 f   GuPCMContactPlaneBox.obj
 0001:00002210       ??__EmaxV3Error@_VecMathTests@aos@shdfnd@physx@@YAXXZ 0000000180003210 f   GuPCMContactPlaneBox.obj
 0001:00002220       ??__EmaxV4Error@_VecMathTests@aos@shdfnd@physx@@YAXXZ 0000000180003220 f   GuPCMContactPlaneBox.obj
 0001:00002230       ??__EminFError@_VecMathTests@aos@shdfnd@physx@@YAXXZ 0000000180003230 f   GuPCMContactPlaneBox.obj
 0001:00002240       ??__EminV3Error@_VecMathTests@aos@shdfnd@physx@@YAXXZ 0000000180003240 f   GuPCMContactPlaneBox.obj
 0001:00002250       ??__EminV4Error@_VecMathTests@aos@shdfnd@physx@@YAXXZ 0000000180003250 f   GuPCMContactPlaneBox.obj
 0001:00002260       ??__EmaxFError@_VecMathTests@aos@shdfnd@physx@@YAXXZ 0000000180003260 f   GuPCMContactPlaneCapsule.obj
 0001:00002270       ??__EmaxV3Error@_VecMathTests@aos@shdfnd@physx@@YAXXZ 0000000180003270 f   GuPCMContactPlaneCapsule.obj
 0001:00002280       ??__EmaxV4Error@_VecMathTests@aos@shdfnd@physx@@YAXXZ 0000000180003280 f   GuPCMContactPlaneCapsule.obj
 0001:00002290       ??__EminFError@_VecMathTests@aos@shdfnd@physx@@YAXXZ 0000000180003290 f   GuPCMContactPlaneCapsule.obj
 0001:000022a0       ??__EminV3Error@_VecMathTests@aos@shdfnd@physx@@YAXXZ 00000001800032a0 f   GuPCMContactPlaneCapsule.obj
 0001:000022b0       ??__EminV4Error@_VecMathTests@aos@shdfnd@physx@@YAXXZ 00000001800032b0 f   GuPCMContactPlaneCapsule.obj
 0001:000022c0       ??__EmaxFError@_VecMathTests@aos@shdfnd@physx@@YAXXZ 00000001800032c0 f   GuPCMContactPlaneConvex.obj
 0001:000022d0       ??__EmaxV3Error@_VecMathTests@aos@shdfnd@physx@@YAXXZ 00000001800032d0 f   GuPCMContactPlaneConvex.obj
 0001:000022e0       ??__EmaxV4Error@_VecMathTests@aos@shdfnd@physx@@YAXXZ 00000001800032e0 f   GuPCMContactPlaneConvex.obj
 0001:000022f0       ??__EminFError@_VecMathTests@aos@shdfnd@physx@@YAXXZ 00000001800032f0 f   GuPCMContactPlaneConvex.obj
 0001:00002300       ??__EminV3Error@_VecMathTests@aos@shdfnd@physx@@YAXXZ 0000000180003300 f   GuPCMContactPlaneConvex.obj
 0001:00002310       ??__EminV4Error@_VecMathTests@aos@shdfnd@physx@@YAXXZ 0000000180003310 f   GuPCMContactPlaneConvex.obj
 0001:00002320       ??__EmaxFError@_VecMathTests@aos@shdfnd@physx@@YAXXZ 0000000180003320 f   GuPCMContactSphereBox.obj
 0001:00002330       ??__EmaxV3Error@_VecMathTests@aos@shdfnd@physx@@YAXXZ 0000000180003330 f   GuPCMContactSphereBox.obj
 0001:00002340       ??__EmaxV4Error@_VecMathTests@aos@shdfnd@physx@@YAXXZ 0000000180003340 f   GuPCMContactSphereBox.obj
 0001:00002350       ??__EminFError@_VecMathTests@aos@shdfnd@physx@@YAXXZ 0000000180003350 f   GuPCMContactSphereBox.obj
 0001:00002360       ??__EminV3Error@_VecMathTests@aos@shdfnd@physx@@YAXXZ 0000000180003360 f   GuPCMContactSphereBox.obj
 0001:00002370       ??__EminV4Error@_VecMathTests@aos@shdfnd@physx@@YAXXZ 0000000180003370 f   GuPCMContactSphereBox.obj
 0001:00002380       ??__EmaxFError@_VecMathTests@aos@shdfnd@physx@@YAXXZ 0000000180003380 f   GuPCMContactSphereCapsule.obj
 0001:00002390       ??__EmaxV3Error@_VecMathTests@aos@shdfnd@physx@@YAXXZ 0000000180003390 f   GuPCMContactSphereCapsule.obj
 0001:000023a0       ??__EmaxV4Error@_VecMathTests@aos@shdfnd@physx@@YAXXZ 00000001800033a0 f   GuPCMContactSphereCapsule.obj
 0001:000023b0       ??__EminFError@_VecMathTests@aos@shdfnd@physx@@YAXXZ 00000001800033b0 f   GuPCMContactSphereCapsule.obj
 0001:000023c0       ??__EminV3Error@_VecMathTests@aos@shdfnd@physx@@YAXXZ 00000001800033c0 f   GuPCMContactSphereCapsule.obj
 0001:000023d0       ??__EminV4Error@_VecMathTests@aos@shdfnd@physx@@YAXXZ 00000001800033d0 f   GuPCMContactSphereCapsule.obj
 0001:000023e0       ??__EmaxFError@_VecMathTests@aos@shdfnd@physx@@YAXXZ 00000001800033e0 f   GuPCMContactSphereConvex.obj
 0001:000023f0       ??__EmaxV3Error@_VecMathTests@aos@shdfnd@physx@@YAXXZ 00000001800033f0 f   GuPCMContactSphereConvex.obj
 0001:00002400       ??__EmaxV4Error@_VecMathTests@aos@shdfnd@physx@@YAXXZ 0000000180003400 f   GuPCMContactSphereConvex.obj
 0001:00002410       ??__EminFError@_VecMathTests@aos@shdfnd@physx@@YAXXZ 0000000180003410 f   GuPCMContactSphereConvex.obj
 0001:00002420       ??__EminV3Error@_VecMathTests@aos@shdfnd@physx@@YAXXZ 0000000180003420 f   GuPCMContactSphereConvex.obj
 0001:00002430       ??__EminV4Error@_VecMathTests@aos@shdfnd@physx@@YAXXZ 0000000180003430 f   GuPCMContactSphereConvex.obj
 0001:00002440       ??__EmaxFError@_VecMathTests@aos@shdfnd@physx@@YAXXZ 0000000180003440 f   GuPCMContactSphereHeightField.obj
 0001:00002450       ??__EmaxV3Error@_VecMathTests@aos@shdfnd@physx@@YAXXZ 0000000180003450 f   GuPCMContactSphereHeightField.obj
 0001:00002460       ??__EmaxV4Error@_VecMathTests@aos@shdfnd@physx@@YAXXZ 0000000180003460 f   GuPCMContactSphereHeightField.obj
 0001:00002470       ??__EminFError@_VecMathTests@aos@shdfnd@physx@@YAXXZ 0000000180003470 f   GuPCMContactSphereHeightField.obj
 0001:00002480       ??__EminV3Error@_VecMathTests@aos@shdfnd@physx@@YAXXZ 0000000180003480 f   GuPCMContactSphereHeightField.obj
 0001:00002490       ??__EminV4Error@_VecMathTests@aos@shdfnd@physx@@YAXXZ 0000000180003490 f   GuPCMContactSphereHeightField.obj
 0001:000024a0       ??__EmaxFError@_VecMathTests@aos@shdfnd@physx@@YAXXZ 00000001800034a0 f   GuPCMContactSphereMesh.obj
 0001:000024b0       ??__EmaxV3Error@_VecMathTests@aos@shdfnd@physx@@YAXXZ 00000001800034b0 f   GuPCMContactSphereMesh.obj
 0001:000024c0       ??__EmaxV4Error@_VecMathTests@aos@shdfnd@physx@@YAXXZ 00000001800034c0 f   GuPCMContactSphereMesh.obj
 0001:000024d0       ??__EminFError@_VecMathTests@aos@shdfnd@physx@@YAXXZ 00000001800034d0 f   GuPCMContactSphereMesh.obj
 0001:000024e0       ??__EminV3Error@_VecMathTests@aos@shdfnd@physx@@YAXXZ 00000001800034e0 f   GuPCMContactSphereMesh.obj
 0001:000024f0       ??__EminV4Error@_VecMathTests@aos@shdfnd@physx@@YAXXZ 00000001800034f0 f   GuPCMContactSphereMesh.obj
 0001:00002500       ??__EmaxFError@_VecMathTests@aos@shdfnd@physx@@YAXXZ 0000000180003500 f   GuPCMContactSpherePlane.obj
 0001:00002510       ??__EmaxV3Error@_VecMathTests@aos@shdfnd@physx@@YAXXZ 0000000180003510 f   GuPCMContactSpherePlane.obj
 0001:00002520       ??__EmaxV4Error@_VecMathTests@aos@shdfnd@physx@@YAXXZ 0000000180003520 f   GuPCMContactSpherePlane.obj
 0001:00002530       ??__EminFError@_VecMathTests@aos@shdfnd@physx@@YAXXZ 0000000180003530 f   GuPCMContactSpherePlane.obj
 0001:00002540       ??__EminV3Error@_VecMathTests@aos@shdfnd@physx@@YAXXZ 0000000180003540 f   GuPCMContactSpherePlane.obj
 0001:00002550       ??__EminV4Error@_VecMathTests@aos@shdfnd@physx@@YAXXZ 0000000180003550 f   GuPCMContactSpherePlane.obj
 0001:00002560       ??__EmaxFError@_VecMathTests@aos@shdfnd@physx@@YAXXZ 0000000180003560 f   GuPCMContactSphereSphere.obj
 0001:00002570       ??__EmaxV3Error@_VecMathTests@aos@shdfnd@physx@@YAXXZ 0000000180003570 f   GuPCMContactSphereSphere.obj
 0001:00002580       ??__EmaxV4Error@_VecMathTests@aos@shdfnd@physx@@YAXXZ 0000000180003580 f   GuPCMContactSphereSphere.obj
 0001:00002590       ??__EminFError@_VecMathTests@aos@shdfnd@physx@@YAXXZ 0000000180003590 f   GuPCMContactSphereSphere.obj
 0001:000025a0       ??__EminV3Error@_VecMathTests@aos@shdfnd@physx@@YAXXZ 00000001800035a0 f   GuPCMContactSphereSphere.obj
 0001:000025b0       ??__EminV4Error@_VecMathTests@aos@shdfnd@physx@@YAXXZ 00000001800035b0 f   GuPCMContactSphereSphere.obj
 0001:000025c0       ??__EmaxFError@_VecMathTests@aos@shdfnd@physx@@YAXXZ 00000001800035c0 f   GuPCMShapeConvex.obj
 0001:000025d0       ??__EmaxV3Error@_VecMathTests@aos@shdfnd@physx@@YAXXZ 00000001800035d0 f   GuPCMShapeConvex.obj
 0001:000025e0       ??__EmaxV4Error@_VecMathTests@aos@shdfnd@physx@@YAXXZ 00000001800035e0 f   GuPCMShapeConvex.obj
 0001:000025f0       ??__EminFError@_VecMathTests@aos@shdfnd@physx@@YAXXZ 00000001800035f0 f   GuPCMShapeConvex.obj
 0001:00002600       ??__EminV3Error@_VecMathTests@aos@shdfnd@physx@@YAXXZ 0000000180003600 f   GuPCMShapeConvex.obj
 0001:00002610       ??__EminV4Error@_VecMathTests@aos@shdfnd@physx@@YAXXZ 0000000180003610 f   GuPCMShapeConvex.obj
 0001:00002620       ??__EmaxFError@_VecMathTests@aos@shdfnd@physx@@YAXXZ 0000000180003620 f   GuPCMTriangleContactGen.obj
 0001:00002630       ??__EmaxV3Error@_VecMathTests@aos@shdfnd@physx@@YAXXZ 0000000180003630 f   GuPCMTriangleContactGen.obj
 0001:00002640       ??__EmaxV4Error@_VecMathTests@aos@shdfnd@physx@@YAXXZ 0000000180003640 f   GuPCMTriangleContactGen.obj
 0001:00002650       ??__EminFError@_VecMathTests@aos@shdfnd@physx@@YAXXZ 0000000180003650 f   GuPCMTriangleContactGen.obj
 0001:00002660       ??__EminV3Error@_VecMathTests@aos@shdfnd@physx@@YAXXZ 0000000180003660 f   GuPCMTriangleContactGen.obj
 0001:00002670       ??__EminV4Error@_VecMathTests@aos@shdfnd@physx@@YAXXZ 0000000180003670 f   GuPCMTriangleContactGen.obj
 0001:00002680       ??__EmaxFError@_VecMathTests@aos@shdfnd@physx@@YAXXZ 0000000180003680 f   GuPersistentContactManifold.obj
 0001:00002690       ??__EmaxV3Error@_VecMathTests@aos@shdfnd@physx@@YAXXZ 0000000180003690 f   GuPersistentContactManifold.obj
 0001:000026a0       ??__EmaxV4Error@_VecMathTests@aos@shdfnd@physx@@YAXXZ 00000001800036a0 f   GuPersistentContactManifold.obj
 0001:000026b0       ??__EminFError@_VecMathTests@aos@shdfnd@physx@@YAXXZ 00000001800036b0 f   GuPersistentContactManifold.obj
 0001:000026c0       ??__EminV3Error@_VecMathTests@aos@shdfnd@physx@@YAXXZ 00000001800036c0 f   GuPersistentContactManifold.obj
 0001:000026d0       ??__EminV4Error@_VecMathTests@aos@shdfnd@physx@@YAXXZ 00000001800036d0 f   GuPersistentContactManifold.obj
 0001:000026e0       ??__EmaxFError@_VecMathTests@aos@shdfnd@physx@@YAXXZ 00000001800036e0 f   GuSweepBoxBox.obj
 0001:000026f0       ??__EmaxV3Error@_VecMathTests@aos@shdfnd@physx@@YAXXZ 00000001800036f0 f   GuSweepBoxBox.obj
 0001:00002700       ??__EmaxV4Error@_VecMathTests@aos@shdfnd@physx@@YAXXZ 0000000180003700 f   GuSweepBoxBox.obj
 0001:00002710       ??__EminFError@_VecMathTests@aos@shdfnd@physx@@YAXXZ 0000000180003710 f   GuSweepBoxBox.obj
 0001:00002720       ??__EminV3Error@_VecMathTests@aos@shdfnd@physx@@YAXXZ 0000000180003720 f   GuSweepBoxBox.obj
 0001:00002730       ??__EminV4Error@_VecMathTests@aos@shdfnd@physx@@YAXXZ 0000000180003730 f   GuSweepBoxBox.obj
 0001:00002740       ??__EmaxFError@_VecMathTests@aos@shdfnd@physx@@YAXXZ 0000000180003740 f   GuSweepBoxSphere.obj
 0001:00002750       ??__EmaxV3Error@_VecMathTests@aos@shdfnd@physx@@YAXXZ 0000000180003750 f   GuSweepBoxSphere.obj
 0001:00002760       ??__EmaxV4Error@_VecMathTests@aos@shdfnd@physx@@YAXXZ 0000000180003760 f   GuSweepBoxSphere.obj
 0001:00002770       ??__EminFError@_VecMathTests@aos@shdfnd@physx@@YAXXZ 0000000180003770 f   GuSweepBoxSphere.obj
 0001:00002780       ??__EminV3Error@_VecMathTests@aos@shdfnd@physx@@YAXXZ 0000000180003780 f   GuSweepBoxSphere.obj
 0001:00002790       ??__EminV4Error@_VecMathTests@aos@shdfnd@physx@@YAXXZ 0000000180003790 f   GuSweepBoxSphere.obj
 0001:000027a0       ??__EmaxFError@_VecMathTests@aos@shdfnd@physx@@YAXXZ 00000001800037a0 f   GuSweepBoxTriangle_FeatureBased.obj
 0001:000027b0       ??__EmaxV3Error@_VecMathTests@aos@shdfnd@physx@@YAXXZ 00000001800037b0 f   GuSweepBoxTriangle_FeatureBased.obj
 0001:000027c0       ??__EmaxV4Error@_VecMathTests@aos@shdfnd@physx@@YAXXZ 00000001800037c0 f   GuSweepBoxTriangle_FeatureBased.obj
 0001:000027d0       ??__EminFError@_VecMathTests@aos@shdfnd@physx@@YAXXZ 00000001800037d0 f   GuSweepBoxTriangle_FeatureBased.obj
 0001:000027e0       ??__EminV3Error@_VecMathTests@aos@shdfnd@physx@@YAXXZ 00000001800037e0 f   GuSweepBoxTriangle_FeatureBased.obj
 0001:000027f0       ??__EminV4Error@_VecMathTests@aos@shdfnd@physx@@YAXXZ 00000001800037f0 f   GuSweepBoxTriangle_FeatureBased.obj
 0001:00002800       ??__EmaxFError@_VecMathTests@aos@shdfnd@physx@@YAXXZ 0000000180003800 f   GuSweepBoxTriangle_SAT.obj
 0001:00002810       ??__EmaxV3Error@_VecMathTests@aos@shdfnd@physx@@YAXXZ 0000000180003810 f   GuSweepBoxTriangle_SAT.obj
 0001:00002820       ??__EmaxV4Error@_VecMathTests@aos@shdfnd@physx@@YAXXZ 0000000180003820 f   GuSweepBoxTriangle_SAT.obj
 0001:00002830       ??__EminFError@_VecMathTests@aos@shdfnd@physx@@YAXXZ 0000000180003830 f   GuSweepBoxTriangle_SAT.obj
 0001:00002840       ??__EminV3Error@_VecMathTests@aos@shdfnd@physx@@YAXXZ 0000000180003840 f   GuSweepBoxTriangle_SAT.obj
 0001:00002850       ??__EminV4Error@_VecMathTests@aos@shdfnd@physx@@YAXXZ 0000000180003850 f   GuSweepBoxTriangle_SAT.obj
 0001:00002860       ??__EmaxFError@_VecMathTests@aos@shdfnd@physx@@YAXXZ 0000000180003860 f   GuSweepCapsuleBox.obj
 0001:00002870       ??__EmaxV3Error@_VecMathTests@aos@shdfnd@physx@@YAXXZ 0000000180003870 f   GuSweepCapsuleBox.obj
 0001:00002880       ??__EmaxV4Error@_VecMathTests@aos@shdfnd@physx@@YAXXZ 0000000180003880 f   GuSweepCapsuleBox.obj
 0001:00002890       ??__EminFError@_VecMathTests@aos@shdfnd@physx@@YAXXZ 0000000180003890 f   GuSweepCapsuleBox.obj
 0001:000028a0       ??__EminV3Error@_VecMathTests@aos@shdfnd@physx@@YAXXZ 00000001800038a0 f   GuSweepCapsuleBox.obj
 0001:000028b0       ??__EminV4Error@_VecMathTests@aos@shdfnd@physx@@YAXXZ 00000001800038b0 f   GuSweepCapsuleBox.obj
 0001:000028c0       ??__EmaxFError@_VecMathTests@aos@shdfnd@physx@@YAXXZ 00000001800038c0 f   GuSweepCapsuleTriangle.obj
 0001:000028d0       ??__EmaxV3Error@_VecMathTests@aos@shdfnd@physx@@YAXXZ 00000001800038d0 f   GuSweepCapsuleTriangle.obj
 0001:000028e0       ??__EmaxV4Error@_VecMathTests@aos@shdfnd@physx@@YAXXZ 00000001800038e0 f   GuSweepCapsuleTriangle.obj
 0001:000028f0       ??__EminFError@_VecMathTests@aos@shdfnd@physx@@YAXXZ 00000001800038f0 f   GuSweepCapsuleTriangle.obj
 0001:00002900       ??__EminV3Error@_VecMathTests@aos@shdfnd@physx@@YAXXZ 0000000180003900 f   GuSweepCapsuleTriangle.obj
 0001:00002910       ??__EminV4Error@_VecMathTests@aos@shdfnd@physx@@YAXXZ 0000000180003910 f   GuSweepCapsuleTriangle.obj
 0001:00002920       ??__EmaxFError@_VecMathTests@aos@shdfnd@physx@@YAXXZ 0000000180003920 f   GuSweepSphereTriangle.obj
 0001:00002930       ??__EmaxV3Error@_VecMathTests@aos@shdfnd@physx@@YAXXZ 0000000180003930 f   GuSweepSphereTriangle.obj
 0001:00002940       ??__EmaxV4Error@_VecMathTests@aos@shdfnd@physx@@YAXXZ 0000000180003940 f   GuSweepSphereTriangle.obj
 0001:00002950       ??__EminFError@_VecMathTests@aos@shdfnd@physx@@YAXXZ 0000000180003950 f   GuSweepSphereTriangle.obj
 0001:00002960       ??__EminV3Error@_VecMathTests@aos@shdfnd@physx@@YAXXZ 0000000180003960 f   GuSweepSphereTriangle.obj
 0001:00002970       ??__EminV4Error@_VecMathTests@aos@shdfnd@physx@@YAXXZ 0000000180003970 f   GuSweepSphereTriangle.obj
 0001:00002980       ??__EmaxFError@_VecMathTests@aos@shdfnd@physx@@YAXXZ 0000000180003980 f   GuSweepTriangleUtils.obj
 0001:00002990       ??__EmaxV3Error@_VecMathTests@aos@shdfnd@physx@@YAXXZ 0000000180003990 f   GuSweepTriangleUtils.obj
 0001:000029a0       ??__EmaxV4Error@_VecMathTests@aos@shdfnd@physx@@YAXXZ 00000001800039a0 f   GuSweepTriangleUtils.obj
 0001:000029b0       ??__EminFError@_VecMathTests@aos@shdfnd@physx@@YAXXZ 00000001800039b0 f   GuSweepTriangleUtils.obj
 0001:000029c0       ??__EminV3Error@_VecMathTests@aos@shdfnd@physx@@YAXXZ 00000001800039c0 f   GuSweepTriangleUtils.obj
 0001:000029d0       ??__EminV4Error@_VecMathTests@aos@shdfnd@physx@@YAXXZ 00000001800039d0 f   GuSweepTriangleUtils.obj
 0001:000094d0       $LN24                      000000018000a4d0     CmWindowsDelayLoadHook.obj
 0001:0000a7b4       $LN727                     000000018000b7b4     GuBounds.obj
 0001:0000a988       $LN78                      000000018000b988     GuBounds.obj
 0001:0000a9f0       ?computeMeshBounds@@YAXAEBVPxVec3@physx@@AEBVPxMat33Padded@Gu@2@PEIBVCenterExtentsPadded@42@AEBVPxMeshScale@2@AEAVVec3p@42@4@Z 000000018000b9f0 f   GuBounds.obj
 0001:0000b1b0       ?computePlaneBounds@@YAXAEAVPxBounds3@physx@@AEBVPxTransform@2@MM@Z 000000018000c1b0 f   GuBounds.obj
 0001:0000b460       ?computeScaledMatrix@@YAXAEAVPxMat33Padded@Gu@physx@@AEBVPxMeshScale@3@@Z 000000018000c460 f   GuBounds.obj
 0001:0000c9f0       ??_GLocalReport@?1??sweepBox_HeightFieldGeom_Precise@@YA_NAEBVPxGeometry@physx@@AEBVPxTransform@3@AEBVPxBoxGeometry@3@1AEBVBox@Gu@3@AEBVPxVec3@3@MAEAUPxSweepHit@3@V?$PxFlags@W4Enum@PxHitFlag@physx@@G@3@M@Z@UEAAPEAXI@Z 000000018000d9f0 f   GuCCTSweepTests.obj
 0001:0000c9f0       ??_GHfTrianglesEntityReport2@?A0x53027822@@UEAAPEAXI@Z 000000018000d9f0 f   GuMeshQuery.obj
 0001:0000d630       ?onEvent@LocalReport@?1??sweepBox_HeightFieldGeom_Precise@@YA_NAEBVPxGeometry@physx@@AEBVPxTransform@4@AEBVPxBoxGeometry@4@1AEBVBox@Gu@4@AEBVPxVec3@4@MAEAUPxSweepHit@4@V?$PxFlags@W4Enum@PxHitFlag@physx@@G@4@M@Z@UEAA_NIPEAI@Z 000000018000e630 f   GuCCTSweepTests.obj
 0001:0000d920       ?sweepBoxVsTriangles@@YA_NIPEBVPxTriangle@physx@@AEBVBox@Gu@2@AEBVPxVec3@2@MAEAUPxSweepHit@2@V?$PxFlags@W4Enum@PxHitFlag@physx@@G@2@_NPEBI@Z 000000018000e920 f   GuCCTSweepTests.obj
 0001:000106c4       $LN269                     00000001800116c4     GuGeometryQuery.obj
 0001:00011030       $LN226                     0000000180012030     GuGeometryQuery.obj
 0001:00011360       $LN46                      0000000180012360     GuGeometryUnion.obj
 0001:00013700       ?loadMeshData@@YAPEAVTriangleMeshData@Gu@physx@@AEAVPxInputStream@3@@Z 0000000180014700 f   GuMeshFactory.obj
 0001:00016ab0       ?getBinaryMetaData@ShadowConvexMeshGeometry@?1??0GeometryUnion@Gu@physx@@SAXAEAVPxOutputStream@4@@Z@SAX0@Z 0000000180017ab0 f   GuMetaData.obj
 0001:00016d20       ?getBinaryMetaData@ShadowHeightFieldGeometry@?1??0GeometryUnion@Gu@physx@@SAXAEAVPxOutputStream@4@@Z@SAX0@Z 0000000180017d20 f   GuMetaData.obj
 0001:00016fc0       ?getBinaryMetaData@ShadowTriangleMeshGeometry@?1??0GeometryUnion@Gu@physx@@SAXAEAVPxOutputStream@4@@Z@SAX0@Z 0000000180017fc0 f   GuMetaData.obj
 0001:00017a90       ?getBinaryMetaData_BVDataPackedQ@@YAXAEAVPxOutputStream@physx@@@Z 0000000180018a90 f   GuMetaData.obj
 0001:00017d10       ?getBinaryMetaData_BigConvexRawData@@YAXAEAVPxOutputStream@physx@@@Z 0000000180018d10 f   GuMetaData.obj
 0001:00017f40       ?getBinaryMetaData_ConvexHullData@@YAXAEAVPxOutputStream@physx@@@Z 0000000180018f40 f   GuMetaData.obj
 0001:000181b0       ?getBinaryMetaData_HeightFieldData@@YAXAEAVPxOutputStream@physx@@@Z 00000001800191b0 f   GuMetaData.obj
 0001:000184e0       ?getBinaryMetaData_RTreePage@@YAXAEAVPxOutputStream@physx@@@Z 00000001800194e0 f   GuMetaData.obj
 0001:000187d0       ?GeomMTDCallback_NotSupported@@YA_NAEAVPxVec3@physx@@AEAMAEBVPxGeometry@2@AEBVPxTransform@2@23@Z 00000001800197d0 f   GuMTD.obj
 0001:000187d0       ?GeomOverlapCallback_NotSupported@@YA_NAEBVPxGeometry@physx@@AEBVPxTransform@2@01PEAUTriggerCache@Gu@2@@Z 00000001800197d0 f   GuOverlapTests.obj
 0001:000187e0       ?GeomMTDCallback_SphereSphere@@YA_NAEAVPxVec3@physx@@AEAMAEBVPxGeometry@2@AEBVPxTransform@2@23@Z 00000001800197e0 f   GuMTD.obj
 0001:000188c0       ?GeomMTDCallback_SpherePlane@@YA_NAEAVPxVec3@physx@@AEAMAEBVPxGeometry@2@AEBVPxTransform@2@23@Z 00000001800198c0 f   GuMTD.obj
 0001:000189c0       ?GeomMTDCallback_SphereCapsule@@YA_NAEAVPxVec3@physx@@AEAMAEBVPxGeometry@2@AEBVPxTransform@2@23@Z 00000001800199c0 f   GuMTD.obj
 0001:00018b00       ?GeomMTDCallback_SphereBox@@YA_NAEAVPxVec3@physx@@AEAMAEBVPxGeometry@2@AEBVPxTransform@2@23@Z 0000000180019b00 f   GuMTD.obj
 0001:00018c30       ?GeomMTDCallback_SphereConvex@@YA_NAEAVPxVec3@physx@@AEAMAEBVPxGeometry@2@AEBVPxTransform@2@23@Z 0000000180019c30 f   GuMTD.obj
 0001:00018c90       ?GeomMTDCallback_SphereMesh@@YA_NAEAVPxVec3@physx@@AEAMAEBVPxGeometry@2@AEBVPxTransform@2@23@Z 0000000180019c90 f   GuMTD.obj
 0001:00018e00       ?GeomMTDCallback_PlaneCapsule@@YA_NAEAVPxVec3@physx@@AEAMAEBVPxGeometry@2@AEBVPxTransform@2@23@Z 0000000180019e00 f   GuMTD.obj
 0001:00018fe0       ?GeomMTDCallback_PlaneBox@@YA_NAEAVPxVec3@physx@@AEAMAEBVPxGeometry@2@AEBVPxTransform@2@23@Z 0000000180019fe0 f   GuMTD.obj
 0001:000192e0       ?GeomMTDCallback_PlaneConvex@@YA_NAEAVPxVec3@physx@@AEAMAEBVPxGeometry@2@AEBVPxTransform@2@23@Z 000000018001a2e0 f   GuMTD.obj
 0001:00019330       ?GeomMTDCallback_CapsuleCapsule@@YA_NAEAVPxVec3@physx@@AEAMAEBVPxGeometry@2@AEBVPxTransform@2@23@Z 000000018001a330 f   GuMTD.obj
 0001:00019510       ?GeomMTDCallback_CapsuleBox@@YA_NAEAVPxVec3@physx@@AEAMAEBVPxGeometry@2@AEBVPxTransform@2@23@Z 000000018001a510 f   GuMTD.obj
 0001:000196f0       ?GeomMTDCallback_CapsuleConvex@@YA_NAEAVPxVec3@physx@@AEAMAEBVPxGeometry@2@AEBVPxTransform@2@23@Z 000000018001a6f0 f   GuMTD.obj
 0001:00019800       ?GeomMTDCallback_CapsuleMesh@@YA_NAEAVPxVec3@physx@@AEAMAEBVPxGeometry@2@AEBVPxTransform@2@23@Z 000000018001a800 f   GuMTD.obj
 0001:00019a10       ?GeomMTDCallback_BoxBox@@YA_NAEAVPxVec3@physx@@AEAMAEBVPxGeometry@2@AEBVPxTransform@2@23@Z 000000018001aa10 f   GuMTD.obj
 0001:00019bf0       ?GeomMTDCallback_BoxConvex@@YA_NAEAVPxVec3@physx@@AEAMAEBVPxGeometry@2@AEBVPxTransform@2@23@Z 000000018001abf0 f   GuMTD.obj
 0001:00019cf0       ?GeomMTDCallback_BoxMesh@@YA_NAEAVPxVec3@physx@@AEAMAEBVPxGeometry@2@AEBVPxTransform@2@23@Z 000000018001acf0 f   GuMTD.obj
 0001:00019f60       ?GeomMTDCallback_ConvexConvex@@YA_NAEAVPxVec3@physx@@AEAMAEBVPxGeometry@2@AEBVPxTransform@2@23@Z 000000018001af60 f   GuMTD.obj
 0001:00019f70       ?GeomMTDCallback_ConvexMesh@@YA_NAEAVPxVec3@physx@@AEAMAEBVPxGeometry@2@AEBVPxTransform@2@23@Z 000000018001af70 f   GuMTD.obj
 0001:0001a080       ?GeomMTDCallback_SphereHeightField@@YA_NAEAVPxVec3@physx@@AEAMAEBVPxGeometry@2@AEBVPxTransform@2@23@Z 000000018001b080 f   GuMTD.obj
 0001:0001a1f0       ?GeomMTDCallback_CapsuleHeightField@@YA_NAEAVPxVec3@physx@@AEAMAEBVPxGeometry@2@AEBVPxTransform@2@23@Z 000000018001b1f0 f   GuMTD.obj
 0001:0001a400       ?GeomMTDCallback_BoxHeightField@@YA_NAEAVPxVec3@physx@@AEAMAEBVPxGeometry@2@AEBVPxTransform@2@23@Z 000000018001b400 f   GuMTD.obj
 0001:0001a670       ?GeomMTDCallback_ConvexHeightField@@YA_NAEAVPxVec3@physx@@AEAMAEBVPxGeometry@2@AEBVPxTransform@2@23@Z 000000018001b670 f   GuMTD.obj
 0001:0001c3c0       ?PxcCapsuleOBBOverlap3@@YA_NAEBVSegment@Gu@physx@@MAEBVBox@23@PEAMPEAVPxVec3@3@@Z 000000018001d3c0 f   GuMTD.obj
 0001:0001c780       ?PxcTestAxis@@YA_NAEBVPxVec3@physx@@AEBVBox@Gu@2@1AEAM@Z 000000018001d780 f   GuMTD.obj
 0001:0001c970       ?GuTestAxis@@YA_NAEBVPxVec3@physx@@AEBVSegment@Gu@2@MAEBVBox@42@AEAM@Z 000000018001d970 f   GuContactCapsuleBox.obj
 0001:0001c970       ?PxcTestAxis@@YA_NAEBVPxVec3@physx@@AEBVSegment@Gu@2@MAEBVBox@42@AEAM@Z 000000018001d970 f   GuMTD.obj
 0001:0001cb70       ?computeMTD_BoxBox@@YA_NAEAVPxVec3@physx@@AEAMAEBVBox@Gu@2@2@Z 000000018001db70 f   GuMTD.obj
 0001:0001cfa0       ?computeMTD_BoxConvex@@YA_NAEAVPxVec3@physx@@AEAMAEBVBox@Gu@2@AEBVPxConvexMeshGeometry@2@AEBVPxTransform@2@@Z 000000018001dfa0 f   GuMTD.obj
 0001:0001d750       ?computeMTD_CapsuleBox@@YA_NAEAVPxVec3@physx@@AEAMAEBVCapsule@Gu@2@AEBVBox@42@@Z 000000018001e750 f   GuMTD.obj
 0001:0001d970       ?computeMTD_CapsuleCapsule@@YA_NAEAVPxVec3@physx@@AEAMAEBVCapsule@Gu@2@2@Z 000000018001e970 f   GuMTD.obj
 0001:0001db90       ?computeMTD_CapsuleConvex@@YA_NAEAVPxVec3@physx@@AEAMAEBVCapsule@Gu@2@AEBVPxTransform@2@AEBVPxConvexMeshGeometry@2@3@Z 000000018001eb90 f   GuMTD.obj
 0001:0001e430       ?computeMTD_ConvexConvex@@YA_NAEAVPxVec3@physx@@AEAMAEBVPxConvexMeshGeometry@2@AEBVPxTransform@2@23@Z 000000018001f430 f   GuMTD.obj
 0001:0001ee80       ?computeMTD_PlaneConvex@@YA_NAEAVPxVec3@physx@@AEAMAEBVPxPlane@2@AEBVPxConvexMeshGeometry@2@AEBVPxTransform@2@@Z 000000018001fe80 f   GuMTD.obj
 0001:0001f850       ?computeMTD_SphereBox@@YA_NAEAVPxVec3@physx@@AEAMAEBVSphere@Gu@2@AEBVBox@42@@Z 0000000180020850 f   GuMTD.obj
 0001:0001fde0       ?computeMTD_SphereCapsule@@YA_NAEAVPxVec3@physx@@AEAMAEBVSphere@Gu@2@AEBVCapsule@42@@Z 0000000180020de0 f   GuMTD.obj
 0001:00020040       ?computeMTD_SphereConvex@@YA_NAEAVPxVec3@physx@@AEAMAEBVSphere@Gu@2@AEBVPxConvexMeshGeometry@2@AEBVPxTransform@2@@Z 0000000180021040 f   GuMTD.obj
 0001:00021320       ?processContacts@@YA_NAEAVPxVec3@physx@@AEAMIPEBUContactPoint@Gu@2@@Z 0000000180022320 f   GuMTD.obj
 0001:00022280       ?GeomOverlapCallback_SphereSphere@@YA_NAEBVPxGeometry@physx@@AEBVPxTransform@2@01PEAUTriggerCache@Gu@2@@Z 0000000180023280 f   GuOverlapTests.obj
 0001:000222d0       ?GeomOverlapCallback_SpherePlane@@YA_NAEBVPxGeometry@physx@@AEBVPxTransform@2@01PEAUTriggerCache@Gu@2@@Z 00000001800232d0 f   GuOverlapTests.obj
 0001:00022330       ?GeomOverlapCallback_SphereCapsule@@YA_NAEBVPxGeometry@physx@@AEBVPxTransform@2@01PEAUTriggerCache@Gu@2@@Z 0000000180023330 f   GuOverlapTests.obj
 0001:00022500       ?GeomOverlapCallback_SphereBox@@YA_NAEBVPxGeometry@physx@@AEBVPxTransform@2@01PEAUTriggerCache@Gu@2@@Z 0000000180023500 f   GuOverlapTests.obj
 0001:00022610       ?GeomOverlapCallback_SphereConvex@@YA_NAEBVPxGeometry@physx@@AEBVPxTransform@2@01PEAUTriggerCache@Gu@2@@Z 0000000180023610 f   GuOverlapTests.obj
 0001:000226d0       ?GeomOverlapCallback_PlaneCapsule@@YA_NAEBVPxGeometry@physx@@AEBVPxTransform@2@01PEAUTriggerCache@Gu@2@@Z 00000001800236d0 f   GuOverlapTests.obj
 0001:00022850       ?GeomOverlapCallback_PlaneBox@@YA_NAEBVPxGeometry@physx@@AEBVPxTransform@2@01PEAUTriggerCache@Gu@2@@Z 0000000180023850 f   GuOverlapTests.obj
 0001:00022b10       ?GeomOverlapCallback_PlaneConvex@@YA_NAEBVPxGeometry@physx@@AEBVPxTransform@2@01PEAUTriggerCache@Gu@2@@Z 0000000180023b10 f   GuOverlapTests.obj
 0001:00023130       ?GeomOverlapCallback_CapsuleCapsule@@YA_NAEBVPxGeometry@physx@@AEBVPxTransform@2@01PEAUTriggerCache@Gu@2@@Z 0000000180024130 f   GuOverlapTests.obj
 0001:00023350       ?GeomOverlapCallback_CapsuleBox@@YA_NAEBVPxGeometry@physx@@AEBVPxTransform@2@01PEAUTriggerCache@Gu@2@@Z 0000000180024350 f   GuOverlapTests.obj
 0001:00023630       ?GeomOverlapCallback_CapsuleConvex@@YA_NAEBVPxGeometry@physx@@AEBVPxTransform@2@01PEAUTriggerCache@Gu@2@@Z 0000000180024630 f   GuOverlapTests.obj
 0001:000236e0       ?GeomOverlapCallback_BoxBox@@YA_NAEBVPxGeometry@physx@@AEBVPxTransform@2@01PEAUTriggerCache@Gu@2@@Z 00000001800246e0 f   GuOverlapTests.obj
 0001:00023840       ?GeomOverlapCallback_BoxConvex@@YA_NAEBVPxGeometry@physx@@AEBVPxTransform@2@01PEAUTriggerCache@Gu@2@@Z 0000000180024840 f   GuOverlapTests.obj
 0001:000238f0       ?GeomOverlapCallback_ConvexConvex@@YA_NAEBVPxGeometry@physx@@AEBVPxTransform@2@01PEAUTriggerCache@Gu@2@@Z 00000001800248f0 f   GuOverlapTests.obj
 0001:000246c0       ?GeomOverlapCallback_HeightfieldUnregistered@@YA_NAEBVPxGeometry@physx@@AEBVPxTransform@2@01PEAUTriggerCache@Gu@2@@Z 00000001800256c0 f   GuOverlapTests.obj
 0001:00026460       ?intersectBoxConvex@@YA_NAEBVPxBoxGeometry@physx@@AEBVPxTransform@2@AEBVConvexMesh@Gu@2@AEBVPxMeshScale@2@1PEAVPxVec3@2@@Z 0000000180027460 f   GuOverlapTests.obj
 0001:00026d10       ?intersectCapsuleConvex@@YA_NAEBVPxCapsuleGeometry@physx@@AEBVPxTransform@2@AEBVConvexMesh@Gu@2@AEBVPxMeshScale@2@1PEAVPxVec3@2@@Z 0000000180027d10 f   GuOverlapTests.obj
 0001:00027530       ?intersectSphereConvex@@YA_NAEBVPxTransform@physx@@MAEBVConvexMesh@Gu@2@AEBVPxMeshScale@2@0PEAVPxVec3@2@@Z 0000000180028530 f   GuOverlapTests.obj
 0001:00027c00       ?projectHull_@@YA?AVPxVec3@physx@@AEBUConvexHullData@Gu@2@AEAM1AEBV12@AEBVPxMat33@2@@Z 0000000180028c00 f   GuOverlapTests.obj
 0001:00029200       ?raycast_heightField_unregistered@@YAIAEBVPxGeometry@physx@@AEBVPxTransform@2@AEBVPxVec3@2@2MV?$PxFlags@W4Enum@PxHitFlag@physx@@G@2@IPEIAUPxRaycastHit@2@@Z 000000018002a200 f   GuRaycastTests.obj
 0001:00029a00       ??$traceSegment@UHFTraceSegmentCallback@?A0x02500555@@$0A@$0A@@HeightFieldTraceUtil@Gu@physx@@QEBAXAEBVPxVec3@2@0MPEAUHFTraceSegmentCallback@?A0x02500555@@AEBVPxBounds3@2@_NPEBV32@@Z 000000018002aa00 f   GuRaycastTests.obj
 0001:0002b3b0       ?faceHit@HFTraceSegmentCallback@?A0x02500555@@QEAA_NAEBVHeightFieldUtil@Gu@physx@@AEBVPxVec3@5@IMM@Z 000000018002c3b0 f   GuRaycastTests.obj
 0001:0003b570       ?computeSweepConvexPlane@@YAIAEBVPxConvexMeshGeometry@physx@@PEAUConvexHullData@Gu@2@AEBIAEBVPxTransform@2@AEBVPxVec3@2@4@Z 000000018003c570 f   GuSweepSharedTests.obj
 0001:00042ca0       ?sweepCapsule_HeightfieldUnregistered@@YA_NAEBVPxGeometry@physx@@AEBVPxTransform@2@AEBVPxCapsuleGeometry@2@1AEBVCapsule@Gu@2@AEBVPxVec3@2@MAEAUPxSweepHit@2@V?$PxFlags@W4Enum@PxHitFlag@physx@@G@2@M@Z 0000000180043ca0 f   GuSweepTests.obj
 0001:00042ce0       ?sweepBox_HeightfieldUnregistered@@YA_NAEBVPxGeometry@physx@@AEBVPxTransform@2@AEBVPxBoxGeometry@2@1AEBVBox@Gu@2@AEBVPxVec3@2@MAEAUPxSweepHit@2@V?$PxFlags@W4Enum@PxHitFlag@physx@@G@2@M@Z 0000000180043ce0 f   GuSweepTests.obj
 0001:00042d20       ?sweepConvex_HeightfieldUnregistered@@YA_NAEBVPxGeometry@physx@@AEBVPxTransform@2@AEBVPxConvexMeshGeometry@2@1AEBVPxVec3@2@MAEAUPxSweepHit@2@V?$PxFlags@W4Enum@PxHitFlag@physx@@G@2@M@Z 0000000180043d20 f   GuSweepTests.obj
 0001:00049750       ?split@@YAIAEBVPxBounds3@physx@@IQEIAIIAEBVAABBTreeBuildParams@Gu@2@@Z 000000018004a750 f   GuAABBTreeBuild.obj
 0001:0004b690       ??_GAccumCallback@?A0x58bf8b61@Gu@physx@@UEAAPEAXI@Z 000000018004c690 f   GuCCDSweepConvexMesh.obj
 0001:0004b6c0       ??_GCB@?1??SweepEstimateAnyShapeMesh@Gu@physx@@YAMAEBUCCDShape@23@0AEBVPxTransform@3@111MM@Z@UEAAPEAXI@Z 000000018004c6c0 f   GuCCDSweepConvexMesh.obj
 0001:0004b6c0       ??_G?$IntersectCapsuleVsMeshCallback@$00@?A0xa8ceae12@@UEAAPEAXI@Z 000000018004c6c0 f   GuMidphaseRTree.obj
 0001:0004b6c0       ??_G?$IntersectCapsuleVsMeshCallback@$0A@@?A0xa8ceae12@@UEAAPEAXI@Z 000000018004c6c0 f   GuMidphaseRTree.obj
 0001:0004b6f0       ??_GEntityReportContainerCallback@?A0x58bf8b61@Gu@physx@@UEAAPEAXI@Z 000000018004c6f0 f   GuCCDSweepConvexMesh.obj
 0001:0004ef90       ?calcCenterAndBounds@ConvexTriangles@?A0x58bf8b61@Gu@physx@@AEBAXAEBVPxTransform@4@@Z 000000018004ff90 f   GuCCDSweepConvexMesh.obj
 0001:0004f740       ?getPolygonNormal@ConvexTriangles@?A0x58bf8b61@Gu@physx@@QEBA?AVPxVec3@4@I@Z 0000000180050740 f   GuCCDSweepConvexMesh.obj
 0001:0004fbf0       ?onEvent@EntityReportContainerCallback@?A0x58bf8b61@Gu@physx@@UEAA_NIPEAI@Z 0000000180050bf0 f   GuCCDSweepConvexMesh.obj
 0001:0004fc70       ?processHit@AccumCallback@?A0x58bf8b61@Gu@physx@@UEAA_NAEBUPxRaycastHit@4@AEBVPxVec3@4@11AEAMPEBI@Z 0000000180050c70 f   GuCCDSweepConvexMesh.obj
 0001:0004fcd0       ?processHit@CB@?1??SweepEstimateAnyShapeMesh@Gu@physx@@YAMAEBUCCDShape@34@0AEBVPxTransform@4@111MM@Z@UEAA_NAEBUPxRaycastHit@4@AEBVPxVec3@4@33AEAMPEBI@Z 0000000180050cd0 f   GuCCDSweepConvexMesh.obj
 0001:00052c40       ??$CCDSweep@VBoxV@Gu@physx@@V123@@Gu@physx@@YAMAEAVBoxV@01@0AEBVPxTransform@1@111AEBT__m128@@AEAVPxVec3@1@3M@Z 0000000180053c40 f   GuCCDSweepPrimitives.obj
 0001:00053320       ??$CCDSweep@VBoxV@Gu@physx@@VConvexHullV@23@@Gu@physx@@YAMAEAVBoxV@01@AEAVConvexHullV@01@AEBVPxTransform@1@222AEBT__m128@@AEAVPxVec3@1@4M@Z 0000000180054320 f   GuCCDSweepPrimitives.obj
 0001:00053a00       ??$CCDSweep@VCapsuleV@Gu@physx@@V123@@Gu@physx@@YAMAEAVCapsuleV@01@0AEBVPxTransform@1@111AEBT__m128@@AEAVPxVec3@1@3M@Z 0000000180054a00 f   GuCCDSweepPrimitives.obj
 0001:000540e0       ??$CCDSweep@VCapsuleV@Gu@physx@@VBoxV@23@@Gu@physx@@YAMAEAVCapsuleV@01@AEAVBoxV@01@AEBVPxTransform@1@222AEBT__m128@@AEAVPxVec3@1@4M@Z 00000001800550e0 f   GuCCDSweepPrimitives.obj
 0001:000547c0       ??$CCDSweep@VCapsuleV@Gu@physx@@VConvexHullV@23@@Gu@physx@@YAMAEAVCapsuleV@01@AEAVConvexHullV@01@AEBVPxTransform@1@222AEBT__m128@@AEAVPxVec3@1@4M@Z 00000001800557c0 f   GuCCDSweepPrimitives.obj
 0001:00054ea0       ??$CCDSweep@VConvexHullV@Gu@physx@@V123@@Gu@physx@@YAMAEAVConvexHullV@01@0AEBVPxTransform@1@111AEBT__m128@@AEAVPxVec3@1@3M@Z 0000000180055ea0 f   GuCCDSweepPrimitives.obj
 0001:00055580       ??$CCDSweep@VTriangleV@Gu@physx@@VBoxV@23@@Gu@physx@@YAMAEAVTriangleV@01@AEAVBoxV@01@AEBVPxTransform@1@222AEBT__m128@@AEAVPxVec3@1@4M@Z 0000000180056580 f   GuCCDSweepPrimitives.obj
 0001:00055c60       ??$CCDSweep@VTriangleV@Gu@physx@@VCapsuleV@23@@Gu@physx@@YAMAEAVTriangleV@01@AEAVCapsuleV@01@AEBVPxTransform@1@222AEBT__m128@@AEAVPxVec3@1@4M@Z 0000000180056c60 f   GuCCDSweepPrimitives.obj
 0001:00056340       ??$CCDSweep@VTriangleV@Gu@physx@@VConvexHullV@23@@Gu@physx@@YAMAEAVTriangleV@01@AEAVConvexHullV@01@AEBVPxTransform@1@222AEBT__m128@@AEAVPxVec3@1@4M@Z 0000000180057340 f   GuCCDSweepPrimitives.obj
 0001:000646b0       ?doBoxBoxContactGeneration@@YAHAEAVContactBuffer@Gu@physx@@AEBVPxVec3@3@1AEAIAEBVMatrix34@Cm@3@3M@Z 00000001800656b0 f   GuContactBoxBox.obj
 0001:00065aec       $LN541                     0000000180066aec     GuContactBoxBox.obj
 0001:00065b10       ?generateContacts@@YAHAEAVContactBuffer@Gu@physx@@AEBVPxVec3@3@MM1AEBVMatrix34@Cm@3@2M@Z 0000000180066b10 f   GuContactBoxBox.obj
 0001:00067000       ?GuCapsuleOBBOverlap3@@YA_NAEBVSegment@Gu@physx@@MAEBVBox@23@PEAMPEAVPxVec3@3@@Z 0000000180068000 f   GuContactCapsuleBox.obj
 0001:000673b0       ?GuGenerateEEContacts2@@YAXAEAVContactBuffer@Gu@physx@@AEBVSegment@23@MAEBVBox@23@AEBVPxVec3@3@M@Z 00000001800683b0 f   GuContactCapsuleBox.obj
 0001:00067c40       ?GuGenerateEEContacts@@YAXAEAVContactBuffer@Gu@physx@@AEBVSegment@23@MAEBVBox@23@AEBVPxVec3@3@@Z 0000000180068c40 f   GuContactCapsuleBox.obj
 0001:00068020       ?GuGenerateVFContacts@@YAXAEAVContactBuffer@Gu@physx@@AEBVSegment@23@MAEBVBox@23@AEBVPxVec3@3@M@Z 0000000180069020 f   GuContactCapsuleBox.obj
 0001:00068870       ?intersectEdgeEdgePreca@@YA_NAEBVPxVec3@physx@@00AEBVPxPlane@2@IIM000AEAMAEAV12@@Z 0000000180069870 f   GuContactCapsuleBox.obj
 0001:000694d0       ?GuCapsuleConvexOverlap@@YA_NAEBVSegment@Gu@physx@@MAEBUPolygonalData@23@AEBVFastVertex2ShapeScaling@Cm@3@AEBVPxTransform@3@PEAMPEAVPxVec3@3@_N@Z 000000018006a4d0 f   GuContactCapsuleConvex.obj
 0001:00069d90       ?GuGenerateEEContacts2b@@YAXAEAVContactBuffer@Gu@physx@@AEBVSegment@23@MAEBVMatrix34@Cm@3@AEBUPolygonalData@23@AEBVFastVertex2ShapeScaling@63@AEBVPxVec3@3@M@Z 000000018006ad90 f   GuContactCapsuleConvex.obj
 0001:0006a680       ?GuGenerateEEContacts@@YAXAEAVContactBuffer@Gu@physx@@AEBVSegment@23@MMAEBUPolygonalData@23@AEBVPxTransform@3@AEBVFastVertex2ShapeScaling@Cm@3@AEBVPxVec3@3@@Z 000000018006b680 f   GuContactCapsuleConvex.obj
 0001:0006af70       ?GuGenerateVFContacts2@@YAXAEAVContactBuffer@Gu@physx@@AEBVPxTransform@3@AEBUPolygonalData@23@AEBVPxMeshScale@3@IPEIBVPxVec3@3@MAEBV73@M@Z 000000018006bf70 f   GuContactCapsuleConvex.obj
 0001:0006c3a0       ??0CapsuleMeshContactGeneration@?A0xd0a6ead9@@QEAA@AEAVContactBuffer@Gu@physx@@AEBVPxTransform@4@AEBVSegment@34@MMM@Z 000000018006d3a0 f   GuContactCapsuleMesh.obj
 0001:0006c5f0       ??_GCapsuleHeightfieldContactGenerationCallback@?A0xd0a6ead9@@UEAAPEAXI@Z 000000018006d5f0 f   GuContactCapsuleMesh.obj
 0001:0006c620       ??_GCapsuleMeshContactGenerationCallback_NoScale@?A0xd0a6ead9@@UEAAPEAXI@Z 000000018006d620 f   GuContactCapsuleMesh.obj
 0001:0006c650       ??_GCapsuleMeshContactGenerationCallback_Scale@?A0xd0a6ead9@@UEAAPEAXI@Z 000000018006d650 f   GuContactCapsuleMesh.obj
 0001:0006c680       ?PxcCapsuleTriOverlap3@@YA_NEAEBVSegment@Gu@physx@@MPEIBVPxVec3@3@PEIAMPEIAV43@@Z 000000018006d680 f   GuContactCapsuleMesh.obj
 0001:0006cb70       ?PxcGenerateEEContacts2@@YAXAEBVMatrix34@Cm@physx@@AEAVContactBuffer@Gu@3@AEBVSegment@53@MPEIBVPxVec3@3@AEBV73@IM@Z 000000018006db70 f   GuContactCapsuleMesh.obj
 0001:0006cf60       ?PxcGenerateEEContacts@@YAXAEBVMatrix34@Cm@physx@@AEAVContactBuffer@Gu@3@AEBVSegment@53@MPEIBVPxVec3@3@AEBV73@I@Z 000000018006df60 f   GuContactCapsuleMesh.obj
 0001:0006d370       ?PxcGenerateVFContacts@@YAXAEBVMatrix34@Cm@physx@@AEAVContactBuffer@Gu@3@AEBVSegment@53@MPEIBVPxVec3@3@AEBV73@IM@Z 000000018006e370 f   GuContactCapsuleMesh.obj
 0001:0006d8c0       ?PxcTestAxis@@YA_NAEBVPxVec3@physx@@AEBVSegment@Gu@2@MPEIBV12@AEAM@Z 000000018006e8c0 f   GuContactCapsuleMesh.obj
 0001:0006e560       ?onEvent@CapsuleHeightfieldContactGenerationCallback@?A0xd0a6ead9@@UEAA_NIPEAI@Z 000000018006f560 f   GuContactCapsuleMesh.obj
 0001:0006e970       ?processHit@CapsuleMeshContactGenerationCallback_NoScale@?A0xd0a6ead9@@UEAA_NAEBUPxRaycastHit@physx@@AEBVPxVec3@4@11AEAMPEBI@Z 000000018006f970 f   GuContactCapsuleMesh.obj
 0001:0006ea30       ?processHit@CapsuleMeshContactGenerationCallback_Scale@?A0xd0a6ead9@@UEAA_NAEBUPxRaycastHit@physx@@AEBVPxVec3@4@11AEAMPEBI@Z 000000018006fa30 f   GuContactCapsuleMesh.obj
 0001:0006ec70       ?processTriangle@CapsuleMeshContactGeneration@?A0xd0a6ead9@@QEAAXIAEBVTrianglePadded@Gu@physx@@E@Z 000000018006fc70 f   GuContactCapsuleMesh.obj
 0001:0006f770       ?GuContactHullHull@@YA_NAEBUPolygonalData@Gu@physx@@0AEBVPxBounds3@3@1AEBVPxTransform@3@2AEBUNarrowPhaseParams@23@AEAVContactBuffer@23@AEBVFastVertex2ShapeScaling@Cm@3@5_N6@Z 0000000180070770 f   GuContactConvexConvex.obj
 0001:00071790       ?GuTestFacesSepAxesBackfaceRoughPass@@YA_NAEBUPolygonalData@Gu@physx@@0AEBVMatrix34@Cm@3@1AEBVFastVertex2ShapeScaling@53@21AEBVPxVec3@3@3AEAMAEAV73@AEAIMM3@Z 0000000180072790 f   GuContactConvexConvex.obj
 0001:00071e30       ?PxcBruteForceOverlapBackface@@YA_NAEBVPxBounds3@physx@@0AEBUPolygonalData@Gu@2@1AEBVMatrix34@Cm@2@2AEBVFastVertex2ShapeScaling@62@322AEBVPxVec3@2@AEAI5AEAMAEAV82@AEAW4PxcSepAxisType@42@MM@Z 0000000180072e30 f   GuContactConvexConvex.obj
 0001:000727f0       ?PxcFindSeparatingAxes@@YAXAEAVSeparatingAxes@Gu@physx@@PEIBIIAEBUPolygonalData@23@AEBVMatrix34@Cm@3@AEBVPxPlane@3@3AEBVPxBounds3@3@MAEBVFastVertex2ShapeScaling@63@@Z 00000001800737f0 f   GuContactConvexConvex.obj
 0001:00072fa0       ?PxcSegmentAABBIntersect@@YA_NAEBVPxVec3@physx@@000AEBVMatrix34@Cm@2@@Z 0000000180073fa0 f   GuContactConvexConvex.obj
 0001:00073330       ?PxcTestFacesSepAxesBackface@@YA_NAEBUPolygonalData@Gu@physx@@0AEBVMatrix34@Cm@3@1AEBVFastVertex2ShapeScaling@53@21AEBVPxVec3@3@AEAMAEAV73@AEAIPEIAI6MM3@Z 0000000180074330 f   GuContactConvexConvex.obj
 0001:00073d30       ?prepareData@@YAXAEAVPxPlane@physx@@0AEAVPxBounds3@2@1AEBV32@2AEBV12@3AEBVFastVertex2ShapeScaling@Cm@2@4AEBVMatrix34@52@5M@Z 0000000180074d30 f   GuContactConvexConvex.obj
 0001:00074370       ??0ConvexMeshContactGeneration@?A0xae1ce05b@@QEAA@AEAV?$InlineArray@I$0EEA@VNamedAllocator@shdfnd@physx@@@shdfnd@physx@@AEBVPxTransform@4@1AEBUPolygonalData@Gu@4@AEBVMatrix34@Cm@4@3AEBVFastVertex2ShapeScaling@94@MM_NM11AEAVContactBuffer@74@@Z 0000000180075370 f   GuContactConvexMesh.obj
 0001:000748b0       ??_GConvexVsHeightfieldContactGenerationCallback@?A0xae1ce05b@@UEAAPEAXI@Z 00000001800758b0 f   GuContactConvexMesh.obj
 0001:00074ae0       ?computeFeatureCode@@YA?AW4FeatureCode@@AEBVPxVec3@physx@@PEBV23@@Z 0000000180075ae0 f   GuContactConvexMesh.obj
 0001:00075400       ?contactHullHeightfield2@@YA_NAEBUPolygonalData@Gu@physx@@AEBVPxBounds3@3@AEBVPxHeightFieldGeometry@3@AEBVPxTransform@3@3AEBUNarrowPhaseParams@23@AEAVContactBuffer@23@AEBVFastVertex2ShapeScaling@Cm@3@_N@Z 0000000180076400 f   GuContactConvexMesh.obj
 0001:00075b40       ?contactHullMesh2@@YA_NAEBUPolygonalData@Gu@physx@@AEBVPxBounds3@3@AEBUPxTriangleMeshGeometryLL@3@AEBVPxTransform@3@3AEBUNarrowPhaseParams@23@AEAVContactBuffer@23@AEBVFastVertex2ShapeScaling@Cm@3@6_N7@Z 0000000180076b40 f   GuContactConvexMesh.obj
 0001:000762c0       ?generateContacts@ConvexMeshContactGeneration@?A0xae1ce05b@@QEBA_NAEBVPxPlane@physx@@PEIBVPxVec3@4@AEBV54@AEAV54@MI@Z 00000001800772c0 f   GuContactConvexMesh.obj
 0001:00077190       ?generateLastContacts@ConvexMeshContactGeneration@?A0xae1ce05b@@QEAAXXZ 0000000180078190 f   GuContactConvexMesh.obj
 0001:000776e4       $LN197                     00000001800786e4     GuContactConvexMesh.obj
 0001:00077700       ?onEvent@ConvexVsHeightfieldContactGenerationCallback@?A0xae1ce05b@@UEAA_NIPEAI@Z 0000000180078700 f   GuContactConvexMesh.obj
 0001:00077b30       ?performEETests@@YA_NAEBUPolygonalData@Gu@physx@@EAEBVMatrix34@Cm@3@1PEIBVPxVec3@3@IPEIBIAEBVPxPlane@3@AEBVFastVertex2ShapeScaling@53@AEAV63@AEAMMMII@Z 0000000180078b30 f   GuContactConvexMesh.obj
 0001:00078ce0       ?processTriangle@ConvexMeshContactGeneration@?A0xae1ce05b@@QEAAXPEBVPxVec3@physx@@IEPEBI@Z 0000000180079ce0 f   GuContactConvexMesh.obj
 0001:00079330       ?testFacesSepAxesBackface@@YA_NAEBUPolygonalData@Gu@physx@@AEBVMatrix34@Cm@3@11AEBVPxVec3@3@PEIBV63@AEBVFastVertex2ShapeScaling@53@AEAIPEAIAEAMAEAV63@5M_N@Z 000000018007a330 f   GuContactConvexMesh.obj
 0001:00079e70       ?triangleConvexTest@@YA_NAEBUPolygonalData@Gu@physx@@EIPEIBVPxVec3@3@AEBVPxPlane@3@AEBV43@AEBVMatrix34@Cm@3@444AEBVFastVertex2ShapeScaling@73@MMAEAV43@AEAMAEA_N_N@Z 000000018007ae70 f   GuContactConvexMesh.obj
 0001:0007bdf0       ?ContactReductionAllIn@@YAXAEAVContactBuffer@Gu@physx@@IIAEBVPxMat33@3@PEIBVPxVec3@3@PEIBE@Z 000000018007cdf0 f   GuContactPolygonPolygon.obj
 0001:0007d010       ?PointInConvexPolygon2D_OutCodes@@YA_NPEIBMIMMMMAEAE@Z 000000018007e010 f   GuContactPolygonPolygon.obj
 0001:0007ec00       ?transformVertices@@YAXAEAM000PEIAMIPEIBVPxVec3@physx@@PEIBEAEBVPxMat33@2@@Z 000000018007fc00 f   GuContactPolygonPolygon.obj
 0001:0007fd40       ??$sort@USortKey@@U?$Less@USortKey@@@shdfnd@physx@@VNullAllocator@?A0x54a6cc4f@@@shdfnd@physx@@YAXPEAUSortKey@@IAEBU?$Less@USortKey@@@01@AEBVNullAllocator@?A0x54a6cc4f@@I@Z 0000000180080d40 f   GuContactSphereMesh.obj
 0001:00080120       ??_GSphereHeightfieldContactGenerationCallback@?A0x54a6cc4f@@UEAAPEAXI@Z 0000000180081120 f   GuContactSphereMesh.obj
 0001:00080150       ??_GSphereMeshContactGenerationCallback_NoScale@?A0x54a6cc4f@@UEAAPEAXI@Z 0000000180081150 f   GuContactSphereMesh.obj
 0001:000801a0       ??_GSphereMeshContactGenerationCallback_Scale@?A0x54a6cc4f@@UEAAPEAXI@Z 00000001800811a0 f   GuContactSphereMesh.obj
 0001:000801f0       ?closestPtPointTriangle@@YA?AVPxVec3@physx@@AEBV12@000AEAM1AEAW4FeatureCode@Gu@2@@Z 00000001800811f0 f   GuContactSphereMesh.obj
 0001:00081170       $LN265                     0000000180082170     GuContactSphereMesh.obj
 0001:00082378       $LN531                     0000000180083378     GuContactSphereMesh.obj
 0001:00082390       $LN530                     0000000180083390     GuContactSphereMesh.obj
 0001:000823b0       ?generateLastContacts@SphereMeshContactGeneration@?A0x54a6cc4f@@QEAAXXZ 00000001800833b0 f   GuContactSphereMesh.obj
 0001:00082b88       $LN208                     0000000180083b88     GuContactSphereMesh.obj
 0001:00082ba0       ?onEvent@SphereHeightfieldContactGenerationCallback@?A0x54a6cc4f@@UEAA_NIPEAI@Z 0000000180083ba0 f   GuContactSphereMesh.obj
 0001:00082c60       ?outputErrorMessage@@YAXXZ 0000000180083c60 f   GuContactSphereMesh.obj
 0001:00082ca0       ?processHit@SphereMeshContactGenerationCallback_NoScale@?A0x54a6cc4f@@UEAA_NAEBUPxRaycastHit@physx@@AEBVPxVec3@4@11AEAMPEBI@Z 0000000180083ca0 f   GuContactSphereMesh.obj
 0001:00082cd0       ?processHit@SphereMeshContactGenerationCallback_Scale@?A0x54a6cc4f@@UEAA_NAEBUPxRaycastHit@physx@@AEBVPxVec3@4@11AEAMPEBI@Z 0000000180083cd0 f   GuContactSphereMesh.obj
 0001:00082f60       ?processTriangle@SphereMeshContactGeneration@?A0x54a6cc4f@@QEAAXIAEBVPxVec3@physx@@00PEBI@Z 0000000180083f60 f   GuContactSphereMesh.obj
 0001:00084960       ?convexHullLoad@@YA_NAEAUConvexHullData@Gu@physx@@AEAVPxInputStream@3@AEAV?$PxBitAndDataT@I$0IAAAAAAA@@3@@Z 0000000180085960 f   GuConvexMesh.obj
 0001:00087170       ?HullProjectionCB_BigConvex@@YAXAEBUPolygonalData@Gu@physx@@AEBVPxVec3@3@AEBVMatrix34@Cm@3@AEBVFastVertex2ShapeScaling@63@AEAM4@Z 0000000180088170 f   GuShapeConvex.obj
 0001:00087510       ?HullProjectionCB_Box@@YAXAEBUPolygonalData@Gu@physx@@AEBVPxVec3@3@AEBVMatrix34@Cm@3@AEBVFastVertex2ShapeScaling@63@AEAM4@Z 0000000180088510 f   GuShapeConvex.obj
 0001:00087650       ?HullProjectionCB_SmallConvex@@YAXAEBUPolygonalData@Gu@physx@@AEBVPxVec3@3@AEBVMatrix34@Cm@3@AEBVFastVertex2ShapeScaling@63@AEAM4@Z 0000000180088650 f   GuShapeConvex.obj
 0001:00087810       ?SelectClosestEdgeCB_Box@@YAIAEBUPolygonalData@Gu@physx@@AEBVFastVertex2ShapeScaling@Cm@3@AEBVPxVec3@3@@Z 0000000180088810 f   GuShapeConvex.obj
 0001:00087de0       ?SelectClosestEdgeCB_Convex@@YAIAEBUPolygonalData@Gu@physx@@AEBVFastVertex2ShapeScaling@Cm@3@AEBVPxVec3@3@@Z 0000000180088de0 f   GuShapeConvex.obj
 0001:000890a0       ?case0@@YAXIIIAEAVPxVec3@physx@@AEBV12@1PEAMAEAM@Z 000000018008a0a0 f   GuDistanceSegmentBox.obj
 0001:00089320       ?distanceLineBoxSquared@@YAMAEBVPxVec3@physx@@000AEBVPxMat33@2@PEAMPEAV12@@Z 000000018008a320 f   GuDistanceSegmentBox.obj
 0001:00089b10       ?face@@YAXIIIAEAVPxVec3@physx@@AEBV12@11PEAMAEAM@Z 000000018008ab10 f   GuDistanceSegmentBox.obj
 0001:0008dbd0       ?calculateContactInformation@Gu@physx@@YAXPEIBT__m128@@0PEAVFacet@12@AEBUGjkConvex@12@2_NAEAUGjkOutput@12@@Z 000000018008ebd0 f   GuEPA.obj
 0001:0008f140       ?getClosestPtPointTriangle@Gu@physx@@YA?AT__m128@@PEIAT3@AEBT3@PEAIAEAI@Z 0000000180090140 f   GuGJKSimplex.obj
 0001:000989e0       ?intersectHeightFieldBox@@YA_NAEBVHeightFieldTraceUtil@Gu@physx@@AEBVBox@23@@Z 00000001800999e0 f   GuOverlapTestsHF.obj
 0001:000994d0       ?intersectHeightFieldCapsule@@YA_NAEBVHeightFieldUtil@Gu@physx@@AEBVPxCapsuleGeometry@3@AEBVPxTransform@3@@Z 000000018009a4d0 f   GuOverlapTestsHF.obj
 0001:00099bf0       ?intersectHeightFieldConvex@@YA_NAEBVHeightFieldTraceUtil@Gu@physx@@AEBVPxTransform@3@AEBVConvexMesh@23@1AEBVPxMeshScale@3@@Z 000000018009abf0 f   GuOverlapTestsHF.obj
 0001:0009b110       ?intersectHeightFieldSphere@@YA_NAEBVHeightFieldUtil@Gu@physx@@AEBVSphere@23@@Z 000000018009c110 f   GuOverlapTestsHF.obj
 0001:0009b4c0       ?multiplyInverseRTLeft@@YA?AVMatrix34@Cm@physx@@AEBV123@0@Z 000000018009c4c0 f   GuOverlapTestsHF.obj
 0001:000a5940       ?BuildBV4FromRoot@@YA_NAEAVBV4Tree@Gu@physx@@PEAUBV4Node@@AEAUBV4BuildParams@@_NM@Z 00000001800a6940 f   GuBV4Build.obj
 0001:000a5e80       ?_BuildBV4@@YAXAEBVAABBTree@Gu@physx@@PEAUBV4Node@@PEBVAABBTreeNode@23@AEAUBV4BuildParams@@@Z 00000001800a6e80 f   GuBV4Build.obj
 0001:000a61c0       ?_Check@Local@?5??BuildBV32Internal@@YA_NAEAVBV32Tree@Gu@physx@@AEBVAABBTree@45@PEAVSourceMesh@45@M@Z@SAXPEAVAABBTreeNode@45@@Z 00000001800a71c0 f   GuBV32Build.obj
 0001:000a61c0       ?_Check@Local@?4??BuildBV4Internal@@YA_NAEAVBV4Tree@Gu@physx@@AEBVAABBTree@45@PEAVSourceMesh@45@M_N@Z@SAXPEAVAABBTreeNode@45@@Z 00000001800a71c0 f   GuBV4Build.obj
 0001:000a6340       ?_CheckMD@Local@?5??BuildBV32Internal@@YA_NAEAVBV32Tree@Gu@physx@@AEBVAABBTree@45@PEAVSourceMesh@45@M@Z@SAXPEBVAABBTreeNode@45@AEAI4@Z 00000001800a7340 f   GuBV32Build.obj
 0001:000a6340       ?_CheckMD@Local@?4??BuildBV4Internal@@YA_NAEAVBV4Tree@Gu@physx@@AEBVAABBTree@45@PEAVSourceMesh@45@M_N@Z@SAXPEBVAABBTreeNode@45@AEAI5@Z 00000001800a7340 f   GuBV4Build.obj
 0001:000a63b0       ?_ComputeMaxValues@@YAXPEBUBV4Node@@AEAVPxVec3@physx@@1@Z 00000001800a73b0 f   GuBV4Build.obj
 0001:000a64f0       ?_FlattenQ@@YAXQEAU?$BVDataPackedT@VQuantizedAABB@Gu@physx@@@Gu@physx@@IAEAIPEBUBV4Node@@11AEBVPxVec3@3@333@Z 00000001800a74f0 f   GuBV4Build.obj
 0001:000a69f0       ?_Walk@Local@?1??walk@AABBTree@Gu@physx@@QEBAIP6A_NPEBVAABBTreeNode@45@IPEAX@Z1@Z@SAX0AEAI321@Z 00000001800a79f0 f   GuBV4Build.obj
 0001:000a7000       ?gReorderCallback@@YA_NPEBVAABBTreeNode@Gu@physx@@IPEAX@Z 00000001800a8000 f   GuBV4Build.obj
 0001:000a7050       ?local_BuildHierarchy@@YAXPEIAVAABBTreeNode@Gu@physx@@PEIBVPxBounds3@3@PEIBVPxVec3@3@AEAUBuildStats@23@QEIBV123@I@Z 00000001800a8050 f   GuBV4Build.obj
 0001:000a7110       ?local_Split@@YAIPEIBVAABBTreeNode@Gu@physx@@PEIBVPxBounds3@3@PEIBVPxVec3@3@I@Z 00000001800a8110 f   GuBV4Build.obj
 0001:000a7270       ?local_Subdivide@@YA_NPEIAVAABBTreeNode@Gu@physx@@PEIBVPxBounds3@3@PEIBVPxVec3@3@AEAUBuildStats@23@QEIBV123@I@Z 00000001800a8270 f   GuBV4Build.obj
 0001:000a7580       ?precomputeNodeSorting@@YAIAEBVPxBounds3@physx@@0@Z 00000001800a8580 f   GuBV4Build.obj
 0001:000a78b0       ?setNode@@YAPEAUBV4Node@@AEBVAABBTree@Gu@physx@@PEAU1@IPEBVAABBTreeNode@34@AEAUBV4BuildParams@@@Z 00000001800a88b0 f   GuBV4Build.obj
 0001:000a79f0       ?setPrimitive@@YAXAEBVAABBTree@Gu@physx@@PEAUBV4Node@@IPEBVAABBTreeNode@23@M@Z 00000001800a89f0 f   GuBV4Build.obj
 0001:000a7bd0       ??$BV4_ProcessStreamKajiyaNoOrderQ@$00VLeafFunction_BoxSweepAny@?A0x788c2204@@UBoxSweepParams@2@@@YAHPEIBU?$BVDataPackedT@VQuantizedAABB@Gu@physx@@@Gu@physx@@IPEIAUBoxSweepParams@?A0x788c2204@@@Z 00000001800a8bd0 f   GuBV4_AABBSweep.obj
 0001:000a8060       ??$BV4_ProcessStreamKajiyaNoOrderQ@$00VLeafFunction_BoxSweepAnyCB@?A0x788c2204@@UGenericSweepParamsCB@2@@@YAHPEIBU?$BVDataPackedT@VQuantizedAABB@Gu@physx@@@Gu@physx@@IPEIAUGenericSweepParamsCB@?A0x788c2204@@@Z 00000001800a9060 f   GuBV4_AABBSweep.obj
 0001:000a8710       ??$BV4_ProcessStreamKajiyaOrderedQ@$00VLeafFunction_BoxSweepClosest@?A0x788c2204@@UBoxSweepParams@2@@@YAXPEIBU?$BVDataPackedT@VQuantizedAABB@Gu@physx@@@Gu@physx@@IPEIAUBoxSweepParams@?A0x788c2204@@@Z 00000001800a9710 f   GuBV4_AABBSweep.obj
 0001:000a8ea0       ??$BV4_ProcessStreamKajiyaOrderedQ@$00VLeafFunction_BoxSweepClosestCB@?A0x788c2204@@UGenericSweepParamsCB@2@@@YAXPEIBU?$BVDataPackedT@VQuantizedAABB@Gu@physx@@@Gu@physx@@IPEIAUGenericSweepParamsCB@?A0x788c2204@@@Z 00000001800a9ea0 f   GuBV4_AABBSweep.obj
 0001:000a9ad0       ??$doBruteForceTests@VLeafFunction_BoxSweepAnyCB@?A0x788c2204@@VLeafFunction_BoxSweepClosestCB@2@UGenericSweepParamsCB@2@@Gu@physx@@YAXIPEIAUGenericSweepParamsCB@?A0x788c2204@@@Z 00000001800aaad0 f   GuBV4_AABBSweep.obj
 0001:000aa370       ?prepareSweepData@@YAXAEBVBox@Gu@physx@@AEBVPxVec3@3@MPEIAUBoxSweepParams@?A0x788c2204@@@Z 00000001800ab370 f   GuBV4_AABBSweep.obj
 0001:000aa370       ?prepareSweepData@@YAXAEBVBox@Gu@physx@@AEBVPxVec3@3@MPEIAUBoxSweepParams@?A0xf567e8b1@@@Z 00000001800ab370 f   GuBV4_CapsuleSweepAA.obj
 0001:000aaa70       ?triBoxSweep@@YA_NPEIAUBoxSweepParams@?A0x788c2204@@I_N@Z 00000001800aba70 f   GuBV4_AABBSweep.obj
 0001:000ab6c0       ??$BV4_ProcessStreamSwizzledNoOrderQ@VLeafFunction_BoxOverlapAll@?A0x723b9c56@@UOBBParamsAll@@@@YAHPEIBU?$BVDataPackedT@VQuantizedAABB@Gu@physx@@@Gu@physx@@IPEIAUOBBParamsAll@@@Z 00000001800ac6c0 f   GuBV4_BoxOverlap.obj
 0001:000abf60       ??$BV4_ProcessStreamSwizzledNoOrderQ@VLeafFunction_BoxOverlapAny@?A0x723b9c56@@UOBBParams@@@@YAHPEIBU?$BVDataPackedT@VQuantizedAABB@Gu@physx@@@Gu@physx@@IPEIAUOBBParams@@@Z 00000001800acf60 f   GuBV4_BoxOverlap.obj
 0001:000ac780       ??$BV4_ProcessStreamSwizzledNoOrderQ@VLeafFunction_BoxOverlapCB@?A0x723b9c56@@UOBBParamsCB@@@@YAHPEIBU?$BVDataPackedT@VQuantizedAABB@Gu@physx@@@Gu@physx@@IPEIAUOBBParamsCB@@@Z 00000001800ad780 f   GuBV4_BoxOverlap.obj
 0001:000ad1f0       ??$BV4_ProcessStreamSwizzledNoOrderQ@VLeafFunction_CapsuleOverlapAll@?A0x723b9c56@@UCapsuleParamsAll@@@@YAHPEIBU?$BVDataPackedT@VQuantizedAABB@Gu@physx@@@Gu@physx@@IPEIAUCapsuleParamsAll@@@Z 00000001800ae1f0 f   GuBV4_BoxOverlap.obj
 0001:000ada00       ??$BV4_ProcessStreamSwizzledNoOrderQ@VLeafFunction_CapsuleOverlapAny@?A0x723b9c56@@UCapsuleParamsAny@@@@YAHPEIBU?$BVDataPackedT@VQuantizedAABB@Gu@physx@@@Gu@physx@@IPEIAUCapsuleParamsAny@@@Z 00000001800aea00 f   GuBV4_BoxOverlap.obj
 0001:000b03d0       ?CapsuleVsTriangle_SAT@@YA_NAEBVPxVec3@physx@@00PEIBUCapsuleParamsAny@@@Z 00000001800b13d0 f   GuBV4_BoxOverlap.obj
 0001:000b1020       ??$BV4_ProcessStreamSwizzledNoOrderQ@VLeafFunction_CapsuleSweepAny@?A0xd6379ba5@@UCapsuleSweepParams@2@@@YAHPEIBU?$BVDataPackedT@VQuantizedAABB@Gu@physx@@@Gu@physx@@IPEIAUCapsuleSweepParams@?A0xd6379ba5@@@Z 00000001800b2020 f   GuBV4_CapsuleSweep.obj
 0001:000b15d0       ??$BV4_ProcessStreamSwizzledOrderedQ@VLeafFunction_CapsuleSweepClosest@?A0xd6379ba5@@UCapsuleSweepParams@2@@@YAXPEIBU?$BVDataPackedT@VQuantizedAABB@Gu@physx@@@Gu@physx@@IPEIAUCapsuleSweepParams@?A0xd6379ba5@@@Z 00000001800b25d0 f   GuBV4_CapsuleSweep.obj
 0001:000b24b0       ?computeBoxAroundCapsule@@YAXAEBVCapsule@Gu@physx@@AEAVBox@23@AEAVPxVec3@3@@Z 00000001800b34b0 f   GuBV4_CapsuleSweep.obj
 0001:000b24b0       ?computeBoxAroundCapsule@@YAXAEBVCapsule@Gu@physx@@AEAVBox@23@AEAVPxVec3@3@@Z 00000001800b34b0 f   GuBV4_CapsuleSweepAA.obj
 0001:000b2640       ?prepareSweepData@@YAXAEBVBox@Gu@physx@@AEBVPxVec3@3@MPEIAUBoxSweepParams@?A0xd6379ba5@@@Z 00000001800b3640 f   GuBV4_CapsuleSweep.obj
 0001:000b2640       ?prepareSweepData@@YAXAEBVBox@Gu@physx@@AEBVPxVec3@3@MPEIAUBoxSweepParams@?A0x5eaefbf3@@@Z 00000001800b3640 f   GuBV4_OBBSweep.obj
 0001:000b30a0       ?testQuad@@YAXPEIBUCapsuleSweepParams@?A0xd6379ba5@@AEBVPxVec3@physx@@11111MMAEAMAEA_N@Z 00000001800b40a0 f   GuBV4_CapsuleSweep.obj
 0001:000b3560       ?testTri@@YA_NPEIBUCapsuleSweepParams@?A0xd6379ba5@@AEBVPxVec3@physx@@1111MMAEAMAEA_N@Z 00000001800b4560 f   GuBV4_CapsuleSweep.obj
 0001:000b39b0       ?triCapsuleSweep@@YA_NPEIAUCapsuleSweepParams@?A0xd6379ba5@@I_N@Z 00000001800b49b0 f   GuBV4_CapsuleSweep.obj
 0001:000b4720       ??$BV4_ProcessStreamKajiyaNoOrderQ@$00VLeafFunction_CapsuleSweepAny@?A0xf567e8b1@@UCapsuleSweepParams@2@@@YAHPEIBU?$BVDataPackedT@VQuantizedAABB@Gu@physx@@@Gu@physx@@IPEIAUCapsuleSweepParams@?A0xf567e8b1@@@Z 00000001800b5720 f   GuBV4_CapsuleSweepAA.obj
 0001:000b4ba0       ??$BV4_ProcessStreamKajiyaOrderedQ@$00VLeafFunction_CapsuleSweepClosest@?A0xf567e8b1@@UCapsuleSweepParams@2@@@YAXPEIBU?$BVDataPackedT@VQuantizedAABB@Gu@physx@@@Gu@physx@@IPEIAUCapsuleSweepParams@?A0xf567e8b1@@@Z 00000001800b5ba0 f   GuBV4_CapsuleSweepAA.obj
 0001:000b5a00       ?testQuad@@YAXPEIBUCapsuleSweepParams@?A0xf567e8b1@@AEBVPxVec3@physx@@11111MMAEAMAEA_N@Z 00000001800b6a00 f   GuBV4_CapsuleSweepAA.obj
 0001:000b5ec0       ?testTri@@YA_NPEIBUCapsuleSweepParams@?A0xf567e8b1@@AEBVPxVec3@physx@@1111MMAEAMAEA_N@Z 00000001800b6ec0 f   GuBV4_CapsuleSweepAA.obj
 0001:000b6310       ?triCapsuleSweep@@YA_NPEIAUCapsuleSweepParams@?A0xf567e8b1@@I_N@Z 00000001800b7310 f   GuBV4_CapsuleSweepAA.obj
 0001:000b6f00       ??$BV4_ProcessStreamSwizzledNoOrderQ@VLeafFunction_BoxSweepAny@?A0x5eaefbf3@@UBoxSweepParams@2@@@YAHPEIBU?$BVDataPackedT@VQuantizedAABB@Gu@physx@@@Gu@physx@@IPEIAUBoxSweepParams@?A0x5eaefbf3@@@Z 00000001800b7f00 f   GuBV4_OBBSweep.obj
 0001:000b74b0       ??$BV4_ProcessStreamSwizzledNoOrderQ@VLeafFunction_BoxSweepAnyCB@?A0x5eaefbf3@@UGenericSweepParamsCB@2@@@YAHPEIBU?$BVDataPackedT@VQuantizedAABB@Gu@physx@@@Gu@physx@@IPEIAUGenericSweepParamsCB@?A0x5eaefbf3@@@Z 00000001800b84b0 f   GuBV4_OBBSweep.obj
 0001:000b7cd0       ??$BV4_ProcessStreamSwizzledOrderedQ@VLeafFunction_BoxSweepClosest@?A0x5eaefbf3@@UBoxSweepParams@2@@@YAXPEIBU?$BVDataPackedT@VQuantizedAABB@Gu@physx@@@Gu@physx@@IPEIAUBoxSweepParams@?A0x5eaefbf3@@@Z 00000001800b8cd0 f   GuBV4_OBBSweep.obj
 0001:000b8570       ??$BV4_ProcessStreamSwizzledOrderedQ@VLeafFunction_BoxSweepClosestCB@?A0x5eaefbf3@@UGenericSweepParamsCB@2@@@YAXPEIBU?$BVDataPackedT@VQuantizedAABB@Gu@physx@@@Gu@physx@@IPEIAUGenericSweepParamsCB@?A0x5eaefbf3@@@Z 00000001800b9570 f   GuBV4_OBBSweep.obj
 0001:000b98c0       ??$doBruteForceTests@VLeafFunction_BoxSweepAnyCB@?A0x5eaefbf3@@VLeafFunction_BoxSweepClosestCB@2@UGenericSweepParamsCB@2@@Gu@physx@@YAXIPEIAUGenericSweepParamsCB@?A0x5eaefbf3@@@Z 00000001800ba8c0 f   GuBV4_OBBSweep.obj
 0001:000baaf0       ?triBoxSweep@@YA_NPEIAUBoxSweepParams@?A0x5eaefbf3@@I_N@Z 00000001800bbaf0 f   GuBV4_OBBSweep.obj
 0001:000bb8c0       ??$BV4_ProcessStreamKajiyaNoOrderQ@$0A@VLeafFunction_RaycastAny@?A0xdeb1923c@@URayParams@@@@YAHPEIBU?$BVDataPackedT@VQuantizedAABB@Gu@physx@@@Gu@physx@@IPEIAURayParams@@@Z 00000001800bc8c0 f   GuBV4_Raycast.obj
 0001:000bbc60       ??$BV4_ProcessStreamKajiyaNoOrderQ@$0A@VLeafFunction_RaycastCB@?A0xdeb1923c@@URayParamsCB@2@@@YAHPEIBU?$BVDataPackedT@VQuantizedAABB@Gu@physx@@@Gu@physx@@IPEIAURayParamsCB@?A0xdeb1923c@@@Z 00000001800bcc60 f   GuBV4_Raycast.obj
 0001:000bc000       ??$BV4_ProcessStreamKajiyaOrderedQ@$0A@VLeafFunction_RaycastClosest@?A0xdeb1923c@@URayParams@@@@YAXPEIBU?$BVDataPackedT@VQuantizedAABB@Gu@physx@@@Gu@physx@@IPEIAURayParams@@@Z 00000001800bd000 f   GuBV4_Raycast.obj
 0001:000bcf60       ?doLeafTest@LeafFunction_RaycastAny@?A0xdeb1923c@@SAHPEIAURayParams@@I@Z 00000001800bdf60 f   GuBV4_Raycast.obj
 0001:000bd440       ?doLeafTest@LeafFunction_RaycastCB@?A0xdeb1923c@@SAHPEIAURayParamsCB@2@I@Z 00000001800be440 f   GuBV4_Raycast.obj
 0001:000bd8d0       ?doLeafTest@LeafFunction_RaycastClosest@?A0xdeb1923c@@SAHPEIAURayParams@@I@Z 00000001800be8d0 f   GuBV4_Raycast.obj
 0001:000bdd80       ??$BV4_ProcessStreamSwizzledNoOrderQ@VLeafFunction_SphereOverlapAll@?A0x5cc2e679@@USphereParamsAll@@@@YAHPEIBU?$BVDataPackedT@VQuantizedAABB@Gu@physx@@@Gu@physx@@IPEIAUSphereParamsAll@@@Z 00000001800bed80 f   GuBV4_SphereOverlap.obj
 0001:000be290       ??$BV4_ProcessStreamSwizzledNoOrderQ@VLeafFunction_SphereOverlapAny@?A0x5cc2e679@@USphereParams@@@@YAHPEIBU?$BVDataPackedT@VQuantizedAABB@Gu@physx@@@Gu@physx@@IPEIAUSphereParams@@@Z 00000001800bf290 f   GuBV4_SphereOverlap.obj
 0001:000bed30       ?__SphereTriangle@@YAHPEIBUSphereParams@@I@Z 00000001800bfd30 f   GuBV4_SphereOverlap.obj
 0001:000bf270       ??$BV4_ProcessStreamKajiyaNoOrderQ@$00VLeafFunction_SphereSweepAny@?A0x0ebb234c@@USphereSweepParams@2@@@YAHPEIBU?$BVDataPackedT@VQuantizedAABB@Gu@physx@@@Gu@physx@@IPEIAUSphereSweepParams@?A0x0ebb234c@@@Z 00000001800c0270 f   GuBV4_SphereSweep.obj
 0001:000bf6f0       ??$BV4_ProcessStreamKajiyaOrderedQ@$00VExLeafTestSweepCB@?A0x0ebb234c@@UBoxSweepParamsCB@2@@@YAXPEIBU?$BVDataPackedT@VQuantizedAABB@Gu@physx@@@Gu@physx@@IPEIAUBoxSweepParamsCB@?A0x0ebb234c@@@Z 00000001800c06f0 f   GuBV4_SphereSweep.obj
 0001:000c0100       ??$BV4_ProcessStreamKajiyaOrderedQ@$00VLeafFunction_SphereSweepClosest@?A0x0ebb234c@@USphereSweepParams@2@@@YAXPEIBU?$BVDataPackedT@VQuantizedAABB@Gu@physx@@@Gu@physx@@IPEIAUSphereSweepParams@?A0x0ebb234c@@@Z 00000001800c1100 f   GuBV4_SphereSweep.obj
 0001:000c1360       ?triSphereSweep@@YA_NPEIAUSphereSweepParams@?A0x0ebb234c@@I_N@Z 00000001800c2360 f   GuBV4_SphereSweep.obj
 0001:000c1730       ?boxSweepVsMesh@@YAHAEAVSweepHit@Gu@physx@@AEBVBV4Tree@23@PEBM2AEBVBox@23@AEBVPxVec3@3@M_N55@Z 00000001800c2730 f   GuMidphaseBV4.obj
 0001:000c19c0       ?capsuleSweepVsMesh@@YA_NAEAVSweepHit@Gu@physx@@AEBVBV4Tree@23@AEBVCapsule@23@AEBVPxVec3@3@MPEBVPxMat44@3@I@Z 00000001800c29c0 f   GuMidphaseBV4.obj
 0001:000c22c0       ?gBoxMeshSweepCallback@@YA_NPEAXAEBVPxVec3@physx@@11IAEAM@Z 00000001800c32c0 f   GuMidphaseBV4.obj
 0001:000c2340       ?gBoxVsMeshCallback@@YA_NPEAXAEBVPxVec3@physx@@11IPEBI@Z 00000001800c3340 f   GuMidphaseBV4.obj
 0001:000c2620       ?gCapsuleMeshSweepCallback@@YA_NPEAXAEBVPxVec3@physx@@11IAEAM@Z 00000001800c3620 f   GuMidphaseBV4.obj
 0001:000c26a0       ?gCapsuleVsMeshCallback@@YA_NPEAXAEBVPxVec3@physx@@11IPEBI@Z 00000001800c36a0 f   GuMidphaseBV4.obj
 0001:000c2a10       ?gConvexVsMeshSweepCallback@@YA_NPEAXAEBVPxVec3@physx@@11IAEAM@Z 00000001800c3a10 f   GuMidphaseBV4.obj
 0001:000c2a60       ?gRayCallback@@YA?AW4HitCode@Gu@physx@@PEAXAEBVPxVec3@3@11IMMM@Z 00000001800c3a60 f   GuMidphaseBV4.obj
 0001:000c30a0       ?gSphereVsMeshCallback@@YA_NPEAXAEBVPxVec3@physx@@11IPEBI@Z 00000001800c40a0 f   GuMidphaseBV4.obj
 0001:000c3380       ?gVolumeCallback@@YA_NPEAXAEBVPxVec3@physx@@11IPEBI@Z 00000001800c4380 f   GuMidphaseBV4.obj
 0001:000c8758       $LN278                     00000001800c9758     GuMeshQuery.obj
 0001:000c8a90       $LN115                     00000001800c9a90     GuMeshQuery.obj
 0001:000c8f70       ?onEvent@HfTrianglesEntityReport2@?A0x53027822@@UEAA_NIPEAI@Z 00000001800c9f70 f   GuMeshQuery.obj
 0001:000c945c       $LN130                     00000001800ca45c     GuMeshQuery.obj
 0001:000c9dd0       ??$intersectAnyVsMesh@$0A@@@YA_NPEBVSphere@Gu@physx@@PEBVCapsule@12@PEBVBox@12@AEBVTriangleMesh@12@AEBVPxTransform@2@AEBVPxMeshScale@2@PEAULimitedResults@12@@Z 00000001800cadd0 f   GuMidphaseRTree.obj
 0001:000ca080       ??$intersectAnyVsMeshT@$00$00@@YA_NPEBVSphere@Gu@physx@@PEBVCapsule@12@PEBVBox@12@AEBVTriangleMesh@12@AEBVPxTransform@2@AEBVPxMeshScale@2@PEAULimitedResults@12@@Z 00000001800cb080 f   GuMidphaseRTree.obj
 0001:000ca440       ??$intersectAnyVsMeshT@$00$0A@@@YA_NPEBVSphere@Gu@physx@@PEBVCapsule@12@PEBVBox@12@AEBVTriangleMesh@12@AEBVPxTransform@2@AEBVPxMeshScale@2@PEAULimitedResults@12@@Z 00000001800cb440 f   GuMidphaseRTree.obj
 0001:000caae0       ??$intersectAnyVsMeshT@$01$00@@YA_NPEBVSphere@Gu@physx@@PEBVCapsule@12@PEBVBox@12@AEBVTriangleMesh@12@AEBVPxTransform@2@AEBVPxMeshScale@2@PEAULimitedResults@12@@Z 00000001800cbae0 f   GuMidphaseRTree.obj
 0001:000caf10       ??$intersectAnyVsMeshT@$01$0A@@@YA_NPEBVSphere@Gu@physx@@PEBVCapsule@12@PEBVBox@12@AEBVTriangleMesh@12@AEBVPxTransform@2@AEBVPxMeshScale@2@PEAULimitedResults@12@@Z 00000001800cbf10 f   GuMidphaseRTree.obj
 0001:000cb850       ??$intersectAnyVsMeshT@$0A@$0A@@@YA_NPEBVSphere@Gu@physx@@PEBVCapsule@12@PEBVBox@12@AEBVTriangleMesh@12@AEBVPxTransform@2@AEBVPxMeshScale@2@PEAULimitedResults@12@@Z 00000001800cc850 f   GuMidphaseRTree.obj
 0001:000cc110       ??_G?$IntersectBoxVsMeshCallback@$00@?A0xa8ceae12@@UEAAPEAXI@Z 00000001800cd110 f   GuMidphaseRTree.obj
 0001:000cc110       ??_G?$IntersectBoxVsMeshCallback@$0A@@?A0xa8ceae12@@UEAAPEAXI@Z 00000001800cd110 f   GuMidphaseRTree.obj
 0001:000cc140       ??_G?$IntersectSphereVsMeshCallback@$00@?A0xa8ceae12@@UEAAPEAXI@Z 00000001800cd140 f   GuMidphaseRTree.obj
 0001:000cc140       ??_G?$IntersectSphereVsMeshCallback@$0A@@?A0xa8ceae12@@UEAAPEAXI@Z 00000001800cd140 f   GuMidphaseRTree.obj
 0001:000cc590       ?computeSweptAABBAroundOBB@@YAXAEBVBox@Gu@physx@@AEAVPxVec3@3@11AEAM@Z 00000001800cd590 f   GuMidphaseRTree.obj
 0001:000cc8e0       ?processHit@?$IntersectBoxVsMeshCallback@$00@?A0xa8ceae12@@UEAA_NAEBUPxRaycastHit@physx@@AEBVPxVec3@4@11AEAMPEBI@Z 00000001800cd8e0 f   GuMidphaseRTree.obj
 0001:000ccba0       ?processHit@?$IntersectBoxVsMeshCallback@$0A@@?A0xa8ceae12@@UEAA_NAEBUPxRaycastHit@physx@@AEBVPxVec3@4@11AEAMPEBI@Z 00000001800cdba0 f   GuMidphaseRTree.obj
 0001:000ccea0       ?processHit@?$IntersectCapsuleVsMeshCallback@$00@?A0xa8ceae12@@UEAA_NAEBUPxRaycastHit@physx@@AEBVPxVec3@4@11AEAMPEBI@Z 00000001800cdea0 f   GuMidphaseRTree.obj
 0001:000ccfc0       ?processHit@?$IntersectCapsuleVsMeshCallback@$0A@@?A0xa8ceae12@@UEAA_NAEBUPxRaycastHit@physx@@AEBVPxVec3@4@11AEAMPEBI@Z 00000001800cdfc0 f   GuMidphaseRTree.obj
 0001:000cd350       ?processHit@?$IntersectSphereVsMeshCallback@$00@?A0xa8ceae12@@UEAA_NAEBUPxRaycastHit@physx@@AEBVPxVec3@4@11AEAMPEBI@Z 00000001800ce350 f   GuMidphaseRTree.obj
 0001:000cd470       ?processHit@?$IntersectSphereVsMeshCallback@$0A@@?A0xa8ceae12@@UEAA_NAEBUPxRaycastHit@physx@@AEBVPxVec3@4@11AEAMPEBI@Z 00000001800ce470 f   GuMidphaseRTree.obj
 0001:000d97d0       ?sweepSphereTriangle@@YA_NAEBVPxTriangle@physx@@AEBVPxVec3@2@M1MAEAUPxSweepHit@2@AEAV32@V?$PxFlags@W4Enum@PxHitFlag@physx@@G@2@_N@Z 00000001800da7d0 f   GuSweepsMesh.obj
 0001:000dc0e0       ?BuildBV32Internal@@YA_NAEAVBV32Tree@Gu@physx@@AEBVAABBTree@23@PEAVSourceMesh@23@M@Z 00000001800dd0e0 f   GuBV32Build.obj
 0001:000dc590       ?_BuildBV32@@YAXAEBVAABBTree@Gu@physx@@PEAUBV32Node@@PEBVAABBTreeNode@23@MAEAI@Z 00000001800dd590 f   GuBV32Build.obj
 0001:000dc730       ?_Flatten@Local@?8??BuildBV32Internal@@YA_NAEAVBV32Tree@Gu@physx@@AEBVAABBTree@45@PEAVSourceMesh@45@M@Z@SAXQEAUBV32Data@45@IAEAIPEBUBV32Node@@44I@Z 00000001800dd730 f   GuBV32Build.obj
 0001:000dc950       ?fillInNodes@@YAXPEBVAABBTreeNode@Gu@physx@@IIPEAPEBV123@AEAI@Z 00000001800dd950 f   GuBV32Build.obj
 0001:000dca10       ?gReorderCallback@@YA_NPEBVAABBTreeNode@Gu@physx@@IPEAX@Z 00000001800dda10 f   GuBV32Build.obj
 0001:000dca60       ?setNode@@YAPEAUBV32Node@@AEBVAABBTree@Gu@physx@@PEAU1@IPEBVAABBTreeNode@34@M@Z 00000001800dda60 f   GuBV32Build.obj
 0001:000dccc0       ?calculateContacts@Gu@physx@@YAXAEBT__m128@@0PEAT3@00PEAVPersistentContact@12@AEAI0@Z 00000001800ddcc0 f   GuPCMContactBoxBox.obj
 0001:000dd9e0       ?doBoxBoxGenerateContacts@Gu@physx@@YAIAEBT__m128@@0AEBVPsMatTransformV@aos@shdfnd@2@10PEAVPersistentContact@12@AEAI@Z 00000001800de9e0 f   GuPCMContactBoxBox.obj
 0001:000df4ac       $LN1734                    00000001800e04ac     GuPCMContactBoxBox.obj
 0001:000df4d0       ?getIncidentPolygon@Gu@physx@@YAXPEAT__m128@@AEAT3@AEBT3@AEBVPsMatTransformV@aos@shdfnd@2@2@Z 00000001800e04d0 f   GuPCMContactBoxBox.obj
 0001:000e1ac0       ?fullContactsGenerationBoxConvex@Gu@physx@@YA_NPEBUGjkConvex@12@0AEBVPsTransformV@aos@shdfnd@2@1PEAVPersistentContact@12@AEAVContactBuffer@12@AEAVPersistentContactManifold@12@AEAT__m128@@AEBT__m128@@66_N7PEAVRenderOutput@Cm@2@M@Z 00000001800e2ac0 f   GuPCMContactBoxConvex.obj
 0001:000e1e20       ?generateOrProcessContactsBoxConvex@Gu@physx@@YA_NPEBUGjkConvex@12@0AEBVPsTransformV@aos@shdfnd@2@1AEBVPsMatTransformV@562@W4GjkStatus@12@AEAUGjkOutput@12@AEAVPersistentContactManifold@12@AEAVContactBuffer@12@IT__m128@@7_NMPEAVRenderOutput@Cm@2@@Z 00000001800e2e20 f   GuPCMContactBoxConvex.obj
 0001:000e5cb0       ?fullContactsGenerationCapsuleConvex@Gu@physx@@YA_NAEBVCapsuleV@12@AEBVConvexHullV@12@AEBVPsMatTransformV@aos@shdfnd@2@AEBVPsTransformV@672@3PEAVPersistentContact@12@AEAVContactBuffer@12@_NAEAVPersistentContactManifold@12@AEAT__m128@@AEBT__m128@@M96PEAVRenderOutput@Cm@2@M@Z 00000001800e6cb0 f   GuPCMContactCapsuleConvex.obj
 0001:000eca90       ?pcmDistancePointTriangleSquared@Gu@physx@@YA?AT__m128@@AEBT3@000EAEAT3@AEA_N2@Z 00000001800eda90 f   GuPCMContactConvexCommon.obj
 0001:000f37f0       ?convexHullHasScale0@Gu@physx@@YA_NAEBVConvexHullV@12@0AEBVPsTransformV@aos@shdfnd@2@1AEBVPsMatTransformV@562@AEAUGjkOutput@12@AEAVPersistentContactManifold@12@AEAVContactBuffer@12@IT__m128@@6_NMPEAVRenderOutput@Cm@2@@Z 00000001800f47f0 f   GuPCMContactConvexConvex.obj
 0001:000f39d0       ?convexHullNoScale0@Gu@physx@@YA_NAEBVConvexHullV@12@0AEBVPsTransformV@aos@shdfnd@2@1AEBVPsMatTransformV@562@AEAUGjkOutput@12@AEAVPersistentContactManifold@12@AEAVContactBuffer@12@IT__m128@@6_NMPEAVRenderOutput@Cm@2@@Z 00000001800f49d0 f   GuPCMContactConvexConvex.obj
 0001:000f3bb0       ?fullContactsGenerationConvexConvex@Gu@physx@@YA_NPEBUGjkConvex@12@0AEBVPsTransformV@aos@shdfnd@2@1_N2PEAVPersistentContact@12@AEAVContactBuffer@12@AEAVPersistentContactManifold@12@AEAT__m128@@AEBT__m128@@772PEAVRenderOutput@Cm@2@M@Z 00000001800f4bb0 f   GuPCMContactConvexConvex.obj
 0001:000f3ed0       ?generateOrProcessContactsConvexConvex@Gu@physx@@YA_NPEBUGjkConvex@12@0AEBVPsTransformV@aos@shdfnd@2@1AEBVPsMatTransformV@562@W4GjkStatus@12@AEAUGjkOutput@12@AEAVPersistentContactManifold@12@AEAVContactBuffer@12@IT__m128@@7_N8MPEAVRenderOutput@Cm@2@@Z 00000001800f4ed0 f   GuPCMContactConvexConvex.obj
 0001:000fbdd0       ?testEdgeNormal@Gu@physx@@YA_NAEBUPolygonalData@12@0PEAVSupportLocal@12@1AEBVPsMatTransformV@aos@shdfnd@2@2AEBT__m128@@AEAT8@4W4FeatureStatus@12@AEAW4912@@Z 00000001800fcdd0 f   GuPCMContactGenBoxConvex.obj
 0001:000fc330       ?testFaceNormal@Gu@physx@@YA_NAEBUPolygonalData@12@0PEAVSupportLocal@12@1AEBVPsMatTransformV@aos@shdfnd@2@2AEBT__m128@@AEAT8@AEAI4W4FeatureStatus@12@AEAW4912@@Z 00000001800fd330 f   GuPCMContactGenBoxConvex.obj
 0001:000fe890       ?generatedFaceContacts@Gu@physx@@YAXAEBVCapsuleV@12@AEAUPolygonalData@12@PEAVSupportLocal@12@AEBVPsMatTransformV@aos@shdfnd@2@PEAVPersistentContact@12@AEAIAEBT__m128@@6@Z 00000001800ff890 f   GuPCMContactGenSphereCapsule.obj
 0001:000fed30       ?testSATCapsulePoly@Gu@physx@@YA_NAEBVCapsuleV@12@AEBUPolygonalData@12@PEAVSupportLocal@12@AEBT__m128@@AEAT6@4@Z 00000001800ffd30 f   GuPCMContactGenSphereCapsule.obj
 0001:00101540       ?fullContactsGenerationSphereConvex@Gu@physx@@YA_NAEBVCapsuleV@12@AEBVConvexHullV@12@AEBVPsTransformV@aos@shdfnd@2@2PEAVPersistentContact@12@AEAVContactBuffer@12@_NAEAVPersistentContactManifold@12@AEAT__m128@@AEBT__m128@@_NPEAVRenderOutput@Cm@2@@Z 0000000180102540 f   GuPCMContactSphereConvex.obj
 0001:00105fd0       ?generatedPolyContacts@physx@@YAXAEBUPolygonalData@Gu@1@AEBUHullPolygonData@31@AEBVTriangleV@31@IEPEAVSupportLocal@31@PEAVMeshPersistentContact@31@AEAIAEBT__m128@@6PEAVRenderOutput@Cm@1@@Z 0000000180106fd0 f   GuPCMTriangleContactGen.obj
 0001:00106cb0       ?generatedTriangleContacts@physx@@YAXAEBVTriangleV@Gu@1@IEAEBUPolygonalData@31@AEBUHullPolygonData@31@PEAVSupportLocal@31@PEAVMeshPersistentContact@31@AEAIAEBT__m128@@6PEAVRenderOutput@Cm@1@@Z 0000000180107cb0 f   GuPCMTriangleContactGen.obj
 0001:00107a30       ?testPolyEdgeNormal@physx@@YA_NAEBVTriangleV@Gu@1@EAEBUPolygonalData@31@PEAV?$SupportLocalImpl@VTriangleV@Gu@physx@@@31@PEAVSupportLocal@31@AEBT__m128@@AEAT7@5W4FeatureStatus@31@AEAW4831@@Z 0000000180108a30 f   GuPCMTriangleContactGen.obj
 0001:00107f50       ?testPolyFaceNormal@physx@@YA_NAEBVTriangleV@Gu@1@AEBUPolygonalData@31@PEAV?$SupportLocalImpl@VTriangleV@Gu@physx@@@31@PEAVSupportLocal@31@AEBT__m128@@AEAT7@AEAI5W4FeatureStatus@31@AEAW4831@@Z 0000000180108f50 f   GuPCMTriangleContactGen.obj
 0001:001083f0       ?addBatchManifoldContactsToSingleManifold@@YA?AT__m128@@PEAVSinglePersistentContactManifold@Gu@physx@@PEAVMeshPersistentContact@34@IPEAUPCMContactPatch@34@AEBT1@E@Z 00000001801093f0 f   GuPersistentContactManifold.obj
 0001:00109680       ?distancePointTriangleSquaredLocal@Gu@physx@@YA?AT__m128@@AEBT3@000@Z 000000018010a680 f   GuPersistentContactManifold.obj
 0001:00109c30       ?drawManifoldPoint@@YAXAEBVPersistentContact@Gu@physx@@AEBVPsTransformV@aos@shdfnd@3@1AEAVRenderOutput@Cm@3@I@Z 000000018010ac30 f   GuPersistentContactManifold.obj
 0001:0010ed60       ?inflateTriangle@@YA?AVPxTriangle@physx@@AEBV12@M@Z 000000018010fd60 f   GuSweepBoxTriangle_FeatureBased.obj
 0001:00110f70       ?extrudeBox@@YAIAEBVPxBounds3@physx@@PEBVPxTransform@2@AEBVPxVec3@2@PEAVPxTriangle@2@2@Z 0000000180111f70 f   GuSweepCapsuleBox.obj
 0001:001114d0       ?extrudeMesh@@YAIIPEBVPxTriangle@physx@@AEBVPxVec3@2@PEAV12@PEAI1@Z 00000001801124d0 f   GuSweepCapsuleBox.obj
 0001:001123c0       ?edgeEdgeDist@@YAXAEAVPxVec3@physx@@0AEBV12@111@Z 00000001801133c0 f   GuSweepCapsuleCapsule.obj
 0001:0011a0b0       ?runBackupProcedure@@YA_NAEAVPxVec3@physx@@0AEBV12@1AEBVPxTriangle@2@@Z 000000018011b0b0 f   GuSweepTriangleUtils.obj
 0001:0011ab40       $$000000                   000000018011bb40     MSVCRT:chkstk.obj
 0001:0011aba0       $$000000                   000000018011bba0     MSVCRT:svml_ssinf4_dispatch.obj
 0001:0011ac18       ?dllmain_crt_dispatch@@YAHQEAUHINSTANCE__@@KQEAX@Z 000000018011bc18 f   MSVCRT:dll_dllmain.obj
 0001:0011ac68       ?dllmain_crt_process_attach@@YAHQEAUHINSTANCE__@@QEAX@Z 000000018011bc68 f   MSVCRT:dll_dllmain.obj
 0001:0011ad80       ?dllmain_crt_process_detach@@YAH_N@Z 000000018011bd80 f   MSVCRT:dll_dllmain.obj
 0001:0011ae04       ?dllmain_dispatch@@YAHQEAUHINSTANCE__@@KQEAX@Z 000000018011be04 f   MSVCRT:dll_dllmain.obj
 0001:0011b130       $$000000                   000000018011c130     MSVCRT:svml_ssinf4_sse2.obj
 0001:0011ba70       $$000000                   000000018011ca70     MSVCRT:svml_ssinf4_sse4.obj
 0001:0011c7e0       $$000000                   000000018011d7e0     MSVCRT:svml_s_sin_cout.obj
 0001:0011c8e0       $$000000                   000000018011d8e0     MSVCRT:guard_dispatch.obj
 0001:0011c900       $$000000                   000000018011d900     MSVCRT:guard_xfg_dispatch.obj
 0001:0011c916       ?fin$0@?0??dllmain_crt_process_attach@@YAHQEAUHINSTANCE__@@QEAX@Z@4HA 000000018011d916 f   MSVCRT:dll_dllmain.obj
 0001:0011c92d       ?fin$0@?0??dllmain_crt_process_detach@@YAH_N@Z@4HA 000000018011d92d f   MSVCRT:dll_dllmain.obj
 0001:0011c946       ?fin$1@?0??dllmain_crt_process_detach@@YAH_N@Z@4HA 000000018011d946 f   MSVCRT:dll_dllmain.obj
 0001:0011c95a       ?filt$0@?0??dllmain_dispatch@@YAHQEAUHINSTANCE__@@KQEAX@Z@4HA 000000018011d95a f   MSVCRT:dll_dllmain.obj
 0001:0011c990       __scrt_is_nonwritable_in_current_image$filt$0 000000018011d990 f   MSVCRT:utility.obj
 0002:000001c8       ?minFError$initializer$@_VecMathTests@aos@shdfnd@physx@@3P6AXXZEA 000000018011e1c8     GuBounds.obj
 0002:000001d0       ?maxFError$initializer$@_VecMathTests@aos@shdfnd@physx@@3P6AXXZEA 000000018011e1d0     GuBounds.obj
 0002:000001d8       ?minV3Error$initializer$@_VecMathTests@aos@shdfnd@physx@@3P6AXXZEA 000000018011e1d8     GuBounds.obj
 0002:000001e0       ?maxV3Error$initializer$@_VecMathTests@aos@shdfnd@physx@@3P6AXXZEA 000000018011e1e0     GuBounds.obj
 0002:000001e8       ?minV4Error$initializer$@_VecMathTests@aos@shdfnd@physx@@3P6AXXZEA 000000018011e1e8     GuBounds.obj
 0002:000001f0       ?maxV4Error$initializer$@_VecMathTests@aos@shdfnd@physx@@3P6AXXZEA 000000018011e1f0     GuBounds.obj
 0002:000001f8       ?minFError$initializer$@_VecMathTests@aos@shdfnd@physx@@3P6AXXZEA 000000018011e1f8     GuBox.obj
 0002:00000200       ?maxFError$initializer$@_VecMathTests@aos@shdfnd@physx@@3P6AXXZEA 000000018011e200     GuBox.obj
 0002:00000208       ?minV3Error$initializer$@_VecMathTests@aos@shdfnd@physx@@3P6AXXZEA 000000018011e208     GuBox.obj
 0002:00000210       ?maxV3Error$initializer$@_VecMathTests@aos@shdfnd@physx@@3P6AXXZEA 000000018011e210     GuBox.obj
 0002:00000218       ?minV4Error$initializer$@_VecMathTests@aos@shdfnd@physx@@3P6AXXZEA 000000018011e218     GuBox.obj
 0002:00000220       ?maxV4Error$initializer$@_VecMathTests@aos@shdfnd@physx@@3P6AXXZEA 000000018011e220     GuBox.obj
 0002:00000228       ?minFError$initializer$@_VecMathTests@aos@shdfnd@physx@@3P6AXXZEA 000000018011e228     GuCCTSweepTests.obj
 0002:00000230       ?maxFError$initializer$@_VecMathTests@aos@shdfnd@physx@@3P6AXXZEA 000000018011e230     GuCCTSweepTests.obj
 0002:00000238       ?minV3Error$initializer$@_VecMathTests@aos@shdfnd@physx@@3P6AXXZEA 000000018011e238     GuCCTSweepTests.obj
 0002:00000240       ?maxV3Error$initializer$@_VecMathTests@aos@shdfnd@physx@@3P6AXXZEA 000000018011e240     GuCCTSweepTests.obj
 0002:00000248       ?minV4Error$initializer$@_VecMathTests@aos@shdfnd@physx@@3P6AXXZEA 000000018011e248     GuCCTSweepTests.obj
 0002:00000250       ?maxV4Error$initializer$@_VecMathTests@aos@shdfnd@physx@@3P6AXXZEA 000000018011e250     GuCCTSweepTests.obj
 0002:00000258       ?minFError$initializer$@_VecMathTests@aos@shdfnd@physx@@3P6AXXZEA 000000018011e258     GuGeometryQuery.obj
 0002:00000260       ?maxFError$initializer$@_VecMathTests@aos@shdfnd@physx@@3P6AXXZEA 000000018011e260     GuGeometryQuery.obj
 0002:00000268       ?minV3Error$initializer$@_VecMathTests@aos@shdfnd@physx@@3P6AXXZEA 000000018011e268     GuGeometryQuery.obj
 0002:00000270       ?maxV3Error$initializer$@_VecMathTests@aos@shdfnd@physx@@3P6AXXZEA 000000018011e270     GuGeometryQuery.obj
 0002:00000278       ?minV4Error$initializer$@_VecMathTests@aos@shdfnd@physx@@3P6AXXZEA 000000018011e278     GuGeometryQuery.obj
 0002:00000280       ?maxV4Error$initializer$@_VecMathTests@aos@shdfnd@physx@@3P6AXXZEA 000000018011e280     GuGeometryQuery.obj
 0002:00000288       ?minFError$initializer$@_VecMathTests@aos@shdfnd@physx@@3P6AXXZEA 000000018011e288     GuGeometryUnion.obj
 0002:00000290       ?maxFError$initializer$@_VecMathTests@aos@shdfnd@physx@@3P6AXXZEA 000000018011e290     GuGeometryUnion.obj
 0002:00000298       ?minV3Error$initializer$@_VecMathTests@aos@shdfnd@physx@@3P6AXXZEA 000000018011e298     GuGeometryUnion.obj
 0002:000002a0       ?maxV3Error$initializer$@_VecMathTests@aos@shdfnd@physx@@3P6AXXZEA 000000018011e2a0     GuGeometryUnion.obj
 0002:000002a8       ?minV4Error$initializer$@_VecMathTests@aos@shdfnd@physx@@3P6AXXZEA 000000018011e2a8     GuGeometryUnion.obj
 0002:000002b0       ?maxV4Error$initializer$@_VecMathTests@aos@shdfnd@physx@@3P6AXXZEA 000000018011e2b0     GuGeometryUnion.obj
 0002:000002b8       ?minFError$initializer$@_VecMathTests@aos@shdfnd@physx@@3P6AXXZEA 000000018011e2b8     GuInternal.obj
 0002:000002c0       ?maxFError$initializer$@_VecMathTests@aos@shdfnd@physx@@3P6AXXZEA 000000018011e2c0     GuInternal.obj
 0002:000002c8       ?minV3Error$initializer$@_VecMathTests@aos@shdfnd@physx@@3P6AXXZEA 000000018011e2c8     GuInternal.obj
 0002:000002d0       ?maxV3Error$initializer$@_VecMathTests@aos@shdfnd@physx@@3P6AXXZEA 000000018011e2d0     GuInternal.obj
 0002:000002d8       ?minV4Error$initializer$@_VecMathTests@aos@shdfnd@physx@@3P6AXXZEA 000000018011e2d8     GuInternal.obj
 0002:000002e0       ?maxV4Error$initializer$@_VecMathTests@aos@shdfnd@physx@@3P6AXXZEA 000000018011e2e0     GuInternal.obj
 0002:000002e8       ?minFError$initializer$@_VecMathTests@aos@shdfnd@physx@@3P6AXXZEA 000000018011e2e8     GuMeshFactory.obj
 0002:000002f0       ?maxFError$initializer$@_VecMathTests@aos@shdfnd@physx@@3P6AXXZEA 000000018011e2f0     GuMeshFactory.obj
 0002:000002f8       ?minV3Error$initializer$@_VecMathTests@aos@shdfnd@physx@@3P6AXXZEA 000000018011e2f8     GuMeshFactory.obj
 0002:00000300       ?maxV3Error$initializer$@_VecMathTests@aos@shdfnd@physx@@3P6AXXZEA 000000018011e300     GuMeshFactory.obj
 0002:00000308       ?minV4Error$initializer$@_VecMathTests@aos@shdfnd@physx@@3P6AXXZEA 000000018011e308     GuMeshFactory.obj
 0002:00000310       ?maxV4Error$initializer$@_VecMathTests@aos@shdfnd@physx@@3P6AXXZEA 000000018011e310     GuMeshFactory.obj
 0002:00000318       ?minFError$initializer$@_VecMathTests@aos@shdfnd@physx@@3P6AXXZEA 000000018011e318     GuMetaData.obj
 0002:00000320       ?maxFError$initializer$@_VecMathTests@aos@shdfnd@physx@@3P6AXXZEA 000000018011e320     GuMetaData.obj
 0002:00000328       ?minV3Error$initializer$@_VecMathTests@aos@shdfnd@physx@@3P6AXXZEA 000000018011e328     GuMetaData.obj
 0002:00000330       ?maxV3Error$initializer$@_VecMathTests@aos@shdfnd@physx@@3P6AXXZEA 000000018011e330     GuMetaData.obj
 0002:00000338       ?minV4Error$initializer$@_VecMathTests@aos@shdfnd@physx@@3P6AXXZEA 000000018011e338     GuMetaData.obj
 0002:00000340       ?maxV4Error$initializer$@_VecMathTests@aos@shdfnd@physx@@3P6AXXZEA 000000018011e340     GuMetaData.obj
 0002:00000348       ?minFError$initializer$@_VecMathTests@aos@shdfnd@physx@@3P6AXXZEA 000000018011e348     GuMTD.obj
 0002:00000350       ?maxFError$initializer$@_VecMathTests@aos@shdfnd@physx@@3P6AXXZEA 000000018011e350     GuMTD.obj
 0002:00000358       ?minV3Error$initializer$@_VecMathTests@aos@shdfnd@physx@@3P6AXXZEA 000000018011e358     GuMTD.obj
 0002:00000360       ?maxV3Error$initializer$@_VecMathTests@aos@shdfnd@physx@@3P6AXXZEA 000000018011e360     GuMTD.obj
 0002:00000368       ?minV4Error$initializer$@_VecMathTests@aos@shdfnd@physx@@3P6AXXZEA 000000018011e368     GuMTD.obj
 0002:00000370       ?maxV4Error$initializer$@_VecMathTests@aos@shdfnd@physx@@3P6AXXZEA 000000018011e370     GuMTD.obj
 0002:00000378       ?minFError$initializer$@_VecMathTests@aos@shdfnd@physx@@3P6AXXZEA 000000018011e378     GuOverlapTests.obj
 0002:00000380       ?maxFError$initializer$@_VecMathTests@aos@shdfnd@physx@@3P6AXXZEA 000000018011e380     GuOverlapTests.obj
 0002:00000388       ?minV3Error$initializer$@_VecMathTests@aos@shdfnd@physx@@3P6AXXZEA 000000018011e388     GuOverlapTests.obj
 0002:00000390       ?maxV3Error$initializer$@_VecMathTests@aos@shdfnd@physx@@3P6AXXZEA 000000018011e390     GuOverlapTests.obj
 0002:00000398       ?minV4Error$initializer$@_VecMathTests@aos@shdfnd@physx@@3P6AXXZEA 000000018011e398     GuOverlapTests.obj
 0002:000003a0       ?maxV4Error$initializer$@_VecMathTests@aos@shdfnd@physx@@3P6AXXZEA 000000018011e3a0     GuOverlapTests.obj
 0002:000003a8       ?minFError$initializer$@_VecMathTests@aos@shdfnd@physx@@3P6AXXZEA 000000018011e3a8     GuRaycastTests.obj
 0002:000003b0       ?maxFError$initializer$@_VecMathTests@aos@shdfnd@physx@@3P6AXXZEA 000000018011e3b0     GuRaycastTests.obj
 0002:000003b8       ?minV3Error$initializer$@_VecMathTests@aos@shdfnd@physx@@3P6AXXZEA 000000018011e3b8     GuRaycastTests.obj
 0002:000003c0       ?maxV3Error$initializer$@_VecMathTests@aos@shdfnd@physx@@3P6AXXZEA 000000018011e3c0     GuRaycastTests.obj
 0002:000003c8       ?minV4Error$initializer$@_VecMathTests@aos@shdfnd@physx@@3P6AXXZEA 000000018011e3c8     GuRaycastTests.obj
 0002:000003d0       ?maxV4Error$initializer$@_VecMathTests@aos@shdfnd@physx@@3P6AXXZEA 000000018011e3d0     GuRaycastTests.obj
 0002:000003d8       ?minFError$initializer$@_VecMathTests@aos@shdfnd@physx@@3P6AXXZEA 000000018011e3d8     GuSweepMTD.obj
 0002:000003e0       ?maxFError$initializer$@_VecMathTests@aos@shdfnd@physx@@3P6AXXZEA 000000018011e3e0     GuSweepMTD.obj
 0002:000003e8       ?minV3Error$initializer$@_VecMathTests@aos@shdfnd@physx@@3P6AXXZEA 000000018011e3e8     GuSweepMTD.obj
 0002:000003f0       ?maxV3Error$initializer$@_VecMathTests@aos@shdfnd@physx@@3P6AXXZEA 000000018011e3f0     GuSweepMTD.obj
 0002:000003f8       ?minV4Error$initializer$@_VecMathTests@aos@shdfnd@physx@@3P6AXXZEA 000000018011e3f8     GuSweepMTD.obj
 0002:00000400       ?maxV4Error$initializer$@_VecMathTests@aos@shdfnd@physx@@3P6AXXZEA 000000018011e400     GuSweepMTD.obj
 0002:00000408       ?minFError$initializer$@_VecMathTests@aos@shdfnd@physx@@3P6AXXZEA 000000018011e408     GuSweepSharedTests.obj
 0002:00000410       ?maxFError$initializer$@_VecMathTests@aos@shdfnd@physx@@3P6AXXZEA 000000018011e410     GuSweepSharedTests.obj
 0002:00000418       ?minV3Error$initializer$@_VecMathTests@aos@shdfnd@physx@@3P6AXXZEA 000000018011e418     GuSweepSharedTests.obj
 0002:00000420       ?maxV3Error$initializer$@_VecMathTests@aos@shdfnd@physx@@3P6AXXZEA 000000018011e420     GuSweepSharedTests.obj
 0002:00000428       ?minV4Error$initializer$@_VecMathTests@aos@shdfnd@physx@@3P6AXXZEA 000000018011e428     GuSweepSharedTests.obj
 0002:00000430       ?maxV4Error$initializer$@_VecMathTests@aos@shdfnd@physx@@3P6AXXZEA 000000018011e430     GuSweepSharedTests.obj
 0002:00000438       ?minFError$initializer$@_VecMathTests@aos@shdfnd@physx@@3P6AXXZEA 000000018011e438     GuSweepTests.obj
 0002:00000440       ?maxFError$initializer$@_VecMathTests@aos@shdfnd@physx@@3P6AXXZEA 000000018011e440     GuSweepTests.obj
 0002:00000448       ?minV3Error$initializer$@_VecMathTests@aos@shdfnd@physx@@3P6AXXZEA 000000018011e448     GuSweepTests.obj
 0002:00000450       ?maxV3Error$initializer$@_VecMathTests@aos@shdfnd@physx@@3P6AXXZEA 000000018011e450     GuSweepTests.obj
 0002:00000458       ?minV4Error$initializer$@_VecMathTests@aos@shdfnd@physx@@3P6AXXZEA 000000018011e458     GuSweepTests.obj
 0002:00000460       ?maxV4Error$initializer$@_VecMathTests@aos@shdfnd@physx@@3P6AXXZEA 000000018011e460     GuSweepTests.obj
 0002:00000468       ?minFError$initializer$@_VecMathTests@aos@shdfnd@physx@@3P6AXXZEA 000000018011e468     GuAABBTreeBuild.obj
 0002:00000470       ?maxFError$initializer$@_VecMathTests@aos@shdfnd@physx@@3P6AXXZEA 000000018011e470     GuAABBTreeBuild.obj
 0002:00000478       ?minV3Error$initializer$@_VecMathTests@aos@shdfnd@physx@@3P6AXXZEA 000000018011e478     GuAABBTreeBuild.obj
 0002:00000480       ?maxV3Error$initializer$@_VecMathTests@aos@shdfnd@physx@@3P6AXXZEA 000000018011e480     GuAABBTreeBuild.obj
 0002:00000488       ?minV4Error$initializer$@_VecMathTests@aos@shdfnd@physx@@3P6AXXZEA 000000018011e488     GuAABBTreeBuild.obj
 0002:00000490       ?maxV4Error$initializer$@_VecMathTests@aos@shdfnd@physx@@3P6AXXZEA 000000018011e490     GuAABBTreeBuild.obj
 0002:00000498       ?minFError$initializer$@_VecMathTests@aos@shdfnd@physx@@3P6AXXZEA 000000018011e498     GuBVHStructure.obj
 0002:000004a0       ?maxFError$initializer$@_VecMathTests@aos@shdfnd@physx@@3P6AXXZEA 000000018011e4a0     GuBVHStructure.obj
 0002:000004a8       ?minV3Error$initializer$@_VecMathTests@aos@shdfnd@physx@@3P6AXXZEA 000000018011e4a8     GuBVHStructure.obj
 0002:000004b0       ?maxV3Error$initializer$@_VecMathTests@aos@shdfnd@physx@@3P6AXXZEA 000000018011e4b0     GuBVHStructure.obj
 0002:000004b8       ?minV4Error$initializer$@_VecMathTests@aos@shdfnd@physx@@3P6AXXZEA 000000018011e4b8     GuBVHStructure.obj
 0002:000004c0       ?maxV4Error$initializer$@_VecMathTests@aos@shdfnd@physx@@3P6AXXZEA 000000018011e4c0     GuBVHStructure.obj
 0002:000004c8       ?minFError$initializer$@_VecMathTests@aos@shdfnd@physx@@3P6AXXZEA 000000018011e4c8     GuCCDSweepConvexMesh.obj
 0002:000004d0       ?maxFError$initializer$@_VecMathTests@aos@shdfnd@physx@@3P6AXXZEA 000000018011e4d0     GuCCDSweepConvexMesh.obj
 0002:000004d8       ?minV3Error$initializer$@_VecMathTests@aos@shdfnd@physx@@3P6AXXZEA 000000018011e4d8     GuCCDSweepConvexMesh.obj
 0002:000004e0       ?maxV3Error$initializer$@_VecMathTests@aos@shdfnd@physx@@3P6AXXZEA 000000018011e4e0     GuCCDSweepConvexMesh.obj
 0002:000004e8       ?minV4Error$initializer$@_VecMathTests@aos@shdfnd@physx@@3P6AXXZEA 000000018011e4e8     GuCCDSweepConvexMesh.obj
 0002:000004f0       ?maxV4Error$initializer$@_VecMathTests@aos@shdfnd@physx@@3P6AXXZEA 000000018011e4f0     GuCCDSweepConvexMesh.obj
 0002:000004f8       ?minFError$initializer$@_VecMathTests@aos@shdfnd@physx@@3P6AXXZEA 000000018011e4f8     GuCCDSweepPrimitives.obj
 0002:00000500       ?maxFError$initializer$@_VecMathTests@aos@shdfnd@physx@@3P6AXXZEA 000000018011e500     GuCCDSweepPrimitives.obj
 0002:00000508       ?minV3Error$initializer$@_VecMathTests@aos@shdfnd@physx@@3P6AXXZEA 000000018011e508     GuCCDSweepPrimitives.obj
 0002:00000510       ?maxV3Error$initializer$@_VecMathTests@aos@shdfnd@physx@@3P6AXXZEA 000000018011e510     GuCCDSweepPrimitives.obj
 0002:00000518       ?minV4Error$initializer$@_VecMathTests@aos@shdfnd@physx@@3P6AXXZEA 000000018011e518     GuCCDSweepPrimitives.obj
 0002:00000520       ?maxV4Error$initializer$@_VecMathTests@aos@shdfnd@physx@@3P6AXXZEA 000000018011e520     GuCCDSweepPrimitives.obj
 0002:00000528       ?minFError$initializer$@_VecMathTests@aos@shdfnd@physx@@3P6AXXZEA 000000018011e528     GuBarycentricCoordinates.obj
 0002:00000530       ?maxFError$initializer$@_VecMathTests@aos@shdfnd@physx@@3P6AXXZEA 000000018011e530     GuBarycentricCoordinates.obj
 0002:00000538       ?minV3Error$initializer$@_VecMathTests@aos@shdfnd@physx@@3P6AXXZEA 000000018011e538     GuBarycentricCoordinates.obj
 0002:00000540       ?maxV3Error$initializer$@_VecMathTests@aos@shdfnd@physx@@3P6AXXZEA 000000018011e540     GuBarycentricCoordinates.obj
 0002:00000548       ?minV4Error$initializer$@_VecMathTests@aos@shdfnd@physx@@3P6AXXZEA 000000018011e548     GuBarycentricCoordinates.obj
 0002:00000550       ?maxV4Error$initializer$@_VecMathTests@aos@shdfnd@physx@@3P6AXXZEA 000000018011e550     GuBarycentricCoordinates.obj
 0002:00000558       ?minFError$initializer$@_VecMathTests@aos@shdfnd@physx@@3P6AXXZEA 000000018011e558     GuContactBoxBox.obj
 0002:00000560       ?maxFError$initializer$@_VecMathTests@aos@shdfnd@physx@@3P6AXXZEA 000000018011e560     GuContactBoxBox.obj
 0002:00000568       ?minV3Error$initializer$@_VecMathTests@aos@shdfnd@physx@@3P6AXXZEA 000000018011e568     GuContactBoxBox.obj
 0002:00000570       ?maxV3Error$initializer$@_VecMathTests@aos@shdfnd@physx@@3P6AXXZEA 000000018011e570     GuContactBoxBox.obj
 0002:00000578       ?minV4Error$initializer$@_VecMathTests@aos@shdfnd@physx@@3P6AXXZEA 000000018011e578     GuContactBoxBox.obj
 0002:00000580       ?maxV4Error$initializer$@_VecMathTests@aos@shdfnd@physx@@3P6AXXZEA 000000018011e580     GuContactBoxBox.obj
 0002:00000588       ?minFError$initializer$@_VecMathTests@aos@shdfnd@physx@@3P6AXXZEA 000000018011e588     GuContactCapsuleBox.obj
 0002:00000590       ?maxFError$initializer$@_VecMathTests@aos@shdfnd@physx@@3P6AXXZEA 000000018011e590     GuContactCapsuleBox.obj
 0002:00000598       ?minV3Error$initializer$@_VecMathTests@aos@shdfnd@physx@@3P6AXXZEA 000000018011e598     GuContactCapsuleBox.obj
 0002:000005a0       ?maxV3Error$initializer$@_VecMathTests@aos@shdfnd@physx@@3P6AXXZEA 000000018011e5a0     GuContactCapsuleBox.obj
 0002:000005a8       ?minV4Error$initializer$@_VecMathTests@aos@shdfnd@physx@@3P6AXXZEA 000000018011e5a8     GuContactCapsuleBox.obj
 0002:000005b0       ?maxV4Error$initializer$@_VecMathTests@aos@shdfnd@physx@@3P6AXXZEA 000000018011e5b0     GuContactCapsuleBox.obj
 0002:000005b8       ?minFError$initializer$@_VecMathTests@aos@shdfnd@physx@@3P6AXXZEA 000000018011e5b8     GuContactCapsuleCapsule.obj
 0002:000005c0       ?maxFError$initializer$@_VecMathTests@aos@shdfnd@physx@@3P6AXXZEA 000000018011e5c0     GuContactCapsuleCapsule.obj
 0002:000005c8       ?minV3Error$initializer$@_VecMathTests@aos@shdfnd@physx@@3P6AXXZEA 000000018011e5c8     GuContactCapsuleCapsule.obj
 0002:000005d0       ?maxV3Error$initializer$@_VecMathTests@aos@shdfnd@physx@@3P6AXXZEA 000000018011e5d0     GuContactCapsuleCapsule.obj
 0002:000005d8       ?minV4Error$initializer$@_VecMathTests@aos@shdfnd@physx@@3P6AXXZEA 000000018011e5d8     GuContactCapsuleCapsule.obj
 0002:000005e0       ?maxV4Error$initializer$@_VecMathTests@aos@shdfnd@physx@@3P6AXXZEA 000000018011e5e0     GuContactCapsuleCapsule.obj
 0002:000005e8       ?minFError$initializer$@_VecMathTests@aos@shdfnd@physx@@3P6AXXZEA 000000018011e5e8     GuContactCapsuleConvex.obj
 0002:000005f0       ?maxFError$initializer$@_VecMathTests@aos@shdfnd@physx@@3P6AXXZEA 000000018011e5f0     GuContactCapsuleConvex.obj
 0002:000005f8       ?minV3Error$initializer$@_VecMathTests@aos@shdfnd@physx@@3P6AXXZEA 000000018011e5f8     GuContactCapsuleConvex.obj
 0002:00000600       ?maxV3Error$initializer$@_VecMathTests@aos@shdfnd@physx@@3P6AXXZEA 000000018011e600     GuContactCapsuleConvex.obj
 0002:00000608       ?minV4Error$initializer$@_VecMathTests@aos@shdfnd@physx@@3P6AXXZEA 000000018011e608     GuContactCapsuleConvex.obj
 0002:00000610       ?maxV4Error$initializer$@_VecMathTests@aos@shdfnd@physx@@3P6AXXZEA 000000018011e610     GuContactCapsuleConvex.obj
 0002:00000618       ?minFError$initializer$@_VecMathTests@aos@shdfnd@physx@@3P6AXXZEA 000000018011e618     GuContactCapsuleMesh.obj
 0002:00000620       ?maxFError$initializer$@_VecMathTests@aos@shdfnd@physx@@3P6AXXZEA 000000018011e620     GuContactCapsuleMesh.obj
 0002:00000628       ?minV3Error$initializer$@_VecMathTests@aos@shdfnd@physx@@3P6AXXZEA 000000018011e628     GuContactCapsuleMesh.obj
 0002:00000630       ?maxV3Error$initializer$@_VecMathTests@aos@shdfnd@physx@@3P6AXXZEA 000000018011e630     GuContactCapsuleMesh.obj
 0002:00000638       ?minV4Error$initializer$@_VecMathTests@aos@shdfnd@physx@@3P6AXXZEA 000000018011e638     GuContactCapsuleMesh.obj
 0002:00000640       ?maxV4Error$initializer$@_VecMathTests@aos@shdfnd@physx@@3P6AXXZEA 000000018011e640     GuContactCapsuleMesh.obj
 0002:00000648       ?minFError$initializer$@_VecMathTests@aos@shdfnd@physx@@3P6AXXZEA 000000018011e648     GuContactConvexConvex.obj
 0002:00000650       ?maxFError$initializer$@_VecMathTests@aos@shdfnd@physx@@3P6AXXZEA 000000018011e650     GuContactConvexConvex.obj
 0002:00000658       ?minV3Error$initializer$@_VecMathTests@aos@shdfnd@physx@@3P6AXXZEA 000000018011e658     GuContactConvexConvex.obj
 0002:00000660       ?maxV3Error$initializer$@_VecMathTests@aos@shdfnd@physx@@3P6AXXZEA 000000018011e660     GuContactConvexConvex.obj
 0002:00000668       ?minV4Error$initializer$@_VecMathTests@aos@shdfnd@physx@@3P6AXXZEA 000000018011e668     GuContactConvexConvex.obj
 0002:00000670       ?maxV4Error$initializer$@_VecMathTests@aos@shdfnd@physx@@3P6AXXZEA 000000018011e670     GuContactConvexConvex.obj
 0002:00000678       ?minFError$initializer$@_VecMathTests@aos@shdfnd@physx@@3P6AXXZEA 000000018011e678     GuContactConvexMesh.obj
 0002:00000680       ?maxFError$initializer$@_VecMathTests@aos@shdfnd@physx@@3P6AXXZEA 000000018011e680     GuContactConvexMesh.obj
 0002:00000688       ?minV3Error$initializer$@_VecMathTests@aos@shdfnd@physx@@3P6AXXZEA 000000018011e688     GuContactConvexMesh.obj
 0002:00000690       ?maxV3Error$initializer$@_VecMathTests@aos@shdfnd@physx@@3P6AXXZEA 000000018011e690     GuContactConvexMesh.obj
 0002:00000698       ?minV4Error$initializer$@_VecMathTests@aos@shdfnd@physx@@3P6AXXZEA 000000018011e698     GuContactConvexMesh.obj
 0002:000006a0       ?maxV4Error$initializer$@_VecMathTests@aos@shdfnd@physx@@3P6AXXZEA 000000018011e6a0     GuContactConvexMesh.obj
 0002:000006a8       ?minFError$initializer$@_VecMathTests@aos@shdfnd@physx@@3P6AXXZEA 000000018011e6a8     GuContactPlaneBox.obj
 0002:000006b0       ?maxFError$initializer$@_VecMathTests@aos@shdfnd@physx@@3P6AXXZEA 000000018011e6b0     GuContactPlaneBox.obj
 0002:000006b8       ?minV3Error$initializer$@_VecMathTests@aos@shdfnd@physx@@3P6AXXZEA 000000018011e6b8     GuContactPlaneBox.obj
 0002:000006c0       ?maxV3Error$initializer$@_VecMathTests@aos@shdfnd@physx@@3P6AXXZEA 000000018011e6c0     GuContactPlaneBox.obj
 0002:000006c8       ?minV4Error$initializer$@_VecMathTests@aos@shdfnd@physx@@3P6AXXZEA 000000018011e6c8     GuContactPlaneBox.obj
 0002:000006d0       ?maxV4Error$initializer$@_VecMathTests@aos@shdfnd@physx@@3P6AXXZEA 000000018011e6d0     GuContactPlaneBox.obj
 0002:000006d8       ?minFError$initializer$@_VecMathTests@aos@shdfnd@physx@@3P6AXXZEA 000000018011e6d8     GuContactPlaneCapsule.obj
 0002:000006e0       ?maxFError$initializer$@_VecMathTests@aos@shdfnd@physx@@3P6AXXZEA 000000018011e6e0     GuContactPlaneCapsule.obj
 0002:000006e8       ?minV3Error$initializer$@_VecMathTests@aos@shdfnd@physx@@3P6AXXZEA 000000018011e6e8     GuContactPlaneCapsule.obj
 0002:000006f0       ?maxV3Error$initializer$@_VecMathTests@aos@shdfnd@physx@@3P6AXXZEA 000000018011e6f0     GuContactPlaneCapsule.obj
 0002:000006f8       ?minV4Error$initializer$@_VecMathTests@aos@shdfnd@physx@@3P6AXXZEA 000000018011e6f8     GuContactPlaneCapsule.obj
 0002:00000700       ?maxV4Error$initializer$@_VecMathTests@aos@shdfnd@physx@@3P6AXXZEA 000000018011e700     GuContactPlaneCapsule.obj
 0002:00000708       ?minFError$initializer$@_VecMathTests@aos@shdfnd@physx@@3P6AXXZEA 000000018011e708     GuContactPlaneConvex.obj
 0002:00000710       ?maxFError$initializer$@_VecMathTests@aos@shdfnd@physx@@3P6AXXZEA 000000018011e710     GuContactPlaneConvex.obj
 0002:00000718       ?minV3Error$initializer$@_VecMathTests@aos@shdfnd@physx@@3P6AXXZEA 000000018011e718     GuContactPlaneConvex.obj
 0002:00000720       ?maxV3Error$initializer$@_VecMathTests@aos@shdfnd@physx@@3P6AXXZEA 000000018011e720     GuContactPlaneConvex.obj
 0002:00000728       ?minV4Error$initializer$@_VecMathTests@aos@shdfnd@physx@@3P6AXXZEA 000000018011e728     GuContactPlaneConvex.obj
 0002:00000730       ?maxV4Error$initializer$@_VecMathTests@aos@shdfnd@physx@@3P6AXXZEA 000000018011e730     GuContactPlaneConvex.obj
 0002:00000738       ?minFError$initializer$@_VecMathTests@aos@shdfnd@physx@@3P6AXXZEA 000000018011e738     GuContactSphereBox.obj
 0002:00000740       ?maxFError$initializer$@_VecMathTests@aos@shdfnd@physx@@3P6AXXZEA 000000018011e740     GuContactSphereBox.obj
 0002:00000748       ?minV3Error$initializer$@_VecMathTests@aos@shdfnd@physx@@3P6AXXZEA 000000018011e748     GuContactSphereBox.obj
 0002:00000750       ?maxV3Error$initializer$@_VecMathTests@aos@shdfnd@physx@@3P6AXXZEA 000000018011e750     GuContactSphereBox.obj
 0002:00000758       ?minV4Error$initializer$@_VecMathTests@aos@shdfnd@physx@@3P6AXXZEA 000000018011e758     GuContactSphereBox.obj
 0002:00000760       ?maxV4Error$initializer$@_VecMathTests@aos@shdfnd@physx@@3P6AXXZEA 000000018011e760     GuContactSphereBox.obj
 0002:00000768       ?minFError$initializer$@_VecMathTests@aos@shdfnd@physx@@3P6AXXZEA 000000018011e768     GuContactSphereCapsule.obj
 0002:00000770       ?maxFError$initializer$@_VecMathTests@aos@shdfnd@physx@@3P6AXXZEA 000000018011e770     GuContactSphereCapsule.obj
 0002:00000778       ?minV3Error$initializer$@_VecMathTests@aos@shdfnd@physx@@3P6AXXZEA 000000018011e778     GuContactSphereCapsule.obj
 0002:00000780       ?maxV3Error$initializer$@_VecMathTests@aos@shdfnd@physx@@3P6AXXZEA 000000018011e780     GuContactSphereCapsule.obj
 0002:00000788       ?minV4Error$initializer$@_VecMathTests@aos@shdfnd@physx@@3P6AXXZEA 000000018011e788     GuContactSphereCapsule.obj
 0002:00000790       ?maxV4Error$initializer$@_VecMathTests@aos@shdfnd@physx@@3P6AXXZEA 000000018011e790     GuContactSphereCapsule.obj
 0002:00000798       ?minFError$initializer$@_VecMathTests@aos@shdfnd@physx@@3P6AXXZEA 000000018011e798     GuContactSphereMesh.obj
 0002:000007a0       ?maxFError$initializer$@_VecMathTests@aos@shdfnd@physx@@3P6AXXZEA 000000018011e7a0     GuContactSphereMesh.obj
 0002:000007a8       ?minV3Error$initializer$@_VecMathTests@aos@shdfnd@physx@@3P6AXXZEA 000000018011e7a8     GuContactSphereMesh.obj
 0002:000007b0       ?maxV3Error$initializer$@_VecMathTests@aos@shdfnd@physx@@3P6AXXZEA 000000018011e7b0     GuContactSphereMesh.obj
 0002:000007b8       ?minV4Error$initializer$@_VecMathTests@aos@shdfnd@physx@@3P6AXXZEA 000000018011e7b8     GuContactSphereMesh.obj
 0002:000007c0       ?maxV4Error$initializer$@_VecMathTests@aos@shdfnd@physx@@3P6AXXZEA 000000018011e7c0     GuContactSphereMesh.obj
 0002:000007c8       ?minFError$initializer$@_VecMathTests@aos@shdfnd@physx@@3P6AXXZEA 000000018011e7c8     GuContactSpherePlane.obj
 0002:000007d0       ?maxFError$initializer$@_VecMathTests@aos@shdfnd@physx@@3P6AXXZEA 000000018011e7d0     GuContactSpherePlane.obj
 0002:000007d8       ?minV3Error$initializer$@_VecMathTests@aos@shdfnd@physx@@3P6AXXZEA 000000018011e7d8     GuContactSpherePlane.obj
 0002:000007e0       ?maxV3Error$initializer$@_VecMathTests@aos@shdfnd@physx@@3P6AXXZEA 000000018011e7e0     GuContactSpherePlane.obj
 0002:000007e8       ?minV4Error$initializer$@_VecMathTests@aos@shdfnd@physx@@3P6AXXZEA 000000018011e7e8     GuContactSpherePlane.obj
 0002:000007f0       ?maxV4Error$initializer$@_VecMathTests@aos@shdfnd@physx@@3P6AXXZEA 000000018011e7f0     GuContactSpherePlane.obj
 0002:000007f8       ?minFError$initializer$@_VecMathTests@aos@shdfnd@physx@@3P6AXXZEA 000000018011e7f8     GuContactSphereSphere.obj
 0002:00000800       ?maxFError$initializer$@_VecMathTests@aos@shdfnd@physx@@3P6AXXZEA 000000018011e800     GuContactSphereSphere.obj
 0002:00000808       ?minV3Error$initializer$@_VecMathTests@aos@shdfnd@physx@@3P6AXXZEA 000000018011e808     GuContactSphereSphere.obj
 0002:00000810       ?maxV3Error$initializer$@_VecMathTests@aos@shdfnd@physx@@3P6AXXZEA 000000018011e810     GuContactSphereSphere.obj
 0002:00000818       ?minV4Error$initializer$@_VecMathTests@aos@shdfnd@physx@@3P6AXXZEA 000000018011e818     GuContactSphereSphere.obj
 0002:00000820       ?maxV4Error$initializer$@_VecMathTests@aos@shdfnd@physx@@3P6AXXZEA 000000018011e820     GuContactSphereSphere.obj
 0002:00000828       ?minFError$initializer$@_VecMathTests@aos@shdfnd@physx@@3P6AXXZEA 000000018011e828     GuConvexHelper.obj
 0002:00000830       ?maxFError$initializer$@_VecMathTests@aos@shdfnd@physx@@3P6AXXZEA 000000018011e830     GuConvexHelper.obj
 0002:00000838       ?minV3Error$initializer$@_VecMathTests@aos@shdfnd@physx@@3P6AXXZEA 000000018011e838     GuConvexHelper.obj
 0002:00000840       ?maxV3Error$initializer$@_VecMathTests@aos@shdfnd@physx@@3P6AXXZEA 000000018011e840     GuConvexHelper.obj
 0002:00000848       ?minV4Error$initializer$@_VecMathTests@aos@shdfnd@physx@@3P6AXXZEA 000000018011e848     GuConvexHelper.obj
 0002:00000850       ?maxV4Error$initializer$@_VecMathTests@aos@shdfnd@physx@@3P6AXXZEA 000000018011e850     GuConvexHelper.obj
 0002:00000858       ?minFError$initializer$@_VecMathTests@aos@shdfnd@physx@@3P6AXXZEA 000000018011e858     GuConvexSupportTable.obj
 0002:00000860       ?maxFError$initializer$@_VecMathTests@aos@shdfnd@physx@@3P6AXXZEA 000000018011e860     GuConvexSupportTable.obj
 0002:00000868       ?minV3Error$initializer$@_VecMathTests@aos@shdfnd@physx@@3P6AXXZEA 000000018011e868     GuConvexSupportTable.obj
 0002:00000870       ?maxV3Error$initializer$@_VecMathTests@aos@shdfnd@physx@@3P6AXXZEA 000000018011e870     GuConvexSupportTable.obj
 0002:00000878       ?minV4Error$initializer$@_VecMathTests@aos@shdfnd@physx@@3P6AXXZEA 000000018011e878     GuConvexSupportTable.obj
 0002:00000880       ?maxV4Error$initializer$@_VecMathTests@aos@shdfnd@physx@@3P6AXXZEA 000000018011e880     GuConvexSupportTable.obj
 0002:00000888       ?boxVertexTable$initializer$@physx@@3P6AXXZEA 000000018011e888     GuConvexSupportTable.obj
 0002:00000890       ?minFError$initializer$@_VecMathTests@aos@shdfnd@physx@@3P6AXXZEA 000000018011e890     GuConvexUtilsInternal.obj
 0002:00000898       ?maxFError$initializer$@_VecMathTests@aos@shdfnd@physx@@3P6AXXZEA 000000018011e898     GuConvexUtilsInternal.obj
 0002:000008a0       ?minV3Error$initializer$@_VecMathTests@aos@shdfnd@physx@@3P6AXXZEA 000000018011e8a0     GuConvexUtilsInternal.obj
 0002:000008a8       ?maxV3Error$initializer$@_VecMathTests@aos@shdfnd@physx@@3P6AXXZEA 000000018011e8a8     GuConvexUtilsInternal.obj
 0002:000008b0       ?minV4Error$initializer$@_VecMathTests@aos@shdfnd@physx@@3P6AXXZEA 000000018011e8b0     GuConvexUtilsInternal.obj
 0002:000008b8       ?maxV4Error$initializer$@_VecMathTests@aos@shdfnd@physx@@3P6AXXZEA 000000018011e8b8     GuConvexUtilsInternal.obj
 0002:000008c0       ?minFError$initializer$@_VecMathTests@aos@shdfnd@physx@@3P6AXXZEA 000000018011e8c0     GuDistancePointTriangle.obj
 0002:000008c8       ?maxFError$initializer$@_VecMathTests@aos@shdfnd@physx@@3P6AXXZEA 000000018011e8c8     GuDistancePointTriangle.obj
 0002:000008d0       ?minV3Error$initializer$@_VecMathTests@aos@shdfnd@physx@@3P6AXXZEA 000000018011e8d0     GuDistancePointTriangle.obj
 0002:000008d8       ?maxV3Error$initializer$@_VecMathTests@aos@shdfnd@physx@@3P6AXXZEA 000000018011e8d8     GuDistancePointTriangle.obj
 0002:000008e0       ?minV4Error$initializer$@_VecMathTests@aos@shdfnd@physx@@3P6AXXZEA 000000018011e8e0     GuDistancePointTriangle.obj
 0002:000008e8       ?maxV4Error$initializer$@_VecMathTests@aos@shdfnd@physx@@3P6AXXZEA 000000018011e8e8     GuDistancePointTriangle.obj
 0002:000008f0       ?minFError$initializer$@_VecMathTests@aos@shdfnd@physx@@3P6AXXZEA 000000018011e8f0     GuDistanceSegmentSegment.obj
 0002:000008f8       ?maxFError$initializer$@_VecMathTests@aos@shdfnd@physx@@3P6AXXZEA 000000018011e8f8     GuDistanceSegmentSegment.obj
 0002:00000900       ?minV3Error$initializer$@_VecMathTests@aos@shdfnd@physx@@3P6AXXZEA 000000018011e900     GuDistanceSegmentSegment.obj
 0002:00000908       ?maxV3Error$initializer$@_VecMathTests@aos@shdfnd@physx@@3P6AXXZEA 000000018011e908     GuDistanceSegmentSegment.obj
 0002:00000910       ?minV4Error$initializer$@_VecMathTests@aos@shdfnd@physx@@3P6AXXZEA 000000018011e910     GuDistanceSegmentSegment.obj
 0002:00000918       ?maxV4Error$initializer$@_VecMathTests@aos@shdfnd@physx@@3P6AXXZEA 000000018011e918     GuDistanceSegmentSegment.obj
 0002:00000920       ?minFError$initializer$@_VecMathTests@aos@shdfnd@physx@@3P6AXXZEA 000000018011e920     GuDistanceSegmentTriangle.obj
 0002:00000928       ?maxFError$initializer$@_VecMathTests@aos@shdfnd@physx@@3P6AXXZEA 000000018011e928     GuDistanceSegmentTriangle.obj
 0002:00000930       ?minV3Error$initializer$@_VecMathTests@aos@shdfnd@physx@@3P6AXXZEA 000000018011e930     GuDistanceSegmentTriangle.obj
 0002:00000938       ?maxV3Error$initializer$@_VecMathTests@aos@shdfnd@physx@@3P6AXXZEA 000000018011e938     GuDistanceSegmentTriangle.obj
 0002:00000940       ?minV4Error$initializer$@_VecMathTests@aos@shdfnd@physx@@3P6AXXZEA 000000018011e940     GuDistanceSegmentTriangle.obj
 0002:00000948       ?maxV4Error$initializer$@_VecMathTests@aos@shdfnd@physx@@3P6AXXZEA 000000018011e948     GuDistanceSegmentTriangle.obj
 0002:00000950       ?minFError$initializer$@_VecMathTests@aos@shdfnd@physx@@3P6AXXZEA 000000018011e950     GuEPA.obj
 0002:00000958       ?maxFError$initializer$@_VecMathTests@aos@shdfnd@physx@@3P6AXXZEA 000000018011e958     GuEPA.obj
 0002:00000960       ?minV3Error$initializer$@_VecMathTests@aos@shdfnd@physx@@3P6AXXZEA 000000018011e960     GuEPA.obj
 0002:00000968       ?maxV3Error$initializer$@_VecMathTests@aos@shdfnd@physx@@3P6AXXZEA 000000018011e968     GuEPA.obj
 0002:00000970       ?minV4Error$initializer$@_VecMathTests@aos@shdfnd@physx@@3P6AXXZEA 000000018011e970     GuEPA.obj
 0002:00000978       ?maxV4Error$initializer$@_VecMathTests@aos@shdfnd@physx@@3P6AXXZEA 000000018011e978     GuEPA.obj
 0002:00000980       ?minFError$initializer$@_VecMathTests@aos@shdfnd@physx@@3P6AXXZEA 000000018011e980     GuGJKSimplex.obj
 0002:00000988       ?maxFError$initializer$@_VecMathTests@aos@shdfnd@physx@@3P6AXXZEA 000000018011e988     GuGJKSimplex.obj
 0002:00000990       ?minV3Error$initializer$@_VecMathTests@aos@shdfnd@physx@@3P6AXXZEA 000000018011e990     GuGJKSimplex.obj
 0002:00000998       ?maxV3Error$initializer$@_VecMathTests@aos@shdfnd@physx@@3P6AXXZEA 000000018011e998     GuGJKSimplex.obj
 0002:000009a0       ?minV4Error$initializer$@_VecMathTests@aos@shdfnd@physx@@3P6AXXZEA 000000018011e9a0     GuGJKSimplex.obj
 0002:000009a8       ?maxV4Error$initializer$@_VecMathTests@aos@shdfnd@physx@@3P6AXXZEA 000000018011e9a8     GuGJKSimplex.obj
 0002:000009b0       ?minFError$initializer$@_VecMathTests@aos@shdfnd@physx@@3P6AXXZEA 000000018011e9b0     GuGJKTest.obj
 0002:000009b8       ?maxFError$initializer$@_VecMathTests@aos@shdfnd@physx@@3P6AXXZEA 000000018011e9b8     GuGJKTest.obj
 0002:000009c0       ?minV3Error$initializer$@_VecMathTests@aos@shdfnd@physx@@3P6AXXZEA 000000018011e9c0     GuGJKTest.obj
 0002:000009c8       ?maxV3Error$initializer$@_VecMathTests@aos@shdfnd@physx@@3P6AXXZEA 000000018011e9c8     GuGJKTest.obj
 0002:000009d0       ?minV4Error$initializer$@_VecMathTests@aos@shdfnd@physx@@3P6AXXZEA 000000018011e9d0     GuGJKTest.obj
 0002:000009d8       ?maxV4Error$initializer$@_VecMathTests@aos@shdfnd@physx@@3P6AXXZEA 000000018011e9d8     GuGJKTest.obj
 0002:000009e0       ?minFError$initializer$@_VecMathTests@aos@shdfnd@physx@@3P6AXXZEA 000000018011e9e0     GuHeightFieldUtil.obj
 0002:000009e8       ?maxFError$initializer$@_VecMathTests@aos@shdfnd@physx@@3P6AXXZEA 000000018011e9e8     GuHeightFieldUtil.obj
 0002:000009f0       ?minV3Error$initializer$@_VecMathTests@aos@shdfnd@physx@@3P6AXXZEA 000000018011e9f0     GuHeightFieldUtil.obj
 0002:000009f8       ?maxV3Error$initializer$@_VecMathTests@aos@shdfnd@physx@@3P6AXXZEA 000000018011e9f8     GuHeightFieldUtil.obj
 0002:00000a00       ?minV4Error$initializer$@_VecMathTests@aos@shdfnd@physx@@3P6AXXZEA 000000018011ea00     GuHeightFieldUtil.obj
 0002:00000a08       ?maxV4Error$initializer$@_VecMathTests@aos@shdfnd@physx@@3P6AXXZEA 000000018011ea08     GuHeightFieldUtil.obj
 0002:00000a10       ?minFError$initializer$@_VecMathTests@aos@shdfnd@physx@@3P6AXXZEA 000000018011ea10     GuOverlapTestsHF.obj
 0002:00000a18       ?maxFError$initializer$@_VecMathTests@aos@shdfnd@physx@@3P6AXXZEA 000000018011ea18     GuOverlapTestsHF.obj
 0002:00000a20       ?minV3Error$initializer$@_VecMathTests@aos@shdfnd@physx@@3P6AXXZEA 000000018011ea20     GuOverlapTestsHF.obj
 0002:00000a28       ?maxV3Error$initializer$@_VecMathTests@aos@shdfnd@physx@@3P6AXXZEA 000000018011ea28     GuOverlapTestsHF.obj
 0002:00000a30       ?minV4Error$initializer$@_VecMathTests@aos@shdfnd@physx@@3P6AXXZEA 000000018011ea30     GuOverlapTestsHF.obj
 0002:00000a38       ?maxV4Error$initializer$@_VecMathTests@aos@shdfnd@physx@@3P6AXXZEA 000000018011ea38     GuOverlapTestsHF.obj
 0002:00000a40       ?minFError$initializer$@_VecMathTests@aos@shdfnd@physx@@3P6AXXZEA 000000018011ea40     GuSweepsHF.obj
 0002:00000a48       ?maxFError$initializer$@_VecMathTests@aos@shdfnd@physx@@3P6AXXZEA 000000018011ea48     GuSweepsHF.obj
 0002:00000a50       ?minV3Error$initializer$@_VecMathTests@aos@shdfnd@physx@@3P6AXXZEA 000000018011ea50     GuSweepsHF.obj
 0002:00000a58       ?maxV3Error$initializer$@_VecMathTests@aos@shdfnd@physx@@3P6AXXZEA 000000018011ea58     GuSweepsHF.obj
 0002:00000a60       ?minV4Error$initializer$@_VecMathTests@aos@shdfnd@physx@@3P6AXXZEA 000000018011ea60     GuSweepsHF.obj
 0002:00000a68       ?maxV4Error$initializer$@_VecMathTests@aos@shdfnd@physx@@3P6AXXZEA 000000018011ea68     GuSweepsHF.obj
 0002:00000a70       ?minFError$initializer$@_VecMathTests@aos@shdfnd@physx@@3P6AXXZEA 000000018011ea70     GuIntersectionRayBox.obj
 0002:00000a78       ?maxFError$initializer$@_VecMathTests@aos@shdfnd@physx@@3P6AXXZEA 000000018011ea78     GuIntersectionRayBox.obj
 0002:00000a80       ?minV3Error$initializer$@_VecMathTests@aos@shdfnd@physx@@3P6AXXZEA 000000018011ea80     GuIntersectionRayBox.obj
 0002:00000a88       ?maxV3Error$initializer$@_VecMathTests@aos@shdfnd@physx@@3P6AXXZEA 000000018011ea88     GuIntersectionRayBox.obj
 0002:00000a90       ?minV4Error$initializer$@_VecMathTests@aos@shdfnd@physx@@3P6AXXZEA 000000018011ea90     GuIntersectionRayBox.obj
 0002:00000a98       ?maxV4Error$initializer$@_VecMathTests@aos@shdfnd@physx@@3P6AXXZEA 000000018011ea98     GuIntersectionRayBox.obj
 0002:00000aa0       ?minFError$initializer$@_VecMathTests@aos@shdfnd@physx@@3P6AXXZEA 000000018011eaa0     GuIntersectionTriangleBox.obj
 0002:00000aa8       ?maxFError$initializer$@_VecMathTests@aos@shdfnd@physx@@3P6AXXZEA 000000018011eaa8     GuIntersectionTriangleBox.obj
 0002:00000ab0       ?minV3Error$initializer$@_VecMathTests@aos@shdfnd@physx@@3P6AXXZEA 000000018011eab0     GuIntersectionTriangleBox.obj
 0002:00000ab8       ?maxV3Error$initializer$@_VecMathTests@aos@shdfnd@physx@@3P6AXXZEA 000000018011eab8     GuIntersectionTriangleBox.obj
 0002:00000ac0       ?minV4Error$initializer$@_VecMathTests@aos@shdfnd@physx@@3P6AXXZEA 000000018011eac0     GuIntersectionTriangleBox.obj
 0002:00000ac8       ?maxV4Error$initializer$@_VecMathTests@aos@shdfnd@physx@@3P6AXXZEA 000000018011eac8     GuIntersectionTriangleBox.obj
 0002:00000ad0       ?signV$initializer$@@3P6AXXZEA 000000018011ead0     GuIntersectionTriangleBox.obj
 0002:00000ad8       ?minFError$initializer$@_VecMathTests@aos@shdfnd@physx@@3P6AXXZEA 000000018011ead8     GuBV4.obj
 0002:00000ae0       ?maxFError$initializer$@_VecMathTests@aos@shdfnd@physx@@3P6AXXZEA 000000018011eae0     GuBV4.obj
 0002:00000ae8       ?minV3Error$initializer$@_VecMathTests@aos@shdfnd@physx@@3P6AXXZEA 000000018011eae8     GuBV4.obj
 0002:00000af0       ?maxV3Error$initializer$@_VecMathTests@aos@shdfnd@physx@@3P6AXXZEA 000000018011eaf0     GuBV4.obj
 0002:00000af8       ?minV4Error$initializer$@_VecMathTests@aos@shdfnd@physx@@3P6AXXZEA 000000018011eaf8     GuBV4.obj
 0002:00000b00       ?maxV4Error$initializer$@_VecMathTests@aos@shdfnd@physx@@3P6AXXZEA 000000018011eb00     GuBV4.obj
 0002:00000b08       ?minFError$initializer$@_VecMathTests@aos@shdfnd@physx@@3P6AXXZEA 000000018011eb08     GuBV4Build.obj
 0002:00000b10       ?maxFError$initializer$@_VecMathTests@aos@shdfnd@physx@@3P6AXXZEA 000000018011eb10     GuBV4Build.obj
 0002:00000b18       ?minV3Error$initializer$@_VecMathTests@aos@shdfnd@physx@@3P6AXXZEA 000000018011eb18     GuBV4Build.obj
 0002:00000b20       ?maxV3Error$initializer$@_VecMathTests@aos@shdfnd@physx@@3P6AXXZEA 000000018011eb20     GuBV4Build.obj
 0002:00000b28       ?minV4Error$initializer$@_VecMathTests@aos@shdfnd@physx@@3P6AXXZEA 000000018011eb28     GuBV4Build.obj
 0002:00000b30       ?maxV4Error$initializer$@_VecMathTests@aos@shdfnd@physx@@3P6AXXZEA 000000018011eb30     GuBV4Build.obj
 0002:00000b38       ?minFError$initializer$@_VecMathTests@aos@shdfnd@physx@@3P6AXXZEA 000000018011eb38     GuBV4_AABBSweep.obj
 0002:00000b40       ?maxFError$initializer$@_VecMathTests@aos@shdfnd@physx@@3P6AXXZEA 000000018011eb40     GuBV4_AABBSweep.obj
 0002:00000b48       ?minV3Error$initializer$@_VecMathTests@aos@shdfnd@physx@@3P6AXXZEA 000000018011eb48     GuBV4_AABBSweep.obj
 0002:00000b50       ?maxV3Error$initializer$@_VecMathTests@aos@shdfnd@physx@@3P6AXXZEA 000000018011eb50     GuBV4_AABBSweep.obj
 0002:00000b58       ?minV4Error$initializer$@_VecMathTests@aos@shdfnd@physx@@3P6AXXZEA 000000018011eb58     GuBV4_AABBSweep.obj
 0002:00000b60       ?maxV4Error$initializer$@_VecMathTests@aos@shdfnd@physx@@3P6AXXZEA 000000018011eb60     GuBV4_AABBSweep.obj
 0002:00000b68       ?signMask$initializer$@?A0x788c2204@@3P6AXXZEA 000000018011eb68     GuBV4_AABBSweep.obj
 0002:00000b70       ?epsFloat4$initializer$@?A0x788c2204@@3P6AXXZEA 000000018011eb70     GuBV4_AABBSweep.obj
 0002:00000b78       ?zeroes$initializer$@?A0x788c2204@@3P6AXXZEA 000000018011eb78     GuBV4_AABBSweep.obj
 0002:00000b80       ?twos$initializer$@?A0x788c2204@@3P6AXXZEA 000000018011eb80     GuBV4_AABBSweep.obj
 0002:00000b88       ?epsInflateFloat4$initializer$@?A0x788c2204@@3P6AXXZEA 000000018011eb88     GuBV4_AABBSweep.obj
 0002:00000b90       ?minFError$initializer$@_VecMathTests@aos@shdfnd@physx@@3P6AXXZEA 000000018011eb90     GuBV4_BoxOverlap.obj
 0002:00000b98       ?maxFError$initializer$@_VecMathTests@aos@shdfnd@physx@@3P6AXXZEA 000000018011eb98     GuBV4_BoxOverlap.obj
 0002:00000ba0       ?minV3Error$initializer$@_VecMathTests@aos@shdfnd@physx@@3P6AXXZEA 000000018011eba0     GuBV4_BoxOverlap.obj
 0002:00000ba8       ?maxV3Error$initializer$@_VecMathTests@aos@shdfnd@physx@@3P6AXXZEA 000000018011eba8     GuBV4_BoxOverlap.obj
 0002:00000bb0       ?minV4Error$initializer$@_VecMathTests@aos@shdfnd@physx@@3P6AXXZEA 000000018011ebb0     GuBV4_BoxOverlap.obj
 0002:00000bb8       ?maxV4Error$initializer$@_VecMathTests@aos@shdfnd@physx@@3P6AXXZEA 000000018011ebb8     GuBV4_BoxOverlap.obj
 0002:00000bc0       ?minFError$initializer$@_VecMathTests@aos@shdfnd@physx@@3P6AXXZEA 000000018011ebc0     GuBV4_CapsuleSweep.obj
 0002:00000bc8       ?maxFError$initializer$@_VecMathTests@aos@shdfnd@physx@@3P6AXXZEA 000000018011ebc8     GuBV4_CapsuleSweep.obj
 0002:00000bd0       ?minV3Error$initializer$@_VecMathTests@aos@shdfnd@physx@@3P6AXXZEA 000000018011ebd0     GuBV4_CapsuleSweep.obj
 0002:00000bd8       ?maxV3Error$initializer$@_VecMathTests@aos@shdfnd@physx@@3P6AXXZEA 000000018011ebd8     GuBV4_CapsuleSweep.obj
 0002:00000be0       ?minV4Error$initializer$@_VecMathTests@aos@shdfnd@physx@@3P6AXXZEA 000000018011ebe0     GuBV4_CapsuleSweep.obj
 0002:00000be8       ?maxV4Error$initializer$@_VecMathTests@aos@shdfnd@physx@@3P6AXXZEA 000000018011ebe8     GuBV4_CapsuleSweep.obj
 0002:00000bf0       ?minFError$initializer$@_VecMathTests@aos@shdfnd@physx@@3P6AXXZEA 000000018011ebf0     GuBV4_CapsuleSweepAA.obj
 0002:00000bf8       ?maxFError$initializer$@_VecMathTests@aos@shdfnd@physx@@3P6AXXZEA 000000018011ebf8     GuBV4_CapsuleSweepAA.obj
 0002:00000c00       ?minV3Error$initializer$@_VecMathTests@aos@shdfnd@physx@@3P6AXXZEA 000000018011ec00     GuBV4_CapsuleSweepAA.obj
 0002:00000c08       ?maxV3Error$initializer$@_VecMathTests@aos@shdfnd@physx@@3P6AXXZEA 000000018011ec08     GuBV4_CapsuleSweepAA.obj
 0002:00000c10       ?minV4Error$initializer$@_VecMathTests@aos@shdfnd@physx@@3P6AXXZEA 000000018011ec10     GuBV4_CapsuleSweepAA.obj
 0002:00000c18       ?maxV4Error$initializer$@_VecMathTests@aos@shdfnd@physx@@3P6AXXZEA 000000018011ec18     GuBV4_CapsuleSweepAA.obj
 0002:00000c20       ?signMask$initializer$@?A0xf567e8b1@@3P6AXXZEA 000000018011ec20     GuBV4_CapsuleSweepAA.obj
 0002:00000c28       ?epsFloat4$initializer$@?A0xf567e8b1@@3P6AXXZEA 000000018011ec28     GuBV4_CapsuleSweepAA.obj
 0002:00000c30       ?zeroes$initializer$@?A0xf567e8b1@@3P6AXXZEA 000000018011ec30     GuBV4_CapsuleSweepAA.obj
 0002:00000c38       ?twos$initializer$@?A0xf567e8b1@@3P6AXXZEA 000000018011ec38     GuBV4_CapsuleSweepAA.obj
 0002:00000c40       ?epsInflateFloat4$initializer$@?A0xf567e8b1@@3P6AXXZEA 000000018011ec40     GuBV4_CapsuleSweepAA.obj
 0002:00000c48       ?minFError$initializer$@_VecMathTests@aos@shdfnd@physx@@3P6AXXZEA 000000018011ec48     GuBV4_OBBSweep.obj
 0002:00000c50       ?maxFError$initializer$@_VecMathTests@aos@shdfnd@physx@@3P6AXXZEA 000000018011ec50     GuBV4_OBBSweep.obj
 0002:00000c58       ?minV3Error$initializer$@_VecMathTests@aos@shdfnd@physx@@3P6AXXZEA 000000018011ec58     GuBV4_OBBSweep.obj
 0002:00000c60       ?maxV3Error$initializer$@_VecMathTests@aos@shdfnd@physx@@3P6AXXZEA 000000018011ec60     GuBV4_OBBSweep.obj
 0002:00000c68       ?minV4Error$initializer$@_VecMathTests@aos@shdfnd@physx@@3P6AXXZEA 000000018011ec68     GuBV4_OBBSweep.obj
 0002:00000c70       ?maxV4Error$initializer$@_VecMathTests@aos@shdfnd@physx@@3P6AXXZEA 000000018011ec70     GuBV4_OBBSweep.obj
 0002:00000c78       ?minFError$initializer$@_VecMathTests@aos@shdfnd@physx@@3P6AXXZEA 000000018011ec78     GuBV4_Raycast.obj
 0002:00000c80       ?maxFError$initializer$@_VecMathTests@aos@shdfnd@physx@@3P6AXXZEA 000000018011ec80     GuBV4_Raycast.obj
 0002:00000c88       ?minV3Error$initializer$@_VecMathTests@aos@shdfnd@physx@@3P6AXXZEA 000000018011ec88     GuBV4_Raycast.obj
 0002:00000c90       ?maxV3Error$initializer$@_VecMathTests@aos@shdfnd@physx@@3P6AXXZEA 000000018011ec90     GuBV4_Raycast.obj
 0002:00000c98       ?minV4Error$initializer$@_VecMathTests@aos@shdfnd@physx@@3P6AXXZEA 000000018011ec98     GuBV4_Raycast.obj
 0002:00000ca0       ?maxV4Error$initializer$@_VecMathTests@aos@shdfnd@physx@@3P6AXXZEA 000000018011eca0     GuBV4_Raycast.obj
 0002:00000ca8       ?signMask$initializer$@?A0xdeb1923c@@3P6AXXZEA 000000018011eca8     GuBV4_Raycast.obj
 0002:00000cb0       ?epsFloat4$initializer$@?A0xdeb1923c@@3P6AXXZEA 000000018011ecb0     GuBV4_Raycast.obj
 0002:00000cb8       ?zeroes$initializer$@?A0xdeb1923c@@3P6AXXZEA 000000018011ecb8     GuBV4_Raycast.obj
 0002:00000cc0       ?twos$initializer$@?A0xdeb1923c@@3P6AXXZEA 000000018011ecc0     GuBV4_Raycast.obj
 0002:00000cc8       ?epsInflateFloat4$initializer$@?A0xdeb1923c@@3P6AXXZEA 000000018011ecc8     GuBV4_Raycast.obj
 0002:00000cd0       ?minFError$initializer$@_VecMathTests@aos@shdfnd@physx@@3P6AXXZEA 000000018011ecd0     GuBV4_SphereOverlap.obj
 0002:00000cd8       ?maxFError$initializer$@_VecMathTests@aos@shdfnd@physx@@3P6AXXZEA 000000018011ecd8     GuBV4_SphereOverlap.obj
 0002:00000ce0       ?minV3Error$initializer$@_VecMathTests@aos@shdfnd@physx@@3P6AXXZEA 000000018011ece0     GuBV4_SphereOverlap.obj
 0002:00000ce8       ?maxV3Error$initializer$@_VecMathTests@aos@shdfnd@physx@@3P6AXXZEA 000000018011ece8     GuBV4_SphereOverlap.obj
 0002:00000cf0       ?minV4Error$initializer$@_VecMathTests@aos@shdfnd@physx@@3P6AXXZEA 000000018011ecf0     GuBV4_SphereOverlap.obj
 0002:00000cf8       ?maxV4Error$initializer$@_VecMathTests@aos@shdfnd@physx@@3P6AXXZEA 000000018011ecf8     GuBV4_SphereOverlap.obj
 0002:00000d00       ?minFError$initializer$@_VecMathTests@aos@shdfnd@physx@@3P6AXXZEA 000000018011ed00     GuBV4_SphereSweep.obj
 0002:00000d08       ?maxFError$initializer$@_VecMathTests@aos@shdfnd@physx@@3P6AXXZEA 000000018011ed08     GuBV4_SphereSweep.obj
 0002:00000d10       ?minV3Error$initializer$@_VecMathTests@aos@shdfnd@physx@@3P6AXXZEA 000000018011ed10     GuBV4_SphereSweep.obj
 0002:00000d18       ?maxV3Error$initializer$@_VecMathTests@aos@shdfnd@physx@@3P6AXXZEA 000000018011ed18     GuBV4_SphereSweep.obj
 0002:00000d20       ?minV4Error$initializer$@_VecMathTests@aos@shdfnd@physx@@3P6AXXZEA 000000018011ed20     GuBV4_SphereSweep.obj
 0002:00000d28       ?maxV4Error$initializer$@_VecMathTests@aos@shdfnd@physx@@3P6AXXZEA 000000018011ed28     GuBV4_SphereSweep.obj
 0002:00000d30       ?signMask$initializer$@?A0x0ebb234c@@3P6AXXZEA 000000018011ed30     GuBV4_SphereSweep.obj
 0002:00000d38       ?epsFloat4$initializer$@?A0x0ebb234c@@3P6AXXZEA 000000018011ed38     GuBV4_SphereSweep.obj
 0002:00000d40       ?zeroes$initializer$@?A0x0ebb234c@@3P6AXXZEA 000000018011ed40     GuBV4_SphereSweep.obj
 0002:00000d48       ?twos$initializer$@?A0x0ebb234c@@3P6AXXZEA 000000018011ed48     GuBV4_SphereSweep.obj
 0002:00000d50       ?epsInflateFloat4$initializer$@?A0x0ebb234c@@3P6AXXZEA 000000018011ed50     GuBV4_SphereSweep.obj
 0002:00000d58       ?minFError$initializer$@_VecMathTests@aos@shdfnd@physx@@3P6AXXZEA 000000018011ed58     GuMidphaseBV4.obj
 0002:00000d60       ?maxFError$initializer$@_VecMathTests@aos@shdfnd@physx@@3P6AXXZEA 000000018011ed60     GuMidphaseBV4.obj
 0002:00000d68       ?minV3Error$initializer$@_VecMathTests@aos@shdfnd@physx@@3P6AXXZEA 000000018011ed68     GuMidphaseBV4.obj
 0002:00000d70       ?maxV3Error$initializer$@_VecMathTests@aos@shdfnd@physx@@3P6AXXZEA 000000018011ed70     GuMidphaseBV4.obj
 0002:00000d78       ?minV4Error$initializer$@_VecMathTests@aos@shdfnd@physx@@3P6AXXZEA 000000018011ed78     GuMidphaseBV4.obj
 0002:00000d80       ?maxV4Error$initializer$@_VecMathTests@aos@shdfnd@physx@@3P6AXXZEA 000000018011ed80     GuMidphaseBV4.obj
 0002:00000d88       ?minFError$initializer$@_VecMathTests@aos@shdfnd@physx@@3P6AXXZEA 000000018011ed88     GuMeshQuery.obj
 0002:00000d90       ?maxFError$initializer$@_VecMathTests@aos@shdfnd@physx@@3P6AXXZEA 000000018011ed90     GuMeshQuery.obj
 0002:00000d98       ?minV3Error$initializer$@_VecMathTests@aos@shdfnd@physx@@3P6AXXZEA 000000018011ed98     GuMeshQuery.obj
 0002:00000da0       ?maxV3Error$initializer$@_VecMathTests@aos@shdfnd@physx@@3P6AXXZEA 000000018011eda0     GuMeshQuery.obj
 0002:00000da8       ?minV4Error$initializer$@_VecMathTests@aos@shdfnd@physx@@3P6AXXZEA 000000018011eda8     GuMeshQuery.obj
 0002:00000db0       ?maxV4Error$initializer$@_VecMathTests@aos@shdfnd@physx@@3P6AXXZEA 000000018011edb0     GuMeshQuery.obj
 0002:00000db8       ?minFError$initializer$@_VecMathTests@aos@shdfnd@physx@@3P6AXXZEA 000000018011edb8     GuMidphaseRTree.obj
 0002:00000dc0       ?maxFError$initializer$@_VecMathTests@aos@shdfnd@physx@@3P6AXXZEA 000000018011edc0     GuMidphaseRTree.obj
 0002:00000dc8       ?minV3Error$initializer$@_VecMathTests@aos@shdfnd@physx@@3P6AXXZEA 000000018011edc8     GuMidphaseRTree.obj
 0002:00000dd0       ?maxV3Error$initializer$@_VecMathTests@aos@shdfnd@physx@@3P6AXXZEA 000000018011edd0     GuMidphaseRTree.obj
 0002:00000dd8       ?minV4Error$initializer$@_VecMathTests@aos@shdfnd@physx@@3P6AXXZEA 000000018011edd8     GuMidphaseRTree.obj
 0002:00000de0       ?maxV4Error$initializer$@_VecMathTests@aos@shdfnd@physx@@3P6AXXZEA 000000018011ede0     GuMidphaseRTree.obj
 0002:00000de8       ?minFError$initializer$@_VecMathTests@aos@shdfnd@physx@@3P6AXXZEA 000000018011ede8     GuOverlapTestsMesh.obj
 0002:00000df0       ?maxFError$initializer$@_VecMathTests@aos@shdfnd@physx@@3P6AXXZEA 000000018011edf0     GuOverlapTestsMesh.obj
 0002:00000df8       ?minV3Error$initializer$@_VecMathTests@aos@shdfnd@physx@@3P6AXXZEA 000000018011edf8     GuOverlapTestsMesh.obj
 0002:00000e00       ?maxV3Error$initializer$@_VecMathTests@aos@shdfnd@physx@@3P6AXXZEA 000000018011ee00     GuOverlapTestsMesh.obj
 0002:00000e08       ?minV4Error$initializer$@_VecMathTests@aos@shdfnd@physx@@3P6AXXZEA 000000018011ee08     GuOverlapTestsMesh.obj
 0002:00000e10       ?maxV4Error$initializer$@_VecMathTests@aos@shdfnd@physx@@3P6AXXZEA 000000018011ee10     GuOverlapTestsMesh.obj
 0002:00000e18       ?minFError$initializer$@_VecMathTests@aos@shdfnd@physx@@3P6AXXZEA 000000018011ee18     GuRTree.obj
 0002:00000e20       ?maxFError$initializer$@_VecMathTests@aos@shdfnd@physx@@3P6AXXZEA 000000018011ee20     GuRTree.obj
 0002:00000e28       ?minV3Error$initializer$@_VecMathTests@aos@shdfnd@physx@@3P6AXXZEA 000000018011ee28     GuRTree.obj
 0002:00000e30       ?maxV3Error$initializer$@_VecMathTests@aos@shdfnd@physx@@3P6AXXZEA 000000018011ee30     GuRTree.obj
 0002:00000e38       ?minV4Error$initializer$@_VecMathTests@aos@shdfnd@physx@@3P6AXXZEA 000000018011ee38     GuRTree.obj
 0002:00000e40       ?maxV4Error$initializer$@_VecMathTests@aos@shdfnd@physx@@3P6AXXZEA 000000018011ee40     GuRTree.obj
 0002:00000e48       ?minFError$initializer$@_VecMathTests@aos@shdfnd@physx@@3P6AXXZEA 000000018011ee48     GuRTreeQueries.obj
 0002:00000e50       ?maxFError$initializer$@_VecMathTests@aos@shdfnd@physx@@3P6AXXZEA 000000018011ee50     GuRTreeQueries.obj
 0002:00000e58       ?minV3Error$initializer$@_VecMathTests@aos@shdfnd@physx@@3P6AXXZEA 000000018011ee58     GuRTreeQueries.obj
 0002:00000e60       ?maxV3Error$initializer$@_VecMathTests@aos@shdfnd@physx@@3P6AXXZEA 000000018011ee60     GuRTreeQueries.obj
 0002:00000e68       ?minV4Error$initializer$@_VecMathTests@aos@shdfnd@physx@@3P6AXXZEA 000000018011ee68     GuRTreeQueries.obj
 0002:00000e70       ?maxV4Error$initializer$@_VecMathTests@aos@shdfnd@physx@@3P6AXXZEA 000000018011ee70     GuRTreeQueries.obj
 0002:00000e78       ?signMask$initializer$@?A0x28b72d2e@@3P6AXXZEA 000000018011ee78     GuRTreeQueries.obj
 0002:00000e80       ?epsFloat4$initializer$@?A0x28b72d2e@@3P6AXXZEA 000000018011ee80     GuRTreeQueries.obj
 0002:00000e88       ?zeroes$initializer$@?A0x28b72d2e@@3P6AXXZEA 000000018011ee88     GuRTreeQueries.obj
 0002:00000e90       ?twos$initializer$@?A0x28b72d2e@@3P6AXXZEA 000000018011ee90     GuRTreeQueries.obj
 0002:00000e98       ?epsInflateFloat4$initializer$@?A0x28b72d2e@@3P6AXXZEA 000000018011ee98     GuRTreeQueries.obj
 0002:00000ea0       ?minFError$initializer$@_VecMathTests@aos@shdfnd@physx@@3P6AXXZEA 000000018011eea0     GuSweepsMesh.obj
 0002:00000ea8       ?maxFError$initializer$@_VecMathTests@aos@shdfnd@physx@@3P6AXXZEA 000000018011eea8     GuSweepsMesh.obj
 0002:00000eb0       ?minV3Error$initializer$@_VecMathTests@aos@shdfnd@physx@@3P6AXXZEA 000000018011eeb0     GuSweepsMesh.obj
 0002:00000eb8       ?maxV3Error$initializer$@_VecMathTests@aos@shdfnd@physx@@3P6AXXZEA 000000018011eeb8     GuSweepsMesh.obj
 0002:00000ec0       ?minV4Error$initializer$@_VecMathTests@aos@shdfnd@physx@@3P6AXXZEA 000000018011eec0     GuSweepsMesh.obj
 0002:00000ec8       ?maxV4Error$initializer$@_VecMathTests@aos@shdfnd@physx@@3P6AXXZEA 000000018011eec8     GuSweepsMesh.obj
 0002:00000ed0       ?minFError$initializer$@_VecMathTests@aos@shdfnd@physx@@3P6AXXZEA 000000018011eed0     GuTriangleMesh.obj
 0002:00000ed8       ?maxFError$initializer$@_VecMathTests@aos@shdfnd@physx@@3P6AXXZEA 000000018011eed8     GuTriangleMesh.obj
 0002:00000ee0       ?minV3Error$initializer$@_VecMathTests@aos@shdfnd@physx@@3P6AXXZEA 000000018011eee0     GuTriangleMesh.obj
 0002:00000ee8       ?maxV3Error$initializer$@_VecMathTests@aos@shdfnd@physx@@3P6AXXZEA 000000018011eee8     GuTriangleMesh.obj
 0002:00000ef0       ?minV4Error$initializer$@_VecMathTests@aos@shdfnd@physx@@3P6AXXZEA 000000018011eef0     GuTriangleMesh.obj
 0002:00000ef8       ?maxV4Error$initializer$@_VecMathTests@aos@shdfnd@physx@@3P6AXXZEA 000000018011eef8     GuTriangleMesh.obj
 0002:00000f00       ?minFError$initializer$@_VecMathTests@aos@shdfnd@physx@@3P6AXXZEA 000000018011ef00     GuTriangleMeshBV4.obj
 0002:00000f08       ?maxFError$initializer$@_VecMathTests@aos@shdfnd@physx@@3P6AXXZEA 000000018011ef08     GuTriangleMeshBV4.obj
 0002:00000f10       ?minV3Error$initializer$@_VecMathTests@aos@shdfnd@physx@@3P6AXXZEA 000000018011ef10     GuTriangleMeshBV4.obj
 0002:00000f18       ?maxV3Error$initializer$@_VecMathTests@aos@shdfnd@physx@@3P6AXXZEA 000000018011ef18     GuTriangleMeshBV4.obj
 0002:00000f20       ?minV4Error$initializer$@_VecMathTests@aos@shdfnd@physx@@3P6AXXZEA 000000018011ef20     GuTriangleMeshBV4.obj
 0002:00000f28       ?maxV4Error$initializer$@_VecMathTests@aos@shdfnd@physx@@3P6AXXZEA 000000018011ef28     GuTriangleMeshBV4.obj
 0002:00000f30       ?minFError$initializer$@_VecMathTests@aos@shdfnd@physx@@3P6AXXZEA 000000018011ef30     GuTriangleMeshRTree.obj
 0002:00000f38       ?maxFError$initializer$@_VecMathTests@aos@shdfnd@physx@@3P6AXXZEA 000000018011ef38     GuTriangleMeshRTree.obj
 0002:00000f40       ?minV3Error$initializer$@_VecMathTests@aos@shdfnd@physx@@3P6AXXZEA 000000018011ef40     GuTriangleMeshRTree.obj
 0002:00000f48       ?maxV3Error$initializer$@_VecMathTests@aos@shdfnd@physx@@3P6AXXZEA 000000018011ef48     GuTriangleMeshRTree.obj
 0002:00000f50       ?minV4Error$initializer$@_VecMathTests@aos@shdfnd@physx@@3P6AXXZEA 000000018011ef50     GuTriangleMeshRTree.obj
 0002:00000f58       ?maxV4Error$initializer$@_VecMathTests@aos@shdfnd@physx@@3P6AXXZEA 000000018011ef58     GuTriangleMeshRTree.obj
 0002:00000f60       ?minFError$initializer$@_VecMathTests@aos@shdfnd@physx@@3P6AXXZEA 000000018011ef60     GuBV32Build.obj
 0002:00000f68       ?maxFError$initializer$@_VecMathTests@aos@shdfnd@physx@@3P6AXXZEA 000000018011ef68     GuBV32Build.obj
 0002:00000f70       ?minV3Error$initializer$@_VecMathTests@aos@shdfnd@physx@@3P6AXXZEA 000000018011ef70     GuBV32Build.obj
 0002:00000f78       ?maxV3Error$initializer$@_VecMathTests@aos@shdfnd@physx@@3P6AXXZEA 000000018011ef78     GuBV32Build.obj
 0002:00000f80       ?minV4Error$initializer$@_VecMathTests@aos@shdfnd@physx@@3P6AXXZEA 000000018011ef80     GuBV32Build.obj
 0002:00000f88       ?maxV4Error$initializer$@_VecMathTests@aos@shdfnd@physx@@3P6AXXZEA 000000018011ef88     GuBV32Build.obj
 0002:00000f90       ?minFError$initializer$@_VecMathTests@aos@shdfnd@physx@@3P6AXXZEA 000000018011ef90     GuPCMContactBoxBox.obj
 0002:00000f98       ?maxFError$initializer$@_VecMathTests@aos@shdfnd@physx@@3P6AXXZEA 000000018011ef98     GuPCMContactBoxBox.obj
 0002:00000fa0       ?minV3Error$initializer$@_VecMathTests@aos@shdfnd@physx@@3P6AXXZEA 000000018011efa0     GuPCMContactBoxBox.obj
 0002:00000fa8       ?maxV3Error$initializer$@_VecMathTests@aos@shdfnd@physx@@3P6AXXZEA 000000018011efa8     GuPCMContactBoxBox.obj
 0002:00000fb0       ?minV4Error$initializer$@_VecMathTests@aos@shdfnd@physx@@3P6AXXZEA 000000018011efb0     GuPCMContactBoxBox.obj
 0002:00000fb8       ?maxV4Error$initializer$@_VecMathTests@aos@shdfnd@physx@@3P6AXXZEA 000000018011efb8     GuPCMContactBoxBox.obj
 0002:00000fc0       ?minFError$initializer$@_VecMathTests@aos@shdfnd@physx@@3P6AXXZEA 000000018011efc0     GuPCMContactBoxConvex.obj
 0002:00000fc8       ?maxFError$initializer$@_VecMathTests@aos@shdfnd@physx@@3P6AXXZEA 000000018011efc8     GuPCMContactBoxConvex.obj
 0002:00000fd0       ?minV3Error$initializer$@_VecMathTests@aos@shdfnd@physx@@3P6AXXZEA 000000018011efd0     GuPCMContactBoxConvex.obj
 0002:00000fd8       ?maxV3Error$initializer$@_VecMathTests@aos@shdfnd@physx@@3P6AXXZEA 000000018011efd8     GuPCMContactBoxConvex.obj
 0002:00000fe0       ?minV4Error$initializer$@_VecMathTests@aos@shdfnd@physx@@3P6AXXZEA 000000018011efe0     GuPCMContactBoxConvex.obj
 0002:00000fe8       ?maxV4Error$initializer$@_VecMathTests@aos@shdfnd@physx@@3P6AXXZEA 000000018011efe8     GuPCMContactBoxConvex.obj
 0002:00000ff0       ?minFError$initializer$@_VecMathTests@aos@shdfnd@physx@@3P6AXXZEA 000000018011eff0     GuPCMContactCapsuleBox.obj
 0002:00000ff8       ?maxFError$initializer$@_VecMathTests@aos@shdfnd@physx@@3P6AXXZEA 000000018011eff8     GuPCMContactCapsuleBox.obj
 0002:00001000       ?minV3Error$initializer$@_VecMathTests@aos@shdfnd@physx@@3P6AXXZEA 000000018011f000     GuPCMContactCapsuleBox.obj
 0002:00001008       ?maxV3Error$initializer$@_VecMathTests@aos@shdfnd@physx@@3P6AXXZEA 000000018011f008     GuPCMContactCapsuleBox.obj
 0002:00001010       ?minV4Error$initializer$@_VecMathTests@aos@shdfnd@physx@@3P6AXXZEA 000000018011f010     GuPCMContactCapsuleBox.obj
 0002:00001018       ?maxV4Error$initializer$@_VecMathTests@aos@shdfnd@physx@@3P6AXXZEA 000000018011f018     GuPCMContactCapsuleBox.obj
 0002:00001020       ?minFError$initializer$@_VecMathTests@aos@shdfnd@physx@@3P6AXXZEA 000000018011f020     GuPCMContactCapsuleCapsule.obj
 0002:00001028       ?maxFError$initializer$@_VecMathTests@aos@shdfnd@physx@@3P6AXXZEA 000000018011f028     GuPCMContactCapsuleCapsule.obj
 0002:00001030       ?minV3Error$initializer$@_VecMathTests@aos@shdfnd@physx@@3P6AXXZEA 000000018011f030     GuPCMContactCapsuleCapsule.obj
 0002:00001038       ?maxV3Error$initializer$@_VecMathTests@aos@shdfnd@physx@@3P6AXXZEA 000000018011f038     GuPCMContactCapsuleCapsule.obj
 0002:00001040       ?minV4Error$initializer$@_VecMathTests@aos@shdfnd@physx@@3P6AXXZEA 000000018011f040     GuPCMContactCapsuleCapsule.obj
 0002:00001048       ?maxV4Error$initializer$@_VecMathTests@aos@shdfnd@physx@@3P6AXXZEA 000000018011f048     GuPCMContactCapsuleCapsule.obj
 0002:00001050       ?minFError$initializer$@_VecMathTests@aos@shdfnd@physx@@3P6AXXZEA 000000018011f050     GuPCMContactCapsuleConvex.obj
 0002:00001058       ?maxFError$initializer$@_VecMathTests@aos@shdfnd@physx@@3P6AXXZEA 000000018011f058     GuPCMContactCapsuleConvex.obj
 0002:00001060       ?minV3Error$initializer$@_VecMathTests@aos@shdfnd@physx@@3P6AXXZEA 000000018011f060     GuPCMContactCapsuleConvex.obj
 0002:00001068       ?maxV3Error$initializer$@_VecMathTests@aos@shdfnd@physx@@3P6AXXZEA 000000018011f068     GuPCMContactCapsuleConvex.obj
 0002:00001070       ?minV4Error$initializer$@_VecMathTests@aos@shdfnd@physx@@3P6AXXZEA 000000018011f070     GuPCMContactCapsuleConvex.obj
 0002:00001078       ?maxV4Error$initializer$@_VecMathTests@aos@shdfnd@physx@@3P6AXXZEA 000000018011f078     GuPCMContactCapsuleConvex.obj
 0002:00001080       ?minFError$initializer$@_VecMathTests@aos@shdfnd@physx@@3P6AXXZEA 000000018011f080     GuPCMContactCapsuleHeightField.obj
 0002:00001088       ?maxFError$initializer$@_VecMathTests@aos@shdfnd@physx@@3P6AXXZEA 000000018011f088     GuPCMContactCapsuleHeightField.obj
 0002:00001090       ?minV3Error$initializer$@_VecMathTests@aos@shdfnd@physx@@3P6AXXZEA 000000018011f090     GuPCMContactCapsuleHeightField.obj
 0002:00001098       ?maxV3Error$initializer$@_VecMathTests@aos@shdfnd@physx@@3P6AXXZEA 000000018011f098     GuPCMContactCapsuleHeightField.obj
 0002:000010a0       ?minV4Error$initializer$@_VecMathTests@aos@shdfnd@physx@@3P6AXXZEA 000000018011f0a0     GuPCMContactCapsuleHeightField.obj
 0002:000010a8       ?maxV4Error$initializer$@_VecMathTests@aos@shdfnd@physx@@3P6AXXZEA 000000018011f0a8     GuPCMContactCapsuleHeightField.obj
 0002:000010b0       ?minFError$initializer$@_VecMathTests@aos@shdfnd@physx@@3P6AXXZEA 000000018011f0b0     GuPCMContactCapsuleMesh.obj
 0002:000010b8       ?maxFError$initializer$@_VecMathTests@aos@shdfnd@physx@@3P6AXXZEA 000000018011f0b8     GuPCMContactCapsuleMesh.obj
 0002:000010c0       ?minV3Error$initializer$@_VecMathTests@aos@shdfnd@physx@@3P6AXXZEA 000000018011f0c0     GuPCMContactCapsuleMesh.obj
 0002:000010c8       ?maxV3Error$initializer$@_VecMathTests@aos@shdfnd@physx@@3P6AXXZEA 000000018011f0c8     GuPCMContactCapsuleMesh.obj
 0002:000010d0       ?minV4Error$initializer$@_VecMathTests@aos@shdfnd@physx@@3P6AXXZEA 000000018011f0d0     GuPCMContactCapsuleMesh.obj
 0002:000010d8       ?maxV4Error$initializer$@_VecMathTests@aos@shdfnd@physx@@3P6AXXZEA 000000018011f0d8     GuPCMContactCapsuleMesh.obj
 0002:000010e0       ?minFError$initializer$@_VecMathTests@aos@shdfnd@physx@@3P6AXXZEA 000000018011f0e0     GuPCMContactConvexCommon.obj
 0002:000010e8       ?maxFError$initializer$@_VecMathTests@aos@shdfnd@physx@@3P6AXXZEA 000000018011f0e8     GuPCMContactConvexCommon.obj
 0002:000010f0       ?minV3Error$initializer$@_VecMathTests@aos@shdfnd@physx@@3P6AXXZEA 000000018011f0f0     GuPCMContactConvexCommon.obj
 0002:000010f8       ?maxV3Error$initializer$@_VecMathTests@aos@shdfnd@physx@@3P6AXXZEA 000000018011f0f8     GuPCMContactConvexCommon.obj
 0002:00001100       ?minV4Error$initializer$@_VecMathTests@aos@shdfnd@physx@@3P6AXXZEA 000000018011f100     GuPCMContactConvexCommon.obj
 0002:00001108       ?maxV4Error$initializer$@_VecMathTests@aos@shdfnd@physx@@3P6AXXZEA 000000018011f108     GuPCMContactConvexCommon.obj
 0002:00001110       ?minFError$initializer$@_VecMathTests@aos@shdfnd@physx@@3P6AXXZEA 000000018011f110     GuPCMContactConvexConvex.obj
 0002:00001118       ?maxFError$initializer$@_VecMathTests@aos@shdfnd@physx@@3P6AXXZEA 000000018011f118     GuPCMContactConvexConvex.obj
 0002:00001120       ?minV3Error$initializer$@_VecMathTests@aos@shdfnd@physx@@3P6AXXZEA 000000018011f120     GuPCMContactConvexConvex.obj
 0002:00001128       ?maxV3Error$initializer$@_VecMathTests@aos@shdfnd@physx@@3P6AXXZEA 000000018011f128     GuPCMContactConvexConvex.obj
 0002:00001130       ?minV4Error$initializer$@_VecMathTests@aos@shdfnd@physx@@3P6AXXZEA 000000018011f130     GuPCMContactConvexConvex.obj
 0002:00001138       ?maxV4Error$initializer$@_VecMathTests@aos@shdfnd@physx@@3P6AXXZEA 000000018011f138     GuPCMContactConvexConvex.obj
 0002:00001140       ?minFError$initializer$@_VecMathTests@aos@shdfnd@physx@@3P6AXXZEA 000000018011f140     GuPCMContactConvexHeightField.obj
 0002:00001148       ?maxFError$initializer$@_VecMathTests@aos@shdfnd@physx@@3P6AXXZEA 000000018011f148     GuPCMContactConvexHeightField.obj
 0002:00001150       ?minV3Error$initializer$@_VecMathTests@aos@shdfnd@physx@@3P6AXXZEA 000000018011f150     GuPCMContactConvexHeightField.obj
 0002:00001158       ?maxV3Error$initializer$@_VecMathTests@aos@shdfnd@physx@@3P6AXXZEA 000000018011f158     GuPCMContactConvexHeightField.obj
 0002:00001160       ?minV4Error$initializer$@_VecMathTests@aos@shdfnd@physx@@3P6AXXZEA 000000018011f160     GuPCMContactConvexHeightField.obj
 0002:00001168       ?maxV4Error$initializer$@_VecMathTests@aos@shdfnd@physx@@3P6AXXZEA 000000018011f168     GuPCMContactConvexHeightField.obj
 0002:00001170       ?minFError$initializer$@_VecMathTests@aos@shdfnd@physx@@3P6AXXZEA 000000018011f170     GuPCMContactConvexMesh.obj
 0002:00001178       ?maxFError$initializer$@_VecMathTests@aos@shdfnd@physx@@3P6AXXZEA 000000018011f178     GuPCMContactConvexMesh.obj
 0002:00001180       ?minV3Error$initializer$@_VecMathTests@aos@shdfnd@physx@@3P6AXXZEA 000000018011f180     GuPCMContactConvexMesh.obj
 0002:00001188       ?maxV3Error$initializer$@_VecMathTests@aos@shdfnd@physx@@3P6AXXZEA 000000018011f188     GuPCMContactConvexMesh.obj
 0002:00001190       ?minV4Error$initializer$@_VecMathTests@aos@shdfnd@physx@@3P6AXXZEA 000000018011f190     GuPCMContactConvexMesh.obj
 0002:00001198       ?maxV4Error$initializer$@_VecMathTests@aos@shdfnd@physx@@3P6AXXZEA 000000018011f198     GuPCMContactConvexMesh.obj
 0002:000011a0       ?minFError$initializer$@_VecMathTests@aos@shdfnd@physx@@3P6AXXZEA 000000018011f1a0     GuPCMContactGenBoxConvex.obj
 0002:000011a8       ?maxFError$initializer$@_VecMathTests@aos@shdfnd@physx@@3P6AXXZEA 000000018011f1a8     GuPCMContactGenBoxConvex.obj
 0002:000011b0       ?minV3Error$initializer$@_VecMathTests@aos@shdfnd@physx@@3P6AXXZEA 000000018011f1b0     GuPCMContactGenBoxConvex.obj
 0002:000011b8       ?maxV3Error$initializer$@_VecMathTests@aos@shdfnd@physx@@3P6AXXZEA 000000018011f1b8     GuPCMContactGenBoxConvex.obj
 0002:000011c0       ?minV4Error$initializer$@_VecMathTests@aos@shdfnd@physx@@3P6AXXZEA 000000018011f1c0     GuPCMContactGenBoxConvex.obj
 0002:000011c8       ?maxV4Error$initializer$@_VecMathTests@aos@shdfnd@physx@@3P6AXXZEA 000000018011f1c8     GuPCMContactGenBoxConvex.obj
 0002:000011d0       ?minFError$initializer$@_VecMathTests@aos@shdfnd@physx@@3P6AXXZEA 000000018011f1d0     GuPCMContactGenSphereCapsule.obj
 0002:000011d8       ?maxFError$initializer$@_VecMathTests@aos@shdfnd@physx@@3P6AXXZEA 000000018011f1d8     GuPCMContactGenSphereCapsule.obj
 0002:000011e0       ?minV3Error$initializer$@_VecMathTests@aos@shdfnd@physx@@3P6AXXZEA 000000018011f1e0     GuPCMContactGenSphereCapsule.obj
 0002:000011e8       ?maxV3Error$initializer$@_VecMathTests@aos@shdfnd@physx@@3P6AXXZEA 000000018011f1e8     GuPCMContactGenSphereCapsule.obj
 0002:000011f0       ?minV4Error$initializer$@_VecMathTests@aos@shdfnd@physx@@3P6AXXZEA 000000018011f1f0     GuPCMContactGenSphereCapsule.obj
 0002:000011f8       ?maxV4Error$initializer$@_VecMathTests@aos@shdfnd@physx@@3P6AXXZEA 000000018011f1f8     GuPCMContactGenSphereCapsule.obj
 0002:00001200       ?minFError$initializer$@_VecMathTests@aos@shdfnd@physx@@3P6AXXZEA 000000018011f200     GuPCMContactPlaneBox.obj
 0002:00001208       ?maxFError$initializer$@_VecMathTests@aos@shdfnd@physx@@3P6AXXZEA 000000018011f208     GuPCMContactPlaneBox.obj
 0002:00001210       ?minV3Error$initializer$@_VecMathTests@aos@shdfnd@physx@@3P6AXXZEA 000000018011f210     GuPCMContactPlaneBox.obj
 0002:00001218       ?maxV3Error$initializer$@_VecMathTests@aos@shdfnd@physx@@3P6AXXZEA 000000018011f218     GuPCMContactPlaneBox.obj
 0002:00001220       ?minV4Error$initializer$@_VecMathTests@aos@shdfnd@physx@@3P6AXXZEA 000000018011f220     GuPCMContactPlaneBox.obj
 0002:00001228       ?maxV4Error$initializer$@_VecMathTests@aos@shdfnd@physx@@3P6AXXZEA 000000018011f228     GuPCMContactPlaneBox.obj
 0002:00001230       ?minFError$initializer$@_VecMathTests@aos@shdfnd@physx@@3P6AXXZEA 000000018011f230     GuPCMContactPlaneCapsule.obj
 0002:00001238       ?maxFError$initializer$@_VecMathTests@aos@shdfnd@physx@@3P6AXXZEA 000000018011f238     GuPCMContactPlaneCapsule.obj
 0002:00001240       ?minV3Error$initializer$@_VecMathTests@aos@shdfnd@physx@@3P6AXXZEA 000000018011f240     GuPCMContactPlaneCapsule.obj
 0002:00001248       ?maxV3Error$initializer$@_VecMathTests@aos@shdfnd@physx@@3P6AXXZEA 000000018011f248     GuPCMContactPlaneCapsule.obj
 0002:00001250       ?minV4Error$initializer$@_VecMathTests@aos@shdfnd@physx@@3P6AXXZEA 000000018011f250     GuPCMContactPlaneCapsule.obj
 0002:00001258       ?maxV4Error$initializer$@_VecMathTests@aos@shdfnd@physx@@3P6AXXZEA 000000018011f258     GuPCMContactPlaneCapsule.obj
 0002:00001260       ?minFError$initializer$@_VecMathTests@aos@shdfnd@physx@@3P6AXXZEA 000000018011f260     GuPCMContactPlaneConvex.obj
 0002:00001268       ?maxFError$initializer$@_VecMathTests@aos@shdfnd@physx@@3P6AXXZEA 000000018011f268     GuPCMContactPlaneConvex.obj
 0002:00001270       ?minV3Error$initializer$@_VecMathTests@aos@shdfnd@physx@@3P6AXXZEA 000000018011f270     GuPCMContactPlaneConvex.obj
 0002:00001278       ?maxV3Error$initializer$@_VecMathTests@aos@shdfnd@physx@@3P6AXXZEA 000000018011f278     GuPCMContactPlaneConvex.obj
 0002:00001280       ?minV4Error$initializer$@_VecMathTests@aos@shdfnd@physx@@3P6AXXZEA 000000018011f280     GuPCMContactPlaneConvex.obj
 0002:00001288       ?maxV4Error$initializer$@_VecMathTests@aos@shdfnd@physx@@3P6AXXZEA 000000018011f288     GuPCMContactPlaneConvex.obj
 0002:00001290       ?minFError$initializer$@_VecMathTests@aos@shdfnd@physx@@3P6AXXZEA 000000018011f290     GuPCMContactSphereBox.obj
 0002:00001298       ?maxFError$initializer$@_VecMathTests@aos@shdfnd@physx@@3P6AXXZEA 000000018011f298     GuPCMContactSphereBox.obj
 0002:000012a0       ?minV3Error$initializer$@_VecMathTests@aos@shdfnd@physx@@3P6AXXZEA 000000018011f2a0     GuPCMContactSphereBox.obj
 0002:000012a8       ?maxV3Error$initializer$@_VecMathTests@aos@shdfnd@physx@@3P6AXXZEA 000000018011f2a8     GuPCMContactSphereBox.obj
 0002:000012b0       ?minV4Error$initializer$@_VecMathTests@aos@shdfnd@physx@@3P6AXXZEA 000000018011f2b0     GuPCMContactSphereBox.obj
 0002:000012b8       ?maxV4Error$initializer$@_VecMathTests@aos@shdfnd@physx@@3P6AXXZEA 000000018011f2b8     GuPCMContactSphereBox.obj
 0002:000012c0       ?minFError$initializer$@_VecMathTests@aos@shdfnd@physx@@3P6AXXZEA 000000018011f2c0     GuPCMContactSphereCapsule.obj
 0002:000012c8       ?maxFError$initializer$@_VecMathTests@aos@shdfnd@physx@@3P6AXXZEA 000000018011f2c8     GuPCMContactSphereCapsule.obj
 0002:000012d0       ?minV3Error$initializer$@_VecMathTests@aos@shdfnd@physx@@3P6AXXZEA 000000018011f2d0     GuPCMContactSphereCapsule.obj
 0002:000012d8       ?maxV3Error$initializer$@_VecMathTests@aos@shdfnd@physx@@3P6AXXZEA 000000018011f2d8     GuPCMContactSphereCapsule.obj
 0002:000012e0       ?minV4Error$initializer$@_VecMathTests@aos@shdfnd@physx@@3P6AXXZEA 000000018011f2e0     GuPCMContactSphereCapsule.obj
 0002:000012e8       ?maxV4Error$initializer$@_VecMathTests@aos@shdfnd@physx@@3P6AXXZEA 000000018011f2e8     GuPCMContactSphereCapsule.obj
 0002:000012f0       ?minFError$initializer$@_VecMathTests@aos@shdfnd@physx@@3P6AXXZEA 000000018011f2f0     GuPCMContactSphereConvex.obj
 0002:000012f8       ?maxFError$initializer$@_VecMathTests@aos@shdfnd@physx@@3P6AXXZEA 000000018011f2f8     GuPCMContactSphereConvex.obj
 0002:00001300       ?minV3Error$initializer$@_VecMathTests@aos@shdfnd@physx@@3P6AXXZEA 000000018011f300     GuPCMContactSphereConvex.obj
 0002:00001308       ?maxV3Error$initializer$@_VecMathTests@aos@shdfnd@physx@@3P6AXXZEA 000000018011f308     GuPCMContactSphereConvex.obj
 0002:00001310       ?minV4Error$initializer$@_VecMathTests@aos@shdfnd@physx@@3P6AXXZEA 000000018011f310     GuPCMContactSphereConvex.obj
 0002:00001318       ?maxV4Error$initializer$@_VecMathTests@aos@shdfnd@physx@@3P6AXXZEA 000000018011f318     GuPCMContactSphereConvex.obj
 0002:00001320       ?minFError$initializer$@_VecMathTests@aos@shdfnd@physx@@3P6AXXZEA 000000018011f320     GuPCMContactSphereHeightField.obj
 0002:00001328       ?maxFError$initializer$@_VecMathTests@aos@shdfnd@physx@@3P6AXXZEA 000000018011f328     GuPCMContactSphereHeightField.obj
 0002:00001330       ?minV3Error$initializer$@_VecMathTests@aos@shdfnd@physx@@3P6AXXZEA 000000018011f330     GuPCMContactSphereHeightField.obj
 0002:00001338       ?maxV3Error$initializer$@_VecMathTests@aos@shdfnd@physx@@3P6AXXZEA 000000018011f338     GuPCMContactSphereHeightField.obj
 0002:00001340       ?minV4Error$initializer$@_VecMathTests@aos@shdfnd@physx@@3P6AXXZEA 000000018011f340     GuPCMContactSphereHeightField.obj
 0002:00001348       ?maxV4Error$initializer$@_VecMathTests@aos@shdfnd@physx@@3P6AXXZEA 000000018011f348     GuPCMContactSphereHeightField.obj
 0002:00001350       ?minFError$initializer$@_VecMathTests@aos@shdfnd@physx@@3P6AXXZEA 000000018011f350     GuPCMContactSphereMesh.obj
 0002:00001358       ?maxFError$initializer$@_VecMathTests@aos@shdfnd@physx@@3P6AXXZEA 000000018011f358     GuPCMContactSphereMesh.obj
 0002:00001360       ?minV3Error$initializer$@_VecMathTests@aos@shdfnd@physx@@3P6AXXZEA 000000018011f360     GuPCMContactSphereMesh.obj
 0002:00001368       ?maxV3Error$initializer$@_VecMathTests@aos@shdfnd@physx@@3P6AXXZEA 000000018011f368     GuPCMContactSphereMesh.obj
 0002:00001370       ?minV4Error$initializer$@_VecMathTests@aos@shdfnd@physx@@3P6AXXZEA 000000018011f370     GuPCMContactSphereMesh.obj
 0002:00001378       ?maxV4Error$initializer$@_VecMathTests@aos@shdfnd@physx@@3P6AXXZEA 000000018011f378     GuPCMContactSphereMesh.obj
 0002:00001380       ?minFError$initializer$@_VecMathTests@aos@shdfnd@physx@@3P6AXXZEA 000000018011f380     GuPCMContactSpherePlane.obj
 0002:00001388       ?maxFError$initializer$@_VecMathTests@aos@shdfnd@physx@@3P6AXXZEA 000000018011f388     GuPCMContactSpherePlane.obj
 0002:00001390       ?minV3Error$initializer$@_VecMathTests@aos@shdfnd@physx@@3P6AXXZEA 000000018011f390     GuPCMContactSpherePlane.obj
 0002:00001398       ?maxV3Error$initializer$@_VecMathTests@aos@shdfnd@physx@@3P6AXXZEA 000000018011f398     GuPCMContactSpherePlane.obj
 0002:000013a0       ?minV4Error$initializer$@_VecMathTests@aos@shdfnd@physx@@3P6AXXZEA 000000018011f3a0     GuPCMContactSpherePlane.obj
 0002:000013a8       ?maxV4Error$initializer$@_VecMathTests@aos@shdfnd@physx@@3P6AXXZEA 000000018011f3a8     GuPCMContactSpherePlane.obj
 0002:000013b0       ?minFError$initializer$@_VecMathTests@aos@shdfnd@physx@@3P6AXXZEA 000000018011f3b0     GuPCMContactSphereSphere.obj
 0002:000013b8       ?maxFError$initializer$@_VecMathTests@aos@shdfnd@physx@@3P6AXXZEA 000000018011f3b8     GuPCMContactSphereSphere.obj
 0002:000013c0       ?minV3Error$initializer$@_VecMathTests@aos@shdfnd@physx@@3P6AXXZEA 000000018011f3c0     GuPCMContactSphereSphere.obj
 0002:000013c8       ?maxV3Error$initializer$@_VecMathTests@aos@shdfnd@physx@@3P6AXXZEA 000000018011f3c8     GuPCMContactSphereSphere.obj
 0002:000013d0       ?minV4Error$initializer$@_VecMathTests@aos@shdfnd@physx@@3P6AXXZEA 000000018011f3d0     GuPCMContactSphereSphere.obj
 0002:000013d8       ?maxV4Error$initializer$@_VecMathTests@aos@shdfnd@physx@@3P6AXXZEA 000000018011f3d8     GuPCMContactSphereSphere.obj
 0002:000013e0       ?minFError$initializer$@_VecMathTests@aos@shdfnd@physx@@3P6AXXZEA 000000018011f3e0     GuPCMShapeConvex.obj
 0002:000013e8       ?maxFError$initializer$@_VecMathTests@aos@shdfnd@physx@@3P6AXXZEA 000000018011f3e8     GuPCMShapeConvex.obj
 0002:000013f0       ?minV3Error$initializer$@_VecMathTests@aos@shdfnd@physx@@3P6AXXZEA 000000018011f3f0     GuPCMShapeConvex.obj
 0002:000013f8       ?maxV3Error$initializer$@_VecMathTests@aos@shdfnd@physx@@3P6AXXZEA 000000018011f3f8     GuPCMShapeConvex.obj
 0002:00001400       ?minV4Error$initializer$@_VecMathTests@aos@shdfnd@physx@@3P6AXXZEA 000000018011f400     GuPCMShapeConvex.obj
 0002:00001408       ?maxV4Error$initializer$@_VecMathTests@aos@shdfnd@physx@@3P6AXXZEA 000000018011f408     GuPCMShapeConvex.obj
 0002:00001410       ?minFError$initializer$@_VecMathTests@aos@shdfnd@physx@@3P6AXXZEA 000000018011f410     GuPCMTriangleContactGen.obj
 0002:00001418       ?maxFError$initializer$@_VecMathTests@aos@shdfnd@physx@@3P6AXXZEA 000000018011f418     GuPCMTriangleContactGen.obj
 0002:00001420       ?minV3Error$initializer$@_VecMathTests@aos@shdfnd@physx@@3P6AXXZEA 000000018011f420     GuPCMTriangleContactGen.obj
 0002:00001428       ?maxV3Error$initializer$@_VecMathTests@aos@shdfnd@physx@@3P6AXXZEA 000000018011f428     GuPCMTriangleContactGen.obj
 0002:00001430       ?minV4Error$initializer$@_VecMathTests@aos@shdfnd@physx@@3P6AXXZEA 000000018011f430     GuPCMTriangleContactGen.obj
 0002:00001438       ?maxV4Error$initializer$@_VecMathTests@aos@shdfnd@physx@@3P6AXXZEA 000000018011f438     GuPCMTriangleContactGen.obj
 0002:00001440       ?minFError$initializer$@_VecMathTests@aos@shdfnd@physx@@3P6AXXZEA 000000018011f440     GuPersistentContactManifold.obj
 0002:00001448       ?maxFError$initializer$@_VecMathTests@aos@shdfnd@physx@@3P6AXXZEA 000000018011f448     GuPersistentContactManifold.obj
 0002:00001450       ?minV3Error$initializer$@_VecMathTests@aos@shdfnd@physx@@3P6AXXZEA 000000018011f450     GuPersistentContactManifold.obj
 0002:00001458       ?maxV3Error$initializer$@_VecMathTests@aos@shdfnd@physx@@3P6AXXZEA 000000018011f458     GuPersistentContactManifold.obj
 0002:00001460       ?minV4Error$initializer$@_VecMathTests@aos@shdfnd@physx@@3P6AXXZEA 000000018011f460     GuPersistentContactManifold.obj
 0002:00001468       ?maxV4Error$initializer$@_VecMathTests@aos@shdfnd@physx@@3P6AXXZEA 000000018011f468     GuPersistentContactManifold.obj
 0002:00001470       ?minFError$initializer$@_VecMathTests@aos@shdfnd@physx@@3P6AXXZEA 000000018011f470     GuSweepBoxBox.obj
 0002:00001478       ?maxFError$initializer$@_VecMathTests@aos@shdfnd@physx@@3P6AXXZEA 000000018011f478     GuSweepBoxBox.obj
 0002:00001480       ?minV3Error$initializer$@_VecMathTests@aos@shdfnd@physx@@3P6AXXZEA 000000018011f480     GuSweepBoxBox.obj
 0002:00001488       ?maxV3Error$initializer$@_VecMathTests@aos@shdfnd@physx@@3P6AXXZEA 000000018011f488     GuSweepBoxBox.obj
 0002:00001490       ?minV4Error$initializer$@_VecMathTests@aos@shdfnd@physx@@3P6AXXZEA 000000018011f490     GuSweepBoxBox.obj
 0002:00001498       ?maxV4Error$initializer$@_VecMathTests@aos@shdfnd@physx@@3P6AXXZEA 000000018011f498     GuSweepBoxBox.obj
 0002:000014a0       ?minFError$initializer$@_VecMathTests@aos@shdfnd@physx@@3P6AXXZEA 000000018011f4a0     GuSweepBoxSphere.obj
 0002:000014a8       ?maxFError$initializer$@_VecMathTests@aos@shdfnd@physx@@3P6AXXZEA 000000018011f4a8     GuSweepBoxSphere.obj
 0002:000014b0       ?minV3Error$initializer$@_VecMathTests@aos@shdfnd@physx@@3P6AXXZEA 000000018011f4b0     GuSweepBoxSphere.obj
 0002:000014b8       ?maxV3Error$initializer$@_VecMathTests@aos@shdfnd@physx@@3P6AXXZEA 000000018011f4b8     GuSweepBoxSphere.obj
 0002:000014c0       ?minV4Error$initializer$@_VecMathTests@aos@shdfnd@physx@@3P6AXXZEA 000000018011f4c0     GuSweepBoxSphere.obj
 0002:000014c8       ?maxV4Error$initializer$@_VecMathTests@aos@shdfnd@physx@@3P6AXXZEA 000000018011f4c8     GuSweepBoxSphere.obj
 0002:000014d0       ?minFError$initializer$@_VecMathTests@aos@shdfnd@physx@@3P6AXXZEA 000000018011f4d0     GuSweepBoxTriangle_FeatureBased.obj
 0002:000014d8       ?maxFError$initializer$@_VecMathTests@aos@shdfnd@physx@@3P6AXXZEA 000000018011f4d8     GuSweepBoxTriangle_FeatureBased.obj
 0002:000014e0       ?minV3Error$initializer$@_VecMathTests@aos@shdfnd@physx@@3P6AXXZEA 000000018011f4e0     GuSweepBoxTriangle_FeatureBased.obj
 0002:000014e8       ?maxV3Error$initializer$@_VecMathTests@aos@shdfnd@physx@@3P6AXXZEA 000000018011f4e8     GuSweepBoxTriangle_FeatureBased.obj
 0002:000014f0       ?minV4Error$initializer$@_VecMathTests@aos@shdfnd@physx@@3P6AXXZEA 000000018011f4f0     GuSweepBoxTriangle_FeatureBased.obj
 0002:000014f8       ?maxV4Error$initializer$@_VecMathTests@aos@shdfnd@physx@@3P6AXXZEA 000000018011f4f8     GuSweepBoxTriangle_FeatureBased.obj
 0002:00001500       ?minFError$initializer$@_VecMathTests@aos@shdfnd@physx@@3P6AXXZEA 000000018011f500     GuSweepBoxTriangle_SAT.obj
 0002:00001508       ?maxFError$initializer$@_VecMathTests@aos@shdfnd@physx@@3P6AXXZEA 000000018011f508     GuSweepBoxTriangle_SAT.obj
 0002:00001510       ?minV3Error$initializer$@_VecMathTests@aos@shdfnd@physx@@3P6AXXZEA 000000018011f510     GuSweepBoxTriangle_SAT.obj
 0002:00001518       ?maxV3Error$initializer$@_VecMathTests@aos@shdfnd@physx@@3P6AXXZEA 000000018011f518     GuSweepBoxTriangle_SAT.obj
 0002:00001520       ?minV4Error$initializer$@_VecMathTests@aos@shdfnd@physx@@3P6AXXZEA 000000018011f520     GuSweepBoxTriangle_SAT.obj
 0002:00001528       ?maxV4Error$initializer$@_VecMathTests@aos@shdfnd@physx@@3P6AXXZEA 000000018011f528     GuSweepBoxTriangle_SAT.obj
 0002:00001530       ?minFError$initializer$@_VecMathTests@aos@shdfnd@physx@@3P6AXXZEA 000000018011f530     GuSweepCapsuleBox.obj
 0002:00001538       ?maxFError$initializer$@_VecMathTests@aos@shdfnd@physx@@3P6AXXZEA 000000018011f538     GuSweepCapsuleBox.obj
 0002:00001540       ?minV3Error$initializer$@_VecMathTests@aos@shdfnd@physx@@3P6AXXZEA 000000018011f540     GuSweepCapsuleBox.obj
 0002:00001548       ?maxV3Error$initializer$@_VecMathTests@aos@shdfnd@physx@@3P6AXXZEA 000000018011f548     GuSweepCapsuleBox.obj
 0002:00001550       ?minV4Error$initializer$@_VecMathTests@aos@shdfnd@physx@@3P6AXXZEA 000000018011f550     GuSweepCapsuleBox.obj
 0002:00001558       ?maxV4Error$initializer$@_VecMathTests@aos@shdfnd@physx@@3P6AXXZEA 000000018011f558     GuSweepCapsuleBox.obj
 0002:00001560       ?minFError$initializer$@_VecMathTests@aos@shdfnd@physx@@3P6AXXZEA 000000018011f560     GuSweepCapsuleTriangle.obj
 0002:00001568       ?maxFError$initializer$@_VecMathTests@aos@shdfnd@physx@@3P6AXXZEA 000000018011f568     GuSweepCapsuleTriangle.obj
 0002:00001570       ?minV3Error$initializer$@_VecMathTests@aos@shdfnd@physx@@3P6AXXZEA 000000018011f570     GuSweepCapsuleTriangle.obj
 0002:00001578       ?maxV3Error$initializer$@_VecMathTests@aos@shdfnd@physx@@3P6AXXZEA 000000018011f578     GuSweepCapsuleTriangle.obj
 0002:00001580       ?minV4Error$initializer$@_VecMathTests@aos@shdfnd@physx@@3P6AXXZEA 000000018011f580     GuSweepCapsuleTriangle.obj
 0002:00001588       ?maxV4Error$initializer$@_VecMathTests@aos@shdfnd@physx@@3P6AXXZEA 000000018011f588     GuSweepCapsuleTriangle.obj
 0002:00001590       ?minFError$initializer$@_VecMathTests@aos@shdfnd@physx@@3P6AXXZEA 000000018011f590     GuSweepSphereTriangle.obj
 0002:00001598       ?maxFError$initializer$@_VecMathTests@aos@shdfnd@physx@@3P6AXXZEA 000000018011f598     GuSweepSphereTriangle.obj
 0002:000015a0       ?minV3Error$initializer$@_VecMathTests@aos@shdfnd@physx@@3P6AXXZEA 000000018011f5a0     GuSweepSphereTriangle.obj
 0002:000015a8       ?maxV3Error$initializer$@_VecMathTests@aos@shdfnd@physx@@3P6AXXZEA 000000018011f5a8     GuSweepSphereTriangle.obj
 0002:000015b0       ?minV4Error$initializer$@_VecMathTests@aos@shdfnd@physx@@3P6AXXZEA 000000018011f5b0     GuSweepSphereTriangle.obj
 0002:000015b8       ?maxV4Error$initializer$@_VecMathTests@aos@shdfnd@physx@@3P6AXXZEA 000000018011f5b8     GuSweepSphereTriangle.obj
 0002:000015c0       ?minFError$initializer$@_VecMathTests@aos@shdfnd@physx@@3P6AXXZEA 000000018011f5c0     GuSweepTriangleUtils.obj
 0002:000015c8       ?maxFError$initializer$@_VecMathTests@aos@shdfnd@physx@@3P6AXXZEA 000000018011f5c8     GuSweepTriangleUtils.obj
 0002:000015d0       ?minV3Error$initializer$@_VecMathTests@aos@shdfnd@physx@@3P6AXXZEA 000000018011f5d0     GuSweepTriangleUtils.obj
 0002:000015d8       ?maxV3Error$initializer$@_VecMathTests@aos@shdfnd@physx@@3P6AXXZEA 000000018011f5d8     GuSweepTriangleUtils.obj
 0002:000015e0       ?minV4Error$initializer$@_VecMathTests@aos@shdfnd@physx@@3P6AXXZEA 000000018011f5e0     GuSweepTriangleUtils.obj
 0002:000015e8       ?maxV4Error$initializer$@_VecMathTests@aos@shdfnd@physx@@3P6AXXZEA 000000018011f5e8     GuSweepTriangleUtils.obj
 0002:00001e80       ?minus1w@?A0x01dd9b09@aos@shdfnd@physx@@3QBMB 000000018011fe80     GuBounds.obj
 0002:00001e90       ?gMaskXYZ@internalWindowsSimd@aos@shdfnd@physx@@3QBIB 000000018011fe90     GuBounds.obj
 0002:00001fe0       ?minus1w@?A0x824bbc84@aos@shdfnd@physx@@3QBMB 000000018011ffe0     GuBox.obj
 0002:00001ff0       ?gMaskXYZ@internalWindowsSimd@aos@shdfnd@physx@@3QBIB 000000018011fff0     GuBox.obj
 0002:00002010       ?minus1w@?A0x4b246e76@aos@shdfnd@physx@@3QBMB 0000000180120010     GuCCTSweepTests.obj
 0002:00002020       ?gMaskXYZ@internalWindowsSimd@aos@shdfnd@physx@@3QBIB 0000000180120020     GuCCTSweepTests.obj
 0002:00002040       ??_7LocalReport@?1??sweepBox_HeightFieldGeom_Precise@@YA_NAEBVPxGeometry@physx@@AEBVPxTransform@3@AEBVPxBoxGeometry@3@1AEBVBox@Gu@3@AEBVPxVec3@3@MAEAUPxSweepHit@3@V?$PxFlags@W4Enum@PxHitFlag@physx@@G@3@M@Z@6B@ 0000000180120040     GuCCTSweepTests.obj
 0002:00002060       ?minus1w@?A0x2da386cc@aos@shdfnd@physx@@3QBMB 0000000180120060     GuGeometryQuery.obj
 0002:00002070       ?gMaskXYZ@internalWindowsSimd@aos@shdfnd@physx@@3QBIB 0000000180120070     GuGeometryQuery.obj
 0002:00002600       ?minus1w@?A0x45a82078@aos@shdfnd@physx@@3QBMB 0000000180120600     GuGeometryUnion.obj
 0002:00002610       ?gMaskXYZ@internalWindowsSimd@aos@shdfnd@physx@@3QBIB 0000000180120610     GuGeometryUnion.obj
 0002:00002680       ?minus1w@?A0x362d179a@aos@shdfnd@physx@@3QBMB 0000000180120680     GuInternal.obj
 0002:00002690       ?gMaskXYZ@internalWindowsSimd@aos@shdfnd@physx@@3QBIB 0000000180120690     GuInternal.obj
 0002:000026a0       ?minus1w@?A0xc118eb05@aos@shdfnd@physx@@3QBMB 00000001801206a0     GuMeshFactory.obj
 0002:000026b0       ?gMaskXYZ@internalWindowsSimd@aos@shdfnd@physx@@3QBIB 00000001801206b0     GuMeshFactory.obj
 0002:000028d0       ?minus1w@?A0x016ff098@aos@shdfnd@physx@@3QBMB 00000001801208d0     GuMetaData.obj
 0002:000028e0       ?gMaskXYZ@internalWindowsSimd@aos@shdfnd@physx@@3QBIB 00000001801208e0     GuMetaData.obj
 0002:00003440       ?minus1w@?A0x4aa6a4fc@aos@shdfnd@physx@@3QBMB 0000000180121440     GuMTD.obj
 0002:00003450       ?gMaskXYZ@internalWindowsSimd@aos@shdfnd@physx@@3QBIB 0000000180121450     GuMTD.obj
 0002:00003630       ?minus1w@?A0xf19d72ff@aos@shdfnd@physx@@3QBMB 0000000180121630     GuOverlapTests.obj
 0002:00003640       ?gMaskXYZ@internalWindowsSimd@aos@shdfnd@physx@@3QBIB 0000000180121640     GuOverlapTests.obj
 0002:000037d0       ?minus1w@?A0x02500555@aos@shdfnd@physx@@3QBMB 00000001801217d0     GuRaycastTests.obj
 0002:000037e0       ?gMaskXYZ@internalWindowsSimd@aos@shdfnd@physx@@3QBIB 00000001801217e0     GuRaycastTests.obj
 0002:000037f0       ?gMidphaseRaycastTable@Gu@physx@@3QBQ6AIPEBVTriangleMesh@12@AEBVPxTriangleMeshGeometry@2@AEBVPxTransform@2@AEBVPxVec3@2@3MV?$PxFlags@W4Enum@PxHitFlag@physx@@G@2@IPEIAUPxRaycastHit@2@@ZB 00000001801217f0     GuRaycastTests.obj
 0002:00003830       ?minus1w@?A0x3f700561@aos@shdfnd@physx@@3QBMB 0000000180121830     GuSweepMTD.obj
 0002:00003840       ?gMaskXYZ@internalWindowsSimd@aos@shdfnd@physx@@3QBIB 0000000180121840     GuSweepMTD.obj
 0002:00003850       ?gMidphaseBoxCBOverlapTable@Gu@physx@@3QBQ6AXPEBVTriangleMesh@12@AEBVBox@12@AEAU?$MeshHitCallback@UPxRaycastHit@physx@@@12@_N3@ZB 0000000180121850     GuSweepMTD.obj
 0002:000038d0       ?minus1w@?A0xc364005f@aos@shdfnd@physx@@3QBMB 00000001801218d0     GuSweepSharedTests.obj
 0002:000038e0       ?gMaskXYZ@internalWindowsSimd@aos@shdfnd@physx@@3QBIB 00000001801218e0     GuSweepSharedTests.obj
 0002:00003910       ?minus1w@?A0x20c07924@aos@shdfnd@physx@@3QBMB 0000000180121910     GuSweepTests.obj
 0002:00003920       ?gMaskXYZ@internalWindowsSimd@aos@shdfnd@physx@@3QBIB 0000000180121920     GuSweepTests.obj
 0002:00003a30       ?minus1w@?A0x99be1588@aos@shdfnd@physx@@3QBMB 0000000180121a30     GuAABBTreeBuild.obj
 0002:00003a40       ?gMaskXYZ@internalWindowsSimd@aos@shdfnd@physx@@3QBIB 0000000180121a40     GuAABBTreeBuild.obj
 0002:00003ab0       ?minus1w@?A0x680eb5f6@aos@shdfnd@physx@@3QBMB 0000000180121ab0     GuBVHStructure.obj
 0002:00003ac0       ?gMaskXYZ@internalWindowsSimd@aos@shdfnd@physx@@3QBIB 0000000180121ac0     GuBVHStructure.obj
 0002:00003c60       ?minus1w@?A0x58bf8b61@aos@shdfnd@physx@@3QBMB 0000000180121c60     GuCCDSweepConvexMesh.obj
 0002:00003c70       ?gMaskXYZ@internalWindowsSimd@aos@shdfnd@physx@@3QBIB 0000000180121c70     GuCCDSweepConvexMesh.obj
 0002:00003c80       ?gMidphaseBoxCBOverlapTable@Gu@physx@@3QBQ6AXPEBVTriangleMesh@12@AEBVBox@12@AEAU?$MeshHitCallback@UPxRaycastHit@physx@@@12@_N3@ZB 0000000180121c80     GuCCDSweepConvexMesh.obj
 0002:00003c90       ??_7AccumCallback@?A0x58bf8b61@Gu@physx@@6B@ 0000000180121c90     GuCCDSweepConvexMesh.obj
 0002:00003ca0       ??_7EntityReportContainerCallback@?A0x58bf8b61@Gu@physx@@6B@ 0000000180121ca0     GuCCDSweepConvexMesh.obj
 0002:00003cb0       ??_7CB@?1??SweepEstimateAnyShapeMesh@Gu@physx@@YAMAEBUCCDShape@23@0AEBVPxTransform@3@111MM@Z@6B@ 0000000180121cb0     GuCCDSweepConvexMesh.obj
 0002:00003d00       ?minus1w@?A0x0ef033eb@aos@shdfnd@physx@@3QBMB 0000000180121d00     GuCCDSweepPrimitives.obj
 0002:00003d10       ?gMaskXYZ@internalWindowsSimd@aos@shdfnd@physx@@3QBIB 0000000180121d10     GuCCDSweepPrimitives.obj
 0002:00003d90       ?minus1w@?A0x01ac2773@aos@shdfnd@physx@@3QBMB 0000000180121d90     GuBarycentricCoordinates.obj
 0002:00003da0       ?gMaskXYZ@internalWindowsSimd@aos@shdfnd@physx@@3QBIB 0000000180121da0     GuBarycentricCoordinates.obj
 0002:00003db0       ?minus1w@?A0x2eece301@aos@shdfnd@physx@@3QBMB 0000000180121db0     GuContactBoxBox.obj
 0002:00003dc0       ?gMaskXYZ@internalWindowsSimd@aos@shdfnd@physx@@3QBIB 0000000180121dc0     GuContactBoxBox.obj
 0002:00003dd0       ?indices@?1??generateContacts@@YAHAEAVContactBuffer@Gu@physx@@AEBVPxVec3@4@MM1AEBVMatrix34@Cm@4@2M@Z@4QBHB 0000000180121dd0     GuContactBoxBox.obj
 0002:00003e30       ?face@?EK@??generateContacts@@YAHAEAVContactBuffer@Gu@physx@@AEBVPxVec3@4@MM1AEBVMatrix34@Cm@4@2M@Z@4QAY03$$CBHA 0000000180121e30     GuContactBoxBox.obj
 0002:00003ea0       ?minus1w@?A0x21c3d2d8@aos@shdfnd@physx@@3QBMB 0000000180121ea0     GuContactCapsuleBox.obj
 0002:00003eb0       ?gMaskXYZ@internalWindowsSimd@aos@shdfnd@physx@@3QBIB 0000000180121eb0     GuContactCapsuleBox.obj
 0002:00003ec0       ?minus1w@?A0xfd57e057@aos@shdfnd@physx@@3QBMB 0000000180121ec0     GuContactCapsuleCapsule.obj
 0002:00003ed0       ?gMaskXYZ@internalWindowsSimd@aos@shdfnd@physx@@3QBIB 0000000180121ed0     GuContactCapsuleCapsule.obj
 0002:00003ef0       ?minus1w@?A0xf093d3c0@aos@shdfnd@physx@@3QBMB 0000000180121ef0     GuContactCapsuleConvex.obj
 0002:00003f00       ?gMaskXYZ@internalWindowsSimd@aos@shdfnd@physx@@3QBIB 0000000180121f00     GuContactCapsuleConvex.obj
 0002:00003f10       ?minus1w@?A0xd0a6ead9@aos@shdfnd@physx@@3QBMB 0000000180121f10     GuContactCapsuleMesh.obj
