 PhysX_64

 Timestamp is 63f49226 (Tue Feb 21 10:43:02 2023)

 Preferred load address is 0000000180000000

 Start         Length     Name                   Class
 0001:00000000 00002ee0H .text$di                CODE
 0001:00002ee0 00197fd0H .text$mn                CODE
 0001:0019aeb0 00000036H .text$mn$00             CODE
 0001:0019aee6 0000009aH .text$x                 CODE
 0001:0019af80 0000001fH .text$yd                CODE
 0002:00000000 000001f8H .idata$5                DATA
 0002:000001f8 00000038H .00cfg                  DATA
 0002:00000230 00000008H .CRT$XCA                DATA
 0002:00000238 00001730H .CRT$XCU                DATA
 0002:00001968 00000008H .CRT$XCZ                DATA
 0002:00001970 00000008H .CRT$XIA                DATA
 0002:00001978 00000008H .CRT$XIZ                DATA
 0002:00001980 00000008H .CRT$XPA                DATA
 0002:00001988 00000008H .CRT$XPZ                DATA
 0002:00001990 00000008H .CRT$XTA                DATA
 0002:00001998 00000008H .CRT$XTZ                DATA
 0002:000019a0 00000000H .gehcont$y              DATA
 0002:000019a0 00000000H .gfids$y                DATA
 0002:000019a0 000220e0H .rdata                  DATA
 0002:00023a80 00000000H .rdata$CastGuardVftablesA DATA
 0002:00023a80 00000000H .rdata$CastGuardVftablesC DATA
 0002:00023a80 00000074H .rdata$r                DATA
 0002:00023af4 00000a28H .rdata$voltmd           DATA
 0002:0002451c 000003c4H .rdata$zzzdbg           DATA
 0002:000248e0 00000008H .rtc$IAA                DATA
 0002:000248e8 00000008H .rtc$IZZ                DATA
 0002:000248f0 00000008H .rtc$TAA                DATA
 0002:000248f8 00000008H .rtc$TZZ                DATA
 0002:00024900 00016fb8H .xdata                  DATA
 0002:0003b8b8 00000040H .didat$2                DATA
 0002:0003b8f8 00000020H .didat$3                DATA
 0002:0003b918 000006e8H .didat$4                DATA
 0002:0003c000 00004bc0H .didat$6                DATA
 0002:00040bc0 000006f0H .didat$7                DATA
 0002:000412b0 0000290cH .edata                  DATA
 0002:00043bbc 0000008cH .idata$2                DATA
 0002:00043c48 00000018H .idata$3                DATA
 0002:00043c60 000001f8H .idata$4                DATA
 0002:00043e58 000004e0H .idata$6                DATA
 0003:00000000 00001330H .data                   DATA
 0003:00001330 00000f38H .data$r                 DATA
 0003:00002268 00000020H .data$rs                DATA
 0003:00002288 000006e8H .didat$5                DATA
 0003:00002970 000031c8H .bss                    DATA
 0004:00000000 000121a4H .pdata                  DATA
 0005:00000000 00002208H _RDATA                  DATA
 0006:00000000 000000a0H .rsrc$01                DATA
 0006:000000a0 00000488H .rsrc$02                DATA

  Address         Publics by Value              Rva+Base               Lib:Object

 0000:00000000       __AbsoluteZero             0000000000000000     <absolute>
 0000:00000000       ___safe_se_handler_count   0000000000000000     <absolute>
 0000:00000000       ___safe_se_handler_table   0000000000000000     <absolute>
 0000:00000000       __arm64x_extra_rfe_table   0000000000000000     <absolute>
 0000:00000000       __arm64x_extra_rfe_table_size 0000000000000000     <absolute>
 0000:00000000       __arm64x_native_entrypoint 0000000000000000     <absolute>
 0000:00000000       __arm64x_redirection_metadata 0000000000000000     <absolute>
 0000:00000000       __arm64x_redirection_metadata_count 0000000000000000     <absolute>
 0000:00000000       __dynamic_value_reloc_table 0000000000000000     <absolute>
 0000:00000000       __enclave_config           0000000000000000     <absolute>
 0000:00000000       __guard_check_icall_a64n_fptr 0000000000000000     <absolute>
 0000:00000000       __guard_eh_cont_count      0000000000000000     <absolute>
 0000:00000000       __guard_eh_cont_table      0000000000000000     <absolute>
 0000:00000000       __guard_fids_count         0000000000000000     <absolute>
 0000:00000000       __guard_fids_table         0000000000000000     <absolute>
 0000:00000000       __guard_iat_count          0000000000000000     <absolute>
 0000:00000000       __guard_iat_table          0000000000000000     <absolute>
 0000:00000000       __guard_longjmp_count      0000000000000000     <absolute>
 0000:00000000       __guard_longjmp_table      0000000000000000     <absolute>
 0000:00000000       __hybrid_auxiliary_iat     0000000000000000     <absolute>
 0000:00000000       __hybrid_auxiliary_iat_copy 0000000000000000     <absolute>
 0000:00000000       __hybrid_code_map          0000000000000000     <absolute>
 0000:00000000       __hybrid_code_map_count    0000000000000000     <absolute>
 0000:00000000       __x64_code_ranges_to_entry_points 0000000000000000     <absolute>
 0000:00000000       __x64_code_ranges_to_entry_points_count 0000000000000000     <absolute>
 0000:00000100       __guard_flags              0000000000000100     <absolute>
 0000:00000000       __ImageBase                0000000180000000     <linker-defined>
 0001:00002ee0       ??0PxActorGeneratedInfo@physx@@QEAA@XZ 0000000180003ee0 f   PxAutoGeneratedMetaDataObjects.obj
 0001:00003010       ??0PxActorGeneratedValues@physx@@QEAA@PEBVPxActor@1@@Z 0000000180004010 f   PxAutoGeneratedMetaDataObjects.obj
 0001:00003090       ??0PxAggregateGeneratedInfo@physx@@QEAA@XZ 0000000180004090 f   PxAutoGeneratedMetaDataObjects.obj
 0001:00003120       ??0PxAggregateGeneratedValues@physx@@QEAA@PEBVPxAggregate@1@@Z 0000000180004120 f   PxAutoGeneratedMetaDataObjects.obj
 0001:00003170       ??0PxArticulationBaseGeneratedInfo@physx@@QEAA@XZ 0000000180004170 f   PxAutoGeneratedMetaDataObjects.obj
 0001:00003340       ??0PxArticulationBaseGeneratedValues@physx@@QEAA@PEBVPxArticulationBase@1@@Z 0000000180004340 f   PxAutoGeneratedMetaDataObjects.obj
 0001:000033e0       ??0PxArticulationGeneratedInfo@physx@@QEAA@XZ 00000001800043e0 f   PxAutoGeneratedMetaDataObjects.obj
 0001:000034d0       ??0PxArticulationGeneratedValues@physx@@QEAA@PEBVPxArticulation@1@@Z 00000001800044d0 f   PxAutoGeneratedMetaDataObjects.obj
 0001:00003540       ??0PxArticulationJointBaseGeneratedInfo@physx@@QEAA@XZ 0000000180004540 f   PxAutoGeneratedMetaDataObjects.obj
 0001:000035a0       ??0PxArticulationJointBaseGeneratedValues@physx@@QEAA@PEBVPxArticulationJointBase@1@@Z 00000001800045a0 f   PxAutoGeneratedMetaDataObjects.obj
 0001:000035e0       ??0PxArticulationJointGeneratedInfo@physx@@QEAA@XZ 00000001800045e0 f   PxAutoGeneratedMetaDataObjects.obj
 0001:00003990       ??0PxArticulationJointGeneratedValues@physx@@QEAA@PEBVPxArticulationJoint@1@@Z 0000000180004990 f   PxAutoGeneratedMetaDataObjects.obj
 0001:00003ae0       ??0PxArticulationJointReducedCoordinateGeneratedInfo@physx@@QEAA@XZ 0000000180004ae0 f   PxAutoGeneratedMetaDataObjects.obj
 0001:00003c20       ??0PxArticulationJointReducedCoordinateGeneratedValues@physx@@QEAA@PEBVPxArticulationJointReducedCoordinate@1@@Z 0000000180004c20 f   PxAutoGeneratedMetaDataObjects.obj
 0001:00003ce0       ??0PxArticulationLinkGeneratedInfo@physx@@QEAA@XZ 0000000180004ce0 f   PxAutoGeneratedMetaDataObjects.obj
 0001:00003dd0       ??0PxArticulationLinkGeneratedValues@physx@@QEAA@PEBVPxArticulationLink@1@@Z 0000000180004dd0 f   PxAutoGeneratedMetaDataObjects.obj
 0001:00003e40       ??0PxArticulationReducedCoordinateGeneratedInfo@physx@@QEAA@XZ 0000000180004e40 f   PxAutoGeneratedMetaDataObjects.obj
 0001:00003f00       ??0PxArticulationReducedCoordinateGeneratedValues@physx@@QEAA@PEBVPxArticulationReducedCoordinate@1@@Z 0000000180004f00 f   PxAutoGeneratedMetaDataObjects.obj
 0001:00003f60       ??0PxBoxGeometryGeneratedInfo@physx@@QEAA@XZ 0000000180004f60 f   PxAutoGeneratedMetaDataObjects.obj
 0001:00003f90       ??0PxBoxGeometryGeneratedValues@physx@@QEAA@PEBVPxBoxGeometry@1@@Z 0000000180004f90 f   PxAutoGeneratedMetaDataObjects.obj
 0001:00003f90       ?getPxBoxGeometryHalfExtents@@YA?AVPxVec3@physx@@PEBVPxBoxGeometry@2@@Z 0000000180004f90 f   PxAutoGeneratedMetaDataObjects.obj
 0001:00003fb0       ??0PxCapsuleGeometryGeneratedInfo@physx@@QEAA@XZ 0000000180004fb0 f   PxAutoGeneratedMetaDataObjects.obj
 0001:00004010       ??0PxCapsuleGeometryGeneratedValues@physx@@QEAA@PEBVPxCapsuleGeometry@1@@Z 0000000180005010 f   PxAutoGeneratedMetaDataObjects.obj
 0001:00004020       ??0PxConstraintGeneratedInfo@physx@@QEAA@XZ 0000000180005020 f   PxAutoGeneratedMetaDataObjects.obj
 0001:00004170       ??0PxConstraintGeneratedValues@physx@@QEAA@PEBVPxConstraint@1@@Z 0000000180005170 f   PxAutoGeneratedMetaDataObjects.obj
 0001:00004200       ??0PxConvexMeshGeometryGeneratedInfo@physx@@QEAA@XZ 0000000180005200 f   PxAutoGeneratedMetaDataObjects.obj
 0001:00004280       ??0PxConvexMeshGeometryGeneratedValues@physx@@QEAA@PEBVPxConvexMeshGeometry@1@@Z 0000000180005280 f   PxAutoGeneratedMetaDataObjects.obj
 0001:000042c0       ??0Allocator@shdfnd@physx@@QEAA@PEBD@Z 00000001800052c0 f   PxMetaDataObjects.obj
 0001:000042c0       ??0PxGeometryGeneratedInfo@physx@@QEAA@XZ 00000001800052c0 f   PxAutoGeneratedMetaDataObjects.obj
 0001:000042c0       ??0PxGeometryGeneratedValues@physx@@QEAA@PEBVPxGeometry@1@@Z 00000001800052c0 f   PxAutoGeneratedMetaDataObjects.obj
 0001:000042c0       ??0PxPlaneGeometryGeneratedInfo@physx@@QEAA@XZ 00000001800052c0 f   PxAutoGeneratedMetaDataObjects.obj
 0001:000042c0       ??0PxPlaneGeometryGeneratedValues@physx@@QEAA@PEBVPxPlaneGeometry@1@@Z 00000001800052c0 f   PxAutoGeneratedMetaDataObjects.obj
 0001:000042c0       ??4Allocator@shdfnd@physx@@QEAAAEAV012@$$QEAV012@@Z 00000001800052c0 f   PxMetaDataObjects.obj
 0001:000042c0       ??4Allocator@shdfnd@physx@@QEAAAEAV012@AEBV012@@Z 00000001800052c0 f   PxMetaDataObjects.obj
 0001:000042c0       ??4MutexImpl@shdfnd@physx@@QEAAAEAV012@AEBV012@@Z 00000001800052c0 f   PxMetaDataObjects.obj
 0001:000042c0       ??4PxFoundation@physx@@QEAAAEAV01@AEBV01@@Z 00000001800052c0 f   PxMetaDataObjects.obj
 0001:000042c0       ??4SyncImpl@shdfnd@physx@@QEAAAEAV012@AEBV012@@Z 00000001800052c0 f   NpActor.obj
 0001:000042c0       ??4ThreadImpl@shdfnd@physx@@QEAAAEAV012@AEBV012@@Z 00000001800052c0 f   NpActor.obj
 0001:000042d0       ??0PxHeightFieldDescGeneratedInfo@physx@@QEAA@XZ 00000001800052d0 f   PxAutoGeneratedMetaDataObjects.obj
 0001:000043e0       ??0PxHeightFieldDescGeneratedValues@physx@@QEAA@PEBVPxHeightFieldDesc@1@@Z 00000001800053e0 f   PxAutoGeneratedMetaDataObjects.obj
 0001:00004410       ??0PxHeightFieldGeometryGeneratedInfo@physx@@QEAA@XZ 0000000180005410 f   PxAutoGeneratedMetaDataObjects.obj
 0001:000044f0       ??0PxHeightFieldGeometryGeneratedValues@physx@@QEAA@PEBVPxHeightFieldGeometry@1@@Z 00000001800054f0 f   PxAutoGeneratedMetaDataObjects.obj
 0001:00004520       ??0PxMaterialGeneratedInfo@physx@@QEAA@XZ 0000000180005520 f   PxAutoGeneratedMetaDataObjects.obj
 0001:000046b0       ??0PxMaterialGeneratedValues@physx@@QEAA@PEBVPxMaterial@1@@Z 00000001800056b0 f   PxAutoGeneratedMetaDataObjects.obj
 0001:00004750       ??0PxMeshScaleGeneratedInfo@physx@@QEAA@XZ 0000000180005750 f   PxAutoGeneratedMetaDataObjects.obj
 0001:000047b0       ??0PxMeshScaleGeneratedValues@physx@@QEAA@PEBVPxMeshScale@1@@Z 00000001800057b0 f   PxAutoGeneratedMetaDataObjects.obj
 0001:000047e0       ??0PxPhysicsGeneratedInfo@physx@@QEAA@XZ 00000001800057e0 f   PxAutoGeneratedMetaDataObjects.obj
 0001:00004990       ??0PxPhysicsGeneratedValues@physx@@QEAA@PEBVPxPhysics@1@@Z 0000000180005990 f   PxAutoGeneratedMetaDataObjects.obj
 0001:00004990       ?getPxPhysics_TolerancesScale@@YA?BVPxTolerancesScale@physx@@PEBVPxPhysics@2@@Z 0000000180005990 f   PxAutoGeneratedMetaDataObjects.obj
 0001:000049c0       ??0PxPruningStructureGeneratedInfo@physx@@QEAA@XZ 00000001800059c0 f   PxAutoGeneratedMetaDataObjects.obj
 0001:00004a10       ??0PxPruningStructureGeneratedValues@physx@@QEAA@PEBVPxPruningStructure@1@@Z 0000000180005a10 f   PxAutoGeneratedMetaDataObjects.obj
 0001:00004a30       ??0PxRigidActorGeneratedInfo@physx@@QEAA@XZ 0000000180005a30 f   PxAutoGeneratedMetaDataObjects.obj
 0001:00004af0       ??0PxRigidActorGeneratedValues@physx@@QEAA@PEBVPxRigidActor@1@@Z 0000000180005af0 f   PxAutoGeneratedMetaDataObjects.obj
 0001:00004b30       ??0PxRigidBodyGeneratedInfo@physx@@QEAA@XZ 0000000180005b30 f   PxAutoGeneratedMetaDataObjects.obj
 0001:00004e40       ??0PxRigidBodyGeneratedValues@physx@@QEAA@PEBVPxRigidBody@1@@Z 0000000180005e40 f   PxAutoGeneratedMetaDataObjects.obj
 0001:00004f90       ??0PxRigidDynamicGeneratedInfo@physx@@QEAA@XZ 0000000180005f90 f   PxAutoGeneratedMetaDataObjects.obj
 0001:00005150       ??0PxRigidDynamicGeneratedValues@physx@@QEAA@PEBVPxRigidDynamic@1@@Z 0000000180006150 f   PxAutoGeneratedMetaDataObjects.obj
 0001:00005220       ??0PxRigidStaticGeneratedInfo@physx@@QEAA@XZ 0000000180006220 f   PxAutoGeneratedMetaDataObjects.obj
 0001:00005260       ??0PxRigidStaticGeneratedValues@physx@@QEAA@PEBVPxRigidStatic@1@@Z 0000000180006260 f   PxAutoGeneratedMetaDataObjects.obj
 0001:000052a0       ??0PxSceneDescGeneratedInfo@physx@@QEAA@XZ 00000001800062a0 f   PxAutoGeneratedMetaDataObjects.obj
 0001:00005ac0       ??0PxSceneDescGeneratedValues@physx@@QEAA@PEBVPxSceneDesc@1@@Z 0000000180006ac0 f   PxAutoGeneratedMetaDataObjects.obj
 0001:00005cd0       ??0PxSceneGeneratedInfo@physx@@QEAA@XZ 0000000180006cd0 f   PxAutoGeneratedMetaDataObjects.obj
 0001:000063a0       ??0PxSceneGeneratedValues@physx@@QEAA@PEBVPxScene@1@@Z 00000001800073a0 f   PxAutoGeneratedMetaDataObjects.obj
 0001:000066c0       ??0PxSceneLimitsGeneratedInfo@physx@@QEAA@XZ 00000001800076c0 f   PxAutoGeneratedMetaDataObjects.obj
 0001:00006840       ??0PxSceneLimitsGeneratedValues@physx@@QEAA@PEBVPxSceneLimits@1@@Z 0000000180007840 f   PxAutoGeneratedMetaDataObjects.obj
 0001:00006840       ??0PxgDynamicsMemoryConfigGeneratedValues@physx@@QEAA@PEBUPxgDynamicsMemoryConfig@1@@Z 0000000180007840 f   PxAutoGeneratedMetaDataObjects.obj
 0001:00006880       ??0PxShapeGeneratedInfo@physx@@QEAA@XZ 0000000180007880 f   PxAutoGeneratedMetaDataObjects.obj
 0001:00006b50       ??0PxShapeGeneratedValues@physx@@QEAA@PEBVPxShape@1@@Z 0000000180007b50 f   PxAutoGeneratedMetaDataObjects.obj
 0001:00006c60       ??0PxSimulationStatisticsGeneratedInfo@physx@@QEAA@XZ 0000000180007c60 f   PxAutoGeneratedMetaDataObjects.obj
 0001:00007100       ??0PxSimulationStatisticsGeneratedValues@physx@@QEAA@PEBVPxSimulationStatistics@1@@Z 0000000180008100 f   PxAutoGeneratedMetaDataObjects.obj
 0001:000073e0       ??0PxSphereGeometryGeneratedInfo@physx@@QEAA@XZ 00000001800083e0 f   PxAutoGeneratedMetaDataObjects.obj
 0001:00007410       ??0PxSphereGeometryGeneratedValues@physx@@QEAA@PEBVPxSphereGeometry@1@@Z 0000000180008410 f   PxAutoGeneratedMetaDataObjects.obj
 0001:00007420       ??0PxTolerancesScaleGeneratedInfo@physx@@QEAA@XZ 0000000180008420 f   PxAutoGeneratedMetaDataObjects.obj
 0001:00007490       ??0PxTolerancesScaleGeneratedValues@physx@@QEAA@PEBVPxTolerancesScale@1@@Z 0000000180008490 f   PxAutoGeneratedMetaDataObjects.obj
 0001:000074b0       ??0PxTriangleMeshGeometryGeneratedInfo@physx@@QEAA@XZ 00000001800084b0 f   PxAutoGeneratedMetaDataObjects.obj
 0001:00007530       ??0PxTriangleMeshGeometryGeneratedValues@physx@@QEAA@PEBVPxTriangleMeshGeometry@1@@Z 0000000180008530 f   PxAutoGeneratedMetaDataObjects.obj
 0001:00007570       ??0PxgDynamicsMemoryConfigGeneratedInfo@physx@@QEAA@XZ 0000000180008570 f   PxAutoGeneratedMetaDataObjects.obj
 0001:000076f0       ?createPxPhysics_BVHStructures@@YAPEAVPxBVHStructure@physx@@PEAVPxPhysics@2@AEAVPxInputStream@2@@Z 00000001800086f0 f   PxAutoGeneratedMetaDataObjects.obj
 0001:000076f0       ?getPxActor_DominanceGroup@@YAEPEBVPxActor@physx@@@Z 00000001800086f0 f   PxAutoGeneratedMetaDataObjects.obj
 0001:000076f0       ?getPxArticulationBase_WakeCounter@@YAMPEBVPxArticulationBase@physx@@@Z 00000001800086f0 f   PxAutoGeneratedMetaDataObjects.obj
 0001:000076f0       ?getPxArticulationJointReducedCoordinate_JointType@@YA?AW4Enum@PxArticulationJointType@physx@@PEBVPxArticulationJointReducedCoordinate@3@@Z 00000001800086f0 f   PxAutoGeneratedMetaDataObjects.obj
 0001:000076f0       ?setPxConstraint_BreakForce@@YAXPEAVPxConstraint@physx@@MM@Z 00000001800086f0 f   PxAutoGeneratedMetaDataObjects.obj
 0001:00007700       ?createPxPhysics_ConvexMeshes@@YAPEAVPxConvexMesh@physx@@PEAVPxPhysics@2@AEAVPxInputStream@2@@Z 0000000180008700 f   PxAutoGeneratedMetaDataObjects.obj
 0001:00007700       ?setPxArticulationBase_StabilizationThreshold@@YAXPEAVPxArticulationBase@physx@@M@Z 0000000180008700 f   PxAutoGeneratedMetaDataObjects.obj
 0001:00007700       ?setPxMaterial_Restitution@@YAXPEAVPxMaterial@physx@@M@Z 0000000180008700 f   PxAutoGeneratedMetaDataObjects.obj
 0001:00007710       ?createPxPhysics_HeightFields@@YAPEAVPxHeightField@physx@@PEAVPxPhysics@2@AEAVPxInputStream@2@@Z 0000000180008710 f   PxAutoGeneratedMetaDataObjects.obj
 0001:00007710       ?getPxActor_Name@@YAPEBDPEBVPxActor@physx@@@Z 0000000180008710 f   PxAutoGeneratedMetaDataObjects.obj
 0001:00007710       ?getPxArticulationBase_IsSleeping@@YA_NPEBVPxArticulationBase@physx@@@Z 0000000180008710 f   PxAutoGeneratedMetaDataObjects.obj
 0001:00007710       ?getPxMaterial_DynamicFriction@@YAMPEBVPxMaterial@physx@@@Z 0000000180008710 f   PxAutoGeneratedMetaDataObjects.obj
 0001:00007710       ?setPxShape_Geometry@@YAXPEAVPxShape@physx@@AEBVPxGeometry@2@@Z 0000000180008710 f   PxAutoGeneratedMetaDataObjects.obj
 0001:00007720       ?createPxPhysics_Scenes@@YAPEAVPxScene@physx@@PEAVPxPhysics@2@AEBVPxSceneDesc@2@@Z 0000000180008720 f   PxAutoGeneratedMetaDataObjects.obj
 0001:00007720       ?getPxActor_Aggregate@@YAPEAVPxAggregate@physx@@PEBVPxActor@2@@Z 0000000180008720 f   PxAutoGeneratedMetaDataObjects.obj
 0001:00007720       ?getPxConstraint_MinResponseThreshold@@YAMPEBVPxConstraint@physx@@@Z 0000000180008720 f   PxAutoGeneratedMetaDataObjects.obj
 0001:00007720       ?getPxMaterial_FrictionCombineMode@@YA?AW4Enum@PxCombineMode@physx@@PEBVPxMaterial@3@@Z 0000000180008720 f   PxAutoGeneratedMetaDataObjects.obj
 0001:00007720       ?setPxArticulationJoint_DriveType@@YAXPEAVPxArticulationJoint@physx@@W4Enum@PxArticulationJointDriveType@2@@Z 0000000180008720 f   PxAutoGeneratedMetaDataObjects.obj
 0001:00007730       ?createPxPhysics_TriangleMeshes@@YAPEAVPxTriangleMesh@physx@@PEAVPxPhysics@2@AEAVPxInputStream@2@@Z 0000000180008730 f   PxAutoGeneratedMetaDataObjects.obj
 0001:00007730       ?getPxArticulationBase_Scene@@YAPEAVPxScene@physx@@PEBVPxArticulationBase@2@@Z 0000000180008730 f   PxAutoGeneratedMetaDataObjects.obj
 0001:00007730       ?getPxConstraint_Scene@@YAPEAVPxScene@physx@@PEBVPxConstraint@2@@Z 0000000180008730 f   PxAutoGeneratedMetaDataObjects.obj
 0001:00007730       ?getPxMaterial_ReferenceCount@@YAIPEBVPxMaterial@physx@@@Z 0000000180008730 f   PxAutoGeneratedMetaDataObjects.obj
 0001:00007730       ?getPxShape_ReferenceCount@@YAIPEBVPxShape@physx@@@Z 0000000180008730 f   PxAutoGeneratedMetaDataObjects.obj
 0001:00007740       ?getNbPxAggregate_Actors@@YAIPEBVPxAggregate@physx@@@Z 0000000180008740 f   PxAutoGeneratedMetaDataObjects.obj
 0001:00007740       ?getNbPxPhysics_HeightFields@@YAIPEBVPxPhysics@physx@@@Z 0000000180008740 f   PxAutoGeneratedMetaDataObjects.obj
 0001:00007740       ?setPxArticulationBase_SleepThreshold@@YAXPEAVPxArticulationBase@physx@@M@Z 0000000180008740 f   PxAutoGeneratedMetaDataObjects.obj
 0001:00007740       ?setPxArticulationJointBase_ChildPose@@YAXPEAVPxArticulationJointBase@physx@@AEBVPxTransform@2@@Z 0000000180008740 f   PxAutoGeneratedMetaDataObjects.obj
 0001:00007740       ?setPxMaterial_StaticFriction@@YAXPEAVPxMaterial@physx@@M@Z 0000000180008740 f   PxAutoGeneratedMetaDataObjects.obj
 0001:00007750       ?getNbPxArticulationBase_Links@@YAIPEBVPxArticulationBase@physx@@@Z 0000000180008750 f   PxAutoGeneratedMetaDataObjects.obj
 0001:00007750       ?getNbPxPhysics_Scenes@@YAIPEBVPxPhysics@physx@@@Z 0000000180008750 f   PxAutoGeneratedMetaDataObjects.obj
 0001:00007750       ?getPxArticulationJoint_DriveType@@YA?AW4Enum@PxArticulationJointDriveType@physx@@PEBVPxArticulationJoint@3@@Z 0000000180008750 f   PxAutoGeneratedMetaDataObjects.obj
 0001:00007750       ?setPxMaterial_RestitutionCombineMode@@YAXPEAVPxMaterial@physx@@W4Enum@PxCombineMode@2@@Z 0000000180008750 f   PxAutoGeneratedMetaDataObjects.obj
 0001:00007750       ?setPxShape_LocalPose@@YAXPEAVPxShape@physx@@AEBVPxTransform@2@@Z 0000000180008750 f   PxAutoGeneratedMetaDataObjects.obj
 0001:00007760       ?getNbPxArticulationLink_Children@@YAIPEBVPxArticulationLink@physx@@@Z 0000000180008760 f   PxAutoGeneratedMetaDataObjects.obj
 0001:00007760       ?getPxScene_CCDMaxPasses@@YAIPEBVPxScene@physx@@@Z 0000000180008760 f   PxAutoGeneratedMetaDataObjects.obj
 0001:00007760       ?setPxRigidDynamic_SleepThreshold@@YAXPEAVPxRigidDynamic@physx@@M@Z 0000000180008760 f   PxAutoGeneratedMetaDataObjects.obj
 0001:00007770       ?getNbPxPhysics_BVHStructures@@YAIPEBVPxPhysics@physx@@@Z 0000000180008770 f   PxAutoGeneratedMetaDataObjects.obj
 0001:00007770       ?getPxConstraint_BreakForce@@YAXPEBVPxConstraint@physx@@AEAM1@Z 0000000180008770 f   PxAutoGeneratedMetaDataObjects.obj
 0001:00007770       ?setPxActor_OwnerClient@@YAXPEAVPxActor@physx@@E@Z 0000000180008770 f   PxAutoGeneratedMetaDataObjects.obj
 0001:00007770       ?setPxArticulationJointReducedCoordinate_Motion@@YAXPEAVPxArticulationJointReducedCoordinate@physx@@W4Enum@PxArticulationAxis@2@W43PxArticulationMotion@2@@Z 0000000180008770 f   PxAutoGeneratedMetaDataObjects.obj
 0001:00007770       ?setPxArticulationJoint_TargetVelocity@@YAXPEAVPxArticulationJoint@physx@@AEBVPxVec3@2@@Z 0000000180008770 f   PxAutoGeneratedMetaDataObjects.obj
 0001:00007780       ?getNbPxPhysics_ConvexMeshes@@YAIPEBVPxPhysics@physx@@@Z 0000000180008780 f   PxAutoGeneratedMetaDataObjects.obj
 0001:00007780       ?getPxArticulationBase_StabilizationThreshold@@YAMPEBVPxArticulationBase@physx@@@Z 0000000180008780 f   PxAutoGeneratedMetaDataObjects.obj
 0001:00007780       ?getPxMaterial_Restitution@@YAMPEBVPxMaterial@physx@@@Z 0000000180008780 f   PxAutoGeneratedMetaDataObjects.obj
 0001:00007790       ?getNbPxPhysics_Materials@@YAIPEBVPxPhysics@physx@@@Z 0000000180008790 f   PxAutoGeneratedMetaDataObjects.obj
 0001:00007790       ?getPxArticulationJoint_TangentialStiffness@@YAMPEBVPxArticulationJoint@physx@@@Z 0000000180008790 f   PxAutoGeneratedMetaDataObjects.obj
 0001:00007790       ?getPxRigidBody_InvMass@@YAMPEBVPxRigidBody@physx@@@Z 0000000180008790 f   PxAutoGeneratedMetaDataObjects.obj
 0001:00007790       ?getPxScene_CudaContextManager@@YAPEAVPxCudaContextManager@physx@@PEBVPxScene@2@@Z 0000000180008790 f   PxAutoGeneratedMetaDataObjects.obj
 0001:00007790       ?setPxArticulation_SeparationTolerance@@YAXPEAVPxArticulation@physx@@M@Z 0000000180008790 f   PxAutoGeneratedMetaDataObjects.obj
 0001:00007790       ?setPxShape_RestOffset@@YAXPEAVPxShape@physx@@M@Z 0000000180008790 f   PxAutoGeneratedMetaDataObjects.obj
 0001:000077a0       ?getNbPxPhysics_Shapes@@YAIPEBVPxPhysics@physx@@@Z 00000001800087a0 f   PxAutoGeneratedMetaDataObjects.obj
 0001:000077a0       ?getNbPxRigidActor_Constraints@@YAIPEBVPxRigidActor@physx@@@Z 00000001800087a0 f   PxAutoGeneratedMetaDataObjects.obj
 0001:000077a0       ?getPxArticulationJoint_InternalCompliance@@YAMPEBVPxArticulationJoint@physx@@@Z 00000001800087a0 f   PxAutoGeneratedMetaDataObjects.obj
 0001:000077b0       ?getNbPxPhysics_TriangleMeshes@@YAIPEBVPxPhysics@physx@@@Z 00000001800087b0 f   PxAutoGeneratedMetaDataObjects.obj
 0001:000077b0       ?getNbPxPruningStructure_RigidActors@@YAIPEBVPxPruningStructure@physx@@@Z 00000001800087b0 f   PxAutoGeneratedMetaDataObjects.obj
 0001:000077b0       ?getPxActor_Scene@@YAPEAVPxScene@physx@@PEBVPxActor@2@@Z 00000001800087b0 f   PxAutoGeneratedMetaDataObjects.obj
 0001:000077b0       ?getPxConstraint_Actors@@YAXPEBVPxConstraint@physx@@AEAPEAVPxRigidActor@2@1@Z 00000001800087b0 f   PxAutoGeneratedMetaDataObjects.obj
 0001:000077b0       ?setPxArticulationBase_SolverIterationCounts@@YAXPEAVPxArticulationBase@physx@@II@Z 00000001800087b0 f   PxAutoGeneratedMetaDataObjects.obj
 0001:000077b0       ?setPxArticulationJointBase_ParentPose@@YAXPEAVPxArticulationJointBase@physx@@AEBVPxTransform@2@@Z 00000001800087b0 f   PxAutoGeneratedMetaDataObjects.obj
 0001:000077c0       ?getNbPxRigidActor_Shapes@@YAIPEBVPxRigidActor@physx@@@Z 00000001800087c0 f   PxAutoGeneratedMetaDataObjects.obj
 0001:000077c0       ?getPxArticulationJoint_Damping@@YAMPEBVPxArticulationJoint@physx@@@Z 00000001800087c0 f   PxAutoGeneratedMetaDataObjects.obj
 0001:000077c0       ?setPxShape_QueryFilterData@@YAXPEAVPxShape@physx@@AEBUPxFilterData@2@@Z 00000001800087c0 f   PxAutoGeneratedMetaDataObjects.obj
 0001:000077d0       ?getNbPxScene_Actors@@YAIPEBVPxScene@physx@@V?$PxFlags@W4Enum@PxActorTypeFlag@physx@@G@2@@Z 00000001800087d0 f   PxAutoGeneratedMetaDataObjects.obj
 0001:000077f0       ?getNbPxScene_Aggregates@@YAIPEBVPxScene@physx@@@Z 00000001800087f0 f   PxAutoGeneratedMetaDataObjects.obj
 0001:000077f0       ?setPxArticulationJointReducedCoordinate_FrictionCoefficient@@YAXPEAVPxArticulationJointReducedCoordinate@physx@@M@Z 00000001800087f0 f   PxAutoGeneratedMetaDataObjects.obj
 0001:000077f0       ?setPxArticulationJoint_ExternalCompliance@@YAXPEAVPxArticulationJoint@physx@@M@Z 00000001800087f0 f   PxAutoGeneratedMetaDataObjects.obj
 0001:00007800       ?getNbPxScene_Articulations@@YAIPEBVPxScene@physx@@@Z 0000000180008800 f   PxAutoGeneratedMetaDataObjects.obj
 0001:00007800       ?getPxArticulationBase_Name@@YAPEBDPEBVPxArticulationBase@physx@@@Z 0000000180008800 f   PxAutoGeneratedMetaDataObjects.obj
 0001:00007800       ?setPxArticulationJoint_Damping@@YAXPEAVPxArticulationJoint@physx@@M@Z 0000000180008800 f   PxAutoGeneratedMetaDataObjects.obj
 0001:00007810       ?getNbPxScene_BroadPhaseRegions@@YAIPEBVPxScene@physx@@@Z 0000000180008810 f   PxAutoGeneratedMetaDataObjects.obj
 0001:00007820       ?getNbPxScene_Constraints@@YAIPEBVPxScene@physx@@@Z 0000000180008820 f   PxAutoGeneratedMetaDataObjects.obj
 0001:00007820       ?getPxArticulationBase_Aggregate@@YAPEAVPxAggregate@physx@@PEBVPxArticulationBase@2@@Z 0000000180008820 f   PxAutoGeneratedMetaDataObjects.obj
 0001:00007820       ?setPxArticulationJoint_InternalCompliance@@YAXPEAVPxArticulationJoint@physx@@M@Z 0000000180008820 f   PxAutoGeneratedMetaDataObjects.obj
 0001:00007830       ?getNbPxShape_Materials@@YAIPEBVPxShape@physx@@@Z 0000000180008830 f   PxAutoGeneratedMetaDataObjects.obj
 0001:00007850       ?getCpuDispatcher@PxTaskMgr@physx@@UEBAPEAVPxCpuDispatcher@2@XZ 0000000180008850 f i PhysXTask_static_64:TaskManager.obj
 0001:00007850       ?getCreatedPairs@BroadPhaseABP@Bp@physx@@UEAAPEAUBroadPhasePair@23@XZ 0000000180008850 f i LowLevelAABB_static_64:BpBroadPhaseABP.obj
 0001:00007850       ?getErrorCallback@Foundation@shdfnd@physx@@UEAAAEAVPxErrorCallback@3@XZ 0000000180008850 f i PxMetaDataObjects.obj
 0001:00007850       ?getPxActorUserData@@YAPEAXPEBVPxActor@physx@@@Z 0000000180008850 f i PxAutoGeneratedMetaDataObjects.obj
 0001:00007850       ?getPxArticulationBaseUserData@@YAPEAXPEBVPxArticulationBase@physx@@@Z 0000000180008850 f i PxAutoGeneratedMetaDataObjects.obj
 0001:00007850       ?getPxMaterialUserData@@YAPEAXPEBVPxMaterial@physx@@@Z 0000000180008850 f i PxAutoGeneratedMetaDataObjects.obj
 0001:00007850       ?getPxSceneDescSimulationEventCallback@@YAPEAVPxSimulationEventCallback@physx@@PEBVPxSceneDesc@2@@Z 0000000180008850 f i PxAutoGeneratedMetaDataObjects.obj
 0001:00007850       ?getPxShapeUserData@@YAPEAXPEBVPxShape@physx@@@Z 0000000180008850 f i PxAutoGeneratedMetaDataObjects.obj
 0001:00007860       ?getPxActor_ActorFlags@@YA?AV?$PxFlags@W4Enum@PxActorFlag@physx@@E@physx@@PEBVPxActor@2@@Z 0000000180008860 f   PxAutoGeneratedMetaDataObjects.obj
 0001:00007890       ?getPxActor_OwnerClient@@YAEPEBVPxActor@physx@@@Z 0000000180008890 f   PxAutoGeneratedMetaDataObjects.obj
 0001:00007890       ?getPxArticulationJointReducedCoordinate_Motion@@YA?AW4Enum@PxArticulationMotion@physx@@PEBVPxArticulationJointReducedCoordinate@3@W41PxArticulationAxis@3@@Z 0000000180008890 f   PxAutoGeneratedMetaDataObjects.obj
 0001:00007890       ?setPxConstraint_MinResponseThreshold@@YAXPEAVPxConstraint@physx@@M@Z 0000000180008890 f   PxAutoGeneratedMetaDataObjects.obj
 0001:00007890       ?setPxMaterial_FrictionCombineMode@@YAXPEAVPxMaterial@physx@@W4Enum@PxCombineMode@2@@Z 0000000180008890 f   PxAutoGeneratedMetaDataObjects.obj
 0001:000078a0       ?getPxAggregate_Actors@@YAIPEBVPxAggregate@physx@@PEAPEAVPxActor@2@I@Z 00000001800088a0 f   PxAutoGeneratedMetaDataObjects.obj
 0001:000078b0       ?getPxAggregate_ConcreteTypeName@@YAPEBDPEBVPxAggregate@physx@@@Z 00000001800088b0 f   PxAutoGeneratedMetaDataObjects.obj
 0001:000078b0       ?getPxArticulationJointReducedCoordinate_ConcreteTypeName@@YAPEBDPEBVPxArticulationJointReducedCoordinate@physx@@@Z 00000001800088b0 f   PxAutoGeneratedMetaDataObjects.obj
 0001:000078b0       ?getPxArticulationJoint_ConcreteTypeName@@YAPEBDPEBVPxArticulationJoint@physx@@@Z 00000001800088b0 f   PxAutoGeneratedMetaDataObjects.obj
 0001:000078b0       ?getPxArticulationLink_ConcreteTypeName@@YAPEBDPEBVPxArticulationLink@physx@@@Z 00000001800088b0 f   PxAutoGeneratedMetaDataObjects.obj
 0001:000078b0       ?getPxConstraint_ConcreteTypeName@@YAPEBDPEBVPxConstraint@physx@@@Z 00000001800088b0 f   PxAutoGeneratedMetaDataObjects.obj
 0001:000078b0       ?getPxMaterial_ConcreteTypeName@@YAPEBDPEBVPxMaterial@physx@@@Z 00000001800088b0 f   PxAutoGeneratedMetaDataObjects.obj
 0001:000078b0       ?getPxPruningStructure_ConcreteTypeName@@YAPEBDPEBVPxPruningStructure@physx@@@Z 00000001800088b0 f   PxAutoGeneratedMetaDataObjects.obj
 0001:000078b0       ?getPxRigidDynamic_ConcreteTypeName@@YAPEBDPEBVPxRigidDynamic@physx@@@Z 00000001800088b0 f   PxAutoGeneratedMetaDataObjects.obj
 0001:000078b0       ?getPxRigidStatic_ConcreteTypeName@@YAPEBDPEBVPxRigidStatic@physx@@@Z 00000001800088b0 f   PxAutoGeneratedMetaDataObjects.obj
 0001:000078b0       ?getPxShape_ConcreteTypeName@@YAPEBDPEBVPxShape@physx@@@Z 00000001800088b0 f   PxAutoGeneratedMetaDataObjects.obj
 0001:000078c0       ?getPxAggregate_MaxNbActors@@YAIPEBVPxAggregate@physx@@@Z 00000001800088c0 f   PxAutoGeneratedMetaDataObjects.obj
 0001:000078c0       ?getPxArticulationBase_SleepThreshold@@YAMPEBVPxArticulationBase@physx@@@Z 00000001800088c0 f   PxAutoGeneratedMetaDataObjects.obj
 0001:000078c0       ?getPxMaterial_StaticFriction@@YAMPEBVPxMaterial@physx@@@Z 00000001800088c0 f   PxAutoGeneratedMetaDataObjects.obj
 0001:000078d0       ?getPxAggregate_SelfCollision@@YA_NPEBVPxAggregate@physx@@@Z 00000001800088d0 f   PxAutoGeneratedMetaDataObjects.obj
 0001:000078d0       ?getPxConstraint_IsValid@@YA_NPEBVPxConstraint@physx@@@Z 00000001800088d0 f   PxAutoGeneratedMetaDataObjects.obj
 0001:000078d0       ?setPxActor_DominanceGroup@@YAXPEAVPxActor@physx@@E@Z 00000001800088d0 f   PxAutoGeneratedMetaDataObjects.obj
 0001:000078d0       ?setPxArticulationBase_WakeCounter@@YAXPEAVPxArticulationBase@physx@@M@Z 00000001800088d0 f   PxAutoGeneratedMetaDataObjects.obj
 0001:000078d0       ?setPxArticulationJointReducedCoordinate_JointType@@YAXPEAVPxArticulationJointReducedCoordinate@physx@@W4Enum@PxArticulationJointType@2@@Z 00000001800088d0 f   PxAutoGeneratedMetaDataObjects.obj
 0001:000078d0       ?setPxArticulationJoint_TargetOrientation@@YAXPEAVPxArticulationJoint@physx@@AEBVPxQuat@2@@Z 00000001800088d0 f   PxAutoGeneratedMetaDataObjects.obj
 0001:000078e0       ?getPxArticulationBase_Links@@YAIPEBVPxArticulationBase@physx@@PEAPEAVPxArticulationLink@2@I@Z 00000001800088e0 f   PxAutoGeneratedMetaDataObjects.obj
 0001:000078e0       ?getPxPhysics_Scenes@@YAIPEBVPxPhysics@physx@@PEAPEAVPxScene@2@I@Z 00000001800088e0 f   PxAutoGeneratedMetaDataObjects.obj
 0001:000078f0       ?getPxArticulationBase_SolverIterationCounts@@YAXPEBVPxArticulationBase@physx@@AEAI1@Z 00000001800088f0 f   PxAutoGeneratedMetaDataObjects.obj
 0001:000078f0       ?getPxScene_Timestamp@@YAIPEBVPxScene@physx@@@Z 00000001800088f0 f   PxAutoGeneratedMetaDataObjects.obj
 0001:000078f0       ?getPxShape_GeometryType@@YA?AW4Enum@PxGeometryType@physx@@PEBVPxShape@3@@Z 00000001800088f0 f   PxAutoGeneratedMetaDataObjects.obj
 0001:000078f0       ?setPxActor_Name@@YAXPEAVPxActor@physx@@PEBD@Z 00000001800088f0 f   PxAutoGeneratedMetaDataObjects.obj
 0001:000078f0       ?setPxConstraint_Actors@@YAXPEAVPxConstraint@physx@@PEAVPxRigidActor@2@1@Z 00000001800088f0 f   PxAutoGeneratedMetaDataObjects.obj
 0001:000078f0       ?setPxMaterial_DynamicFriction@@YAXPEAVPxMaterial@physx@@M@Z 00000001800088f0 f   PxAutoGeneratedMetaDataObjects.obj
 0001:00007900       ?getPxArticulationJointBase_ChildPose@@YA?AVPxTransform@physx@@PEBVPxArticulationJointBase@2@@Z 0000000180008900 f   PxAutoGeneratedMetaDataObjects.obj
 0001:00007900       ?getPxConstraint_Flags@@YA?AV?$PxFlags@W4Enum@PxConstraintFlag@physx@@G@physx@@PEBVPxConstraint@2@@Z 0000000180008900 f   PxAutoGeneratedMetaDataObjects.obj
 0001:00007930       ?getPxArticulationJointBase_ParentPose@@YA?AVPxTransform@physx@@PEBVPxArticulationJointBase@2@@Z 0000000180008930 f   PxAutoGeneratedMetaDataObjects.obj
 0001:00007960       ?getPxArticulationJointReducedCoordinate_FrictionCoefficient@@YAMPEBVPxArticulationJointReducedCoordinate@physx@@@Z 0000000180008960 f   PxAutoGeneratedMetaDataObjects.obj
 0001:00007960       ?getPxArticulationJoint_ExternalCompliance@@YAMPEBVPxArticulationJoint@physx@@@Z 0000000180008960 f   PxAutoGeneratedMetaDataObjects.obj
 0001:00007960       ?setPxRigidBody_CMassLocalPose@@YAXPEAVPxRigidBody@physx@@AEBVPxTransform@2@@Z 0000000180008960 f   PxAutoGeneratedMetaDataObjects.obj
 0001:00007970       ?getPxArticulationJointReducedCoordinate_MaxJointVelocity@@YAMPEBVPxArticulationJointReducedCoordinate@physx@@@Z 0000000180008970 f   PxAutoGeneratedMetaDataObjects.obj
 0001:00007970       ?getPxArticulationJoint_SwingLimit@@YAXPEBVPxArticulationJoint@physx@@AEAM1@Z 0000000180008970 f   PxAutoGeneratedMetaDataObjects.obj
 0001:00007970       ?setPxArticulation_MaxProjectionIterations@@YAXPEAVPxArticulation@physx@@I@Z 0000000180008970 f   PxAutoGeneratedMetaDataObjects.obj
 0001:00007970       ?setPxRigidBody_Mass@@YAXPEAVPxRigidBody@physx@@M@Z 0000000180008970 f   PxAutoGeneratedMetaDataObjects.obj
 0001:00007970       ?setPxShape_ContactOffset@@YAXPEAVPxShape@physx@@M@Z 0000000180008970 f   PxAutoGeneratedMetaDataObjects.obj
 0001:00007980       ?getPxArticulationJoint_Stiffness@@YAMPEBVPxArticulationJoint@physx@@@Z 0000000180008980 f   PxAutoGeneratedMetaDataObjects.obj
 0001:00007980       ?setPxArticulationBase_Name@@YAXPEAVPxArticulationBase@physx@@PEBD@Z 0000000180008980 f   PxAutoGeneratedMetaDataObjects.obj
 0001:00007980       ?setPxShape_SimulationFilterData@@YAXPEAVPxShape@physx@@AEBUPxFilterData@2@@Z 0000000180008980 f   PxAutoGeneratedMetaDataObjects.obj
 0001:00007990       ?getPxArticulationJoint_SwingLimitContactDistance@@YAMPEBVPxArticulationJoint@physx@@@Z 0000000180008990 f   PxAutoGeneratedMetaDataObjects.obj
 0001:00007990       ?setPxArticulation_ExternalDriveIterations@@YAXPEAVPxArticulation@physx@@I@Z 0000000180008990 f   PxAutoGeneratedMetaDataObjects.obj
 0001:00007990       ?setPxRigidBody_LinearDamping@@YAXPEAVPxRigidBody@physx@@M@Z 0000000180008990 f   PxAutoGeneratedMetaDataObjects.obj
 0001:00007990       ?setPxScene_ContactModifyCallback@@YAXPEAVPxScene@physx@@PEAVPxContactModifyCallback@2@@Z 0000000180008990 f   PxAutoGeneratedMetaDataObjects.obj
 0001:00007990       ?setPxShape_MinTorsionalPatchRadius@@YAXPEAVPxShape@physx@@M@Z 0000000180008990 f   PxAutoGeneratedMetaDataObjects.obj
 0001:000079a0       ?getPxArticulationJoint_SwingLimitEnabled@@YA_NPEBVPxArticulationJoint@physx@@@Z 00000001800089a0 f   PxAutoGeneratedMetaDataObjects.obj
 0001:000079a0       ?getPxScene_ContactModifyCallback@@YAPEAVPxContactModifyCallback@physx@@PEBVPxScene@2@@Z 00000001800089a0 f   PxAutoGeneratedMetaDataObjects.obj
 0001:000079a0       ?setPxRigidBody_AngularDamping@@YAXPEAVPxRigidBody@physx@@M@Z 00000001800089a0 f   PxAutoGeneratedMetaDataObjects.obj
 0001:000079b0       ?getPxArticulationJoint_TangentialDamping@@YAMPEBVPxArticulationJoint@physx@@@Z 00000001800089b0 f   PxAutoGeneratedMetaDataObjects.obj
 0001:000079b0       ?setPxArticulation_InternalDriveIterations@@YAXPEAVPxArticulation@physx@@I@Z 00000001800089b0 f   PxAutoGeneratedMetaDataObjects.obj
 0001:000079b0       ?setPxScene_SimulationEventCallback@@YAXPEAVPxScene@physx@@PEAVPxSimulationEventCallback@2@@Z 00000001800089b0 f   PxAutoGeneratedMetaDataObjects.obj
 0001:000079b0       ?setPxShape_TorsionalPatchRadius@@YAXPEAVPxShape@physx@@M@Z 00000001800089b0 f   PxAutoGeneratedMetaDataObjects.obj
 0001:000079c0       ?getPxArticulationJoint_TargetOrientation@@YA?AVPxQuat@physx@@PEBVPxArticulationJoint@2@@Z 00000001800089c0 f   PxAutoGeneratedMetaDataObjects.obj
 0001:000079f0       ?getPxArticulationJoint_TargetVelocity@@YA?AVPxVec3@physx@@PEBVPxArticulationJoint@2@@Z 00000001800089f0 f   PxAutoGeneratedMetaDataObjects.obj
 0001:00007a20       ?getPxArticulationJoint_TwistLimit@@YAXPEBVPxArticulationJoint@physx@@AEAM1@Z 0000000180008a20 f   PxAutoGeneratedMetaDataObjects.obj
 0001:00007a20       ?setPxScene_BroadPhaseCallback@@YAXPEAVPxScene@physx@@PEAVPxBroadPhaseCallback@2@@Z 0000000180008a20 f   PxAutoGeneratedMetaDataObjects.obj
 0001:00007a30       ?getPxArticulationJoint_TwistLimitContactDistance@@YAMPEBVPxArticulationJoint@physx@@@Z 0000000180008a30 f   PxAutoGeneratedMetaDataObjects.obj
 0001:00007a30       ?getPxScene_FilterShaderDataSize@@YAIPEBVPxScene@physx@@@Z 0000000180008a30 f   PxAutoGeneratedMetaDataObjects.obj
 0001:00007a30       ?setPxRigidBody_MaxAngularVelocity@@YAXPEAVPxRigidBody@physx@@M@Z 0000000180008a30 f   PxAutoGeneratedMetaDataObjects.obj
 0001:00007a40       ?getPxArticulationJoint_TwistLimitEnabled@@YA_NPEBVPxArticulationJoint@physx@@@Z 0000000180008a40 f   PxAutoGeneratedMetaDataObjects.obj
 0001:00007a40       ?setPxShape_Name@@YAXPEAVPxShape@physx@@PEBD@Z 0000000180008a40 f   PxAutoGeneratedMetaDataObjects.obj
 0001:00007a50       ?getPxArticulationLink_Children@@YAIPEBVPxArticulationLink@physx@@PEAPEAV12@I@Z 0000000180008a50 f   PxAutoGeneratedMetaDataObjects.obj
 0001:00007a60       ?getPxArticulationLink_InboundJoint@@YAPEAVPxArticulationJointBase@physx@@PEBVPxArticulationLink@2@@Z 0000000180008a60 f   PxAutoGeneratedMetaDataObjects.obj
 0001:00007a60       ?getPxScene_BounceThresholdVelocity@@YAMPEBVPxScene@physx@@@Z 0000000180008a60 f   PxAutoGeneratedMetaDataObjects.obj
 0001:00007a70       ?getPxArticulationLink_InboundJointDof@@YAIPEBVPxArticulationLink@physx@@@Z 0000000180008a70 f   PxAutoGeneratedMetaDataObjects.obj
 0001:00007a70       ?getPxRigidDynamic_IsSleeping@@YA_NPEBVPxRigidDynamic@physx@@@Z 0000000180008a70 f   PxAutoGeneratedMetaDataObjects.obj
 0001:00007a70       ?setPxScene_CCDMaxPasses@@YAXPEAVPxScene@physx@@I@Z 0000000180008a70 f   PxAutoGeneratedMetaDataObjects.obj
 0001:00007a80       ?getPxArticulationLink_LinkIndex@@YAIPEBVPxArticulationLink@physx@@@Z 0000000180008a80 f   PxAutoGeneratedMetaDataObjects.obj
 0001:00007a80       ?getPxRigidDynamic_SleepThreshold@@YAMPEBVPxRigidDynamic@physx@@@Z 0000000180008a80 f   PxAutoGeneratedMetaDataObjects.obj
 0001:00007a80       ?getPxScene_FrictionOffsetThreshold@@YAMPEBVPxScene@physx@@@Z 0000000180008a80 f   PxAutoGeneratedMetaDataObjects.obj
 0001:00007a90       ?getPxArticulationReducedCoordinate_ArticulationFlags@@YA?AV?$PxFlags@W4Enum@PxArticulationFlag@physx@@E@physx@@PEBVPxArticulationReducedCoordinate@2@@Z 0000000180008a90 f   PxAutoGeneratedMetaDataObjects.obj
 0001:00007ac0       ?getPxArticulationReducedCoordinate_CacheDataSize@@YAIPEBVPxArticulationReducedCoordinate@physx@@@Z 0000000180008ac0 f   PxAutoGeneratedMetaDataObjects.obj
 0001:00007ac0       ?getPxArticulation_InternalDriveIterations@@YAIPEBVPxArticulation@physx@@@Z 0000000180008ac0 f   PxAutoGeneratedMetaDataObjects.obj
 0001:00007ac0       ?getPxScene_SimulationEventCallback@@YAPEAVPxSimulationEventCallback@physx@@PEBVPxScene@2@@Z 0000000180008ac0 f   PxAutoGeneratedMetaDataObjects.obj
 0001:00007ac0       ?getPxShape_TorsionalPatchRadius@@YAMPEBVPxShape@physx@@@Z 0000000180008ac0 f   PxAutoGeneratedMetaDataObjects.obj
 0001:00007ac0       ?setPxArticulationJoint_SwingLimitContactDistance@@YAXPEAVPxArticulationJoint@physx@@M@Z 0000000180008ac0 f   PxAutoGeneratedMetaDataObjects.obj
 0001:00007ad0       ?getPxArticulationReducedCoordinate_CoefficientMatrixSize@@YAIPEBVPxArticulationReducedCoordinate@physx@@@Z 0000000180008ad0 f   PxAutoGeneratedMetaDataObjects.obj
 0001:00007ad0       ?setPxRigidBody_MinCCDAdvanceCoefficient@@YAXPEAVPxRigidBody@physx@@M@Z 0000000180008ad0 f   PxAutoGeneratedMetaDataObjects.obj
 0001:00007ae0       ?getPxArticulationReducedCoordinate_Dofs@@YAIPEBVPxArticulationReducedCoordinate@physx@@@Z 0000000180008ae0 f   PxAutoGeneratedMetaDataObjects.obj
 0001:00007ae0       ?getPxArticulation_SeparationTolerance@@YAMPEBVPxArticulation@physx@@@Z 0000000180008ae0 f   PxAutoGeneratedMetaDataObjects.obj
 0001:00007ae0       ?getPxShape_RestOffset@@YAMPEBVPxShape@physx@@@Z 0000000180008ae0 f   PxAutoGeneratedMetaDataObjects.obj
 0001:00007ae0       ?setPxArticulationJoint_TangentialDamping@@YAXPEAVPxArticulationJoint@physx@@M@Z 0000000180008ae0 f   PxAutoGeneratedMetaDataObjects.obj
 0001:00007ae0       ?setPxRigidBody_MassSpaceInertiaTensor@@YAXPEAVPxRigidBody@physx@@AEBVPxVec3@2@@Z 0000000180008ae0 f   PxAutoGeneratedMetaDataObjects.obj
 0001:00007af0       ?getPxArticulation_ExternalDriveIterations@@YAIPEBVPxArticulation@physx@@@Z 0000000180008af0 f   PxAutoGeneratedMetaDataObjects.obj
 0001:00007af0       ?getPxRigidBody_LinearDamping@@YAMPEBVPxRigidBody@physx@@@Z 0000000180008af0 f   PxAutoGeneratedMetaDataObjects.obj
 0001:00007af0       ?getPxShape_MinTorsionalPatchRadius@@YAMPEBVPxShape@physx@@@Z 0000000180008af0 f   PxAutoGeneratedMetaDataObjects.obj
 0001:00007af0       ?setPxArticulationJoint_SwingLimitEnabled@@YAXPEAVPxArticulationJoint@physx@@_N@Z 0000000180008af0 f   PxAutoGeneratedMetaDataObjects.obj
 0001:00007af0       ?setPxScene_CCDContactModifyCallback@@YAXPEAVPxScene@physx@@PEAVPxCCDContactModifyCallback@2@@Z 0000000180008af0 f   PxAutoGeneratedMetaDataObjects.obj
 0001:00007b00       ?getPxArticulation_MaxProjectionIterations@@YAIPEBVPxArticulation@physx@@@Z 0000000180008b00 f   PxAutoGeneratedMetaDataObjects.obj
 0001:00007b00       ?getPxRigidBody_Mass@@YAMPEBVPxRigidBody@physx@@@Z 0000000180008b00 f   PxAutoGeneratedMetaDataObjects.obj
 0001:00007b00       ?getPxScene_CpuDispatcher@@YAPEAVPxCpuDispatcher@physx@@PEBVPxScene@2@@Z 0000000180008b00 f   PxAutoGeneratedMetaDataObjects.obj
 0001:00007b00       ?getPxShape_ContactOffset@@YAMPEBVPxShape@physx@@@Z 0000000180008b00 f   PxAutoGeneratedMetaDataObjects.obj
 0001:00007b00       ?setPxArticulationJoint_TangentialStiffness@@YAXPEAVPxArticulationJoint@physx@@M@Z 0000000180008b00 f   PxAutoGeneratedMetaDataObjects.obj
 0001:00007b10       ?getPxCapsuleGeometryHalfHeight@@YAMPEBVPxCapsuleGeometry@physx@@@Z 0000000180008b10 f i PxAutoGeneratedMetaDataObjects.obj
 0001:00007b20       ?getPxCapsuleGeometryRadius@@YAMPEBVPxCapsuleGeometry@physx@@@Z 0000000180008b20 f i PxAutoGeneratedMetaDataObjects.obj
 0001:00007b20       ?getPxSphereGeometryRadius@@YAMPEBVPxSphereGeometry@physx@@@Z 0000000180008b20 f i PxAutoGeneratedMetaDataObjects.obj
 0001:00007b20       ?getPxTolerancesScaleSpeed@@YAMPEBVPxTolerancesScale@physx@@@Z 0000000180008b20 f i PxAutoGeneratedMetaDataObjects.obj
 0001:00007b30       ?getDataStream@PvdPhysicsClient@Vd@physx@@UEAAPEAVPvdDataStream@pvdsdk@3@XZ 0000000180008b30 f i PvdPhysicsClient.obj
 0001:00007b30       ?getDeletedPairs@BroadPhaseABP@Bp@physx@@UEAAPEAUBroadPhasePair@23@XZ 0000000180008b30 f i LowLevelAABB_static_64:BpBroadPhaseABP.obj
 0001:00007b30       ?getName@FanoutTask@Cm@physx@@UEBAPEBDXZ 0000000180008b30 f i SimulationController_static_64:ScScene.obj
 0001:00007b30       ?getPxConvexMeshGeometryConvexMesh@@YAPEAVPxConvexMesh@physx@@PEBVPxConvexMeshGeometry@2@@Z 0000000180008b30 f i PxAutoGeneratedMetaDataObjects.obj
 0001:00007b30       ?getPxSceneDescCcdContactModifyCallback@@YAPEAVPxCCDContactModifyCallback@physx@@PEBVPxSceneDesc@2@@Z 0000000180008b30 f i PxAutoGeneratedMetaDataObjects.obj
 0001:00007b40       ?getPxConvexMeshGeometryMeshFlags@@YA?AV?$PxFlags@W4Enum@PxConvexMeshGeometryFlag@physx@@E@physx@@PEBVPxConvexMeshGeometry@2@@Z 0000000180008b40 f i PxAutoGeneratedMetaDataObjects.obj
 0001:00007b50       ?getPxConvexMeshGeometryScale@@YA?AVPxMeshScale@physx@@PEBVPxConvexMeshGeometry@2@@Z 0000000180008b50 f i PxAutoGeneratedMetaDataObjects.obj
 0001:00007b50       ?getPxTriangleMeshGeometryScale@@YA?AVPxMeshScale@physx@@PEBVPxTriangleMeshGeometry@2@@Z 0000000180008b50 f i PxAutoGeneratedMetaDataObjects.obj
 0001:00007b80       ?getPxHeightFieldDescConvexEdgeThreshold@@YAMPEBVPxHeightFieldDesc@physx@@@Z 0000000180008b80 f i PxAutoGeneratedMetaDataObjects.obj
 0001:00007b90       ?getPxHeightFieldDescFlags@@YA?AV?$PxFlags@W4Enum@PxHeightFieldFlag@physx@@G@physx@@PEBVPxHeightFieldDesc@2@@Z 0000000180008b90 f i PxAutoGeneratedMetaDataObjects.obj
 0001:00007ba0       ?getPxHeightFieldDescFormat@@YA?AW4Enum@PxHeightFieldFormat@physx@@PEBVPxHeightFieldDesc@3@@Z 0000000180008ba0 f i PxAutoGeneratedMetaDataObjects.obj
 0001:00007ba0       ?getPxSceneLimitsMaxNbStaticShapes@@YAIPEBVPxSceneLimits@physx@@@Z 0000000180008ba0 f i PxAutoGeneratedMetaDataObjects.obj
 0001:00007ba0       ?getPxSimulationStatisticsNbActiveKinematicBodies@@YAIPEBVPxSimulationStatistics@physx@@@Z 0000000180008ba0 f i PxAutoGeneratedMetaDataObjects.obj
 0001:00007ba0       ?getPxgDynamicsMemoryConfigTempBufferCapacity@@YAIPEBUPxgDynamicsMemoryConfig@physx@@@Z 0000000180008ba0 f i PxAutoGeneratedMetaDataObjects.obj
 0001:00007bb0       ?getPxHeightFieldDescNbColumns@@YAIPEBVPxHeightFieldDesc@physx@@@Z 0000000180008bb0 f i PxAutoGeneratedMetaDataObjects.obj
 0001:00007bb0       ?getPxSceneLimitsMaxNbBodies@@YAIPEBVPxSceneLimits@physx@@@Z 0000000180008bb0 f i PxAutoGeneratedMetaDataObjects.obj
 0001:00007bb0       ?getPxSimulationStatisticsNbActiveDynamicBodies@@YAIPEBVPxSimulationStatistics@physx@@@Z 0000000180008bb0 f i PxAutoGeneratedMetaDataObjects.obj
 0001:00007bb0       ?getPxgDynamicsMemoryConfigContactBufferCapacity@@YAIPEBUPxgDynamicsMemoryConfig@physx@@@Z 0000000180008bb0 f i PxAutoGeneratedMetaDataObjects.obj
 0001:00007bc0       ?getPxHeightFieldDescNbRows@@YAIPEBVPxHeightFieldDesc@physx@@@Z 0000000180008bc0 f i PxAutoGeneratedMetaDataObjects.obj
 0001:00007bc0       ?getPxSceneLimitsMaxNbActors@@YAIPEBVPxSceneLimits@physx@@@Z 0000000180008bc0 f i PxAutoGeneratedMetaDataObjects.obj
 0001:00007bc0       ?getPxSimulationStatisticsNbActiveConstraints@@YAIPEBVPxSimulationStatistics@physx@@@Z 0000000180008bc0 f i PxAutoGeneratedMetaDataObjects.obj
 0001:00007bc0       ?getPxgDynamicsMemoryConfigConstraintBufferCapacity@@YAIPEBUPxgDynamicsMemoryConfig@physx@@@Z 0000000180008bc0 f i PxAutoGeneratedMetaDataObjects.obj
 0001:00007bd0       ?getPxHeightFieldDescSamples@@YA?AUPxStridedData@physx@@PEBVPxHeightFieldDesc@2@@Z 0000000180008bd0 f i PxAutoGeneratedMetaDataObjects.obj
 0001:00007be0       ?getPxHeightFieldGeometryColumnScale@@YAMPEBVPxHeightFieldGeometry@physx@@@Z 0000000180008be0 f i PxAutoGeneratedMetaDataObjects.obj
 0001:00007bf0       ?getAllocatorCallback@Foundation@shdfnd@physx@@UEAAAEAVPxAllocatorCallback@3@XZ 0000000180008bf0 f i PxMetaDataObjects.obj
 0001:00007bf0       ?getConcreteTypeName@?$PxSerializerDefaultAdapter@VBV4TriangleMesh@Gu@physx@@@physx@@UEBAPEBDXZ 0000000180008bf0 f i NpSerializerAdapter.obj
 0001:00007bf0       ?getConcreteTypeName@?$PxSerializerDefaultAdapter@VConvexMesh@Gu@physx@@@physx@@UEBAPEBDXZ 0000000180008bf0 f i NpSerializerAdapter.obj
 0001:00007bf0       ?getConcreteTypeName@?$PxSerializerDefaultAdapter@VHeightField@Gu@physx@@@physx@@UEBAPEBDXZ 0000000180008bf0 f i NpSerializerAdapter.obj
 0001:00007bf0       ?getConcreteTypeName@?$PxSerializerDefaultAdapter@VNpAggregate@physx@@@physx@@UEBAPEBDXZ 0000000180008bf0 f i NpSerializerAdapter.obj
 0001:00007bf0       ?getConcreteTypeName@?$PxSerializerDefaultAdapter@VNpArticulation@physx@@@physx@@UEBAPEBDXZ 0000000180008bf0 f i NpSerializerAdapter.obj
 0001:00007bf0       ?getConcreteTypeName@?$PxSerializerDefaultAdapter@VNpArticulationJoint@physx@@@physx@@UEBAPEBDXZ 0000000180008bf0 f i NpSerializerAdapter.obj
 0001:00007bf0       ?getConcreteTypeName@?$PxSerializerDefaultAdapter@VNpArticulationJointReducedCoordinate@physx@@@physx@@UEBAPEBDXZ 0000000180008bf0 f i NpSerializerAdapter.obj
 0001:00007bf0       ?getConcreteTypeName@?$PxSerializerDefaultAdapter@VNpArticulationLink@physx@@@physx@@UEBAPEBDXZ 0000000180008bf0 f i NpSerializerAdapter.obj
 0001:00007bf0       ?getConcreteTypeName@?$PxSerializerDefaultAdapter@VNpArticulationReducedCoordinate@physx@@@physx@@UEBAPEBDXZ 0000000180008bf0 f i NpSerializerAdapter.obj
 0001:00007bf0       ?getConcreteTypeName@?$PxSerializerDefaultAdapter@VNpConstraint@physx@@@physx@@UEBAPEBDXZ 0000000180008bf0 f i NpSerializerAdapter.obj
 0001:00007bf0       ?getConcreteTypeName@?$PxSerializerDefaultAdapter@VNpMaterial@physx@@@physx@@UEBAPEBDXZ 0000000180008bf0 f i NpSerializerAdapter.obj
 0001:00007bf0       ?getConcreteTypeName@?$PxSerializerDefaultAdapter@VNpRigidDynamic@physx@@@physx@@UEBAPEBDXZ 0000000180008bf0 f i NpSerializerAdapter.obj
 0001:00007bf0       ?getConcreteTypeName@?$PxSerializerDefaultAdapter@VNpRigidStatic@physx@@@physx@@UEBAPEBDXZ 0000000180008bf0 f i NpSerializerAdapter.obj
 0001:00007bf0       ?getConcreteTypeName@?$PxSerializerDefaultAdapter@VNpShape@physx@@@physx@@UEBAPEBDXZ 0000000180008bf0 f i NpSerializerAdapter.obj
 0001:00007bf0       ?getConcreteTypeName@?$PxSerializerDefaultAdapter@VPruningStructure@Sq@physx@@@physx@@UEBAPEBDXZ 0000000180008bf0 f i NpSerializerAdapter.obj
 0001:00007bf0       ?getConcreteTypeName@?$PxSerializerDefaultAdapter@VRTreeTriangleMesh@Gu@physx@@@physx@@UEBAPEBDXZ 0000000180008bf0 f i NpSerializerAdapter.obj
 0001:00007bf0       ?getPoints@RenderBuffer@Cm@physx@@UEBAPEBUPxDebugPoint@3@XZ 0000000180008bf0 f i NpScene.obj
 0001:00007bf0       ?getPxHeightFieldGeometryHeightField@@YAPEAVPxHeightField@physx@@PEBVPxHeightFieldGeometry@2@@Z 0000000180008bf0 f i PxAutoGeneratedMetaDataObjects.obj
 0001:00007bf0       ?getPxSceneUserData@@YAPEAXPEBVPxScene@physx@@@Z 0000000180008bf0 f i PxAutoGeneratedMetaDataObjects.obj
 0001:00007c00       ?getPxHeightFieldGeometryHeightFieldFlags@@YA?AV?$PxFlags@W4Enum@PxMeshGeometryFlag@physx@@E@physx@@PEBVPxHeightFieldGeometry@2@@Z 0000000180008c00 f i PxAutoGeneratedMetaDataObjects.obj
 0001:00007c10       ?getPxHeightFieldGeometryHeightScale@@YAMPEBVPxHeightFieldGeometry@physx@@@Z 0000000180008c10 f i PxAutoGeneratedMetaDataObjects.obj
 0001:00007c20       ?getPxHeightFieldGeometryRowScale@@YAMPEBVPxHeightFieldGeometry@physx@@@Z 0000000180008c20 f i PxAutoGeneratedMetaDataObjects.obj
 0001:00007c30       ?getPxMaterial_Flags@@YA?AV?$PxFlags@W4Enum@PxMaterialFlag@physx@@G@physx@@PEBVPxMaterial@2@@Z 0000000180008c30 f   PxAutoGeneratedMetaDataObjects.obj
 0001:00007c60       ?getPxMaterial_RestitutionCombineMode@@YA?AW4Enum@PxCombineMode@physx@@PEBVPxMaterial@3@@Z 0000000180008c60 f   PxAutoGeneratedMetaDataObjects.obj
 0001:00007c60       ?setPxArticulationJoint_Stiffness@@YAXPEAVPxArticulationJoint@physx@@M@Z 0000000180008c60 f   PxAutoGeneratedMetaDataObjects.obj
 0001:00007c70       ?getPxMeshScaleRotation@@YA?AVPxQuat@physx@@PEBVPxMeshScale@2@@Z 0000000180008c70 f i PxAutoGeneratedMetaDataObjects.obj
 0001:00007c90       ?getPxMeshScaleScale@@YA?AVPxVec3@physx@@PEBVPxMeshScale@2@@Z 0000000180008c90 f i PxAutoGeneratedMetaDataObjects.obj
 0001:00007c90       ?getPxSceneDescGravity@@YA?AVPxVec3@physx@@PEBVPxSceneDesc@2@@Z 0000000180008c90 f i PxAutoGeneratedMetaDataObjects.obj
 0001:00007cb0       ?getPxPhysics_BVHStructures@@YAIPEBVPxPhysics@physx@@PEAPEAVPxBVHStructure@2@I@Z 0000000180008cb0 f   PxAutoGeneratedMetaDataObjects.obj
 0001:00007cc0       ?getPxPhysics_ConvexMeshes@@YAIPEBVPxPhysics@physx@@PEAPEAVPxConvexMesh@2@I@Z 0000000180008cc0 f   PxAutoGeneratedMetaDataObjects.obj
 0001:00007cd0       ?getPxPhysics_HeightFields@@YAIPEBVPxPhysics@physx@@PEAPEAVPxHeightField@2@I@Z 0000000180008cd0 f   PxAutoGeneratedMetaDataObjects.obj
 0001:00007ce0       ?getPxPhysics_Materials@@YAIPEBVPxPhysics@physx@@PEAPEAVPxMaterial@2@I@Z 0000000180008ce0 f   PxAutoGeneratedMetaDataObjects.obj
 0001:00007cf0       ?getPxPhysics_Shapes@@YAIPEBVPxPhysics@physx@@PEAPEAVPxShape@2@I@Z 0000000180008cf0 f   PxAutoGeneratedMetaDataObjects.obj
 0001:00007cf0       ?getPxRigidActor_Constraints@@YAIPEBVPxRigidActor@physx@@PEAPEAVPxConstraint@2@I@Z 0000000180008cf0 f   PxAutoGeneratedMetaDataObjects.obj
 0001:00007d00       ?getPxPhysics_TriangleMeshes@@YAIPEBVPxPhysics@physx@@PEAPEAVPxTriangleMesh@2@I@Z 0000000180008d00 f   PxAutoGeneratedMetaDataObjects.obj
 0001:00007d10       ?getPxPruningStructure_RigidActors@@YAIPEBVPxPruningStructure@physx@@PEAPEAVPxRigidActor@2@I@Z 0000000180008d10 f   PxAutoGeneratedMetaDataObjects.obj
 0001:00007d20       ?getPxRigidActor_GlobalPose@@YA?AVPxTransform@physx@@PEBVPxRigidActor@2@@Z 0000000180008d20 f   PxAutoGeneratedMetaDataObjects.obj
 0001:00007d50       ?getPxRigidActor_Shapes@@YAIPEBVPxRigidActor@physx@@PEAPEAVPxShape@2@I@Z 0000000180008d50 f   PxAutoGeneratedMetaDataObjects.obj
 0001:00007d60       ?getPxRigidBody_AngularDamping@@YAMPEBVPxRigidBody@physx@@@Z 0000000180008d60 f   PxAutoGeneratedMetaDataObjects.obj
 0001:00007d60       ?getPxScene_CCDContactModifyCallback@@YAPEAVPxCCDContactModifyCallback@physx@@PEBVPxScene@2@@Z 0000000180008d60 f   PxAutoGeneratedMetaDataObjects.obj
 0001:00007d60       ?setPxArticulationJoint_TwistLimit@@YAXPEAVPxArticulationJoint@physx@@MM@Z 0000000180008d60 f   PxAutoGeneratedMetaDataObjects.obj
 0001:00007d70       ?getPxRigidBody_AngularVelocity@@YA?AVPxVec3@physx@@PEBVPxRigidBody@2@@Z 0000000180008d70 f   PxAutoGeneratedMetaDataObjects.obj
 0001:00007da0       ?getPxRigidBody_CMassLocalPose@@YA?AVPxTransform@physx@@PEBVPxRigidBody@2@@Z 0000000180008da0 f   PxAutoGeneratedMetaDataObjects.obj
 0001:00007dd0       ?getPxRigidBody_LinearVelocity@@YA?AVPxVec3@physx@@PEBVPxRigidBody@2@@Z 0000000180008dd0 f   PxAutoGeneratedMetaDataObjects.obj
 0001:00007dd0       ?getPxShape_Flags@@YA?AV?$PxFlags@W4Enum@PxShapeFlag@physx@@E@physx@@PEBVPxShape@2@@Z 0000000180008dd0 f   PxAutoGeneratedMetaDataObjects.obj
 0001:00007e00       ?getPxRigidBody_MassSpaceInertiaTensor@@YA?AVPxVec3@physx@@PEBVPxRigidBody@2@@Z 0000000180008e00 f   PxAutoGeneratedMetaDataObjects.obj
 0001:00007e30       ?getPxRigidBody_MassSpaceInvInertiaTensor@@YA?AVPxVec3@physx@@PEBVPxRigidBody@2@@Z 0000000180008e30 f   PxAutoGeneratedMetaDataObjects.obj
 0001:00007e60       ?getPxRigidBody_MaxAngularVelocity@@YAMPEBVPxRigidBody@physx@@@Z 0000000180008e60 f   PxAutoGeneratedMetaDataObjects.obj
 0001:00007e60       ?getPxScene_FilterShader@@YAP6A?AV?$PxFlags@W4Enum@PxFilterFlag@physx@@G@physx@@IUPxFilterData@2@I0AEAV?$PxFlags@W4Enum@PxPairFlag@physx@@G@2@PEBXI@ZPEBVPxScene@2@@Z 0000000180008e60 f   PxAutoGeneratedMetaDataObjects.obj
 0001:00007e70       ?getPxRigidBody_MaxContactImpulse@@YAMPEBVPxRigidBody@physx@@@Z 0000000180008e70 f   PxAutoGeneratedMetaDataObjects.obj
 0001:00007e70       ?setPxScene_Gravity@@YAXPEAVPxScene@physx@@AEBVPxVec3@2@@Z 0000000180008e70 f   PxAutoGeneratedMetaDataObjects.obj
 0001:00007e80       ?getPxRigidBody_MaxDepenetrationVelocity@@YAMPEBVPxRigidBody@physx@@@Z 0000000180008e80 f   PxAutoGeneratedMetaDataObjects.obj
 0001:00007e90       ?getPxRigidBody_MaxLinearVelocity@@YAMPEBVPxRigidBody@physx@@@Z 0000000180008e90 f   PxAutoGeneratedMetaDataObjects.obj
 0001:00007ea0       ?getPxRigidBody_MinCCDAdvanceCoefficient@@YAMPEBVPxRigidBody@physx@@@Z 0000000180008ea0 f   PxAutoGeneratedMetaDataObjects.obj
 0001:00007eb0       ?getPxRigidBody_RigidBodyFlags@@YA?AV?$PxFlags@W4Enum@PxRigidBodyFlag@physx@@G@physx@@PEBVPxRigidBody@2@@Z 0000000180008eb0 f   PxAutoGeneratedMetaDataObjects.obj
 0001:00007ee0       ?getPxRigidDynamic_ContactReportThreshold@@YAMPEBVPxRigidDynamic@physx@@@Z 0000000180008ee0 f   PxAutoGeneratedMetaDataObjects.obj
 0001:00007ef0       ?getPxRigidDynamic_RigidDynamicLockFlags@@YA?AV?$PxFlags@W4Enum@PxRigidDynamicLockFlag@physx@@E@physx@@PEBVPxRigidDynamic@2@@Z 0000000180008ef0 f   PxAutoGeneratedMetaDataObjects.obj
 0001:00007f20       ?getPxRigidDynamic_SolverIterationCounts@@YAXPEBVPxRigidDynamic@physx@@AEAI1@Z 0000000180008f20 f   PxAutoGeneratedMetaDataObjects.obj
 0001:00007f30       ?getPxRigidDynamic_StabilizationThreshold@@YAMPEBVPxRigidDynamic@physx@@@Z 0000000180008f30 f   PxAutoGeneratedMetaDataObjects.obj
 0001:00007f30       ?getPxScene_FrictionType@@YA?AW4Enum@PxFrictionType@physx@@PEBVPxScene@3@@Z 0000000180008f30 f   PxAutoGeneratedMetaDataObjects.obj
 0001:00007f40       ?getPxRigidDynamic_WakeCounter@@YAMPEBVPxRigidDynamic@physx@@@Z 0000000180008f40 f   PxAutoGeneratedMetaDataObjects.obj
 0001:00007f50       ?getPxSceneDescBounceThresholdVelocity@@YAMPEBVPxSceneDesc@physx@@@Z 0000000180008f50 f i PxAutoGeneratedMetaDataObjects.obj
 0001:00007f60       ?getPostFilterShader@NpBatchQuery@physx@@UEBAP6A?AW4Enum@PxQueryHitType@2@UPxFilterData@2@0PEBXIAEBUPxQueryHit@2@@ZXZ 0000000180008f60 f i NpBatchQuery.obj
 0001:00007f60       ?getPxSceneDescBroadPhaseCallback@@YAPEAVPxBroadPhaseCallback@physx@@PEBVPxSceneDesc@2@@Z 0000000180008f60 f i PxAutoGeneratedMetaDataObjects.obj
 0001:00007f70       ?getDefaultContactReportStreamBufferSize@NPhaseCore@Sc@physx@@QEBAIXZ 0000000180008f70 f i SimulationController_static_64:ScNPhaseCore.obj
 0001:00007f70       ?getPxSceneDescBroadPhaseType@@YA?AW4Enum@PxBroadPhaseType@physx@@PEBVPxSceneDesc@3@@Z 0000000180008f70 f i PxAutoGeneratedMetaDataObjects.obj
 0001:00007f70       ?getPxSimulationStatisticsNbDiscreteContactPairsWithCacheHits@@YAIPEBVPxSimulationStatistics@physx@@@Z 0000000180008f70 f i PxAutoGeneratedMetaDataObjects.obj
 0001:00007f80       ?getPxSceneDescCcdMaxPasses@@YAIPEBVPxSceneDesc@physx@@@Z 0000000180008f80 f i PxAutoGeneratedMetaDataObjects.obj
 0001:00007f90       ?getPxSceneDescCcdMaxSeparation@@YAMPEBVPxSceneDesc@physx@@@Z 0000000180008f90 f i PxAutoGeneratedMetaDataObjects.obj
 0001:00007fa0       ?getPxSceneDescCcdThreshold@@YAMPEBVPxSceneDesc@physx@@@Z 0000000180008fa0 f i PxAutoGeneratedMetaDataObjects.obj
 0001:00007fb0       ?getLines@RenderBuffer@Cm@physx@@UEBAPEBUPxDebugLine@3@XZ 0000000180008fb0 f i NpScene.obj
 0001:00007fb0       ?getPxSceneDescContactModifyCallback@@YAPEAVPxContactModifyCallback@physx@@PEBVPxSceneDesc@2@@Z 0000000180008fb0 f i PxAutoGeneratedMetaDataObjects.obj
 0001:00007fc0       ?getPxSceneDescContactReportStreamBufferSize@@YAIPEBVPxSceneDesc@physx@@@Z 0000000180008fc0 f i PxAutoGeneratedMetaDataObjects.obj
 0001:00007fd0       ?getCreatedPairs@BroadPhaseMBP@Bp@physx@@UEAAPEAUBroadPhasePair@23@XZ 0000000180008fd0 f i LowLevelAABB_static_64:BpBroadPhaseMBP.obj
 0001:00007fd0       ?getPxSceneDescCpuDispatcher@@YAPEAVPxCpuDispatcher@physx@@PEBVPxSceneDesc@2@@Z 0000000180008fd0 f i PxAutoGeneratedMetaDataObjects.obj
 0001:00007fe0       ?getPxSceneDescCudaContextManager@@YAPEAVPxCudaContextManager@physx@@PEBVPxSceneDesc@2@@Z 0000000180008fe0 f i PxAutoGeneratedMetaDataObjects.obj
 0001:00007ff0       ?getPxSceneDescDynamicStructure@@YA?AW4Enum@PxPruningStructureType@physx@@PEBVPxSceneDesc@3@@Z 0000000180008ff0 f i PxAutoGeneratedMetaDataObjects.obj
 0001:00008000       ?getNbDeletedPairs@BroadPhaseMBP@Bp@physx@@UEBAIXZ 0000000180009000 f i LowLevelAABB_static_64:BpBroadPhaseMBP.obj
 0001:00008000       ?getPxSceneDescDynamicTreeRebuildRateHint@@YAIPEBVPxSceneDesc@physx@@@Z 0000000180009000 f i PxAutoGeneratedMetaDataObjects.obj
 0001:00008010       ?getFilterShaderData@NpBatchQuery@physx@@UEBAPEBXXZ 0000000180009010 f i NpBatchQuery.obj
 0001:00008010       ?getPxSceneDescFilterCallback@@YAPEAVPxSimulationFilterCallback@physx@@PEBVPxSceneDesc@2@@Z 0000000180009010 f i PxAutoGeneratedMetaDataObjects.obj
 0001:00008020       ?getPxSceneDescFilterShader@@YAP6A?AV?$PxFlags@W4Enum@PxFilterFlag@physx@@G@physx@@IUPxFilterData@2@I0AEAV?$PxFlags@W4Enum@PxPairFlag@physx@@G@2@PEBXI@ZPEBVPxSceneDesc@2@@Z 0000000180009020 f i PxAutoGeneratedMetaDataObjects.obj
 0001:00008020       ?getTexts@RenderBuffer@Cm@physx@@UEBAPEBUPxDebugText@3@XZ 0000000180009020 f i NpScene.obj
 0001:00008030       ?getDataStream@ScbScenePvdClient@Vd@physx@@UEAAPEAVPvdDataStream@pvdsdk@3@XZ 0000000180009030 f i ScbScenePvdClient.obj
 0001:00008030       ?getPxSceneDescFilterShaderData@@YAPEBXPEBVPxSceneDesc@physx@@@Z 0000000180009030 f i PxAutoGeneratedMetaDataObjects.obj
 0001:00008030       ?getPxTriangleMeshGeometryTriangleMesh@@YAPEAVPxTriangleMesh@physx@@PEBVPxTriangleMeshGeometry@2@@Z 0000000180009030 f i PxAutoGeneratedMetaDataObjects.obj
 0001:00008030       ?getTriangles@RenderBuffer@Cm@physx@@UEBAPEBUPxDebugTriangle@3@XZ 0000000180009030 f i NpScene.obj
 0001:00008040       ?getNbTriangles@RenderBuffer@Cm@physx@@UEBAIXZ 0000000180009040 f i NpScene.obj
 0001:00008040       ?getPxSceneDescFilterShaderDataSize@@YAIPEBVPxSceneDesc@physx@@@Z 0000000180009040 f i PxAutoGeneratedMetaDataObjects.obj
 0001:00008050       ?getPxSceneDescFlags@@YA?AV?$PxFlags@W4Enum@PxSceneFlag@physx@@I@physx@@PEBVPxSceneDesc@2@@Z 0000000180009050 f i PxAutoGeneratedMetaDataObjects.obj
 0001:00008060       ?getPxSceneDescFrictionOffsetThreshold@@YAMPEBVPxSceneDesc@physx@@@Z 0000000180009060 f i PxAutoGeneratedMetaDataObjects.obj
 0001:00008070       ?getPxSceneDescFrictionType@@YA?AW4Enum@PxFrictionType@physx@@PEBVPxSceneDesc@3@@Z 0000000180009070 f i PxAutoGeneratedMetaDataObjects.obj
 0001:00008080       ?getPxSceneDescGpuComputeVersion@@YAIPEBVPxSceneDesc@physx@@@Z 0000000180009080 f i PxAutoGeneratedMetaDataObjects.obj
 0001:00008090       ?getPxSceneDescGpuDynamicsConfig@@YA?AUPxgDynamicsMemoryConfig@physx@@PEBVPxSceneDesc@2@@Z 0000000180009090 f i PxAutoGeneratedMetaDataObjects.obj
 0001:000080b0       ?getPxSceneDescGpuMaxNumPartitions@@YAIPEBVPxSceneDesc@physx@@@Z 00000001800090b0 f i PxAutoGeneratedMetaDataObjects.obj
 0001:000080c0       ?getFilterShaderDataSize@NpBatchQuery@physx@@UEBAIXZ 00000001800090c0 f i NpBatchQuery.obj
 0001:000080c0       ?getPxSceneDescKineKineFilteringMode@@YA?AW4Enum@PxPairFilteringMode@physx@@PEBVPxSceneDesc@3@@Z 00000001800090c0 f i PxAutoGeneratedMetaDataObjects.obj
 0001:000080c0       ?getPxSimulationStatisticsPeakConstraintMemory@@YAIPEBVPxSimulationStatistics@physx@@@Z 00000001800090c0 f i PxAutoGeneratedMetaDataObjects.obj
 0001:000080d0       ?getPxSceneDescLimits@@YA?AVPxSceneLimits@physx@@PEBVPxSceneDesc@2@@Z 00000001800090d0 f i PxAutoGeneratedMetaDataObjects.obj
 0001:000080f0       ?getPxSceneDescMaxBiasCoefficient@@YAMPEBVPxSceneDesc@physx@@@Z 00000001800090f0 f i PxAutoGeneratedMetaDataObjects.obj
 0001:00008100       ?getPxSceneDescMaxNbContactDataBlocks@@YAIPEBVPxSceneDesc@physx@@@Z 0000000180009100 f i PxAutoGeneratedMetaDataObjects.obj
 0001:00008110       ?getPxSceneDescNbContactDataBlocks@@YAIPEBVPxSceneDesc@physx@@@Z 0000000180009110 f i PxAutoGeneratedMetaDataObjects.obj
 0001:00008120       ?getPxSceneDescSanityBounds@@YA?AVPxBounds3@physx@@PEBVPxSceneDesc@2@@Z 0000000180009120 f i PxAutoGeneratedMetaDataObjects.obj
 0001:00008160       ?getPxSceneDescSceneQueryUpdateMode@@YA?AW4Enum@PxSceneQueryUpdateMode@physx@@PEBVPxSceneDesc@3@@Z 0000000180009160 f i PxAutoGeneratedMetaDataObjects.obj
 0001:00008170       ?getPxSceneDescSolverArticulationBatchSize@@YAIPEBVPxSceneDesc@physx@@@Z 0000000180009170 f i PxAutoGeneratedMetaDataObjects.obj
 0001:00008180       ?getMaxUsedBlockCount@PxcNpMemBlockPool@physx@@QEBAIXZ 0000000180009180 f i LowLevel_static_64:PxcNpMemBlockPool.obj
 0001:00008180       ?getPxSceneDescSolverBatchSize@@YAIPEBVPxSceneDesc@physx@@@Z 0000000180009180 f i PxAutoGeneratedMetaDataObjects.obj
 0001:00008190       ?getPxSceneDescSolverOffsetSlop@@YAMPEBVPxSceneDesc@physx@@@Z 0000000180009190 f i PxAutoGeneratedMetaDataObjects.obj
 0001:000081a0       ?getPxSceneDescSolverType@@YA?AW4Enum@PxSolverType@physx@@PEBVPxSceneDesc@3@@Z 00000001800091a0 f i PxAutoGeneratedMetaDataObjects.obj
 0001:000081b0       ?getPxSceneDescStaticKineFilteringMode@@YA?AW4Enum@PxPairFilteringMode@physx@@PEBVPxSceneDesc@3@@Z 00000001800091b0 f i PxAutoGeneratedMetaDataObjects.obj
 0001:000081b0       ?getPxSimulationStatisticsNbDiscreteContactPairsTotal@@YAIPEBVPxSimulationStatistics@physx@@@Z 00000001800091b0 f i PxAutoGeneratedMetaDataObjects.obj
 0001:000081c0       ?getPxSceneDescStaticStructure@@YA?AW4Enum@PxPruningStructureType@physx@@PEBVPxSceneDesc@3@@Z 00000001800091c0 f i PxAutoGeneratedMetaDataObjects.obj
 0001:000081d0       ?getPxSceneDescUserData@@YAPEAXPEBVPxSceneDesc@physx@@@Z 00000001800091d0 f i PxAutoGeneratedMetaDataObjects.obj
 0001:000081e0       ?getPxSceneDescWakeCounterResetValue@@YAMPEBVPxSceneDesc@physx@@@Z 00000001800091e0 f i PxAutoGeneratedMetaDataObjects.obj
 0001:000081f0       ?getNbCcdBodies@PxgSimulationControllerCallback@@UEAAIXZ 00000001800091f0 f i SimulationController_static_64:ScScene.obj
 0001:000081f0       ?getNbPoints@RenderBuffer@Cm@physx@@UEBAIXZ 00000001800091f0 f i NpScene.obj
 0001:000081f0       ?getPxSceneLimitsMaxNbAggregates@@YAIPEBVPxSceneLimits@physx@@@Z 00000001800091f0 f i PxAutoGeneratedMetaDataObjects.obj
 0001:000081f0       ?getPxSimulationStatisticsNbDynamicBodies@@YAIPEBVPxSimulationStatistics@physx@@@Z 00000001800091f0 f i PxAutoGeneratedMetaDataObjects.obj
 0001:000081f0       ?getPxgDynamicsMemoryConfigPatchStreamSize@@YAIPEBUPxgDynamicsMemoryConfig@physx@@@Z 00000001800091f0 f i PxAutoGeneratedMetaDataObjects.obj
 0001:00008200       ?getPxSceneLimitsMaxNbBroadPhaseOverlaps@@YAIPEBVPxSceneLimits@physx@@@Z 0000000180009200 f i PxAutoGeneratedMetaDataObjects.obj
 0001:00008200       ?getPxgDynamicsMemoryConfigFoundLostPairsCapacity@@YAIPEBUPxgDynamicsMemoryConfig@physx@@@Z 0000000180009200 f i PxAutoGeneratedMetaDataObjects.obj
 0001:00008210       ?getPxSceneLimitsMaxNbConstraints@@YAIPEBVPxSceneLimits@physx@@@Z 0000000180009210 f i PxAutoGeneratedMetaDataObjects.obj
 0001:00008210       ?getPxSimulationStatisticsNbKinematicBodies@@YAIPEBVPxSimulationStatistics@physx@@@Z 0000000180009210 f i PxAutoGeneratedMetaDataObjects.obj
 0001:00008210       ?getPxgDynamicsMemoryConfigForceStreamCapacity@@YAIPEBUPxgDynamicsMemoryConfig@physx@@@Z 0000000180009210 f i PxAutoGeneratedMetaDataObjects.obj
 0001:00008220       ?getPxSceneLimitsMaxNbDynamicShapes@@YAIPEBVPxSceneLimits@physx@@@Z 0000000180009220 f i PxAutoGeneratedMetaDataObjects.obj
 0001:00008220       ?getPxSimulationStatisticsNbStaticBodies@@YAIPEBVPxSimulationStatistics@physx@@@Z 0000000180009220 f i PxAutoGeneratedMetaDataObjects.obj
 0001:00008220       ?getPxgDynamicsMemoryConfigContactStreamSize@@YAIPEBUPxgDynamicsMemoryConfig@physx@@@Z 0000000180009220 f i PxAutoGeneratedMetaDataObjects.obj
 0001:00008230       ?getNbCreatedPairs@BroadPhaseABP@Bp@physx@@UEBAIXZ 0000000180009230 f i LowLevelAABB_static_64:BpBroadPhaseABP.obj
 0001:00008230       ?getPxSceneLimitsMaxNbRegions@@YAIPEBVPxSceneLimits@physx@@@Z 0000000180009230 f i PxAutoGeneratedMetaDataObjects.obj
 0001:00008230       ?getPxgDynamicsMemoryConfigHeapCapacity@@YAIPEBUPxgDynamicsMemoryConfig@physx@@@Z 0000000180009230 f i PxAutoGeneratedMetaDataObjects.obj
 0001:00008230       ?getReference@FanoutTask@Cm@physx@@UEBAHXZ 0000000180009230 f i SimulationController_static_64:ScScene.obj
 0001:00008240       ?getPxScene_Actors@@YAIPEBVPxScene@physx@@V?$PxFlags@W4Enum@PxActorTypeFlag@physx@@G@2@PEAPEAVPxActor@2@I@Z 0000000180009240 f   PxAutoGeneratedMetaDataObjects.obj
 0001:00008270       ?getPxScene_Aggregates@@YAIPEBVPxScene@physx@@PEAPEAVPxAggregate@2@I@Z 0000000180009270 f   PxAutoGeneratedMetaDataObjects.obj
 0001:00008270       ?getPxShape_Materials@@YAIPEBVPxShape@physx@@PEAPEAVPxMaterial@2@I@Z 0000000180009270 f   PxAutoGeneratedMetaDataObjects.obj
 0001:00008280       ?getPxScene_Articulations@@YAIPEBVPxScene@physx@@PEAPEAVPxArticulationBase@2@I@Z 0000000180009280 f   PxAutoGeneratedMetaDataObjects.obj
 0001:00008290       ?getPxScene_BroadPhaseCallback@@YAPEAVPxBroadPhaseCallback@physx@@PEBVPxScene@2@@Z 0000000180009290 f   PxAutoGeneratedMetaDataObjects.obj
 0001:00008290       ?getPxShape_IsExclusive@@YA_NPEBVPxShape@physx@@@Z 0000000180009290 f   PxAutoGeneratedMetaDataObjects.obj
 0001:00008290       ?setPxArticulationJoint_TwistLimitEnabled@@YAXPEAVPxArticulationJoint@physx@@_N@Z 0000000180009290 f   PxAutoGeneratedMetaDataObjects.obj
 0001:000082a0       ?getPxScene_BroadPhaseRegions@@YAIPEBVPxScene@physx@@PEAUPxBroadPhaseRegionInfo@2@I@Z 00000001800092a0 f   PxAutoGeneratedMetaDataObjects.obj
 0001:000082b0       ?getPxScene_BroadPhaseType@@YA?AW4Enum@PxBroadPhaseType@physx@@PEBVPxScene@3@@Z 00000001800092b0 f   PxAutoGeneratedMetaDataObjects.obj
 0001:000082c0       ?getPxScene_Constraints@@YAIPEBVPxScene@physx@@PEAPEAVPxConstraint@2@I@Z 00000001800092c0 f   PxAutoGeneratedMetaDataObjects.obj
 0001:000082d0       ?getPxScene_ContactReportStreamBufferSize@@YAIPEBVPxScene@physx@@@Z 00000001800092d0 f   PxAutoGeneratedMetaDataObjects.obj
 0001:000082e0       ?getPxScene_DynamicStructure@@YA?AW4Enum@PxPruningStructureType@physx@@PEBVPxScene@3@@Z 00000001800092e0 f   PxAutoGeneratedMetaDataObjects.obj
 0001:000082e0       ?setPxRigidDynamic_SolverIterationCounts@@YAXPEAVPxRigidDynamic@physx@@II@Z 00000001800092e0 f   PxAutoGeneratedMetaDataObjects.obj
 0001:000082f0       ?getPxScene_DynamicTreeRebuildRateHint@@YAIPEBVPxScene@physx@@@Z 00000001800092f0 f   PxAutoGeneratedMetaDataObjects.obj
 0001:00008300       ?getPxScene_FilterCallback@@YAPEAVPxSimulationFilterCallback@physx@@PEBVPxScene@2@@Z 0000000180009300 f   PxAutoGeneratedMetaDataObjects.obj
 0001:00008300       ?setPxRigidBody_MaxLinearVelocity@@YAXPEAVPxRigidBody@physx@@M@Z 0000000180009300 f   PxAutoGeneratedMetaDataObjects.obj
 0001:00008310       ?getPxScene_Flags@@YA?AV?$PxFlags@W4Enum@PxSceneFlag@physx@@I@physx@@PEBVPxScene@2@@Z 0000000180009310 f   PxAutoGeneratedMetaDataObjects.obj
 0001:00008340       ?getPxScene_Gravity@@YA?AVPxVec3@physx@@PEBVPxScene@2@@Z 0000000180009340 f   PxAutoGeneratedMetaDataObjects.obj
 0001:00008370       ?getPxScene_KinematicKinematicFilteringMode@@YA?AW4Enum@PxPairFilteringMode@physx@@PEBVPxScene@3@@Z 0000000180009370 f   PxAutoGeneratedMetaDataObjects.obj
 0001:00008380       ?getPxScene_Limits@@YA?AVPxSceneLimits@physx@@PEBVPxScene@2@@Z 0000000180009380 f   PxAutoGeneratedMetaDataObjects.obj
 0001:000083b0       ?getPxScene_MaxNbContactDataBlocksUsed@@YAIPEBVPxScene@physx@@@Z 00000001800093b0 f   PxAutoGeneratedMetaDataObjects.obj
 0001:000083c0       ?getPxScene_SceneQueryStaticTimestamp@@YAIPEBVPxScene@physx@@@Z 00000001800093c0 f   PxAutoGeneratedMetaDataObjects.obj
 0001:000083d0       ?getPxScene_SceneQueryUpdateMode@@YA?AW4Enum@PxSceneQueryUpdateMode@physx@@PEBVPxScene@3@@Z 00000001800093d0 f   PxAutoGeneratedMetaDataObjects.obj
 0001:000083e0       ?getPxScene_SolverArticulationBatchSize@@YAIPEBVPxScene@physx@@@Z 00000001800093e0 f   PxAutoGeneratedMetaDataObjects.obj
 0001:000083f0       ?getPxScene_SolverBatchSize@@YAIPEBVPxScene@physx@@@Z 00000001800093f0 f   PxAutoGeneratedMetaDataObjects.obj
 0001:00008400       ?getPxScene_StaticKinematicFilteringMode@@YA?AW4Enum@PxPairFilteringMode@physx@@PEBVPxScene@3@@Z 0000000180009400 f   PxAutoGeneratedMetaDataObjects.obj
 0001:00008410       ?getPxScene_StaticStructure@@YA?AW4Enum@PxPruningStructureType@physx@@PEBVPxScene@3@@Z 0000000180009410 f   PxAutoGeneratedMetaDataObjects.obj
 0001:00008420       ?getPxScene_TaskManager@@YAPEAVPxTaskManager@physx@@PEBVPxScene@2@@Z 0000000180009420 f   PxAutoGeneratedMetaDataObjects.obj
 0001:00008430       ?getPxScene_VisualizationCullingBox@@YA?AVPxBounds3@physx@@PEBVPxScene@2@@Z 0000000180009430 f   PxAutoGeneratedMetaDataObjects.obj
 0001:00008460       ?getPxScene_WakeCounterResetValue@@YAMPEBVPxScene@physx@@@Z 0000000180009460 f   PxAutoGeneratedMetaDataObjects.obj
 0001:00008470       ?getPxShape_LocalPose@@YA?AVPxTransform@physx@@PEBVPxShape@2@@Z 0000000180009470 f   PxAutoGeneratedMetaDataObjects.obj
 0001:000084a0       ?getPxShape_Name@@YAPEBDPEBVPxShape@physx@@@Z 00000001800094a0 f   PxAutoGeneratedMetaDataObjects.obj
 0001:000084a0       ?setPxArticulationJoint_TwistLimitContactDistance@@YAXPEAVPxArticulationJoint@physx@@M@Z 00000001800094a0 f   PxAutoGeneratedMetaDataObjects.obj
 0001:000084b0       ?getPxShape_QueryFilterData@@YA?AUPxFilterData@physx@@PEBVPxShape@2@@Z 00000001800094b0 f   PxAutoGeneratedMetaDataObjects.obj
 0001:000084e0       ?getPxShape_SimulationFilterData@@YA?AUPxFilterData@physx@@PEBVPxShape@2@@Z 00000001800094e0 f   PxAutoGeneratedMetaDataObjects.obj
 0001:00008510       ?getNbRigidActors@PruningStructure@Sq@physx@@UEBAIXZ 0000000180009510 f i SceneQuery_static_64:SqPruningStructure.obj
 0001:00008510       ?getNbTexts@RenderBuffer@Cm@physx@@UEBAIXZ 0000000180009510 f i NpScene.obj
 0001:00008510       ?getPxSimulationStatisticsCompressedContactSize@@YAIPEBVPxSimulationStatistics@physx@@@Z 0000000180009510 f i PxAutoGeneratedMetaDataObjects.obj
 0001:00008520       ?getPxSimulationStatisticsNbAggregates@@YAIPEBVPxSimulationStatistics@physx@@@Z 0000000180009520 f i PxAutoGeneratedMetaDataObjects.obj
 0001:00008530       ?getPxSimulationStatisticsNbArticulations@@YAIPEBVPxSimulationStatistics@physx@@@Z 0000000180009530 f i PxAutoGeneratedMetaDataObjects.obj
 0001:00008540       ?getPxSimulationStatisticsNbAxisSolverConstraints@@YAIPEBVPxSimulationStatistics@physx@@@Z 0000000180009540 f i PxAutoGeneratedMetaDataObjects.obj
 0001:00008550       ?getPxSimulationStatisticsNbBroadPhaseAdds@@YAIPEBVPxSimulationStatistics@physx@@@Z 0000000180009550 f i PxAutoGeneratedMetaDataObjects.obj
 0001:00008560       ?getPxSimulationStatisticsNbBroadPhaseRemoves@@YAIPEBVPxSimulationStatistics@physx@@@Z 0000000180009560 f i PxAutoGeneratedMetaDataObjects.obj
 0001:00008570       ?getPxSimulationStatisticsNbDiscreteContactPairsWithContacts@@YAIPEBVPxSimulationStatistics@physx@@@Z 0000000180009570 f i PxAutoGeneratedMetaDataObjects.obj
 0001:00008580       ?getPxSimulationStatisticsNbLostPairs@@YAIPEBVPxSimulationStatistics@physx@@@Z 0000000180009580 f i PxAutoGeneratedMetaDataObjects.obj
 0001:00008590       ?getPxSimulationStatisticsNbLostTouches@@YAIPEBVPxSimulationStatistics@physx@@@Z 0000000180009590 f i PxAutoGeneratedMetaDataObjects.obj
 0001:000085a0       ?getPxSimulationStatisticsNbNewPairs@@YAIPEBVPxSimulationStatistics@physx@@@Z 00000001800095a0 f i PxAutoGeneratedMetaDataObjects.obj
 0001:000085b0       ?getPxSimulationStatisticsNbNewTouches@@YAIPEBVPxSimulationStatistics@physx@@@Z 00000001800095b0 f i PxAutoGeneratedMetaDataObjects.obj
 0001:000085c0       ?getPxSimulationStatisticsNbPartitions@@YAIPEBVPxSimulationStatistics@physx@@@Z 00000001800095c0 f i PxAutoGeneratedMetaDataObjects.obj
 0001:000085d0       ?getPxSimulationStatisticsRequiredContactConstraintMemory@@YAIPEBVPxSimulationStatistics@physx@@@Z 00000001800095d0 f i PxAutoGeneratedMetaDataObjects.obj
 0001:000085e0       ?getPxTolerancesScaleLength@@YAMPEBVPxTolerancesScale@physx@@@Z 00000001800095e0 f i PxAutoGeneratedMetaDataObjects.obj
 0001:000085f0       ?getPxTolerancesScale_IsValid@@YA_NPEBVPxTolerancesScale@physx@@@Z 00000001800095f0 f   PxAutoGeneratedMetaDataObjects.obj
 0001:00008600       ?getPxTriangleMeshGeometryMeshFlags@@YA?AV?$PxFlags@W4Enum@PxMeshGeometryFlag@physx@@E@physx@@PEBVPxTriangleMeshGeometry@2@@Z 0000000180009600 f i PxAutoGeneratedMetaDataObjects.obj
 0001:00008610       ?setCpuDispatcher@PxTaskMgr@physx@@UEAAXAEAVPxCpuDispatcher@2@@Z 0000000180009610 f i PhysXTask_static_64:TaskManager.obj
 0001:00008610       ?setPxActorUserData@@YAXPEAVPxActor@physx@@PEAX@Z 0000000180009610 f i PxAutoGeneratedMetaDataObjects.obj
 0001:00008610       ?setPxArticulationBaseUserData@@YAXPEAVPxArticulationBase@physx@@PEAX@Z 0000000180009610 f i PxAutoGeneratedMetaDataObjects.obj
 0001:00008610       ?setPxMaterialUserData@@YAXPEAVPxMaterial@physx@@PEAX@Z 0000000180009610 f i PxAutoGeneratedMetaDataObjects.obj
 0001:00008610       ?setPxSceneDescSimulationEventCallback@@YAXPEAVPxSceneDesc@physx@@PEAVPxSimulationEventCallback@2@@Z 0000000180009610 f i PxAutoGeneratedMetaDataObjects.obj
 0001:00008610       ?setPxShapeUserData@@YAXPEAVPxShape@physx@@PEAX@Z 0000000180009610 f i PxAutoGeneratedMetaDataObjects.obj
 0001:00008620       ?setPxActor_ActorFlags@@YAXPEAVPxActor@physx@@V?$PxFlags@W4Enum@PxActorFlag@physx@@E@2@@Z 0000000180009620 f   PxAutoGeneratedMetaDataObjects.obj
 0001:00008640       ?setPxArticulationJointReducedCoordinate_MaxJointVelocity@@YAXPEAVPxArticulationJointReducedCoordinate@physx@@M@Z 0000000180009640 f   PxAutoGeneratedMetaDataObjects.obj
 0001:00008640       ?setPxArticulationJoint_SwingLimit@@YAXPEAVPxArticulationJoint@physx@@MM@Z 0000000180009640 f   PxAutoGeneratedMetaDataObjects.obj
 0001:00008650       ?setPxArticulationReducedCoordinate_ArticulationFlags@@YAXPEAVPxArticulationReducedCoordinate@physx@@V?$PxFlags@W4Enum@PxArticulationFlag@physx@@E@2@@Z 0000000180009650 f   PxAutoGeneratedMetaDataObjects.obj
 0001:00008670       ?setPxBoxGeometryHalfExtents@@YAXPEAVPxBoxGeometry@physx@@VPxVec3@2@@Z 0000000180009670 f i PxAutoGeneratedMetaDataObjects.obj
 0001:00008690       ?setPxCapsuleGeometryHalfHeight@@YAXPEAVPxCapsuleGeometry@physx@@M@Z 0000000180009690 f i PxAutoGeneratedMetaDataObjects.obj
 0001:000086a0       ?setPxCapsuleGeometryRadius@@YAXPEAVPxCapsuleGeometry@physx@@M@Z 00000001800096a0 f i PxAutoGeneratedMetaDataObjects.obj
 0001:000086a0       ?setPxSphereGeometryRadius@@YAXPEAVPxSphereGeometry@physx@@M@Z 00000001800096a0 f i PxAutoGeneratedMetaDataObjects.obj
 0001:000086a0       ?setPxTolerancesScaleSpeed@@YAXPEAVPxTolerancesScale@physx@@M@Z 00000001800096a0 f i PxAutoGeneratedMetaDataObjects.obj
 0001:000086b0       ?setPxConstraint_Flags@@YAXPEAVPxConstraint@physx@@V?$PxFlags@W4Enum@PxConstraintFlag@physx@@G@2@@Z 00000001800096b0 f   PxAutoGeneratedMetaDataObjects.obj
 0001:000086d0       ?setPxConvexMeshGeometryConvexMesh@@YAXPEAVPxConvexMeshGeometry@physx@@PEAVPxConvexMesh@2@@Z 00000001800096d0 f i PxAutoGeneratedMetaDataObjects.obj
 0001:000086d0       ?setPxSceneDescCcdContactModifyCallback@@YAXPEAVPxSceneDesc@physx@@PEAVPxCCDContactModifyCallback@2@@Z 00000001800096d0 f i PxAutoGeneratedMetaDataObjects.obj
 0001:000086e0       ?setPxConvexMeshGeometryMeshFlags@@YAXPEAVPxConvexMeshGeometry@physx@@V?$PxFlags@W4Enum@PxConvexMeshGeometryFlag@physx@@E@2@@Z 00000001800096e0 f i PxAutoGeneratedMetaDataObjects.obj
 0001:000086f0       ?setPxConvexMeshGeometryScale@@YAXPEAVPxConvexMeshGeometry@physx@@VPxMeshScale@2@@Z 00000001800096f0 f i PxAutoGeneratedMetaDataObjects.obj
 0001:000086f0       ?setPxTriangleMeshGeometryScale@@YAXPEAVPxTriangleMeshGeometry@physx@@VPxMeshScale@2@@Z 00000001800096f0 f i PxAutoGeneratedMetaDataObjects.obj
 0001:00008720       ?setPxHeightFieldDescConvexEdgeThreshold@@YAXPEAVPxHeightFieldDesc@physx@@M@Z 0000000180009720 f i PxAutoGeneratedMetaDataObjects.obj
 0001:00008730       ?setPxHeightFieldDescFlags@@YAXPEAVPxHeightFieldDesc@physx@@V?$PxFlags@W4Enum@PxHeightFieldFlag@physx@@G@2@@Z 0000000180009730 f i PxAutoGeneratedMetaDataObjects.obj
 0001:00008740       ?setPxHeightFieldDescFormat@@YAXPEAVPxHeightFieldDesc@physx@@W4Enum@PxHeightFieldFormat@2@@Z 0000000180009740 f i PxAutoGeneratedMetaDataObjects.obj
 0001:00008740       ?setPxSceneLimitsMaxNbStaticShapes@@YAXPEAVPxSceneLimits@physx@@I@Z 0000000180009740 f i PxAutoGeneratedMetaDataObjects.obj
 0001:00008740       ?setPxSimulationStatisticsNbActiveKinematicBodies@@YAXPEAVPxSimulationStatistics@physx@@I@Z 0000000180009740 f i PxAutoGeneratedMetaDataObjects.obj
 0001:00008740       ?setPxgDynamicsMemoryConfigTempBufferCapacity@@YAXPEAUPxgDynamicsMemoryConfig@physx@@I@Z 0000000180009740 f i PxAutoGeneratedMetaDataObjects.obj
 0001:00008750       ?setPxHeightFieldDescNbColumns@@YAXPEAVPxHeightFieldDesc@physx@@I@Z 0000000180009750 f i PxAutoGeneratedMetaDataObjects.obj
 0001:00008750       ?setPxSceneLimitsMaxNbBodies@@YAXPEAVPxSceneLimits@physx@@I@Z 0000000180009750 f i PxAutoGeneratedMetaDataObjects.obj
 0001:00008750       ?setPxSimulationStatisticsNbActiveDynamicBodies@@YAXPEAVPxSimulationStatistics@physx@@I@Z 0000000180009750 f i PxAutoGeneratedMetaDataObjects.obj
 0001:00008750       ?setPxgDynamicsMemoryConfigContactBufferCapacity@@YAXPEAUPxgDynamicsMemoryConfig@physx@@I@Z 0000000180009750 f i PxAutoGeneratedMetaDataObjects.obj
 0001:00008760       ?setPxHeightFieldDescNbRows@@YAXPEAVPxHeightFieldDesc@physx@@I@Z 0000000180009760 f i PxAutoGeneratedMetaDataObjects.obj
 0001:00008760       ?setPxSceneLimitsMaxNbActors@@YAXPEAVPxSceneLimits@physx@@I@Z 0000000180009760 f i PxAutoGeneratedMetaDataObjects.obj
 0001:00008760       ?setPxSimulationStatisticsNbActiveConstraints@@YAXPEAVPxSimulationStatistics@physx@@I@Z 0000000180009760 f i PxAutoGeneratedMetaDataObjects.obj
 0001:00008760       ?setPxgDynamicsMemoryConfigConstraintBufferCapacity@@YAXPEAUPxgDynamicsMemoryConfig@physx@@I@Z 0000000180009760 f i PxAutoGeneratedMetaDataObjects.obj
 0001:00008770       ?setPxHeightFieldDescSamples@@YAXPEAVPxHeightFieldDesc@physx@@UPxStridedData@2@@Z 0000000180009770 f i PxAutoGeneratedMetaDataObjects.obj
 0001:00008780       ?setPxHeightFieldGeometryColumnScale@@YAXPEAVPxHeightFieldGeometry@physx@@M@Z 0000000180009780 f i PxAutoGeneratedMetaDataObjects.obj
 0001:00008790       ?setPxHeightFieldGeometryHeightField@@YAXPEAVPxHeightFieldGeometry@physx@@PEAVPxHeightField@2@@Z 0000000180009790 f i PxAutoGeneratedMetaDataObjects.obj
 0001:00008790       ?setPxSceneUserData@@YAXPEAVPxScene@physx@@PEAX@Z 0000000180009790 f i PxAutoGeneratedMetaDataObjects.obj
 0001:000087a0       ?setPxHeightFieldGeometryHeightFieldFlags@@YAXPEAVPxHeightFieldGeometry@physx@@V?$PxFlags@W4Enum@PxMeshGeometryFlag@physx@@E@2@@Z 00000001800097a0 f i PxAutoGeneratedMetaDataObjects.obj
 0001:000087b0       ?setPxHeightFieldGeometryHeightScale@@YAXPEAVPxHeightFieldGeometry@physx@@M@Z 00000001800097b0 f i PxAutoGeneratedMetaDataObjects.obj
 0001:000087c0       ?setPxHeightFieldGeometryRowScale@@YAXPEAVPxHeightFieldGeometry@physx@@M@Z 00000001800097c0 f i PxAutoGeneratedMetaDataObjects.obj
 0001:000087d0       ?setPxMaterial_Flags@@YAXPEAVPxMaterial@physx@@V?$PxFlags@W4Enum@PxMaterialFlag@physx@@G@2@@Z 00000001800097d0 f   PxAutoGeneratedMetaDataObjects.obj
 0001:000087f0       ?setPxMeshScaleRotation@@YAXPEAVPxMeshScale@physx@@VPxQuat@2@@Z 00000001800097f0 f i PxAutoGeneratedMetaDataObjects.obj
 0001:00008810       ?setPxMeshScaleScale@@YAXPEAVPxMeshScale@physx@@VPxVec3@2@@Z 0000000180009810 f i PxAutoGeneratedMetaDataObjects.obj
 0001:00008810       ?setPxSceneDescGravity@@YAXPEAVPxSceneDesc@physx@@VPxVec3@2@@Z 0000000180009810 f i PxAutoGeneratedMetaDataObjects.obj
 0001:00008830       ?setGlobalPose@NpArticulationLink@physx@@UEAAXAEBVPxTransform@2@@Z 0000000180009830 f   NpArticulationLink.obj
 0001:00008830       ?setPxRigidActor_GlobalPose@@YAXPEAVPxRigidActor@physx@@AEBVPxTransform@2@@Z 0000000180009830 f   PxAutoGeneratedMetaDataObjects.obj
 0001:00008840       ?setPxRigidBody_AngularVelocity@@YAXPEAVPxRigidBody@physx@@AEBVPxVec3@2@@Z 0000000180009840 f   PxAutoGeneratedMetaDataObjects.obj
 0001:00008850       ?setPxRigidBody_LinearVelocity@@YAXPEAVPxRigidBody@physx@@AEBVPxVec3@2@@Z 0000000180009850 f   PxAutoGeneratedMetaDataObjects.obj
 0001:00008860       ?flush@NpScene@physx@@UEAAX_N@Z 0000000180009860 f   NpScene.obj
 0001:00008860       ?setPxRigidBody_MaxContactImpulse@@YAXPEAVPxRigidBody@physx@@M@Z 0000000180009860 f   PxAutoGeneratedMetaDataObjects.obj
 0001:00008870       ?setPxRigidBody_MaxDepenetrationVelocity@@YAXPEAVPxRigidBody@physx@@M@Z 0000000180009870 f   PxAutoGeneratedMetaDataObjects.obj
 0001:00008880       ?setPxRigidBody_RigidBodyFlags@@YAXPEAVPxRigidBody@physx@@V?$PxFlags@W4Enum@PxRigidBodyFlag@physx@@G@2@@Z 0000000180009880 f   PxAutoGeneratedMetaDataObjects.obj
 0001:000088a0       ?setPxRigidDynamic_ContactReportThreshold@@YAXPEAVPxRigidDynamic@physx@@M@Z 00000001800098a0 f   PxAutoGeneratedMetaDataObjects.obj
 0001:000088a0       ?setPxScene_DynamicTreeRebuildRateHint@@YAXPEAVPxScene@physx@@I@Z 00000001800098a0 f   PxAutoGeneratedMetaDataObjects.obj
 0001:000088b0       ?setPxRigidDynamic_RigidDynamicLockFlags@@YAXPEAVPxRigidDynamic@physx@@V?$PxFlags@W4Enum@PxRigidDynamicLockFlag@physx@@E@2@@Z 00000001800098b0 f   PxAutoGeneratedMetaDataObjects.obj
 0001:000088d0       ?setPxRigidDynamic_StabilizationThreshold@@YAXPEAVPxRigidDynamic@physx@@M@Z 00000001800098d0 f   PxAutoGeneratedMetaDataObjects.obj
 0001:000088d0       ?setPxScene_FrictionType@@YAXPEAVPxScene@physx@@W4Enum@PxFrictionType@2@@Z 00000001800098d0 f   PxAutoGeneratedMetaDataObjects.obj
 0001:000088e0       ?setPxRigidDynamic_WakeCounter@@YAXPEAVPxRigidDynamic@physx@@M@Z 00000001800098e0 f   PxAutoGeneratedMetaDataObjects.obj
 0001:000088f0       ?setPxSceneDescBounceThresholdVelocity@@YAXPEAVPxSceneDesc@physx@@M@Z 00000001800098f0 f i PxAutoGeneratedMetaDataObjects.obj
 0001:00008900       ?setPxSceneDescBroadPhaseCallback@@YAXPEAVPxSceneDesc@physx@@PEAVPxBroadPhaseCallback@2@@Z 0000000180009900 f i PxAutoGeneratedMetaDataObjects.obj
 0001:00008910       ?setPxSceneDescBroadPhaseType@@YAXPEAVPxSceneDesc@physx@@W4Enum@PxBroadPhaseType@2@@Z 0000000180009910 f i PxAutoGeneratedMetaDataObjects.obj
 0001:00008910       ?setPxSimulationStatisticsNbDiscreteContactPairsWithCacheHits@@YAXPEAVPxSimulationStatistics@physx@@I@Z 0000000180009910 f i PxAutoGeneratedMetaDataObjects.obj
 0001:00008920       ?setPxSceneDescCcdMaxPasses@@YAXPEAVPxSceneDesc@physx@@I@Z 0000000180009920 f i PxAutoGeneratedMetaDataObjects.obj
 0001:00008930       ?setPxSceneDescCcdMaxSeparation@@YAXPEAVPxSceneDesc@physx@@M@Z 0000000180009930 f i PxAutoGeneratedMetaDataObjects.obj
 0001:00008940       ?setPxSceneDescCcdThreshold@@YAXPEAVPxSceneDesc@physx@@M@Z 0000000180009940 f i PxAutoGeneratedMetaDataObjects.obj
 0001:00008950       ?setPxSceneDescContactModifyCallback@@YAXPEAVPxSceneDesc@physx@@PEAVPxContactModifyCallback@2@@Z 0000000180009950 f i PxAutoGeneratedMetaDataObjects.obj
 0001:00008960       ?setPxSceneDescContactReportStreamBufferSize@@YAXPEAVPxSceneDesc@physx@@I@Z 0000000180009960 f i PxAutoGeneratedMetaDataObjects.obj
 0001:00008970       ?setPxSceneDescCpuDispatcher@@YAXPEAVPxSceneDesc@physx@@PEAVPxCpuDispatcher@2@@Z 0000000180009970 f i PxAutoGeneratedMetaDataObjects.obj
 0001:00008980       ?setPxSceneDescCudaContextManager@@YAXPEAVPxSceneDesc@physx@@PEAVPxCudaContextManager@2@@Z 0000000180009980 f i PxAutoGeneratedMetaDataObjects.obj
 0001:00008990       ?setPxSceneDescDynamicStructure@@YAXPEAVPxSceneDesc@physx@@W4Enum@PxPruningStructureType@2@@Z 0000000180009990 f i PxAutoGeneratedMetaDataObjects.obj
 0001:000089a0       ?setPxSceneDescDynamicTreeRebuildRateHint@@YAXPEAVPxSceneDesc@physx@@I@Z 00000001800099a0 f i PxAutoGeneratedMetaDataObjects.obj
 0001:000089b0       ?setPxSceneDescFilterCallback@@YAXPEAVPxSceneDesc@physx@@PEAVPxSimulationFilterCallback@2@@Z 00000001800099b0 f i PxAutoGeneratedMetaDataObjects.obj
 0001:000089c0       ?setPxSceneDescFilterShader@@YAXPEAVPxSceneDesc@physx@@P6A?AV?$PxFlags@W4Enum@PxFilterFlag@physx@@G@2@IUPxFilterData@2@I1AEAV?$PxFlags@W4Enum@PxPairFlag@physx@@G@2@PEBXI@Z@Z 00000001800099c0 f i PxAutoGeneratedMetaDataObjects.obj
 0001:000089d0       ?setPxSceneDescFilterShaderData@@YAXPEAVPxSceneDesc@physx@@PEBX@Z 00000001800099d0 f i PxAutoGeneratedMetaDataObjects.obj
 0001:000089d0       ?setPxTriangleMeshGeometryTriangleMesh@@YAXPEAVPxTriangleMeshGeometry@physx@@PEAVPxTriangleMesh@2@@Z 00000001800099d0 f i PxAutoGeneratedMetaDataObjects.obj
 0001:000089e0       ?setPxSceneDescFilterShaderDataSize@@YAXPEAVPxSceneDesc@physx@@I@Z 00000001800099e0 f i PxAutoGeneratedMetaDataObjects.obj
 0001:000089f0       ?setPxSceneDescFlags@@YAXPEAVPxSceneDesc@physx@@V?$PxFlags@W4Enum@PxSceneFlag@physx@@I@2@@Z 00000001800099f0 f i PxAutoGeneratedMetaDataObjects.obj
 0001:00008a00       ?setPxSceneDescFrictionOffsetThreshold@@YAXPEAVPxSceneDesc@physx@@M@Z 0000000180009a00 f i PxAutoGeneratedMetaDataObjects.obj
 0001:00008a10       ?setPxSceneDescFrictionType@@YAXPEAVPxSceneDesc@physx@@W4Enum@PxFrictionType@2@@Z 0000000180009a10 f i PxAutoGeneratedMetaDataObjects.obj
 0001:00008a20       ?setPxSceneDescGpuComputeVersion@@YAXPEAVPxSceneDesc@physx@@I@Z 0000000180009a20 f i PxAutoGeneratedMetaDataObjects.obj
 0001:00008a30       ?setPxSceneDescGpuDynamicsConfig@@YAXPEAVPxSceneDesc@physx@@UPxgDynamicsMemoryConfig@2@@Z 0000000180009a30 f i PxAutoGeneratedMetaDataObjects.obj
 0001:00008a50       ?setPxSceneDescGpuMaxNumPartitions@@YAXPEAVPxSceneDesc@physx@@I@Z 0000000180009a50 f i PxAutoGeneratedMetaDataObjects.obj
 0001:00008a60       ?setPxSceneDescKineKineFilteringMode@@YAXPEAVPxSceneDesc@physx@@W4Enum@PxPairFilteringMode@2@@Z 0000000180009a60 f i PxAutoGeneratedMetaDataObjects.obj
 0001:00008a60       ?setPxSimulationStatisticsPeakConstraintMemory@@YAXPEAVPxSimulationStatistics@physx@@I@Z 0000000180009a60 f i PxAutoGeneratedMetaDataObjects.obj
 0001:00008a70       ?setPxSceneDescLimits@@YAXPEAVPxSceneDesc@physx@@VPxSceneLimits@2@@Z 0000000180009a70 f i PxAutoGeneratedMetaDataObjects.obj
 0001:00008a80       ?setPxSceneDescMaxBiasCoefficient@@YAXPEAVPxSceneDesc@physx@@M@Z 0000000180009a80 f i PxAutoGeneratedMetaDataObjects.obj
 0001:00008a90       ?setPxSceneDescMaxNbContactDataBlocks@@YAXPEAVPxSceneDesc@physx@@I@Z 0000000180009a90 f i PxAutoGeneratedMetaDataObjects.obj
 0001:00008aa0       ?setPxSceneDescNbContactDataBlocks@@YAXPEAVPxSceneDesc@physx@@I@Z 0000000180009aa0 f i PxAutoGeneratedMetaDataObjects.obj
 0001:00008ab0       ?setPxSceneDescSanityBounds@@YAXPEAVPxSceneDesc@physx@@VPxBounds3@2@@Z 0000000180009ab0 f i PxAutoGeneratedMetaDataObjects.obj
 0001:00008af0       ?setPxSceneDescSceneQueryUpdateMode@@YAXPEAVPxSceneDesc@physx@@W4Enum@PxSceneQueryUpdateMode@2@@Z 0000000180009af0 f i PxAutoGeneratedMetaDataObjects.obj
 0001:00008b00       ?setPxSceneDescSolverArticulationBatchSize@@YAXPEAVPxSceneDesc@physx@@I@Z 0000000180009b00 f i PxAutoGeneratedMetaDataObjects.obj
 0001:00008b10       ?setPxSceneDescSolverBatchSize@@YAXPEAVPxSceneDesc@physx@@I@Z 0000000180009b10 f i PxAutoGeneratedMetaDataObjects.obj
 0001:00008b20       ?setPxSceneDescSolverOffsetSlop@@YAXPEAVPxSceneDesc@physx@@M@Z 0000000180009b20 f i PxAutoGeneratedMetaDataObjects.obj
 0001:00008b30       ?setPxSceneDescSolverType@@YAXPEAVPxSceneDesc@physx@@W4Enum@PxSolverType@2@@Z 0000000180009b30 f i PxAutoGeneratedMetaDataObjects.obj
 0001:00008b40       ?setPxSceneDescStaticKineFilteringMode@@YAXPEAVPxSceneDesc@physx@@W4Enum@PxPairFilteringMode@2@@Z 0000000180009b40 f i PxAutoGeneratedMetaDataObjects.obj
 0001:00008b40       ?setPxSimulationStatisticsNbDiscreteContactPairsTotal@@YAXPEAVPxSimulationStatistics@physx@@I@Z 0000000180009b40 f i PxAutoGeneratedMetaDataObjects.obj
 0001:00008b50       ?setPxSceneDescStaticStructure@@YAXPEAVPxSceneDesc@physx@@W4Enum@PxPruningStructureType@2@@Z 0000000180009b50 f i PxAutoGeneratedMetaDataObjects.obj
 0001:00008b60       ?setPxSceneDescUserData@@YAXPEAVPxSceneDesc@physx@@PEAX@Z 0000000180009b60 f i PxAutoGeneratedMetaDataObjects.obj
 0001:00008b70       ?setPxSceneDescWakeCounterResetValue@@YAXPEAVPxSceneDesc@physx@@M@Z 0000000180009b70 f i PxAutoGeneratedMetaDataObjects.obj
 0001:00008b80       ?setPxSceneDesc_ToDefault@@YAXPEAVPxSceneDesc@physx@@AEBVPxTolerancesScale@2@@Z 0000000180009b80 f   PxAutoGeneratedMetaDataObjects.obj
 0001:00008d80       ?setPxSceneLimitsMaxNbAggregates@@YAXPEAVPxSceneLimits@physx@@I@Z 0000000180009d80 f i PxAutoGeneratedMetaDataObjects.obj
 0001:00008d80       ?setPxSimulationStatisticsNbDynamicBodies@@YAXPEAVPxSimulationStatistics@physx@@I@Z 0000000180009d80 f i PxAutoGeneratedMetaDataObjects.obj
 0001:00008d80       ?setPxgDynamicsMemoryConfigPatchStreamSize@@YAXPEAUPxgDynamicsMemoryConfig@physx@@I@Z 0000000180009d80 f i PxAutoGeneratedMetaDataObjects.obj
 0001:00008d90       ?setPxSceneLimitsMaxNbBroadPhaseOverlaps@@YAXPEAVPxSceneLimits@physx@@I@Z 0000000180009d90 f i PxAutoGeneratedMetaDataObjects.obj
 0001:00008d90       ?setPxgDynamicsMemoryConfigFoundLostPairsCapacity@@YAXPEAUPxgDynamicsMemoryConfig@physx@@I@Z 0000000180009d90 f i PxAutoGeneratedMetaDataObjects.obj
 0001:00008da0       ?setPxSceneLimitsMaxNbConstraints@@YAXPEAVPxSceneLimits@physx@@I@Z 0000000180009da0 f i PxAutoGeneratedMetaDataObjects.obj
 0001:00008da0       ?setPxSimulationStatisticsNbKinematicBodies@@YAXPEAVPxSimulationStatistics@physx@@I@Z 0000000180009da0 f i PxAutoGeneratedMetaDataObjects.obj
 0001:00008da0       ?setPxgDynamicsMemoryConfigForceStreamCapacity@@YAXPEAUPxgDynamicsMemoryConfig@physx@@I@Z 0000000180009da0 f i PxAutoGeneratedMetaDataObjects.obj
 0001:00008db0       ?setPxSceneLimitsMaxNbDynamicShapes@@YAXPEAVPxSceneLimits@physx@@I@Z 0000000180009db0 f i PxAutoGeneratedMetaDataObjects.obj
 0001:00008db0       ?setPxSimulationStatisticsNbStaticBodies@@YAXPEAVPxSimulationStatistics@physx@@I@Z 0000000180009db0 f i PxAutoGeneratedMetaDataObjects.obj
 0001:00008db0       ?setPxgDynamicsMemoryConfigContactStreamSize@@YAXPEAUPxgDynamicsMemoryConfig@physx@@I@Z 0000000180009db0 f i PxAutoGeneratedMetaDataObjects.obj
 0001:00008dc0       ?setPxSceneLimitsMaxNbRegions@@YAXPEAVPxSceneLimits@physx@@I@Z 0000000180009dc0 f i PxAutoGeneratedMetaDataObjects.obj
 0001:00008dc0       ?setPxgDynamicsMemoryConfigHeapCapacity@@YAXPEAUPxgDynamicsMemoryConfig@physx@@I@Z 0000000180009dc0 f i PxAutoGeneratedMetaDataObjects.obj
 0001:00008dd0       ?setPxScene_BounceThresholdVelocity@@YAXPEAVPxScene@physx@@M@Z 0000000180009dd0 f   PxAutoGeneratedMetaDataObjects.obj
 0001:00008de0       ?setPxScene_Limits@@YAXPEAVPxScene@physx@@AEBVPxSceneLimits@2@@Z 0000000180009de0 f   PxAutoGeneratedMetaDataObjects.obj
 0001:00008df0       ?setPxScene_NbContactDataBlocks@@YAXPEAVPxScene@physx@@I@Z 0000000180009df0 f   PxAutoGeneratedMetaDataObjects.obj
 0001:00008e00       ?setPxScene_SceneQueryUpdateMode@@YAXPEAVPxScene@physx@@W4Enum@PxSceneQueryUpdateMode@2@@Z 0000000180009e00 f   PxAutoGeneratedMetaDataObjects.obj
 0001:00008e10       ?setPxScene_SolverArticulationBatchSize@@YAXPEAVPxScene@physx@@I@Z 0000000180009e10 f   PxAutoGeneratedMetaDataObjects.obj
 0001:00008e20       ?setPxScene_SolverBatchSize@@YAXPEAVPxScene@physx@@I@Z 0000000180009e20 f   PxAutoGeneratedMetaDataObjects.obj
 0001:00008e30       ?setPxScene_VisualizationCullingBox@@YAXPEAVPxScene@physx@@AEBVPxBounds3@2@@Z 0000000180009e30 f   PxAutoGeneratedMetaDataObjects.obj
 0001:00008e40       ?setPxShape_Flags@@YAXPEAVPxShape@physx@@V?$PxFlags@W4Enum@PxShapeFlag@physx@@E@2@@Z 0000000180009e40 f   PxAutoGeneratedMetaDataObjects.obj
 0001:00008e60       ?setPxSimulationStatisticsCompressedContactSize@@YAXPEAVPxSimulationStatistics@physx@@I@Z 0000000180009e60 f i PxAutoGeneratedMetaDataObjects.obj
 0001:00008e70       ?setPxSimulationStatisticsNbAggregates@@YAXPEAVPxSimulationStatistics@physx@@I@Z 0000000180009e70 f i PxAutoGeneratedMetaDataObjects.obj
 0001:00008e80       ?setPxSimulationStatisticsNbArticulations@@YAXPEAVPxSimulationStatistics@physx@@I@Z 0000000180009e80 f i PxAutoGeneratedMetaDataObjects.obj
 0001:00008e90       ?setPxSimulationStatisticsNbAxisSolverConstraints@@YAXPEAVPxSimulationStatistics@physx@@I@Z 0000000180009e90 f i PxAutoGeneratedMetaDataObjects.obj
 0001:00008ea0       ?setPxSimulationStatisticsNbBroadPhaseAdds@@YAXPEAVPxSimulationStatistics@physx@@I@Z 0000000180009ea0 f i PxAutoGeneratedMetaDataObjects.obj
 0001:00008eb0       ?setPxSimulationStatisticsNbBroadPhaseRemoves@@YAXPEAVPxSimulationStatistics@physx@@I@Z 0000000180009eb0 f i PxAutoGeneratedMetaDataObjects.obj
 0001:00008ec0       ?setPxSimulationStatisticsNbDiscreteContactPairsWithContacts@@YAXPEAVPxSimulationStatistics@physx@@I@Z 0000000180009ec0 f i PxAutoGeneratedMetaDataObjects.obj
 0001:00008ed0       ?setPxSimulationStatisticsNbLostPairs@@YAXPEAVPxSimulationStatistics@physx@@I@Z 0000000180009ed0 f i PxAutoGeneratedMetaDataObjects.obj
 0001:00008ee0       ?setPxSimulationStatisticsNbLostTouches@@YAXPEAVPxSimulationStatistics@physx@@I@Z 0000000180009ee0 f i PxAutoGeneratedMetaDataObjects.obj
 0001:00008ef0       ?setPxSimulationStatisticsNbNewPairs@@YAXPEAVPxSimulationStatistics@physx@@I@Z 0000000180009ef0 f i PxAutoGeneratedMetaDataObjects.obj
 0001:00008f00       ?setPxSimulationStatisticsNbNewTouches@@YAXPEAVPxSimulationStatistics@physx@@I@Z 0000000180009f00 f i PxAutoGeneratedMetaDataObjects.obj
 0001:00008f10       ?setPxSimulationStatisticsNbPartitions@@YAXPEAVPxSimulationStatistics@physx@@I@Z 0000000180009f10 f i PxAutoGeneratedMetaDataObjects.obj
 0001:00008f20       ?setPxSimulationStatisticsRequiredContactConstraintMemory@@YAXPEAVPxSimulationStatistics@physx@@I@Z 0000000180009f20 f i PxAutoGeneratedMetaDataObjects.obj
 0001:00008f30       ?setPxTolerancesScaleLength@@YAXPEAVPxTolerancesScale@physx@@M@Z 0000000180009f30 f i PxAutoGeneratedMetaDataObjects.obj
 0001:00008f40       ?setPxTriangleMeshGeometryMeshFlags@@YAXPEAVPxTriangleMeshGeometry@physx@@V?$PxFlags@W4Enum@PxMeshGeometryFlag@physx@@E@2@@Z 0000000180009f40 f i PxAutoGeneratedMetaDataObjects.obj
 0001:00008f50       ??0NbCCDPairsProperty@physx@@QEAA@XZ 0000000180009f50 f   PxMetaDataObjects.obj
 0001:00008f80       ??0NbDiscreteContactPairsProperty@physx@@QEAA@XZ 0000000180009f80 f   PxMetaDataObjects.obj
 0001:00008fb0       ??0NbModifiedContactPairsProperty@physx@@QEAA@XZ 0000000180009fb0 f   PxMetaDataObjects.obj
 0001:00008fe0       ??0NbShapesProperty@physx@@QEAA@XZ 0000000180009fe0 f   PxMetaDataObjects.obj
 0001:00009010       ??0NbTriggerPairsProperty@physx@@QEAA@XZ 000000018000a010 f   PxMetaDataObjects.obj
 0001:00009040       ??0PxFoundation@physx@@QEAA@AEBV01@@Z 000000018000a040 f i PxMetaDataObjects.obj
 0001:00009040       ??0PxFoundation@physx@@QEAA@XZ 000000018000a040 f i PxMetaDataObjects.obj
 0001:00009050       ??0SimulationStatisticsProperty@physx@@QEAA@XZ 000000018000a050 f   PxMetaDataObjects.obj
 0001:00009070       ??1PxFoundation@physx@@MEAA@XZ 000000018000a070 f i PxMetaDataObjects.obj
 0001:00009080       ??_EPxFoundation@physx@@MEAAPEAXI@Z 000000018000a080 f i PxMetaDataObjects.obj
 0001:00009110       ??1ActorCore@Sc@physx@@QEAA@XZ 000000018000a110 f i SimulationController_static_64:ScActorCore.obj
 0001:00009110       ??1ArticulationCore@Sc@physx@@QEAA@XZ 000000018000a110 f i SimulationController_static_64:ScArticulationCore.obj
 0001:00009110       ??1ArticulationJointCore@Sc@physx@@QEAA@XZ 000000018000a110 f i SimulationController_static_64:ScArticulationJointCore.obj
 0001:00009110       ??1ConstraintCore@Sc@physx@@QEAA@XZ 000000018000a110 f i SimulationController_static_64:ScConstraintCore.obj
 0001:00009110       ??1ConstraintInteraction@Sc@physx@@QEAA@XZ 000000018000a110 f i SimulationController_static_64:ScConstraintInteraction.obj
 0001:00009110       ??1NpActor@physx@@IEAA@XZ  000000018000a110 f i NpActor.obj
 0001:00009110       ??1PxsContactManager@physx@@QEAA@XZ 000000018000a110 f i LowLevel_static_64:PxsContactManager.obj
 0001:00009110       ??1SapPairManager@Bp@physx@@QEAA@XZ 000000018000a110 f i LowLevelAABB_static_64:BpBroadPhaseSapAux.obj
 0001:00009110       ??_FAllocator@shdfnd@physx@@QEAAXXZ 000000018000a110 f i PxMetaDataObjects.obj
 0001:00009110       ?PxcClearContactCacheStats@@YAXXZ 000000018000a110 f i LowLevel_static_64:PxcContactCache.obj
 0001:00009110       ?PxcDisplayContactCacheStats@@YAXXZ 000000018000a110 f i LowLevel_static_64:PxcContactCache.obj
 0001:00009110       ?__empty_global_delete@@YAXPEAX_K@Z 000000018000a110 f i PxMetaDataObjects.obj
 0001:00009110       ?__global_array_delete@@YAXPEAX_K@Z 000000018000a110 f i PxMetaDataObjects.obj
 0001:00009110       ?__global_delete@@YAXPEAX_K@Z 000000018000a110 f i PxMetaDataObjects.obj
 0001:00009110       ?acquireContext@PxsNphaseImplementationContext@physx@@UEAAXXZ 000000018000a110 f i LowLevel_static_64:PxsNphaseImplementationContext.obj
 0001:00009110       ?addArticulation@SimulationController@Sc@physx@@UEAAXPEAVArticulationV@Dy@3@AEBVNodeIndex@IG@3@@Z 000000018000a110 f i SimulationController_static_64:ScSimulationController.obj
 0001:00009110       ?addDynamic@SimulationController@Sc@physx@@UEAAXPEAVPxsRigidBody@3@AEBVNodeIndex@IG@3@@Z 000000018000a110 f i SimulationController_static_64:ScSimulationController.obj
 0001:00009110       ?addDynamics@SimulationController@Sc@physx@@UEAAXPEAPEAVPxsRigidBody@3@PEBII@Z 000000018000a110 f i SimulationController_static_64:ScSimulationController.obj
 0001:00009110       ?addJoint@SimulationController@Sc@physx@@UEAAXIPEAUConstraint@Dy@3@AEAVIslandSim@IG@3@AEAV?$Array@IVNamedAllocator@shdfnd@physx@@@shdfnd@3@AEAV?$Array@UPxgSolverConstraintManagerConstants@physx@@VVirtualAllocator@shdfnd@2@@93@I@Z 000000018000a110 f i SimulationController_static_64:ScSimulationController.obj
 0001:00009110       ?addShape@SimulationController@Sc@physx@@UEAAXPEAUPxsShapeSim@3@I@Z 000000018000a110 f i SimulationController_static_64:ScSimulationController.obj
 0001:00009110       ?clear@SimulationController@Sc@physx@@UEAAXXZ 000000018000a110 f i SimulationController_static_64:ScSimulationController.obj
 0001:00009110       ?concludeContact@Dy@physx@@YAXAEBUPxSolverConstraintDesc@2@@Z 000000018000a110 f i LowLevelDynamics_static_64:DyTGSContactPrep.obj
 0001:00009110       ?concludeInternalConstraints@Articulation@Dy@physx@@UEAAX_N@Z 000000018000a110 f i LowLevelDynamics_static_64:DyArticulation.obj
 0001:00009110       ?copyInternalStateToCache@ArticulationV@Dy@physx@@UEAAXAEAVPxArticulationCache@3@V?$PxFlags@W4Enum@PxArticulationCache@physx@@E@3@@Z 000000018000a110 f i LowLevelDynamics_static_64:DyArticulation.obj
 0001:00009110       ?createPvdInstance@ScbScenePvdClient@Vd@physx@@QEAAXPEBVArticulationJoint@Scb@3@@Z 000000018000a110 f i ScbScenePvdClient.obj
 0001:00009110       ?deletePairs@BroadPhaseABP@Bp@physx@@UEAAXXZ 000000018000a110 f i LowLevelAABB_static_64:BpBroadPhaseABP.obj
 0001:00009110       ?deletePairs@BroadPhaseMBP@Bp@physx@@UEAAXXZ 000000018000a110 f i LowLevelAABB_static_64:BpBroadPhaseMBP.obj
 0001:00009110       ?exportExtraData@?$PxSerializerDefaultAdapter@VNpArticulationJoint@physx@@@physx@@UEBAXAEAVPxBase@2@AEAVPxSerializationContext@2@@Z 000000018000a110 f i NpSerializerAdapter.obj
 0001:00009110       ?exportExtraData@?$PxSerializerDefaultAdapter@VNpArticulationJointReducedCoordinate@physx@@@physx@@UEBAXAEAVPxBase@2@AEAVPxSerializationContext@2@@Z 000000018000a110 f i NpSerializerAdapter.obj
 0001:00009110       ?exportExtraData@?$PxSerializerDefaultAdapter@VNpConstraint@physx@@@physx@@UEBAXAEAVPxBase@2@AEAVPxSerializationContext@2@@Z 000000018000a110 f i NpSerializerAdapter.obj
 0001:00009110       ?exportExtraData@?$PxSerializerDefaultAdapter@VNpMaterial@physx@@@physx@@UEBAXAEAVPxBase@2@AEAVPxSerializationContext@2@@Z 000000018000a110 f i NpSerializerAdapter.obj
 0001:00009110       ?fetchBroadPhaseResults@BroadPhaseABP@Bp@physx@@UEAAXPEAVPxBaseTask@3@@Z 000000018000a110 f i LowLevelAABB_static_64:BpBroadPhaseABP.obj
 0001:00009110       ?fetchBroadPhaseResults@BroadPhaseMBP@Bp@physx@@UEAAXPEAVPxBaseTask@3@@Z 000000018000a110 f i LowLevelAABB_static_64:BpBroadPhaseMBP.obj
 0001:00009110       ?fetchBroadPhaseResults@BroadPhaseSap@Bp@physx@@UEAAXPEAVPxBaseTask@3@@Z 000000018000a110 f i LowLevelAABB_static_64:BpBroadPhaseSap.obj
 0001:00009110       ?fetchUpdateContactManager@PxsNphaseImplementationContext@physx@@UEAAXXZ 000000018000a110 f i LowLevel_static_64:PxsNphaseImplementationContext.obj
 0001:00009110       ?finalizeQuery@?$PxHitCallback@UPxOverlapHit@physx@@@physx@@UEAAXXZ 000000018000a110 f i NpBatchQuery.obj
 0001:00009110       ?finalizeQuery@?$PxHitCallback@UPxRaycastHit@physx@@@physx@@UEAAXXZ 000000018000a110 f i NpBatchQuery.obj
 0001:00009110       ?finalizeQuery@?$PxHitCallback@UPxSweepHit@physx@@@physx@@UEAAXXZ 000000018000a110 f i NpBatchQuery.obj
 0001:00009110       ?flush@PvdPhysicsClient@Vd@physx@@UEAAXXZ 000000018000a110 f i PvdPhysicsClient.obj
 0001:00009110       ?flush@ScbScenePvdClient@Vd@physx@@UEAAXXZ 000000018000a110 f i ScbScenePvdClient.obj
 0001:00009110       ?getCoefficientMatrix@ArticulationV@Dy@physx@@UEAAXMIPEBVPxContactJoint@3@IAEAVPxArticulationCache@3@@Z 000000018000a110 f i LowLevelDynamics_static_64:DyArticulation.obj
 0001:00009110       ?getCoefficientMatrixWithLoopJoints@ArticulationV@Dy@physx@@UEAAXPEAUArticulationLoopConstraint@23@IAEAVPxArticulationCache@3@@Z 000000018000a110 f i LowLevelDynamics_static_64:DyArticulation.obj
 0001:00009110       ?getCoriolisAndCentrifugalForce@ArticulationV@Dy@physx@@UEAAXAEAVPxArticulationCache@3@@Z 000000018000a110 f i LowLevelDynamics_static_64:DyArticulation.obj
 0001:00009110       ?getDataStreamBase@DynamicsContext@Dy@physx@@UEAAXAEAPEAX00@Z 000000018000a110 f i LowLevelDynamics_static_64:DyDynamics.obj
 0001:00009110       ?getDataStreamBase@DynamicsTGSContext@Dy@physx@@UEAAXAEAPEAX00@Z 000000018000a110 f i LowLevelDynamics_static_64:DyTGSDynamics.obj
 0001:00009110       ?getDenseJacobian@ArticulationV@Dy@physx@@UEAAXAEAVPxArticulationCache@3@AEAI1@Z 000000018000a110 f i LowLevelDynamics_static_64:DyArticulation.obj
 0001:00009110       ?getGeneralizedExternalForce@ArticulationV@Dy@physx@@UEAAXAEAVPxArticulationCache@3@@Z 000000018000a110 f i LowLevelDynamics_static_64:DyArticulation.obj
 0001:00009110       ?getGeneralizedGravityForce@ArticulationV@Dy@physx@@UEAAXAEBVPxVec3@3@AEAVPxArticulationCache@3@@Z 000000018000a110 f i LowLevelDynamics_static_64:DyArticulation.obj
 0001:00009110       ?getGeneralizedMassMatrix@ArticulationV@Dy@physx@@UEAAXAEAVPxArticulationCache@3@@Z 000000018000a110 f i LowLevelDynamics_static_64:DyArticulation.obj
 0001:00009110       ?getGeneralizedMassMatrixCRB@ArticulationV@Dy@physx@@UEAAXAEAVPxArticulationCache@3@@Z 000000018000a110 f i LowLevelDynamics_static_64:DyArticulation.obj
 0001:00009110       ?getJointAcceleration@ArticulationV@Dy@physx@@UEAAXAEBVPxVec3@3@AEAVPxArticulationCache@3@@Z 000000018000a110 f i LowLevelDynamics_static_64:DyArticulation.obj
 0001:00009110       ?getJointForce@ArticulationV@Dy@physx@@UEAAXAEAVPxArticulationCache@3@@Z 000000018000a110 f i LowLevelDynamics_static_64:DyArticulation.obj
 0001:00009110       ?gpuDmabackData@SimulationController@Sc@physx@@UEAAXAEAVPxsTransformCache@3@AEAVBoundsArray@Bp@3@AEAV?$BitMapBase@VVirtualAllocator@shdfnd@physx@@@Cm@3@@Z 000000018000a110 f i SimulationController_static_64:ScSimulationController.obj
 0001:00009110       ?initializeCommonData@ArticulationV@Dy@physx@@UEAAXXZ 000000018000a110 f i LowLevelDynamics_static_64:DyArticulation.obj
 0001:00009110       ?merge@BucketPruner@Sq@physx@@UEAAXPEBX@Z 000000018000a110 f i SceneQuery_static_64:SqBucketPruner.obj
 0001:00009110       ?mergeResults@DynamicsTGSContext@Dy@physx@@UEAAXXZ 000000018000a110 f i LowLevelDynamics_static_64:DyTGSDynamics.obj
 0001:00009110       ?onUpdateSolverDesc@ArticulationV@Dy@physx@@UEAAXXZ 000000018000a110 f i LowLevelDynamics_static_64:DyArticulation.obj
 0001:00009110       ?packJointData@ArticulationV@Dy@physx@@UEAAXPEBMPEAM@Z 000000018000a110 f i LowLevelDynamics_static_64:DyArticulation.obj
 0001:00009110       ?postActorFlagChange@ActorSim@Sc@physx@@UEAAXII@Z 000000018000a110 f i SimulationController_static_64:ScScene.obj
 0001:00009110       ?postBroadPhaseUpdateContactManager@PxsNphaseImplementationContext@physx@@UEAAXXZ 000000018000a110 f i LowLevel_static_64:PxsNphaseImplementationContext.obj
 0001:00009110       ?preallocateNewBuffers@PxsNphaseImplementationContext@physx@@UEAAXII@Z 000000018000a110 f i LowLevel_static_64:PxsNphaseImplementationContext.obj
 0001:00009110       ?prepareStaticConstraints@ArticulationV@Dy@physx@@UEAAXMMAEAVPxsContactManagerOutputIterator@3@AEAVThreadContext@23@MMMMMPEAUPxSolverBodyData@3@AEAVPxsConstraintBlockManager@3@PEAUConstraintWriteback@23@@Z 000000018000a110 f i LowLevelDynamics_static_64:DyArticulation.obj
 0001:00009110       ?prepareStaticConstraintsTGS@ArticulationV@Dy@physx@@UEAAXMMMMAEAVPxsContactManagerOutputIterator@3@AEAVThreadContext@23@MMMPEAUPxTGSSolverBodyData@3@PEAUPxTGSSolverBodyTxInertia@3@AEAVPxsConstraintBlockManager@3@PEAUConstraintWriteback@23@IM@Z 000000018000a110 f i LowLevelDynamics_static_64:DyArticulation.obj
 0001:00009110       ?processLostPatches@DynamicsContext@Dy@physx@@UEAAXAEAVSimpleIslandManager@IG@3@PEAPEAVPxsContactManager@3@IAEAVPxsContactManagerOutputIterator@3@@Z 000000018000a110 f i LowLevelDynamics_static_64:DyDynamics.obj
 0001:00009110       ?processLostPatches@DynamicsTGSContext@Dy@physx@@UEAAXAEAVSimpleIslandManager@IG@3@PEAPEAVPxsContactManager@3@IAEAVPxsContactManagerOutputIterator@3@@Z 000000018000a110 f i LowLevelDynamics_static_64:DyTGSDynamics.obj
 0001:00009110       ?registerMaterial@PxsNphaseImplementationContext@physx@@UEAAXAEBVPxsMaterialCore@2@@Z 000000018000a110 f i LowLevel_static_64:PxsNphaseImplementationContext.obj
 0001:00009110       ?registerShape@PxsNphaseImplementationContext@physx@@UEAAXAEBUPxsShapeCore@2@@Z 000000018000a110 f i LowLevel_static_64:PxsNphaseImplementationContext.obj
 0001:00009110       ?releaseArticulation@SimulationController@Sc@physx@@UEAAXPEAVArticulationV@Dy@3@AEBVNodeIndex@IG@3@@Z 000000018000a110 f i SimulationController_static_64:ScSimulationController.obj
 0001:00009110       ?releaseContext@PxsNphaseImplementationContext@physx@@UEAAXXZ 000000018000a110 f i LowLevel_static_64:PxsNphaseImplementationContext.obj
 0001:00009110       ?releaseDeferredArticulationIds@SimulationController@Sc@physx@@UEAAXXZ 000000018000a110 f i SimulationController_static_64:ScSimulationController.obj
 0001:00009110       ?releasePvdInstance@ScbScenePvdClient@Vd@physx@@QEAAXPEBVArticulationJoint@Scb@3@@Z 000000018000a110 f i ScbScenePvdClient.obj
 0001:00009110       ?removeJoint@SimulationController@Sc@physx@@UEAAXIPEAUConstraint@Dy@3@AEAV?$Array@IVNamedAllocator@shdfnd@physx@@@shdfnd@3@AEAVIslandSim@IG@3@@Z 000000018000a110 f i SimulationController_static_64:ScSimulationController.obj
 0001:00009110       ?removeShape@SimulationController@Sc@physx@@UEAAXI@Z 000000018000a110 f i SimulationController_static_64:ScSimulationController.obj
 0001:00009110       ?requiresObjects@NpArticulationJoint@physx@@UEAAXAEAVPxProcessPxBaseCallback@2@@Z 000000018000a110 f i NpArticulationJoint.obj
 0001:00009110       ?requiresObjects@NpArticulationJointReducedCoordinate@physx@@UEAAXAEAVPxProcessPxBaseCallback@2@@Z 000000018000a110 f i NpArticulationJointReducedCoordinate.obj
 0001:00009110       ?requiresObjects@NpConstraint@physx@@UEAAXAEAVPxProcessPxBaseCallback@2@@Z 000000018000a110 f i NpConstraint.obj
 0001:00009110       ?requiresObjects@NpMaterial@physx@@UEAAXAEAVPxProcessPxBaseCallback@2@@Z 000000018000a110 f i NpMaterial.obj
 0001:00009110       ?reserve@SimulationController@Sc@physx@@UEAAXI@Z 000000018000a110 f i SimulationController_static_64:ScSimulationController.obj
 0001:00009110       ?run@PvdCommand@PvdInstanceDataStream@pvdsdk@physx@@UEAAXAEAV234@@Z 000000018000a110 f i PvdMetaDataPvdBinding.obj
 0001:00009110       ?runInternal@DynamicsMergeTask@Dy@physx@@UEAAXXZ 000000018000a110 f i LowLevelDynamics_static_64:DyTGSDynamics.obj
 0001:00009110       ?runInternal@FanoutTask@Cm@physx@@UEAAXXZ 000000018000a110 f i SimulationController_static_64:ScScene.obj
 0001:00009110       ?runInternal@SceneCompletion@NpScene@physx@@UEAAXXZ 000000018000a110 f i NpScene.obj
 0001:00009110       ?saveVelocityTGS@FeatherstoneArticulation@Dy@physx@@SAXAEBUArticulationSolverDesc@23@M@Z 000000018000a110 f i LowLevelDynamics_static_64:DyFeatherstoneArticulation.obj
 0001:00009110       ?serialize@EndPropertyMessageGroup@pvdsdk@physx@@UEAAXAEAVPvdEventSerializer@23@@Z 000000018000a110 f i PhysXPvdSDK_static_64:PxPvdDataStream.obj
 0001:00009110       ?serialize@EndSetPropertyValue@pvdsdk@physx@@UEAAXAEAVPvdEventSerializer@23@@Z 000000018000a110 f i PhysXPvdSDK_static_64:PxPvdDataStream.obj
 0001:00009110       ?setBounds@SimulationController@Sc@physx@@UEAAXPEAVBoundsArray@Bp@3@@Z 000000018000a110 f i SimulationController_static_64:ScSimulationController.obj
 0001:00009110       ?shiftOrigin@BroadPhaseABP@Bp@physx@@UEAAXAEBVPxVec3@3@PEBVPxBounds3@3@PEBM@Z 000000018000a110 f i LowLevelAABB_static_64:BpBroadPhaseABP.obj
 0001:00009110       ?solveInternalConstraints@Articulation@Dy@physx@@UEAAXMMPEAUSpatialVectorF@Cm@3@0_N1M@Z 000000018000a110 f i LowLevelDynamics_static_64:DyArticulation.obj
 0001:00009110       ?startNarrowPhaseTasks@PxsNphaseImplementationContext@physx@@UEAAXXZ 000000018000a110 f i LowLevel_static_64:PxsNphaseImplementationContext.obj
 0001:00009110       ?stopSimulation@PxTaskMgr@physx@@UEAAXXZ 000000018000a110 f i PhysXTask_static_64:TaskManager.obj
 0001:00009110       ?switchFromNoSim@?$NpRigidActorTemplate@VPxArticulationLink@physx@@@physx@@UEAAXXZ 000000018000a110 f i NpArticulationLink.obj
 0001:00009110       ?switchFromNoSim@?$NpRigidActorTemplate@VPxRigidDynamic@physx@@@physx@@UEAAXXZ 000000018000a110 f i NpRigidDynamic.obj
 0001:00009110       ?switchFromNoSim@?$NpRigidActorTemplate@VPxRigidStatic@physx@@@physx@@UEAAXXZ 000000018000a110 f i NpRigidStatic.obj
 0001:00009110       ?switchToNoSim@?$NpRigidActorTemplate@VPxArticulationLink@physx@@@physx@@UEAAXXZ 000000018000a110 f i NpArticulationLink.obj
 0001:00009110       ?switchToNoSim@?$NpRigidActorTemplate@VPxRigidDynamic@physx@@@physx@@UEAAXXZ 000000018000a110 f i NpRigidDynamic.obj
 0001:00009110       ?switchToNoSim@?$NpRigidActorTemplate@VPxRigidStatic@physx@@@physx@@UEAAXXZ 000000018000a110 f i NpRigidStatic.obj
 0001:00009110       ?teleportRootLink@ArticulationV@Dy@physx@@UEAAXXZ 000000018000a110 f i LowLevelDynamics_static_64:DyArticulation.obj
 0001:00009110       ?unpackJointData@ArticulationV@Dy@physx@@UEAAXPEBMPEAM@Z 000000018000a110 f i LowLevelDynamics_static_64:DyArticulation.obj
 0001:00009110       ?unregisterMaterial@PxsNphaseImplementationContext@physx@@UEAAXAEBVPxsMaterialCore@2@@Z 000000018000a110 f i LowLevel_static_64:PxsNphaseImplementationContext.obj
 0001:00009110       ?unregisterShape@PxsNphaseImplementationContext@physx@@UEAAXAEBUPxsShapeCore@2@@Z 000000018000a110 f i LowLevel_static_64:PxsNphaseImplementationContext.obj
 0001:00009110       ?update@SimulationController@Sc@physx@@UEAAXI@Z 000000018000a110 f i SimulationController_static_64:ScSimulationController.obj
 0001:00009110       ?updateArticulation@SimulationController@Sc@physx@@UEAAXPEAVArticulationV@Dy@3@AEBVNodeIndex@IG@3@@Z 000000018000a110 f i SimulationController_static_64:ScSimulationController.obj
 0001:00009110       ?updateArticulationJoint@SimulationController@Sc@physx@@UEAAXPEAVArticulationV@Dy@3@AEBVNodeIndex@IG@3@@Z 000000018000a110 f i SimulationController_static_64:ScSimulationController.obj
 0001:00009110       ?updateBodies@SimulationController@Sc@physx@@UEAAXPEAPEAVPxsRigidBody@3@PEAII@Z 000000018000a110 f i SimulationController_static_64:ScSimulationController.obj
 0001:00009110       ?updateBodiesAndShapes@SimulationController@Sc@physx@@UEAAXPEAVPxBaseTask@3@@Z 000000018000a110 f i SimulationController_static_64:ScSimulationController.obj
 0001:00009110       ?updateBody@SimulationController@Sc@physx@@UEAAXPEAVPxsRigidBody@3@I@Z 000000018000a110 f i SimulationController_static_64:ScSimulationController.obj
 0001:00009110       ?updateBodyCore@DynamicsContext@Dy@physx@@UEAAXPEAVPxBaseTask@3@@Z 000000018000a110 f i LowLevelDynamics_static_64:DyDynamics.obj
 0001:00009110       ?updateBodyCore@DynamicsTGSContext@Dy@physx@@UEAAXPEAVPxBaseTask@3@@Z 000000018000a110 f i LowLevelDynamics_static_64:DyTGSDynamics.obj
 0001:00009110       ?updateDynamic@SimulationController@Sc@physx@@UEAAX_NAEBVNodeIndex@IG@3@@Z 000000018000a110 f i SimulationController_static_64:ScSimulationController.obj
 0001:00009110       ?updateJoint@SimulationController@Sc@physx@@UEAAXIPEAUConstraint@Dy@3@@Z 000000018000a110 f i SimulationController_static_64:ScSimulationController.obj
 0001:00009110       ?updateMaterial@PxsNphaseImplementationContext@physx@@UEAAXAEBVPxsMaterialCore@2@@Z 000000018000a110 f i LowLevel_static_64:PxsNphaseImplementationContext.obj
 0001:00009110       ?updateShapeContactOffset@PxsNphaseImplementationContext@physx@@UEAAXAEBUPxsShapeCore@2@@Z 000000018000a110 f i LowLevel_static_64:PxsNphaseImplementationContext.obj
 0001:00009110       ?updateShapeMaterial@PxsNphaseImplementationContext@physx@@UEAAXAEBUPxsShapeCore@2@@Z 000000018000a110 f i LowLevel_static_64:PxsNphaseImplementationContext.obj
 0001:00009110       ?visualize@BVHCompoundPruner@Sq@physx@@UEBAXAEAVRenderOutput@Cm@3@I@Z 000000018000a110 f i SceneQuery_static_64:SqCompoundPruner.obj
 0001:00009110       ?visualize@CompoundPruner@Sq@physx@@UEBAXAEAVRenderOutput@Cm@3@I@Z 000000018000a110 f i SceneQuery_static_64:SqCompoundPruner.obj
 0001:00009110       ?visualize@Pruner@Sq@physx@@UEBAXAEAVRenderOutput@Cm@3@I@Z 000000018000a110 f i SceneQuery_static_64:SqBucketPruner.obj
 0001:00009110       ?writebackInternalConstraints@Articulation@Dy@physx@@UEAAX_N@Z 000000018000a110 f i LowLevelDynamics_static_64:DyArticulation.obj
 0001:00009110       _guard_check_icall_nop     000000018000a110 f i MSVCRT:guard_support.obj
 0001:00009120       ??_FNamedAllocator@shdfnd@physx@@QEAAXXZ 000000018000a120 f i PxMetaDataObjects.obj
 0001:00009130       ?GetNbCCDPairs@@YAIPEBVPxSimulationStatistics@physx@@W4Enum@PxGeometryType@2@1@Z 000000018000a130 f i PxMetaDataObjects.obj
 0001:00009150       ?GetNbDiscreteContactPairs@@YAIPEBVPxSimulationStatistics@physx@@W4Enum@PxGeometryType@2@1@Z 000000018000a150 f i PxMetaDataObjects.obj
 0001:00009170       ?GetNbModifiedContactPairs@@YAIPEBVPxSimulationStatistics@physx@@W4Enum@PxGeometryType@2@1@Z 000000018000a170 f i PxMetaDataObjects.obj
 0001:00009190       ?GetNbShape@@YAIPEBVPxSimulationStatistics@physx@@W4Enum@PxGeometryType@2@@Z 000000018000a190 f i PxMetaDataObjects.obj
 0001:000091a0       ?GetNbTriggerPairs@@YAIPEBVPxSimulationStatistics@physx@@W4Enum@PxGeometryType@2@1@Z 000000018000a1a0 f i PxMetaDataObjects.obj
 0001:000091c0       ?GetStats@@YA?AVPxSimulationStatistics@physx@@PEBVPxScene@2@@Z 000000018000a1c0 f i PxMetaDataObjects.obj
 0001:000092a0       ?SetNbCCDPairs@@YAXPEAVPxSimulationStatistics@physx@@W4Enum@PxGeometryType@2@1I@Z 000000018000a2a0 f i PxMetaDataObjects.obj
 0001:000092c0       ?SetNbDiscreteContactPairs@@YAXPEAVPxSimulationStatistics@physx@@W4Enum@PxGeometryType@2@1I@Z 000000018000a2c0 f i PxMetaDataObjects.obj
 0001:000092e0       ?SetNbModifiedContactPairs@@YAXPEAVPxSimulationStatistics@physx@@W4Enum@PxGeometryType@2@1I@Z 000000018000a2e0 f i PxMetaDataObjects.obj
 0001:00009300       ?SetNbShape@@YAXPEAVPxSimulationStatistics@physx@@W4Enum@PxGeometryType@2@I@Z 000000018000a300 f i PxMetaDataObjects.obj
 0001:00009310       ?SetNbTriggerPairs@@YAXPEAVPxSimulationStatistics@physx@@W4Enum@PxGeometryType@2@1I@Z 000000018000a310 f i PxMetaDataObjects.obj
 0001:00009330       ?createLink@PxArticulationLinkCollectionPropHelper@physx@@QEBAPEAVPxArticulationLink@2@PEAVPxArticulation@2@PEAV32@AEBVPxTransform@2@@Z 000000018000a330 f   PxMetaDataObjects.obj
 0001:000093c0       ?createShape@PxRigidActorShapeCollectionHelper@physx@@QEBAPEAVPxShape@2@PEAVPxRigidActor@2@AEBVPxGeometry@2@AEAVPxMaterial@2@V?$PxFlags@W4Enum@PxShapeFlag@physx@@E@2@@Z 000000018000a3c0 f   PxMetaDataObjects.obj
 0001:00009440       ?createShape@PxRigidActorShapeCollectionHelper@physx@@QEBAPEAVPxShape@2@PEAVPxRigidActor@2@AEBVPxGeometry@2@PEBQEAVPxMaterial@2@GV?$PxFlags@W4Enum@PxShapeFlag@physx@@E@2@@Z 000000018000a440 f   PxMetaDataObjects.obj
 0001:000094d0       ?getAllocator@Foundation@shdfnd@physx@@QEAAAEAVPxAllocatorCallback@3@XZ 000000018000a4d0 f i PxMetaDataObjects.obj
 0001:000094d0       ?getImpl@?$NpArticulationTemplate@VPxArticulation@physx@@@physx@@UEAAPEAVPxArticulationImpl@2@XZ 000000018000a4d0 f i NpArticulation.obj
 0001:000094d0       ?getImpl@?$NpArticulationTemplate@VPxArticulation@physx@@@physx@@UEBAPEBVPxArticulationImpl@2@XZ 000000018000a4d0 f i NpArticulation.obj
 0001:000094d0       ?getImpl@?$NpArticulationTemplate@VPxArticulationReducedCoordinate@physx@@@physx@@UEAAPEAVPxArticulationImpl@2@XZ 000000018000a4d0 f i NpArticulationReducedCoordinate.obj
 0001:000094d0       ?getImpl@?$NpArticulationTemplate@VPxArticulationReducedCoordinate@physx@@@physx@@UEBAPEBVPxArticulationImpl@2@XZ 000000018000a4d0 f i NpArticulationReducedCoordinate.obj
 0001:000094d0       ?getTolerancesScale@NpPhysics@physx@@UEBAAEBVPxTolerancesScale@2@XZ 000000018000a4d0 f i NpPhysics.obj
 0001:000094e0       ?getErrorLevel@Foundation@shdfnd@physx@@UEBA?AW4Enum@PxErrorCode@3@XZ 000000018000a4e0 f i PxMetaDataObjects.obj
 0001:000094f0       ?getGeometry@PxShapeGeometryPropertyHelper@physx@@QEBA_NPEBVPxShape@2@AEAVPxBoxGeometry@2@@Z 000000018000a4f0 f   PxMetaDataObjects.obj
 0001:00009500       ?getGeometry@PxShapeGeometryPropertyHelper@physx@@QEBA_NPEBVPxShape@2@AEAVPxCapsuleGeometry@2@@Z 000000018000a500 f   PxMetaDataObjects.obj
 0001:00009510       ?exportExtraData@?$PxSerializerDefaultAdapter@VNpAggregate@physx@@@physx@@UEBAXAEAVPxBase@2@AEAVPxSerializationContext@2@@Z 000000018000a510 f   NpSerializerAdapter.obj
 0001:00009510       ?getGeometry@PxShapeGeometryPropertyHelper@physx@@QEBA_NPEBVPxShape@2@AEAVPxConvexMeshGeometry@2@@Z 000000018000a510 f   PxMetaDataObjects.obj
 0001:00009520       ?getGeometry@PxShapeGeometryPropertyHelper@physx@@QEBA_NPEBVPxShape@2@AEAVPxHeightFieldGeometry@2@@Z 000000018000a520 f   PxMetaDataObjects.obj
 0001:00009520       ?requiresObjects@?$PxSerializerDefaultAdapter@VConvexMesh@Gu@physx@@@physx@@UEBAXAEAVPxBase@2@AEAVPxProcessPxBaseCallback@2@@Z 000000018000a520 f   NpSerializerAdapter.obj
 0001:00009530       ?getGeometry@PxShapeGeometryPropertyHelper@physx@@QEBA_NPEBVPxShape@2@AEAVPxPlaneGeometry@2@@Z 000000018000a530 f   PxMetaDataObjects.obj
 0001:00009540       ?getGeometry@PxShapeGeometryPropertyHelper@physx@@QEBA_NPEBVPxShape@2@AEAVPxSphereGeometry@2@@Z 000000018000a540 f   PxMetaDataObjects.obj
 0001:00009550       ?exportExtraData@?$PxSerializerDefaultAdapter@VConvexMesh@Gu@physx@@@physx@@UEBAXAEAVPxBase@2@AEAVPxSerializationContext@2@@Z 000000018000a550 f   NpSerializerAdapter.obj
 0001:00009550       ?getGeometry@PxShapeGeometryPropertyHelper@physx@@QEBA_NPEBVPxShape@2@AEAVPxTriangleMeshGeometry@2@@Z 000000018000a550 f   PxMetaDataObjects.obj
 0001:00009550       ?requiresObjects@?$PxSerializerDefaultAdapter@VNpAggregate@physx@@@physx@@UEBAXAEAVPxBase@2@AEAVPxProcessPxBaseCallback@2@@Z 000000018000a550 f   NpSerializerAdapter.obj
 0001:00009560       ?getGeometryType@PxShapeGeometryPropertyHelper@physx@@QEBA?AW4Enum@PxGeometryType@2@PEBVPxShape@2@@Z 000000018000a560 f   PxMetaDataObjects.obj
 0001:00009570       ?getInternalErrorCallback@Foundation@shdfnd@physx@@QEAAAEAVPxErrorCallback@3@XZ 000000018000a570 f i PxMetaDataObjects.obj
 0001:00009580       ?getNamedAllocMap@Foundation@shdfnd@physx@@QEAAAEAV?$HashMap@PEBVNamedAllocator@shdfnd@physx@@PEBDU?$Hash@PEBVNamedAllocator@shdfnd@physx@@@23@VNonTrackingAllocator@23@@23@XZ 000000018000a580 f i PxMetaDataObjects.obj
 0001:00009590       ?getNamedAllocMutex@Foundation@shdfnd@physx@@QEAAAEAV?$MutexT@VAllocator@shdfnd@physx@@@23@XZ 000000018000a590 f i PxMetaDataObjects.obj
 0001:000095a0       ?getReportAllocationNames@Foundation@shdfnd@physx@@UEBA_NXZ 000000018000a5a0 f i PxMetaDataObjects.obj
 0001:000095b0       ?getTempAllocFreeTable@Foundation@shdfnd@physx@@QEAAAEAV?$Array@PEATTempAllocatorChunk@shdfnd@physx@@VAllocator@23@@23@XZ 000000018000a5b0 f i PxMetaDataObjects.obj
 0001:000095c0       ?getTempAllocMutex@Foundation@shdfnd@physx@@QEAAAEAV?$MutexT@VAllocator@shdfnd@physx@@@23@XZ 000000018000a5c0 f i PxMetaDataObjects.obj
 0001:000095d0       ?isFinite@PxQuat@physx@@QEBA_NXZ 000000018000a5d0 f i PxMetaDataObjects.obj
 0001:00009640       ?isValid@PxTransform@physx@@QEBA_NXZ 000000018000a640 f i PxMetaDataObjects.obj
 0001:00009710       ?setErrorLevel@Foundation@shdfnd@physx@@UEAAXW4Enum@PxErrorCode@3@@Z 000000018000a710 f i PxMetaDataObjects.obj
 0001:00009720       ?setMaterials@PxShapeMaterialsPropertyHelper@physx@@QEBAXPEAVPxShape@2@PEBQEAVPxMaterial@2@G@Z 000000018000a720 f   PxMetaDataObjects.obj
 0001:00009740       ?setReportAllocationNames@Foundation@shdfnd@physx@@UEAAX_N@Z 000000018000a740 f i PxMetaDataObjects.obj
 0001:00009750       ??0NpActor@physx@@QEAA@PEBD@Z 000000018000a750 f   NpActor.obj
 0001:00009760       ??4FPUGuard@shdfnd@physx@@QEAAAEAV012@AEBV012@@Z 000000018000a760 f i NpActor.obj
 0001:00009780       ?addConnector@NpActor@physx@@QEAAXW4Enum@NpConnectorType@2@PEAVPxBase@2@PEBD@Z 000000018000a780 f   NpActor.obj
 0001:00009960       ?addConstraintsToSceneInternal@NpActor@physx@@AEAAXXZ 000000018000a960 f   NpActor.obj
 0001:00009a30       ?allocate@?$Array@URemovedShape@Scb@physx@@V?$InlineAllocator@$0EA@VNamedAllocator@shdfnd@physx@@@shdfnd@3@@shdfnd@physx@@IEAAPEAURemovedShape@Scb@3@I@Z 000000018000aa30 f i NpShapeManager.obj
 0001:00009a30       ?allocate@?$Array@VNpConnector@physx@@V?$InlineAllocator@$0EA@VNamedAllocator@shdfnd@physx@@@shdfnd@2@@shdfnd@physx@@IEAAPEAVNpConnector@3@I@Z 000000018000aa30 f i NpActor.obj
 0001:00009ab0       ?create@?$HashBase@PEAVBase@Scb@physx@@PEAV123@U?$Hash@PEAVBase@Scb@physx@@@shdfnd@3@UGetKey@?$HashSetBase@PEAVBase@Scb@physx@@U?$Hash@PEAVBase@Scb@physx@@@shdfnd@3@VNonTrackingAllocator@53@$00@internal@53@VNonTrackingAllocator@53@$00@internal@shdfnd@physx@@QEAAPEAPEAVBase@Scb@4@AEBQEAV564@AEA_N@Z 000000018000aab0 f i ScbScene.obj
 0001:00009ab0       ?create@?$HashBase@PEAVPxAggregate@physx@@PEAV12@U?$Hash@PEAVPxAggregate@physx@@@shdfnd@2@UGetKey@?$HashSetBase@PEAVPxAggregate@physx@@U?$Hash@PEAVPxAggregate@physx@@@shdfnd@2@VNonTrackingAllocator@42@$00@internal@42@VNonTrackingAllocator@42@$00@internal@shdfnd@physx@@QEAAPEAPEAVPxAggregate@4@AEBQEAV54@AEA_N@Z 000000018000aab0 f i NpScene.obj
 0001:00009ab0       ?create@?$HashBase@PEAVPxArticulationBase@physx@@PEAV12@U?$Hash@PEAVPxArticulationBase@physx@@@shdfnd@2@UGetKey@?$HashSetBase@PEAVPxArticulationBase@physx@@U?$Hash@PEAVPxArticulationBase@physx@@@shdfnd@2@VNonTrackingAllocator@42@$00@internal@42@VNonTrackingAllocator@42@$00@internal@shdfnd@physx@@QEAAPEAPEAVPxArticulationBase@4@AEBQEAV54@AEA_N@Z 000000018000aab0 f i NpScene.obj
 0001:00009ab0       ?create@?$HashBase@PEAVPxConstraint@physx@@PEAV12@U?$Hash@PEAVPxConstraint@physx@@@shdfnd@2@UGetKey@?$HashSetBase@PEAVPxConstraint@physx@@U?$Hash@PEAVPxConstraint@physx@@@shdfnd@2@VNonTrackingAllocator@42@$00@internal@42@VNonTrackingAllocator@42@$00@internal@shdfnd@physx@@QEAAPEAPEAVPxConstraint@4@AEBQEAV54@AEA_N@Z 000000018000aab0 f i NpActor.obj
 0001:00009ab0       ?create@?$HashBase@PEAVPxShape@physx@@PEAV12@U?$Hash@PEAVPxShape@physx@@@shdfnd@2@UGetKey@?$HashSetBase@PEAVPxShape@physx@@U?$Hash@PEAVPxShape@physx@@@shdfnd@2@VNonTrackingAllocator@42@$00@internal@42@VNonTrackingAllocator@42@$00@internal@shdfnd@physx@@QEAAPEAPEAVPxShape@4@AEBQEAV54@AEA_N@Z 000000018000aab0 f i NpFactory.obj
 0001:00009c40       ?erase@?$HashBase@PEAUConstraintGroupNode@Sc@physx@@PEAU123@U?$Hash@PEAUConstraintGroupNode@Sc@physx@@@shdfnd@3@UGetKey@?$HashSetBase@PEAUConstraintGroupNode@Sc@physx@@U?$Hash@PEAUConstraintGroupNode@Sc@physx@@@shdfnd@3@VNonTrackingAllocator@53@$00@internal@53@VNonTrackingAllocator@53@$00@internal@shdfnd@physx@@QEAA_NAEBQEAUConstraintGroupNode@Sc@4@@Z 000000018000ac40 f i SimulationController_static_64:ScConstraintProjectionManager.obj
 0001:00009c40       ?erase@?$HashBase@PEAVArticulationCore@Sc@physx@@PEAV123@U?$Hash@PEAVArticulationCore@Sc@physx@@@shdfnd@3@UGetKey@?$HashSetBase@PEAVArticulationCore@Sc@physx@@U?$Hash@PEAVArticulationCore@Sc@physx@@@shdfnd@3@VNonTrackingAllocator@53@$00@internal@53@VNonTrackingAllocator@53@$00@internal@shdfnd@physx@@QEAA_NAEBQEAVArticulationCore@Sc@4@@Z 000000018000ac40 f i SimulationController_static_64:ScScene.obj
 0001:00009c40       ?erase@?$HashBase@PEAVBase@Scb@physx@@PEAV123@U?$Hash@PEAVBase@Scb@physx@@@shdfnd@3@UGetKey@?$HashSetBase@PEAVBase@Scb@physx@@U?$Hash@PEAVBase@Scb@physx@@@shdfnd@3@VNonTrackingAllocator@53@$00@internal@53@VNonTrackingAllocator@53@$00@internal@shdfnd@physx@@QEAA_NAEBQEAVBase@Scb@4@@Z 000000018000ac40 f i ScbScene.obj
 0001:00009c40       ?erase@?$HashBase@PEAVBodyCore@Sc@physx@@PEAV123@U?$Hash@PEAVBodyCore@Sc@physx@@@shdfnd@3@UGetKey@?$HashSetBase@PEAVBodyCore@Sc@physx@@U?$Hash@PEAVBodyCore@Sc@physx@@@shdfnd@3@VNonTrackingAllocator@53@$00@internal@53@VNonTrackingAllocator@53@$00@internal@shdfnd@physx@@QEAA_NAEBQEAVBodyCore@Sc@4@@Z 000000018000ac40 f i SimulationController_static_64:ScScene.obj
 0001:00009c40       ?erase@?$HashBase@PEAVConstraintCore@Sc@physx@@PEAV123@U?$Hash@PEAVConstraintCore@Sc@physx@@@shdfnd@3@UGetKey@?$HashSetBase@PEAVConstraintCore@Sc@physx@@U?$Hash@PEAVConstraintCore@Sc@physx@@@shdfnd@3@VNonTrackingAllocator@53@$00@internal@53@VNonTrackingAllocator@53@$00@internal@shdfnd@physx@@QEAA_NAEBQEAVConstraintCore@Sc@4@@Z 000000018000ac40 f i SimulationController_static_64:ScScene.obj
 0001:00009c40       ?erase@?$HashBase@PEAVConstraintSim@Sc@physx@@PEAV123@U?$Hash@PEAVConstraintSim@Sc@physx@@@shdfnd@3@UGetKey@?$HashSetBase@PEAVConstraintSim@Sc@physx@@U?$Hash@PEAVConstraintSim@Sc@physx@@@shdfnd@3@VNonTrackingAllocator@53@$00@internal@53@VNonTrackingAllocator@53@$00@internal@shdfnd@physx@@QEAA_NAEBQEAVConstraintSim@Sc@4@@Z 000000018000ac40 f i SimulationController_static_64:ScScene.obj
 0001:00009c40       ?erase@?$HashBase@PEAVInteraction@Sc@physx@@PEAV123@U?$Hash@PEAVInteraction@Sc@physx@@@shdfnd@3@UGetKey@?$HashSetBase@PEAVInteraction@Sc@physx@@U?$Hash@PEAVInteraction@Sc@physx@@@shdfnd@3@VNonTrackingAllocator@53@$00@internal@53@VNonTrackingAllocator@53@$00@internal@shdfnd@physx@@QEAA_NAEBQEAVInteraction@Sc@4@@Z 000000018000ac40 f i SimulationController_static_64:ScNPhaseCore.obj
 0001:00009c40       ?erase@?$HashBase@PEAVPxAggregate@physx@@PEAV12@U?$Hash@PEAVPxAggregate@physx@@@shdfnd@2@UGetKey@?$HashSetBase@PEAVPxAggregate@physx@@U?$Hash@PEAVPxAggregate@physx@@@shdfnd@2@VNonTrackingAllocator@42@$00@internal@42@VNonTrackingAllocator@42@$00@internal@shdfnd@physx@@QEAA_NAEBQEAVPxAggregate@4@@Z 000000018000ac40 f i NpAggregate.obj
 0001:00009c40       ?erase@?$HashBase@PEAVPxArticulationBase@physx@@PEAV12@U?$Hash@PEAVPxArticulationBase@physx@@@shdfnd@2@UGetKey@?$HashSetBase@PEAVPxArticulationBase@physx@@U?$Hash@PEAVPxArticulationBase@physx@@@shdfnd@2@VNonTrackingAllocator@42@$00@internal@42@VNonTrackingAllocator@42@$00@internal@shdfnd@physx@@QEAA_NAEBQEAVPxArticulationBase@4@@Z 000000018000ac40 f i NpArticulationReducedCoordinate.obj
 0001:00009c40       ?erase@?$HashBase@PEAVPxConstraint@physx@@PEAV12@U?$Hash@PEAVPxConstraint@physx@@@shdfnd@2@UGetKey@?$HashSetBase@PEAVPxConstraint@physx@@U?$Hash@PEAVPxConstraint@physx@@@shdfnd@2@VNonTrackingAllocator@42@$00@internal@42@VNonTrackingAllocator@42@$00@internal@shdfnd@physx@@QEAA_NAEBQEAVPxConstraint@4@@Z 000000018000ac40 f i NpActor.obj
 0001:00009c40       ?erase@?$HashBase@PEAVPxShape@physx@@PEAV12@U?$Hash@PEAVPxShape@physx@@@shdfnd@2@UGetKey@?$HashSetBase@PEAVPxShape@physx@@U?$Hash@PEAVPxShape@physx@@@shdfnd@2@VNonTrackingAllocator@42@$00@internal@42@VNonTrackingAllocator@42@$00@internal@shdfnd@physx@@QEAA_NAEBQEAVPxShape@4@@Z 000000018000ac40 f i NpFactory.obj
 0001:00009c40       ?erase@?$HashBase@PEBVBodySim@Sc@physx@@PEBV123@U?$Hash@PEBVBodySim@Sc@physx@@@shdfnd@3@UGetKey@?$HashSetBase@PEBVBodySim@Sc@physx@@U?$Hash@PEBVBodySim@Sc@physx@@@shdfnd@3@VNonTrackingAllocator@53@$00@internal@53@VNonTrackingAllocator@53@$00@internal@shdfnd@physx@@QEAA_NAEBQEBVBodySim@Sc@4@@Z 000000018000ac40 f i SimulationController_static_64:ScScene.obj
 0001:00009dc0       ?exportExtraData@NpActor@physx@@QEAAXAEAVPxSerializationContext@2@@Z 000000018000adc0 f   NpActor.obj
 0001:00009fd0       ?findConnector@NpActor@physx@@QEBAIW4Enum@NpConnectorType@2@PEAVPxBase@2@@Z 000000018000afd0 f   NpActor.obj
 0001:0000a020       ?getAPIScene@NpActor@physx@@SAPEAVNpScene@2@AEBVPxActor@2@@Z 000000018000b020 f   NpActor.obj
 0001:0000a050       ?getAggregate@NpActor@physx@@QEBAPEAVPxAggregate@2@XZ 000000018000b050 f   NpActor.obj
 0001:0000a090       ?getGlobalPose@NpActor@physx@@SAXAEAVPxTransform@2@AEBVShape@Scb@2@AEBVActor@52@@Z 000000018000b090 f   NpActor.obj
 0001:0000a570       ?getNbConnectors@NpActor@physx@@QEBAIW4Enum@NpConnectorType@2@@Z 000000018000b570 f   NpActor.obj
 0001:0000a5b0       ?getNpAggregate@NpActor@physx@@QEBAPEAVNpAggregate@2@AEAI@Z 000000018000b5b0 f   NpActor.obj
 0001:0000a5f0       ?getOwnerScene@NpActor@physx@@SAPEAVNpScene@2@AEBVPxActor@2@@Z 000000018000b5f0 f   NpActor.obj
 0001:0000a610       ?getShapeManager@NpActor@physx@@SAPEAVNpShapeManager@2@AEAVPxRigidActor@2@@Z 000000018000b610 f   NpActor.obj
 0001:0000a610       ?getShapeManager@NpActor@physx@@SAPEBVNpShapeManager@2@AEBVPxRigidActor@2@@Z 000000018000b610 f   NpActor.obj
 0001:0000a640       ?growAndPushBack@?$Array@VNpConnector@physx@@V?$InlineAllocator@$0EA@VNamedAllocator@shdfnd@physx@@@shdfnd@2@@shdfnd@physx@@IEAAAEAVNpConnector@3@AEBV43@@Z 000000018000b640 f i NpActor.obj
 0001:0000a750       ?importExtraData@NpActor@physx@@QEAAXAEAVPxDeserializationContext@2@@Z 000000018000b750 f   NpActor.obj
 0001:0000a810       ?onActorRelease@NpActor@physx@@SAXPEAVPxActor@2@@Z 000000018000b810 f   NpActor.obj
 0001:0000a820       ?recreate@?$Array@VNpConnector@physx@@V?$InlineAllocator@$0EA@VNamedAllocator@shdfnd@physx@@@shdfnd@2@@shdfnd@physx@@IEAAXI@Z 000000018000b820 f i NpActor.obj
 0001:0000a8d0       ?release@NpActor@physx@@QEAAXAEAVPxActor@2@@Z 000000018000b8d0 f   NpActor.obj
 0001:0000a8f0       ?releaseConstraints@NpActor@physx@@QEAAXAEAVPxRigidActor@2@@Z 000000018000b8f0 f   NpActor.obj
 0001:0000aa20       ?removeConnector@NpActor@physx@@QEAAXAEAVPxActor@2@W4Enum@NpConnectorType@2@PEAVPxBase@2@PEBD@Z 000000018000ba20 f   NpActor.obj
 0001:0000ab50       ?removeConstraintsFromScene@NpActor@physx@@QEAAXXZ 000000018000bb50 f   NpActor.obj
 0001:0000ac00       ?reserveInternal@?$HashBase@PEAVBase@Scb@physx@@PEAV123@U?$Hash@PEAVBase@Scb@physx@@@shdfnd@3@UGetKey@?$HashSetBase@PEAVBase@Scb@physx@@U?$Hash@PEAVBase@Scb@physx@@@shdfnd@3@VNonTrackingAllocator@53@$00@internal@53@VNonTrackingAllocator@53@$00@internal@shdfnd@physx@@AEAAXI@Z 000000018000bc00 f i ScbScene.obj
 0001:0000ac00       ?reserveInternal@?$HashBase@PEAVPxAggregate@physx@@PEAV12@U?$Hash@PEAVPxAggregate@physx@@@shdfnd@2@UGetKey@?$HashSetBase@PEAVPxAggregate@physx@@U?$Hash@PEAVPxAggregate@physx@@@shdfnd@2@VNonTrackingAllocator@42@$00@internal@42@VNonTrackingAllocator@42@$00@internal@shdfnd@physx@@AEAAXI@Z 000000018000bc00 f i NpScene.obj
 0001:0000ac00       ?reserveInternal@?$HashBase@PEAVPxArticulationBase@physx@@PEAV12@U?$Hash@PEAVPxArticulationBase@physx@@@shdfnd@2@UGetKey@?$HashSetBase@PEAVPxArticulationBase@physx@@U?$Hash@PEAVPxArticulationBase@physx@@@shdfnd@2@VNonTrackingAllocator@42@$00@internal@42@VNonTrackingAllocator@42@$00@internal@shdfnd@physx@@AEAAXI@Z 000000018000bc00 f i NpScene.obj
 0001:0000ac00       ?reserveInternal@?$HashBase@PEAVPxConstraint@physx@@PEAV12@U?$Hash@PEAVPxConstraint@physx@@@shdfnd@2@UGetKey@?$HashSetBase@PEAVPxConstraint@physx@@U?$Hash@PEAVPxConstraint@physx@@@shdfnd@2@VNonTrackingAllocator@42@$00@internal@42@VNonTrackingAllocator@42@$00@internal@shdfnd@physx@@AEAAXI@Z 000000018000bc00 f i NpActor.obj
 0001:0000ac00       ?reserveInternal@?$HashBase@PEAVPxShape@physx@@PEAV12@U?$Hash@PEAVPxShape@physx@@@shdfnd@2@UGetKey@?$HashSetBase@PEAVPxShape@physx@@U?$Hash@PEAVPxShape@physx@@@shdfnd@2@VNonTrackingAllocator@42@$00@internal@42@VNonTrackingAllocator@42@$00@internal@shdfnd@physx@@AEAAXI@Z 000000018000bc00 f i NpFactory.obj
 0001:0000add0       ?resizeUninitialized@?$Array@VNpConnector@physx@@V?$InlineAllocator@$0EA@VNamedAllocator@shdfnd@physx@@@shdfnd@2@@shdfnd@physx@@QEAAXI@Z 000000018000bdd0 f i NpActor.obj
 0001:0000ae10       ?resolveReferences@NpActor@physx@@QEAAXAEAVPxDeserializationContext@2@@Z 000000018000be10 f   NpActor.obj
 0001:0000aea0       ?setAggregate@NpActor@physx@@QEAAXPEAVNpAggregate@2@AEAVPxActor@2@@Z 000000018000bea0 f   NpActor.obj
 0001:0000af80       ??0NpAggregate@physx@@QEAA@I_N@Z 000000018000bf80 f   NpAggregate.obj
 0001:0000b010       ??_ENpAggregate@physx@@UEAAPEAXI@Z 000000018000c010 f i NpAggregate.obj
 0001:0000b010       ??_GNpAggregate@physx@@UEAAPEAXI@Z 000000018000c010 f i NpAggregate.obj
 0001:0000b0c0       ??_EPxBase@physx@@MEAAPEAXI@Z 000000018000c0c0 f i NpAggregate.obj
 0001:0000b0c0       ??_GPxBase@physx@@MEAAPEAXI@Z 000000018000c0c0 f i NpAggregate.obj
 0001:0000b0f0       ?addActor@NpAggregate@physx@@UEAA_NAEAVPxActor@2@PEBVPxBVHStructure@2@@Z 000000018000c0f0 f   NpAggregate.obj
 0001:0000b370       ?addActorInternal@NpAggregate@physx@@QEAAXAEAVPxActor@2@AEAVNpScene@2@PEBVPxBVHStructure@2@@Z 000000018000c370 f   NpAggregate.obj
 0001:0000b450       ?addArticulation@NpAggregate@physx@@UEAA_NAEAVPxArticulationBase@2@@Z 000000018000c450 f   NpAggregate.obj
 0001:0000b680       ?createObject@NpAggregate@physx@@SAPEAV12@AEAPEAEAEAVPxDeserializationContext@2@@Z 000000018000c680 f   NpAggregate.obj
 0001:0000b7e0       ?exportExtraData@NpAggregate@physx@@UEAAXAEAVPxSerializationContext@2@@Z 000000018000c7e0 f   NpAggregate.obj
 0001:0000b830       ?getAPIScene@NpAggregate@physx@@QEBAPEAVNpScene@2@XZ 000000018000c830 f   NpAggregate.obj
 0001:0000b830       ?getScene@NpAggregate@physx@@UEAAPEAVPxScene@2@XZ 000000018000c830 f   NpAggregate.obj
 0001:0000b860       ?getActors@NpAggregate@physx@@UEBAIPEAPEAVPxActor@2@II@Z 000000018000c860 f   NpAggregate.obj
 0001:0000b910       ?getConcreteTypeName@PxAggregate@physx@@UEBAPEBDXZ 000000018000c910 f i NpAggregate.obj
 0001:0000b920       ?getMaxNbActors@NpAggregate@physx@@UEBAIXZ 000000018000c920 f   NpAggregate.obj
 0001:0000b970       ?getNbActors@NpAggregate@physx@@UEBAIXZ 000000018000c970 f   NpAggregate.obj
 0001:0000b9c0       ?getSelfCollision@NpAggregate@physx@@UEBA_NXZ 000000018000c9c0 f   NpAggregate.obj
 0001:0000ba10       ?isKindOf@PxAggregate@physx@@MEBA_NPEBD@Z 000000018000ca10 f i NpAggregate.obj
 0001:0000ba60       ?isKindOf@PxBase@physx@@MEBA_NPEBD@Z 000000018000ca60 f i NpAggregate.obj
 0001:0000ba90       ?isReleasable@PxBase@physx@@UEBA_NXZ 000000018000ca90 f i NpAggregate.obj
 0001:0000baa0       ?preExportDataReset@NpAggregate@physx@@QEAAXXZ 000000018000caa0 f   NpAggregate.obj
 0001:0000bab0       ?release@NpAggregate@physx@@UEAAXXZ 000000018000cab0 f   NpAggregate.obj
 0001:0000bc70       ?removeActor@NpAggregate@physx@@UEAA_NAEAVPxActor@2@@Z 000000018000cc70 f   NpAggregate.obj
 0001:0000bee0       ?removeActorAndReinsert@NpAggregate@physx@@QEAA_NAEAVPxActor@2@_N@Z 000000018000cee0 f   NpAggregate.obj
 0001:0000bfc0       ?removeArticulation@NpAggregate@physx@@UEAA_NAEAVPxArticulationBase@2@@Z 000000018000cfc0 f   NpAggregate.obj
 0001:0000c140       ?removeArticulationAndReinsert@NpAggregate@physx@@QEAA_NAEAVPxArticulationBase@2@_N@Z 000000018000d140 f   NpAggregate.obj
 0001:0000c280       ?requiresObjects@NpAggregate@physx@@UEAAXAEAVPxProcessPxBaseCallback@2@@Z 000000018000d280 f   NpAggregate.obj
 0001:0000c2f0       ??0?$NpArticulationTemplate@VPxArticulationReducedCoordinate@physx@@@physx@@QEAA@GV?$PxFlags@W4Enum@PxBaseFlag@physx@@G@1@@Z 000000018000d2f0 f i NpArticulationReducedCoordinate.obj
 0001:0000c460       ??0NpArticulationReducedCoordinate@physx@@QEAA@XZ 000000018000d460 f   NpArticulationReducedCoordinate.obj
 0001:0000c4e0       ??1?$NpArticulationTemplate@VPxArticulationReducedCoordinate@physx@@@physx@@UEAA@XZ 000000018000d4e0 f i NpArticulationReducedCoordinate.obj
 0001:0000c560       ??_E?$NpArticulationTemplate@VPxArticulationReducedCoordinate@physx@@@physx@@UEAAPEAXI@Z 000000018000d560 f i NpArticulationReducedCoordinate.obj
 0001:0000c560       ??_G?$NpArticulationTemplate@VPxArticulationReducedCoordinate@physx@@@physx@@UEAAPEAXI@Z 000000018000d560 f i NpArticulationReducedCoordinate.obj
 0001:0000c5c0       ??_ENpArticulationReducedCoordinate@physx@@UEAAPEAXI@Z 000000018000d5c0 f i NpArticulationReducedCoordinate.obj
 0001:0000c5c0       ??_GNpArticulationReducedCoordinate@physx@@UEAAPEAXI@Z 000000018000d5c0 f i NpArticulationReducedCoordinate.obj
 0001:0000c680       ?addLoopJoint@NpArticulationReducedCoordinate@physx@@UEAAXPEAVPxJoint@2@@Z 000000018000d680 f   NpArticulationReducedCoordinate.obj
 0001:0000c840       ?allocate@?$Array@PEAVNpArticulationLink@physx@@V?$InlineAllocator@$0CA@VNamedAllocator@shdfnd@physx@@@shdfnd@2@@shdfnd@physx@@IEAAPEAPEAVNpArticulationLink@3@I@Z 000000018000d840 f i NpArticulationReducedCoordinate.obj
 0001:0000c840       ?allocate@?$Array@PEAVShape@Scb@physx@@V?$InlineAllocator@$0CA@VNamedAllocator@shdfnd@physx@@@shdfnd@3@@shdfnd@physx@@IEAAPEAPEAVShape@Scb@3@I@Z 000000018000d840 f i NpShapeManager.obj
 0001:0000c8c0       ?applyCache@NpArticulationReducedCoordinate@physx@@UEAAXAEAVPxArticulationCache@2@V?$PxFlags@W4Enum@PxArticulationCache@physx@@E@2@_N@Z 000000018000d8c0 f   NpArticulationReducedCoordinate.obj
 0001:0000cd50       ?commonInit@NpArticulationReducedCoordinate@physx@@UEBAXXZ 000000018000dd50 f   NpArticulationReducedCoordinate.obj
 0001:0000ce30       ?computeCoefficientMatrix@NpArticulationReducedCoordinate@physx@@UEBAXAEAVPxArticulationCache@2@@Z 000000018000de30 f   NpArticulationReducedCoordinate.obj
 0001:0000cfd0       ?computeCoriolisAndCentrifugalForce@NpArticulationReducedCoordinate@physx@@UEBAXAEAVPxArticulationCache@2@@Z 000000018000dfd0 f   NpArticulationReducedCoordinate.obj
 0001:0000d120       ?computeDenseJacobian@NpArticulationReducedCoordinate@physx@@UEBAXAEAVPxArticulationCache@2@AEAI1@Z 000000018000e120 f   NpArticulationReducedCoordinate.obj
 0001:0000d280       ?computeGeneralizedExternalForce@NpArticulationReducedCoordinate@physx@@UEBAXAEAVPxArticulationCache@2@@Z 000000018000e280 f   NpArticulationReducedCoordinate.obj
 0001:0000d3d0       ?computeGeneralizedGravityForce@NpArticulationReducedCoordinate@physx@@UEBAXAEAVPxArticulationCache@2@@Z 000000018000e3d0 f   NpArticulationReducedCoordinate.obj
 0001:0000d520       ?computeGeneralizedMassMatrix@NpArticulationReducedCoordinate@physx@@UEBAXAEAVPxArticulationCache@2@@Z 000000018000e520 f   NpArticulationReducedCoordinate.obj
 0001:0000d670       ?computeJointAcceleration@NpArticulationReducedCoordinate@physx@@UEBAXAEAVPxArticulationCache@2@@Z 000000018000e670 f   NpArticulationReducedCoordinate.obj
 0001:0000d7c0       ?computeJointForce@NpArticulationReducedCoordinate@physx@@UEBAXAEAVPxArticulationCache@2@@Z 000000018000e7c0 f   NpArticulationReducedCoordinate.obj
 0001:0000d910       ?computeLambda@NpArticulationReducedCoordinate@physx@@UEBA_NAEAVPxArticulationCache@2@0QEBMI@Z 000000018000e910 f   NpArticulationReducedCoordinate.obj
 0001:0000da80       ?copyInternalStateToCache@NpArticulationReducedCoordinate@physx@@UEBAXAEAVPxArticulationCache@2@V?$PxFlags@W4Enum@PxArticulationCache@physx@@E@2@@Z 000000018000ea80 f   NpArticulationReducedCoordinate.obj
 0001:0000db80       ?createArticulationJoint@NpArticulationReducedCoordinate@physx@@UEAAPEAVPxArticulationJointBase@2@AEAVPxArticulationLink@2@AEBVPxTransform@2@01@Z 000000018000eb80 f   NpArticulationReducedCoordinate.obj
 0001:0000db90       ?createCache@NpArticulationReducedCoordinate@physx@@UEBAPEAVPxArticulationCache@2@XZ 000000018000eb90 f   NpArticulationReducedCoordinate.obj
 0001:0000dc80       ?createLink@?$NpArticulationTemplate@VPxArticulationReducedCoordinate@physx@@@physx@@UEAAPEAVPxArticulationLink@2@PEAV32@AEBVPxTransform@2@@Z 000000018000ec80 f i NpArticulationReducedCoordinate.obj
 0001:0000df10       ?createObject@NpArticulationReducedCoordinate@physx@@SAPEAV12@AEAPEAEAEAVPxDeserializationContext@2@@Z 000000018000ef10 f   NpArticulationReducedCoordinate.obj
 0001:0000e0b0       ?exportExtraData@?$NpArticulationTemplate@VPxArticulation@physx@@@physx@@UEAAXAEAVPxSerializationContext@2@@Z 000000018000f0b0 f i NpArticulation.obj
 0001:0000e0b0       ?exportExtraData@?$NpArticulationTemplate@VPxArticulationReducedCoordinate@physx@@@physx@@UEAAXAEAVPxSerializationContext@2@@Z 000000018000f0b0 f i NpArticulationReducedCoordinate.obj
 0001:0000e120       ?getAPIScene@PxArticulationImpl@physx@@QEBAPEAVNpScene@2@XZ 000000018000f120 f i NpArticulationReducedCoordinate.obj
 0001:0000e150       ?getAggregate@?$NpArticulationTemplate@VPxArticulation@physx@@@physx@@UEBAPEAVPxAggregate@2@XZ 000000018000f150 f i NpArticulation.obj
 0001:0000e150       ?getAggregate@?$NpArticulationTemplate@VPxArticulationReducedCoordinate@physx@@@physx@@UEBAPEAVPxAggregate@2@XZ 000000018000f150 f i NpArticulationReducedCoordinate.obj
 0001:0000e1a0       ?getArticulationFlags@NpArticulationReducedCoordinate@physx@@UEBA?AV?$PxFlags@W4Enum@PxArticulationFlag@physx@@E@2@XZ 000000018000f1a0 f   NpArticulationReducedCoordinate.obj
 0001:0000e200       ?getCacheDataSize@NpArticulationReducedCoordinate@physx@@UEBAIXZ 000000018000f200 f   NpArticulationReducedCoordinate.obj
 0001:0000e2f0       ?getCoefficientMatrixSize@NpArticulationReducedCoordinate@physx@@UEBAIXZ 000000018000f2f0 f   NpArticulationReducedCoordinate.obj
 0001:0000e340       ?getConcreteTypeName@NpArticulationReducedCoordinate@physx@@UEBAPEBDXZ 000000018000f340 f i NpArticulationReducedCoordinate.obj
 0001:0000e350       ?getDofs@NpArticulationReducedCoordinate@physx@@UEBAIXZ 000000018000f350 f   NpArticulationReducedCoordinate.obj
 0001:0000e3a0       ?getLinkAcceleration@NpArticulationReducedCoordinate@physx@@UEAA?AUPxSpatialVelocity@2@I@Z 000000018000f3a0 f   NpArticulationReducedCoordinate.obj
 0001:0000e4d0       ?getLinkVelocity@NpArticulationReducedCoordinate@physx@@UEAA?AUPxSpatialVelocity@2@I@Z 000000018000f4d0 f   NpArticulationReducedCoordinate.obj
 0001:0000e600       ?getLinks@?$NpArticulationTemplate@VPxArticulation@physx@@@physx@@UEBAIPEAPEAVPxArticulationLink@2@II@Z 000000018000f600 f i NpArticulation.obj
 0001:0000e600       ?getLinks@?$NpArticulationTemplate@VPxArticulationReducedCoordinate@physx@@@physx@@UEBAIPEAPEAVPxArticulationLink@2@II@Z 000000018000f600 f i NpArticulationReducedCoordinate.obj
 0001:0000e6c0       ?getLoopJoints@NpArticulationReducedCoordinate@physx@@UEBAIPEAPEAVPxJoint@2@II@Z 000000018000f6c0 f   NpArticulationReducedCoordinate.obj
 0001:0000e780       ?getName@?$NpArticulationTemplate@VPxArticulation@physx@@@physx@@UEBAPEBDXZ 000000018000f780 f i NpArticulation.obj
 0001:0000e780       ?getName@?$NpArticulationTemplate@VPxArticulationReducedCoordinate@physx@@@physx@@UEBAPEBDXZ 000000018000f780 f i NpArticulationReducedCoordinate.obj
 0001:0000e7d0       ?getNbLinks@?$NpArticulationTemplate@VPxArticulation@physx@@@physx@@UEBAIXZ 000000018000f7d0 f i NpArticulation.obj
 0001:0000e7d0       ?getNbLinks@?$NpArticulationTemplate@VPxArticulationReducedCoordinate@physx@@@physx@@UEBAIXZ 000000018000f7d0 f i NpArticulationReducedCoordinate.obj
 0001:0000e820       ?getNbLinks@PxArticulationImpl@physx@@QEBAIXZ 000000018000f820 f i NpArticulationReducedCoordinate.obj
 0001:0000e870       ?getNbLoopJoints@NpArticulationReducedCoordinate@physx@@UEBAIXZ 000000018000f870 f   NpArticulationReducedCoordinate.obj
 0001:0000e8c0       ?getScene@?$NpArticulationTemplate@VPxArticulation@physx@@@physx@@UEBAPEAVPxScene@2@XZ 000000018000f8c0 f i NpArticulation.obj
 0001:0000e8c0       ?getScene@?$NpArticulationTemplate@VPxArticulationReducedCoordinate@physx@@@physx@@UEBAPEAVPxScene@2@XZ 000000018000f8c0 f i NpArticulationReducedCoordinate.obj
 0001:0000e8f0       ?getSleepThreshold@?$NpArticulationTemplate@VPxArticulation@physx@@@physx@@UEBAMXZ 000000018000f8f0 f i NpArticulation.obj
 0001:0000e8f0       ?getSleepThreshold@?$NpArticulationTemplate@VPxArticulationReducedCoordinate@physx@@@physx@@UEBAMXZ 000000018000f8f0 f i NpArticulationReducedCoordinate.obj
 0001:0000e960       ?getSolverIterationCounts@?$NpArticulationTemplate@VPxArticulation@physx@@@physx@@UEBAXAEAI0@Z 000000018000f960 f i NpArticulation.obj
 0001:0000e960       ?getSolverIterationCounts@?$NpArticulationTemplate@VPxArticulationReducedCoordinate@physx@@@physx@@UEBAXAEAI0@Z 000000018000f960 f i NpArticulationReducedCoordinate.obj
 0001:0000e9e0       ?getStabilizationThreshold@?$NpArticulationTemplate@VPxArticulation@physx@@@physx@@UEBAMXZ 000000018000f9e0 f i NpArticulation.obj
 0001:0000e9e0       ?getStabilizationThreshold@?$NpArticulationTemplate@VPxArticulationReducedCoordinate@physx@@@physx@@UEBAMXZ 000000018000f9e0 f i NpArticulationReducedCoordinate.obj
 0001:0000ea50       ?getWakeCounter@?$NpArticulationTemplate@VPxArticulation@physx@@@physx@@UEBAMXZ 000000018000fa50 f i NpArticulation.obj
 0001:0000ea50       ?getWakeCounter@?$NpArticulationTemplate@VPxArticulationReducedCoordinate@physx@@@physx@@UEBAMXZ 000000018000fa50 f i NpArticulationReducedCoordinate.obj
 0001:0000eab0       ?getWorldBounds@?$NpArticulationTemplate@VPxArticulation@physx@@@physx@@UEBA?AVPxBounds3@2@M@Z 000000018000fab0 f i NpArticulation.obj
 0001:0000eab0       ?getWorldBounds@?$NpArticulationTemplate@VPxArticulationReducedCoordinate@physx@@@physx@@UEBA?AVPxBounds3@2@M@Z 000000018000fab0 f i NpArticulationReducedCoordinate.obj
 0001:0000ead0       ?getWorldBounds@PxArticulationImpl@physx@@QEBA?AVPxBounds3@2@M@Z 000000018000fad0 f i NpArticulationReducedCoordinate.obj
 0001:0000ed30       ?growAndPushBack@?$Array@PEAVNpArticulationLink@physx@@V?$InlineAllocator@$0CA@VNamedAllocator@shdfnd@physx@@@shdfnd@2@@shdfnd@physx@@IEAAAEAPEAVNpArticulationLink@3@AEBQEAV43@@Z 000000018000fd30 f i NpArticulationReducedCoordinate.obj
 0001:0000ed30       ?growAndPushBack@?$Array@PEAVShape@Scb@physx@@V?$InlineAllocator@$0CA@VNamedAllocator@shdfnd@physx@@@shdfnd@3@@shdfnd@physx@@IEAAAEAPEAVShape@Scb@3@AEBQEAV453@@Z 000000018000fd30 f i NpShapeManager.obj
 0001:0000edf0       ?growAndPushBack@?$Array@PEAEVNamedAllocator@shdfnd@physx@@@shdfnd@physx@@IEAAAEAPEAEAEBQEAE@Z 000000018000fdf0 f i NpScene.obj
 0001:0000edf0       ?growAndPushBack@?$Array@PEAVNpBatchQuery@physx@@VNamedAllocator@shdfnd@2@@shdfnd@physx@@IEAAAEAPEAVNpBatchQuery@3@AEBQEAV43@@Z 000000018000fdf0 f i NpScene.obj
 0001:0000edf0       ?growAndPushBack@?$Array@PEAVNpScene@physx@@VNamedAllocator@shdfnd@2@@shdfnd@physx@@IEAAAEAPEAVNpScene@3@AEBQEAV43@@Z 000000018000fdf0 f i NpPhysics.obj
 0001:0000edf0       ?growAndPushBack@?$Array@PEAVPvdCommand@PvdInstanceDataStream@pvdsdk@physx@@VNamedAllocator@shdfnd@4@@shdfnd@physx@@IEAAAEAPEAVPvdCommand@PvdInstanceDataStream@pvdsdk@3@AEBQEAV4563@@Z 000000018000fdf0 f i PhysXPvdSDK_static_64:PxPvdDataStream.obj
 0001:0000edf0       ?growAndPushBack@?$Array@PEAVPxActor@physx@@VNamedAllocator@shdfnd@2@@shdfnd@physx@@IEAAAEAPEAVPxActor@3@AEBQEAV43@@Z 000000018000fdf0 f i NpScene.obj
 0001:0000edf0       ?growAndPushBack@?$Array@PEAVPxJoint@physx@@VNamedAllocator@shdfnd@2@@shdfnd@physx@@IEAAAEAPEAVPxJoint@3@AEBQEAV43@@Z 000000018000fdf0 f i NpArticulationReducedCoordinate.obj
 0001:0000edf0       ?growAndPushBack@?$Array@PEAVPxRigidActor@physx@@VNamedAllocator@shdfnd@2@@shdfnd@physx@@IEAAAEAPEAVPxRigidActor@3@AEBQEAV43@@Z 000000018000fdf0 f i NpScene.obj
 0001:0000edf0       ?growAndPushBack@?$Array@PEAXVNamedAllocator@shdfnd@physx@@@shdfnd@physx@@IEAAAEAPEAXAEBQEAX@Z 000000018000fdf0 f i NpFactory.obj
 0001:0000edf0       ?growAndPushBack@?$Array@VMaterialEvent@Scb@physx@@VNamedAllocator@shdfnd@3@@shdfnd@physx@@IEAAAEAVMaterialEvent@Scb@3@AEBV453@@Z 000000018000fdf0 f i ScbScene.obj
 0001:0000eee0       ?isKindOf@NpArticulationReducedCoordinate@physx@@UEBA_NPEBD@Z 000000018000fee0 f i NpArticulationReducedCoordinate.obj
 0001:0000ef30       ?isSane@PxTransform@physx@@QEBA_NXZ 000000018000ff30 f i NpArticulationReducedCoordinate.obj
 0001:0000f000       ?isSleeping@?$NpArticulationTemplate@VPxArticulation@physx@@@physx@@UEBA_NXZ 0000000180010000 f i NpArticulation.obj
 0001:0000f000       ?isSleeping@?$NpArticulationTemplate@VPxArticulationReducedCoordinate@physx@@@physx@@UEBA_NXZ 0000000180010000 f i NpArticulationReducedCoordinate.obj
 0001:0000f010       ?isSleeping@PxArticulationImpl@physx@@QEBA_NXZ 0000000180010010 f i NpArticulationReducedCoordinate.obj
 0001:0000f0f0       ?packJointData@NpArticulationReducedCoordinate@physx@@UEBAXPEBMPEAM@Z 00000001800100f0 f   NpArticulationReducedCoordinate.obj
 0001:0000f1f0       ?preExportDataReset@NpArticulationReducedCoordinate@physx@@QEAAXXZ 00000001800101f0 f   NpArticulationReducedCoordinate.obj
 0001:0000f270       ?putToSleep@?$NpArticulationTemplate@VPxArticulation@physx@@@physx@@UEAAXXZ 0000000180010270 f i NpArticulation.obj
 0001:0000f270       ?putToSleep@?$NpArticulationTemplate@VPxArticulationReducedCoordinate@physx@@@physx@@UEAAXXZ 0000000180010270 f i NpArticulationReducedCoordinate.obj
 0001:0000f280       ?putToSleep@PxArticulationImpl@physx@@QEAAXXZ 0000000180010280 f i NpArticulationReducedCoordinate.obj
 0001:0000f5d0       ?recomputeLinkIDs@PxArticulationImpl@physx@@QEAAXXZ 00000001800105d0 f   NpArticulationReducedCoordinate.obj
 0001:0000f740       ?recreate@?$Array@PEAEVNamedAllocator@shdfnd@physx@@@shdfnd@physx@@IEAAXI@Z 0000000180010740 f i NpImmediateMode.obj
 0001:0000f740       ?recreate@?$Array@PEAVActor@Scb@physx@@VNamedAllocator@shdfnd@3@@shdfnd@physx@@IEAAXI@Z 0000000180010740 f i NpScene.obj
 0001:0000f740       ?recreate@?$Array@PEAVPxActor@physx@@VNamedAllocator@shdfnd@2@@shdfnd@physx@@IEAAXI@Z 0000000180010740 f i NpScene.obj
 0001:0000f740       ?recreate@?$Array@PEAVPxArticulationBase@physx@@VNamedAllocator@shdfnd@2@@shdfnd@physx@@IEAAXI@Z 0000000180010740 f i PvdMetaDataPvdBinding.obj
 0001:0000f740       ?recreate@?$Array@PEAVPxArticulationLink@physx@@VNamedAllocator@shdfnd@2@@shdfnd@physx@@IEAAXI@Z 0000000180010740 f i PvdMetaDataPvdBinding.obj
 0001:0000f740       ?recreate@?$Array@PEAVPxConvexMesh@physx@@VNamedAllocator@shdfnd@2@@shdfnd@physx@@IEAAXI@Z 0000000180010740 f i PvdPhysicsClient.obj
 0001:0000f740       ?recreate@?$Array@PEAVPxHeightField@physx@@VNamedAllocator@shdfnd@2@@shdfnd@physx@@IEAAXI@Z 0000000180010740 f i PvdPhysicsClient.obj
 0001:0000f740       ?recreate@?$Array@PEAVPxJoint@physx@@VNamedAllocator@shdfnd@2@@shdfnd@physx@@IEAAXI@Z 0000000180010740 f i NpArticulationReducedCoordinate.obj
 0001:0000f740       ?recreate@?$Array@PEAVPxMaterial@physx@@VNamedAllocator@shdfnd@2@@shdfnd@physx@@IEAAXI@Z 0000000180010740 f i PvdPhysicsClient.obj
 0001:0000f740       ?recreate@?$Array@PEAVPxRigidActor@physx@@VNamedAllocator@shdfnd@2@@shdfnd@physx@@IEAAXI@Z 0000000180010740 f i NpScene.obj
 0001:0000f740       ?recreate@?$Array@PEAVPxTriangleMesh@physx@@VNamedAllocator@shdfnd@2@@shdfnd@physx@@IEAAXI@Z 0000000180010740 f i PvdPhysicsClient.obj
 0001:0000f740       ?recreate@?$Array@PEAVShape@Scb@physx@@VNamedAllocator@shdfnd@3@@shdfnd@physx@@IEAAXI@Z 0000000180010740 f i NpScene.obj
 0001:0000f740       ?recreate@?$Array@VMaterialEvent@Scb@physx@@VNamedAllocator@shdfnd@3@@shdfnd@physx@@IEAAXI@Z 0000000180010740 f i ScbScene.obj
 0001:0000f7f0       ?release@?$NpArticulationTemplate@VPxArticulationReducedCoordinate@physx@@@physx@@UEAAXXZ 00000001800107f0 f i NpArticulationReducedCoordinate.obj
 0001:0000f930       ?releaseArticulationJoint@NpArticulationReducedCoordinate@physx@@UEAAXPEAVPxArticulationJointBase@2@@Z 0000000180010930 f   NpArticulationReducedCoordinate.obj
 0001:0000f940       ?releaseCache@NpArticulationReducedCoordinate@physx@@UEBAXAEAVPxArticulationCache@2@@Z 0000000180010940 f   NpArticulationReducedCoordinate.obj
 0001:0000fa40       ?removeLoopJoint@NpArticulationReducedCoordinate@physx@@UEAAXPEAVPxJoint@2@@Z 0000000180010a40 f   NpArticulationReducedCoordinate.obj
 0001:0000fb00       ?requiresObjects@?$NpArticulationTemplate@VPxArticulation@physx@@@physx@@UEAAXAEAVPxProcessPxBaseCallback@2@@Z 0000000180010b00 f i NpArticulation.obj
 0001:0000fb00       ?requiresObjects@?$NpArticulationTemplate@VPxArticulationReducedCoordinate@physx@@@physx@@UEAAXAEAVPxProcessPxBaseCallback@2@@Z 0000000180010b00 f i NpArticulationReducedCoordinate.obj
 0001:0000fb70       ?setArticulationFlag@NpArticulationReducedCoordinate@physx@@UEAAXW4Enum@PxArticulationFlag@2@_N@Z 0000000180010b70 f   NpArticulationReducedCoordinate.obj
 0001:0000fc60       ?setArticulationFlags@NpArticulationReducedCoordinate@physx@@UEAAXV?$PxFlags@W4Enum@PxArticulationFlag@physx@@E@2@@Z 0000000180010c60 f   NpArticulationReducedCoordinate.obj
 0001:0000fd20       ?setName@?$NpArticulationTemplate@VPxArticulation@physx@@@physx@@UEAAXPEBD@Z 0000000180010d20 f i NpArticulation.obj
 0001:0000fd20       ?setName@?$NpArticulationTemplate@VPxArticulationReducedCoordinate@physx@@@physx@@UEAAXPEBD@Z 0000000180010d20 f i NpArticulationReducedCoordinate.obj
 0001:0000fd80       ?setSleepThreshold@?$NpArticulationTemplate@VPxArticulation@physx@@@physx@@UEAAXM@Z 0000000180010d80 f i NpArticulation.obj
 0001:0000fd80       ?setSleepThreshold@?$NpArticulationTemplate@VPxArticulationReducedCoordinate@physx@@@physx@@UEAAXM@Z 0000000180010d80 f i NpArticulationReducedCoordinate.obj
 0001:0000fe40       ?setSolverIterationCounts@?$NpArticulationTemplate@VPxArticulation@physx@@@physx@@UEAAXII@Z 0000000180010e40 f i NpArticulation.obj
 0001:0000fe40       ?setSolverIterationCounts@?$NpArticulationTemplate@VPxArticulationReducedCoordinate@physx@@@physx@@UEAAXII@Z 0000000180010e40 f i NpArticulationReducedCoordinate.obj
 0001:0000ff80       ?setStabilizationThreshold@?$NpArticulationTemplate@VPxArticulation@physx@@@physx@@UEAAXM@Z 0000000180010f80 f i NpArticulation.obj
 0001:0000ff80       ?setStabilizationThreshold@?$NpArticulationTemplate@VPxArticulationReducedCoordinate@physx@@@physx@@UEAAXM@Z 0000000180010f80 f i NpArticulationReducedCoordinate.obj
 0001:00010040       ?setWakeCounter@?$NpArticulationTemplate@VPxArticulation@physx@@@physx@@UEAAXM@Z 0000000180011040 f i NpArticulation.obj
 0001:00010040       ?setWakeCounter@?$NpArticulationTemplate@VPxArticulationReducedCoordinate@physx@@@physx@@UEAAXM@Z 0000000180011040 f i NpArticulationReducedCoordinate.obj
 0001:00010050       ?setWakeCounter@PxArticulationImpl@physx@@QEAAXM@Z 0000000180011050 f i NpArticulationReducedCoordinate.obj
 0001:00010230       ?teleportRootLink@NpArticulationReducedCoordinate@physx@@UEAAXAEBVPxTransform@2@_N@Z 0000000180011230 f   NpArticulationReducedCoordinate.obj
 0001:00010380       ?unpackJointData@NpArticulationReducedCoordinate@physx@@UEBAXPEBMPEAM@Z 0000000180011380 f   NpArticulationReducedCoordinate.obj
 0001:00010480       ?wakeUp@?$NpArticulationTemplate@VPxArticulation@physx@@@physx@@UEAAXXZ 0000000180011480 f i NpArticulation.obj
 0001:00010480       ?wakeUp@?$NpArticulationTemplate@VPxArticulationReducedCoordinate@physx@@@physx@@UEAAXXZ 0000000180011480 f i NpArticulationReducedCoordinate.obj
 0001:00010490       ?wakeUp@PxArticulationImpl@physx@@QEAAXXZ 0000000180011490 f i NpArticulationReducedCoordinate.obj
 0001:00010660       ?wakeUpInternal@Body@Scb@physx@@QEAAXM@Z 0000000180011660 f i NpArticulationReducedCoordinate.obj
 0001:000106e0       ?wakeUpInternal@PxArticulationImpl@physx@@QEAAX_N0@Z 00000001800116e0 f i NpArticulationReducedCoordinate.obj
 0001:00010890       ?zeroCache@NpArticulationReducedCoordinate@physx@@UEAAXAEAVPxArticulationCache@2@@Z 0000000180011890 f   NpArticulationReducedCoordinate.obj
 0001:000108f0       ??0?$NpArticulationTemplate@VPxArticulation@physx@@@physx@@QEAA@GV?$PxFlags@W4Enum@PxBaseFlag@physx@@G@1@@Z 00000001800118f0 f i NpArticulation.obj
 0001:00010a60       ??0NpArticulation@physx@@QEAA@XZ 0000000180011a60 f   NpArticulation.obj
 0001:00010aa0       ??1?$NpArticulationTemplate@VPxArticulation@physx@@@physx@@UEAA@XZ 0000000180011aa0 f i NpArticulation.obj
 0001:00010b20       ??_E?$NpArticulationTemplate@VPxArticulation@physx@@@physx@@UEAAPEAXI@Z 0000000180011b20 f i NpArticulation.obj
 0001:00010b20       ??_G?$NpArticulationTemplate@VPxArticulation@physx@@@physx@@UEAAPEAXI@Z 0000000180011b20 f i NpArticulation.obj
 0001:00010b80       ??_ENpArticulation@physx@@UEAAPEAXI@Z 0000000180011b80 f i NpArticulation.obj
 0001:00010b80       ??_GNpArticulation@physx@@UEAAPEAXI@Z 0000000180011b80 f i NpArticulation.obj
 0001:00010c60       ?NpArticulationGetRootFromScb@physx@@YAPEAVBody@Scb@1@AEAVArticulation@31@@Z 0000000180011c60 f   NpArticulation.obj
 0001:00010c90       ?NpSetArticulationOnJoint@physx@@YAXAEAVPxArticulationJointBase@1@AEAVPxArticulationImpl@1@@Z 0000000180011c90 f   NpArticulation.obj
 0001:00010cb0       ?applyImpulse@NpArticulation@physx@@UEAAXPEAVPxArticulationLink@2@AEBVPxArticulationDriveCache@2@AEBVPxVec3@2@2@Z 0000000180011cb0 f   NpArticulation.obj
 0001:00010fe0       ?computeImpulseResponse@NpArticulation@physx@@UEBAXPEAVPxArticulationLink@2@AEAVPxVec3@2@1AEBVPxArticulationDriveCache@2@AEBV42@3@Z 0000000180011fe0 f   NpArticulation.obj
 0001:00011240       ?createArticulationJoint@NpArticulation@physx@@EEAAPEAVPxArticulationJointBase@2@AEAVPxArticulationLink@2@AEBVPxTransform@2@01@Z 0000000180012240 f   NpArticulation.obj
 0001:00011250       ?createDriveCache@NpArticulation@physx@@UEBAPEAVPxArticulationDriveCache@2@MI@Z 0000000180012250 f   NpArticulation.obj
 0001:00011350       ?createLink@?$NpArticulationTemplate@VPxArticulation@physx@@@physx@@UEAAPEAVPxArticulationLink@2@PEAV32@AEBVPxTransform@2@@Z 0000000180012350 f i NpArticulation.obj
 0001:000115e0       ?createObject@NpArticulation@physx@@SAPEAV12@AEAPEAEAEAVPxDeserializationContext@2@@Z 00000001800125e0 f   NpArticulation.obj
 0001:00011770       ?getConcreteTypeName@NpArticulation@physx@@UEBAPEBDXZ 0000000180012770 f i NpArticulation.obj
 0001:00011780       ?getExternalDriveIterations@NpArticulation@physx@@UEBAIXZ 0000000180012780 f   NpArticulation.obj
 0001:000117f0       ?getInternalDriveIterations@NpArticulation@physx@@UEBAIXZ 00000001800127f0 f   NpArticulation.obj
 0001:00011860       ?getMaxProjectionIterations@NpArticulation@physx@@UEBAIXZ 0000000180012860 f   NpArticulation.obj
 0001:000118d0       ?getSeparationTolerance@NpArticulation@physx@@UEBAMXZ 00000001800128d0 f   NpArticulation.obj
 0001:00011940       ?isFinite@PxVec3@physx@@QEBA_NXZ 0000000180012940 f i NpArticulation.obj
 0001:000119a0       ?isKindOf@NpArticulation@physx@@UEBA_NPEBD@Z 00000001800129a0 f i NpArticulation.obj
 0001:000119f0       ?release@?$NpArticulationTemplate@VPxArticulation@physx@@@physx@@UEAAXXZ 00000001800129f0 f i NpArticulation.obj
 0001:00011b30       ?releaseArticulationJoint@NpArticulation@physx@@EEAAXPEAVPxArticulationJointBase@2@@Z 0000000180012b30 f   NpArticulation.obj
 0001:00011b40       ?releaseDriveCache@NpArticulation@physx@@UEBAXAEAVPxArticulationDriveCache@2@@Z 0000000180012b40 f   NpArticulation.obj
 0001:00011c40       ?setExternalDriveIterations@NpArticulation@physx@@UEAAXI@Z 0000000180012c40 f   NpArticulation.obj
 0001:00011d00       ?setInternalDriveIterations@NpArticulation@physx@@UEAAXI@Z 0000000180012d00 f   NpArticulation.obj
 0001:00011db0       ?setMaxProjectionIterations@NpArticulation@physx@@UEAAXI@Z 0000000180012db0 f   NpArticulation.obj
 0001:00011e70       ?setSeparationTolerance@NpArticulation@physx@@UEAAXM@Z 0000000180012e70 f   NpArticulation.obj
 0001:00011f30       ?updateDriveCache@NpArticulation@physx@@UEBAXAEAVPxArticulationDriveCache@2@MI@Z 0000000180012f30 f   NpArticulation.obj
 0001:000120c0       ??0NpArticulationJoint@physx@@QEAA@AEAVNpArticulationLink@1@AEBVPxTransform@1@01@Z 00000001800130c0 f   NpArticulationJoint.obj
 0001:00012170       ??DPxQuat@physx@@QEBA?AV01@AEBV01@@Z 0000000180013170 f i NpArticulationJoint.obj
 0001:000122b0       ??_E?$NpArticulationJointTemplate@VPxArticulationJoint@physx@@@physx@@UEAAPEAXI@Z 00000001800132b0 f i NpArticulationJoint.obj
 0001:000122b0       ??_ENpArticulationJoint@physx@@UEAAPEAXI@Z 00000001800132b0 f i NpArticulationJoint.obj
 0001:000122b0       ??_G?$NpArticulationJointTemplate@VPxArticulationJoint@physx@@@physx@@UEAAPEAXI@Z 00000001800132b0 f i NpArticulationJoint.obj
 0001:000122b0       ??_GNpArticulationJoint@physx@@UEAAPEAXI@Z 00000001800132b0 f i NpArticulationJoint.obj
 0001:00012330       ?NpArticulationJointGetBodiesFromScb@physx@@YAXAEAVArticulationJoint@Scb@1@AEAPEAVBody@31@1@Z 0000000180013330 f   NpArticulationJoint.obj
 0001:00012350       ?createObject@NpArticulationJoint@physx@@SAPEAV12@AEAPEAEAEAVPxDeserializationContext@2@@Z 0000000180013350 f   NpArticulationJoint.obj
 0001:000123b0       ?getChildArticulationLink@?$NpArticulationJointTemplate@VPxArticulationJoint@physx@@@physx@@UEBAAEAVPxArticulationLink@2@XZ 00000001800133b0 f i NpArticulationJoint.obj
 0001:000123b0       ?getChildArticulationLink@?$NpArticulationJointTemplate@VPxArticulationJointReducedCoordinate@physx@@@physx@@UEBAAEAVPxArticulationLink@2@XZ 00000001800133b0 f i NpArticulationJointReducedCoordinate.obj
 0001:000123c0       ?getChildPose@?$NpArticulationJointTemplate@VPxArticulationJoint@physx@@@physx@@UEBA?AVPxTransform@2@XZ 00000001800133c0 f i NpArticulationJoint.obj
 0001:000123c0       ?getChildPose@?$NpArticulationJointTemplate@VPxArticulationJointReducedCoordinate@physx@@@physx@@UEBA?AVPxTransform@2@XZ 00000001800133c0 f i NpArticulationJointReducedCoordinate.obj
 0001:000123e0       ?getChildPose@PxArticulationJointImpl@physx@@QEBA?AVPxTransform@2@XZ 00000001800133e0 f i NpArticulationJoint.obj
 0001:00012600       ?getConcreteTypeName@PxArticulationJoint@physx@@UEBAPEBDXZ 0000000180013600 f i NpArticulationJoint.obj
 0001:00012610       ?getDamping@NpArticulationJoint@physx@@UEBAMXZ 0000000180013610 f   NpArticulationJoint.obj
 0001:00012680       ?getDriveType@NpArticulationJoint@physx@@UEBA?AW4Enum@PxArticulationJointDriveType@2@XZ 0000000180013680 f   NpArticulationJoint.obj
 0001:000126f0       ?getExternalCompliance@NpArticulationJoint@physx@@UEBAMXZ 00000001800136f0 f   NpArticulationJoint.obj
 0001:00012760       ?getFrictionCoefficient@NpArticulationJoint@physx@@UEBAMXZ 0000000180013760 f   NpArticulationJoint.obj
 0001:000127d0       ?getImpl@?$NpArticulationJointTemplate@VPxArticulationJoint@physx@@@physx@@UEAAPEAVPxArticulationJointImpl@2@XZ 00000001800137d0 f i NpArticulationJoint.obj
 0001:000127d0       ?getImpl@?$NpArticulationJointTemplate@VPxArticulationJoint@physx@@@physx@@UEBAPEBVPxArticulationJointImpl@2@XZ 00000001800137d0 f i NpArticulationJoint.obj
 0001:000127d0       ?getImpl@?$NpArticulationJointTemplate@VPxArticulationJointReducedCoordinate@physx@@@physx@@UEAAPEAVPxArticulationJointImpl@2@XZ 00000001800137d0 f i NpArticulationJointReducedCoordinate.obj
 0001:000127d0       ?getImpl@?$NpArticulationJointTemplate@VPxArticulationJointReducedCoordinate@physx@@@physx@@UEBAPEBVPxArticulationJointImpl@2@XZ 00000001800137d0 f i NpArticulationJointReducedCoordinate.obj
 0001:000127e0       ?getInternalCompliance@NpArticulationJoint@physx@@UEBAMXZ 00000001800137e0 f   NpArticulationJoint.obj
 0001:00012850       ?getJointType@NpArticulationJoint@physx@@UEBA?AW4Enum@PxArticulationJointType@2@XZ 0000000180013850 f   NpArticulationJoint.obj
 0001:000128d0       ?getMotion@NpArticulationJoint@physx@@UEBA?AW4Enum@PxArticulationMotion@2@W43PxArticulationAxis@2@@Z 00000001800138d0 f   NpArticulationJoint.obj
 0001:00012940       ?getCreatedPairs@BroadPhaseSap@Bp@physx@@UEAAPEAUBroadPhasePair@23@XZ 0000000180013940 f i LowLevelAABB_static_64:BpBroadPhaseSap.obj
 0001:00012940       ?getParentArticulationLink@?$NpArticulationJointTemplate@VPxArticulationJoint@physx@@@physx@@UEBAAEAVPxArticulationLink@2@XZ 0000000180013940 f i NpArticulationJoint.obj
 0001:00012940       ?getParentArticulationLink@?$NpArticulationJointTemplate@VPxArticulationJointReducedCoordinate@physx@@@physx@@UEBAAEAVPxArticulationLink@2@XZ 0000000180013940 f i NpArticulationJointReducedCoordinate.obj
 0001:00012950       ?getParentPose@?$NpArticulationJointTemplate@VPxArticulationJoint@physx@@@physx@@UEBA?AVPxTransform@2@XZ 0000000180013950 f i NpArticulationJoint.obj
 0001:00012950       ?getParentPose@?$NpArticulationJointTemplate@VPxArticulationJointReducedCoordinate@physx@@@physx@@UEBA?AVPxTransform@2@XZ 0000000180013950 f i NpArticulationJointReducedCoordinate.obj
 0001:00012970       ?getParentPose@PxArticulationJointImpl@physx@@QEBA?AVPxTransform@2@XZ 0000000180013970 f i NpArticulationJoint.obj
 0001:00012b90       ?getStiffness@NpArticulationJoint@physx@@UEBAMXZ 0000000180013b90 f   NpArticulationJoint.obj
 0001:00012c00       ?getSwingLimit@NpArticulationJoint@physx@@UEBAXAEAM0@Z 0000000180013c00 f   NpArticulationJoint.obj
 0001:00012c90       ?getSwingLimitContactDistance@NpArticulationJoint@physx@@UEBAMXZ 0000000180013c90 f   NpArticulationJoint.obj
 0001:00012d00       ?getSwingLimitEnabled@NpArticulationJoint@physx@@UEBA_NXZ 0000000180013d00 f   NpArticulationJoint.obj
 0001:00012d70       ?getTangentialDamping@NpArticulationJoint@physx@@UEBAMXZ 0000000180013d70 f   NpArticulationJoint.obj
 0001:00012de0       ?getTangentialStiffness@NpArticulationJoint@physx@@UEBAMXZ 0000000180013de0 f   NpArticulationJoint.obj
 0001:00012e50       ?getTargetOrientation@NpArticulationJoint@physx@@UEBA?AVPxQuat@2@XZ 0000000180013e50 f   NpArticulationJoint.obj
 0001:00012ed0       ?getTargetVelocity@NpArticulationJoint@physx@@UEBA?AVPxVec3@2@XZ 0000000180013ed0 f   NpArticulationJoint.obj
 0001:00012f50       ?getTwistLimit@NpArticulationJoint@physx@@UEBAXAEAM0@Z 0000000180013f50 f   NpArticulationJoint.obj
 0001:00012fe0       ?getTwistLimitContactDistance@NpArticulationJoint@physx@@UEBAMXZ 0000000180013fe0 f   NpArticulationJoint.obj
 0001:00013050       ?getTwistLimitEnabled@NpArticulationJoint@physx@@UEBA_NXZ 0000000180014050 f   NpArticulationJoint.obj
 0001:000130c0       ?isKindOf@PxArticulationJoint@physx@@MEBA_NPEBD@Z 00000001800140c0 f i NpArticulationJoint.obj
 0001:00013130       ?isSubordinate@?$PxSerializerDefaultAdapter@VNpArticulationJoint@physx@@@physx@@UEBA_NXZ 0000000180014130 f i NpSerializerAdapter.obj
 0001:00013130       ?isSubordinate@?$PxSerializerDefaultAdapter@VNpArticulationLink@physx@@@physx@@UEBA_NXZ 0000000180014130 f i NpSerializerAdapter.obj
 0001:00013130       ?isSubordinate@?$PxSerializerDefaultAdapter@VNpConstraint@physx@@@physx@@UEBA_NXZ 0000000180014130 f i NpSerializerAdapter.obj
 0001:00013130       ?isSubordinate@NpArticulationJoint@physx@@UEBA_NXZ 0000000180014130 f i NpArticulationJoint.obj
 0001:00013130       ?isSubordinate@NpArticulationJointReducedCoordinate@physx@@UEBA_NXZ 0000000180014130 f i NpArticulationJointReducedCoordinate.obj
 0001:00013130       ?isSubordinate@NpArticulationLink@physx@@UEBA_NXZ 0000000180014130 f i NpArticulationLink.obj
 0001:00013130       ?isSubordinate@NpConstraint@physx@@UEBA_NXZ 0000000180014130 f i NpConstraint.obj
 0001:00013130       ?willStoreStaticConstraint@FeatherstoneArticulation@Dy@physx@@UEAA_NXZ 0000000180014130 f i NpImmediateMode.obj
 0001:00013130       __acrt_initialize          0000000180014130 f i MSVCRT:ucrt_stubs.obj
 0001:00013130       __acrt_thread_attach       0000000180014130 f i MSVCRT:ucrt_stubs.obj
 0001:00013130       __acrt_thread_detach       0000000180014130 f i MSVCRT:ucrt_stubs.obj
 0001:00013130       __acrt_uninitialize        0000000180014130 f i MSVCRT:ucrt_stubs.obj
 0001:00013130       __acrt_uninitialize_critical 0000000180014130 f i MSVCRT:ucrt_stubs.obj
 0001:00013130       __scrt_stub_for_acrt_initialize 0000000180014130 f i MSVCRT:ucrt_stubs.obj
 0001:00013130       __scrt_stub_for_acrt_thread_attach 0000000180014130 f i MSVCRT:ucrt_stubs.obj
 0001:00013130       __scrt_stub_for_acrt_thread_detach 0000000180014130 f i MSVCRT:ucrt_stubs.obj
 0001:00013130       __scrt_stub_for_acrt_uninitialize 0000000180014130 f i MSVCRT:ucrt_stubs.obj
 0001:00013130       __scrt_stub_for_acrt_uninitialize_critical 0000000180014130 f i MSVCRT:ucrt_stubs.obj
 0001:00013130       __vcrt_initialize          0000000180014130 f i MSVCRT:ucrt_stubs.obj
 0001:00013130       __vcrt_thread_attach       0000000180014130 f i MSVCRT:ucrt_stubs.obj
 0001:00013130       __vcrt_thread_detach       0000000180014130 f i MSVCRT:ucrt_stubs.obj
 0001:00013130       __vcrt_uninitialize        0000000180014130 f i MSVCRT:ucrt_stubs.obj
 0001:00013130       __vcrt_uninitialize_critical 0000000180014130 f i MSVCRT:ucrt_stubs.obj
 0001:00013140       ?isUnit@PxQuat@physx@@QEBA_NXZ 0000000180014140 f i NpArticulationJoint.obj
 0001:000131b0       ?release@?$NpArticulationJointTemplate@VPxArticulationJoint@physx@@@physx@@UEAAXXZ 00000001800141b0 f i NpArticulationJoint.obj
 0001:000131b0       ?release@?$NpArticulationJointTemplate@VPxArticulationJointReducedCoordinate@physx@@@physx@@UEAAXXZ 00000001800141b0 f i NpArticulationJointReducedCoordinate.obj
 0001:00013210       ?resolveReferences@NpArticulationJoint@physx@@UEAAXAEAVPxDeserializationContext@2@@Z 0000000180014210 f   NpArticulationJoint.obj
 0001:00013210       ?resolveReferences@NpArticulationJointReducedCoordinate@physx@@UEAAXAEAVPxDeserializationContext@2@@Z 0000000180014210 f   NpArticulationJointReducedCoordinate.obj
 0001:00013280       ?setChildPose@?$NpArticulationJointTemplate@VPxArticulationJoint@physx@@@physx@@UEAAXAEBVPxTransform@2@@Z 0000000180014280 f i NpArticulationJoint.obj
 0001:00013280       ?setChildPose@?$NpArticulationJointTemplate@VPxArticulationJointReducedCoordinate@physx@@@physx@@UEAAXAEBVPxTransform@2@@Z 0000000180014280 f i NpArticulationJointReducedCoordinate.obj
 0001:00013290       ?setChildPose@PxArticulationJointImpl@physx@@QEAAXAEBVPxTransform@2@@Z 0000000180014290 f i NpArticulationJoint.obj
 0001:000136e0       ?setDamping@NpArticulationJoint@physx@@UEAAXM@Z 00000001800146e0 f   NpArticulationJoint.obj
 0001:00013850       ?setDriveType@NpArticulationJoint@physx@@UEAAXW4Enum@PxArticulationJointDriveType@2@@Z 0000000180014850 f   NpArticulationJoint.obj
 0001:00013920       ?setExternalCompliance@NpArticulationJoint@physx@@UEAAXM@Z 0000000180014920 f   NpArticulationJoint.obj
 0001:00013a90       ?setFrictionCoefficient@NpArticulationJoint@physx@@UEAAXM@Z 0000000180014a90 f   NpArticulationJoint.obj
 0001:00013b60       ?setInternalCompliance@NpArticulationJoint@physx@@UEAAXM@Z 0000000180014b60 f   NpArticulationJoint.obj
 0001:00013cd0       ?setJointType@NpArticulationJoint@physx@@UEAAXW4Enum@PxArticulationJointType@2@@Z 0000000180014cd0 f   NpArticulationJoint.obj
 0001:00013da0       ?setMotion@NpArticulationJoint@physx@@UEAAXW4Enum@PxArticulationAxis@2@W43PxArticulationMotion@2@@Z 0000000180014da0 f   NpArticulationJoint.obj
 0001:00013ef0       ?setParentPose@?$NpArticulationJointTemplate@VPxArticulationJoint@physx@@@physx@@UEAAXAEBVPxTransform@2@@Z 0000000180014ef0 f i NpArticulationJoint.obj
 0001:00013ef0       ?setParentPose@?$NpArticulationJointTemplate@VPxArticulationJointReducedCoordinate@physx@@@physx@@UEAAXAEBVPxTransform@2@@Z 0000000180014ef0 f i NpArticulationJointReducedCoordinate.obj
 0001:00013f00       ?setParentPose@PxArticulationJointImpl@physx@@QEAAXAEBVPxTransform@2@@Z 0000000180014f00 f i NpArticulationJoint.obj
 0001:00014350       ?setStiffness@NpArticulationJoint@physx@@UEAAXM@Z 0000000180015350 f   NpArticulationJoint.obj
 0001:000144c0       ?setSwingLimit@NpArticulationJoint@physx@@UEAAXMM@Z 00000001800154c0 f   NpArticulationJoint.obj
 0001:000146c0       ?setSwingLimitContactDistance@NpArticulationJoint@physx@@UEAAXM@Z 00000001800156c0 f   NpArticulationJoint.obj
 0001:00014830       ?setSwingLimitEnabled@NpArticulationJoint@physx@@UEAAX_N@Z 0000000180015830 f   NpArticulationJoint.obj
 0001:00014900       ?setTangentialDamping@NpArticulationJoint@physx@@UEAAXM@Z 0000000180015900 f   NpArticulationJoint.obj
 0001:00014a70       ?setTangentialStiffness@NpArticulationJoint@physx@@UEAAXM@Z 0000000180015a70 f   NpArticulationJoint.obj
 0001:00014be0       ?setTargetOrientation@NpArticulationJoint@physx@@UEAAXAEBVPxQuat@2@@Z 0000000180015be0 f   NpArticulationJoint.obj
 0001:00014ea0       ?setTargetVelocity@NpArticulationJoint@physx@@UEAAXAEBVPxVec3@2@@Z 0000000180015ea0 f   NpArticulationJoint.obj
 0001:00015050       ?setTwistLimit@NpArticulationJoint@physx@@UEAAXMM@Z 0000000180016050 f   NpArticulationJoint.obj
 0001:00015220       ?setTwistLimitContactDistance@NpArticulationJoint@physx@@UEAAXM@Z 0000000180016220 f   NpArticulationJoint.obj
 0001:00015390       ?setTwistLimitEnabled@NpArticulationJoint@physx@@UEAAX_N@Z 0000000180016390 f   NpArticulationJoint.obj
 0001:00015460       ??0NpArticulationJointReducedCoordinate@physx@@QEAA@AEAVNpArticulationLink@1@AEBVPxTransform@1@01@Z 0000000180016460 f   NpArticulationJointReducedCoordinate.obj
 0001:00015510       ??_E?$NpArticulationJointTemplate@VPxArticulationJointReducedCoordinate@physx@@@physx@@UEAAPEAXI@Z 0000000180016510 f i NpArticulationJointReducedCoordinate.obj
 0001:00015510       ??_ENpArticulationJointReducedCoordinate@physx@@UEAAPEAXI@Z 0000000180016510 f i NpArticulationJointReducedCoordinate.obj
 0001:00015510       ??_G?$NpArticulationJointTemplate@VPxArticulationJointReducedCoordinate@physx@@@physx@@UEAAPEAXI@Z 0000000180016510 f i NpArticulationJointReducedCoordinate.obj
 0001:00015510       ??_GNpArticulationJointReducedCoordinate@physx@@UEAAPEAXI@Z 0000000180016510 f i NpArticulationJointReducedCoordinate.obj
 0001:00015590       ?createObject@NpArticulationJointReducedCoordinate@physx@@SAPEAV12@AEAPEAEAEAVPxDeserializationContext@2@@Z 0000000180016590 f   NpArticulationJointReducedCoordinate.obj
 0001:000155f0       ?getConcreteTypeName@PxArticulationJointReducedCoordinate@physx@@UEBAPEBDXZ 00000001800165f0 f i NpArticulationJointReducedCoordinate.obj
 0001:00015600       ?getDrive@NpArticulationJointReducedCoordinate@physx@@UEAAXW4Enum@PxArticulationAxis@2@AEAM11AEAW43PxArticulationDriveType@2@@Z 0000000180016600 f   NpArticulationJointReducedCoordinate.obj
 0001:00015690       ?getDriveTarget@NpArticulationJointReducedCoordinate@physx@@UEAAMW4Enum@PxArticulationAxis@2@@Z 0000000180016690 f   NpArticulationJointReducedCoordinate.obj
 0001:000156c0       ?getDriveVelocity@NpArticulationJointReducedCoordinate@physx@@UEAAMW4Enum@PxArticulationAxis@2@@Z 00000001800166c0 f   NpArticulationJointReducedCoordinate.obj
 0001:000156f0       ?getFrictionCoefficient@NpArticulationJointReducedCoordinate@physx@@UEBAMXZ 00000001800166f0 f   NpArticulationJointReducedCoordinate.obj
 0001:00015760       ?getJointType@NpArticulationJointReducedCoordinate@physx@@UEBA?AW4Enum@PxArticulationJointType@2@XZ 0000000180016760 f   NpArticulationJointReducedCoordinate.obj
 0001:000157e0       ?getLimit@NpArticulationJointReducedCoordinate@physx@@UEAAXW4Enum@PxArticulationAxis@2@AEAM1@Z 00000001800167e0 f   NpArticulationJointReducedCoordinate.obj
 0001:00015830       ?getMaxJointVelocity@NpArticulationJointReducedCoordinate@physx@@UEBAMXZ 0000000180016830 f   NpArticulationJointReducedCoordinate.obj
 0001:000158a0       ?getMotion@NpArticulationJointReducedCoordinate@physx@@UEBA?AW4Enum@PxArticulationMotion@2@W43PxArticulationAxis@2@@Z 00000001800168a0 f   NpArticulationJointReducedCoordinate.obj
 0001:00015910       ?isKindOf@PxArticulationJointReducedCoordinate@physx@@MEBA_NPEBD@Z 0000000180016910 f i NpArticulationJointReducedCoordinate.obj
 0001:00015960       ?isValidMotion@NpArticulationJointReducedCoordinate@physx@@AEAA_NW4Enum@PxArticulationAxis@2@W43PxArticulationMotion@2@@Z 0000000180016960 f   NpArticulationJointReducedCoordinate.obj
 0001:00015aa0       ?setDrive@ArticulationJoint@Scb@physx@@QEAAXW4Enum@PxArticulationAxis@3@MMMW44PxArticulationDriveType@3@@Z 0000000180016aa0 f i NpArticulationJointReducedCoordinate.obj
 0001:00015d50       ?setDrive@NpArticulationJointReducedCoordinate@physx@@UEAAXW4Enum@PxArticulationAxis@2@MMMW43PxArticulationDriveType@2@@Z 0000000180016d50 f   NpArticulationJointReducedCoordinate.obj
 0001:00015d60       ?setDriveTarget@ArticulationJoint@Scb@physx@@QEAAXW4Enum@PxArticulationAxis@3@M@Z 0000000180016d60 f i NpArticulationJointReducedCoordinate.obj
 0001:00015ee0       ?setDriveTarget@NpArticulationJointReducedCoordinate@physx@@UEAAXW4Enum@PxArticulationAxis@2@M@Z 0000000180016ee0 f   NpArticulationJointReducedCoordinate.obj
 0001:00015ef0       ?setDriveVelocity@ArticulationJoint@Scb@physx@@QEAAXW4Enum@PxArticulationAxis@3@M@Z 0000000180016ef0 f i NpArticulationJointReducedCoordinate.obj
 0001:00016070       ?setDriveVelocity@NpArticulationJointReducedCoordinate@physx@@UEAAXW4Enum@PxArticulationAxis@2@M@Z 0000000180017070 f   NpArticulationJointReducedCoordinate.obj
 0001:00016080       ?setFrictionCoefficient@NpArticulationJointReducedCoordinate@physx@@UEAAXM@Z 0000000180017080 f   NpArticulationJointReducedCoordinate.obj
 0001:00016150       ?setJointType@NpArticulationJointReducedCoordinate@physx@@UEAAXW4Enum@PxArticulationJointType@2@@Z 0000000180017150 f   NpArticulationJointReducedCoordinate.obj
 0001:00016250       ?setLimit@NpArticulationJointReducedCoordinate@physx@@UEAAXW4Enum@PxArticulationAxis@2@MM@Z 0000000180017250 f   NpArticulationJointReducedCoordinate.obj
 0001:000163e0       ?setMaxJointVelocity@NpArticulationJointReducedCoordinate@physx@@UEAAXM@Z 00000001800173e0 f   NpArticulationJointReducedCoordinate.obj
 0001:000164b0       ?setMotion@NpArticulationJointReducedCoordinate@physx@@UEAAXW4Enum@PxArticulationAxis@2@W43PxArticulationMotion@2@@Z 00000001800174b0 f   NpArticulationJointReducedCoordinate.obj
 0001:00016700       ??0NpArticulationLink@physx@@QEAA@AEBVPxTransform@1@AEAVPxArticulationBase@1@PEAV01@@Z 0000000180017700 f   NpArticulationLink.obj
 0001:000169b0       ??_E?$NpActorTemplate@VPxArticulationLink@physx@@@physx@@UEAAPEAXI@Z 00000001800179b0 f i NpArticulationLink.obj
 0001:000169b0       ??_G?$NpActorTemplate@VPxArticulationLink@physx@@@physx@@UEAAPEAXI@Z 00000001800179b0 f i NpArticulationLink.obj
 0001:00016a30       ??_E?$NpRigidActorTemplate@VPxArticulationLink@physx@@@physx@@UEAAPEAXI@Z 0000000180017a30 f i NpArticulationLink.obj
 0001:00016a30       ??_G?$NpRigidActorTemplate@VPxArticulationLink@physx@@@physx@@UEAAPEAXI@Z 0000000180017a30 f i NpArticulationLink.obj
 0001:00016ac0       ??_E?$NpRigidBodyTemplate@VPxArticulationLink@physx@@@physx@@UEAAPEAXI@Z 0000000180017ac0 f i NpArticulationLink.obj
 0001:00016ac0       ??_G?$NpRigidBodyTemplate@VPxArticulationLink@physx@@@physx@@UEAAPEAXI@Z 0000000180017ac0 f i NpArticulationLink.obj
 0001:00016b70       ??_EConstraintImmediateVisualizer@Cm@physx@@UEAAPEAXI@Z 0000000180017b70 f i NpArticulationLink.obj
 0001:00016b70       ??_GConstraintImmediateVisualizer@Cm@physx@@UEAAPEAXI@Z 0000000180017b70 f i NpArticulationLink.obj
 0001:00016ba0       ??_ENpArticulationLink@physx@@UEAAPEAXI@Z 0000000180017ba0 f i NpArticulationLink.obj
 0001:00016ba0       ??_GNpArticulationLink@physx@@UEAAPEAXI@Z 0000000180017ba0 f i NpArticulationLink.obj
 0001:00016ca0       ??_EPxArticulationLink@physx@@MEAAPEAXI@Z 0000000180017ca0 f i NpArticulationLink.obj
 0001:00016ca0       ??_EPxMaterial@physx@@MEAAPEAXI@Z 0000000180017ca0 f i NpMaterial.obj
 0001:00016ca0       ??_EPxRigidDynamic@physx@@MEAAPEAXI@Z 0000000180017ca0 f i NpRigidDynamic.obj
 0001:00016ca0       ??_EPxRigidStatic@physx@@MEAAPEAXI@Z 0000000180017ca0 f i NpRigidStatic.obj
 0001:00016ca0       ??_EPxShape@physx@@MEAAPEAXI@Z 0000000180017ca0 f i NpShape.obj
 0001:00016ca0       ??_GPxArticulationLink@physx@@MEAAPEAXI@Z 0000000180017ca0 f i NpArticulationLink.obj
 0001:00016ca0       ??_GPxMaterial@physx@@MEAAPEAXI@Z 0000000180017ca0 f i NpMaterial.obj
 0001:00016ca0       ??_GPxRigidDynamic@physx@@MEAAPEAXI@Z 0000000180017ca0 f i NpRigidDynamic.obj
 0001:00016ca0       ??_GPxRigidStatic@physx@@MEAAPEAXI@Z 0000000180017ca0 f i NpRigidStatic.obj
 0001:00016ca0       ??_GPxShape@physx@@MEAAPEAXI@Z 0000000180017ca0 f i NpShape.obj
 0001:00016cd0       ??_EPxConstraintVisualizer@physx@@MEAAPEAXI@Z 0000000180017cd0 f i NpArticulationLink.obj
 0001:00016cd0       ??_GPxConstraintVisualizer@physx@@MEAAPEAXI@Z 0000000180017cd0 f i NpArticulationLink.obj
 0001:00016d00       ?addForce@NpArticulationLink@physx@@UEAAXAEBVPxVec3@2@W4Enum@PxForceMode@2@_N@Z 0000000180017d00 f   NpArticulationLink.obj
 0001:00016eb0       ?addSpatialAcceleration@Body@Scb@physx@@QEAAXPEBVPxVec3@3@0@Z 0000000180017eb0 f i NpArticulationLink.obj
 0001:00016ff0       ?addSpatialForce@?$NpRigidBodyTemplate@VPxArticulationLink@physx@@@physx@@IEAAXPEBVPxVec3@2@0W4Enum@PxForceMode@2@@Z 0000000180017ff0 f i NpArticulationLink.obj
 0001:00016ff0       ?addSpatialForce@?$NpRigidBodyTemplate@VPxRigidDynamic@physx@@@physx@@IEAAXPEBVPxVec3@2@0W4Enum@PxForceMode@2@@Z 0000000180017ff0 f i NpRigidDynamic.obj
 0001:00017250       ?addSpatialVelocity@Body@Scb@physx@@QEAAXPEBVPxVec3@3@0@Z 0000000180018250 f i NpArticulationLink.obj
 0001:000173c0       ?addTorque@NpArticulationLink@physx@@UEAAXAEBVPxVec3@2@W4Enum@PxForceMode@2@_N@Z 00000001800183c0 f   NpArticulationLink.obj
 0001:00017570       ?attachShape@?$NpRigidActorTemplate@VPxArticulationLink@physx@@@physx@@UEAA_NAEAVPxShape@2@@Z 0000000180018570 f i NpArticulationLink.obj
 0001:000176b0       ?attachShape@?$NpRigidBodyTemplate@VPxArticulationLink@physx@@@physx@@UEAA_NAEAVPxShape@2@@Z 00000001800186b0 f i NpArticulationLink.obj
 0001:00017970       ?clearForce@NpArticulationLink@physx@@UEAAXW4Enum@PxForceMode@2@@Z 0000000180018970 f   NpArticulationLink.obj
 0001:00017a00       ?clearSpatialForce@?$NpRigidBodyTemplate@VPxArticulationLink@physx@@@physx@@IEAAXW4Enum@PxForceMode@2@_N1@Z 0000000180018a00 f i NpArticulationLink.obj
 0001:00017a00       ?clearSpatialForce@?$NpRigidBodyTemplate@VPxRigidDynamic@physx@@@physx@@IEAAXW4Enum@PxForceMode@2@_N1@Z 0000000180018a00 f i NpRigidDynamic.obj
 0001:00017bd0       ?clearTorque@NpArticulationLink@physx@@UEAAXW4Enum@PxForceMode@2@@Z 0000000180018bd0 f   NpArticulationLink.obj
 0001:00017c60       ?copy@?$Array@UPxDebugLine@physx@@VNamedAllocator@shdfnd@2@@shdfnd@physx@@KAXPEAUPxDebugLine@3@0PEBU43@@Z 0000000180018c60 f i NpArticulationLink.obj
 0001:00017c60       ?copy@?$Array@VSpatialVector@Cm@physx@@VNamedAllocator@shdfnd@3@@shdfnd@physx@@KAXPEAVSpatialVector@Cm@3@0PEBV453@@Z 0000000180018c60 f i LowLevelDynamics_static_64:DyTGSDynamics.obj
 0001:00017e10       ?createObject@NpArticulationLink@physx@@SAPEAV12@AEAPEAEAEAVPxDeserializationContext@2@@Z 0000000180018e10 f   NpArticulationLink.obj
 0001:00017f00       ?detachShape@?$NpRigidActorTemplate@VPxArticulationLink@physx@@@physx@@UEAAXAEAVPxShape@2@_N@Z 0000000180018f00 f i NpArticulationLink.obj
 0001:00017fd0       ?exportExtraData@?$NpActorTemplate@VPxArticulationLink@physx@@@physx@@UEAAXAEAVPxSerializationContext@2@@Z 0000000180018fd0 f i NpArticulationLink.obj
 0001:00017fd0       ?exportExtraData@?$NpActorTemplate@VPxRigidDynamic@physx@@@physx@@UEAAXAEAVPxSerializationContext@2@@Z 0000000180018fd0 f i NpRigidDynamic.obj
 0001:00017fd0       ?exportExtraData@?$NpActorTemplate@VPxRigidStatic@physx@@@physx@@UEAAXAEAVPxSerializationContext@2@@Z 0000000180018fd0 f i NpRigidStatic.obj
 0001:00017fe0       ?exportExtraData@?$NpRigidActorTemplate@VPxArticulationLink@physx@@@physx@@UEAAXAEAVPxSerializationContext@2@@Z 0000000180018fe0 f i NpArticulationLink.obj
 0001:00017fe0       ?exportExtraData@?$NpRigidActorTemplate@VPxRigidDynamic@physx@@@physx@@UEAAXAEAVPxSerializationContext@2@@Z 0000000180018fe0 f i NpRigidDynamic.obj
 0001:00017fe0       ?exportExtraData@?$NpRigidActorTemplate@VPxRigidStatic@physx@@@physx@@UEAAXAEAVPxSerializationContext@2@@Z 0000000180018fe0 f i NpRigidStatic.obj
 0001:00018010       ?exportExtraData@NpArticulationLink@physx@@UEAAXAEAVPxSerializationContext@2@@Z 0000000180019010 f   NpArticulationLink.obj
 0001:00018080       ?getActorFlags@?$NpActorTemplate@VPxArticulationLink@physx@@@physx@@UEBA?AV?$PxFlags@W4Enum@PxActorFlag@physx@@E@2@XZ 0000000180019080 f i NpArticulationLink.obj
 0001:00018100       ?getAggregate@?$NpActorTemplate@VPxArticulationLink@physx@@@physx@@UEBAPEAVPxAggregate@2@XZ 0000000180019100 f i NpArticulationLink.obj
 0001:00018100       ?getAggregate@?$NpActorTemplate@VPxRigidDynamic@physx@@@physx@@UEBAPEAVPxAggregate@2@XZ 0000000180019100 f i NpRigidDynamic.obj
 0001:00018100       ?getAggregate@?$NpActorTemplate@VPxRigidStatic@physx@@@physx@@UEBAPEAVPxAggregate@2@XZ 0000000180019100 f i NpRigidStatic.obj
 0001:00018110       ?getAngularDamping@NpArticulationLink@physx@@UEBAMXZ 0000000180019110 f   NpArticulationLink.obj
 0001:00018180       ?getAngularVelocity@?$NpRigidBodyTemplate@VPxArticulationLink@physx@@@physx@@UEBA?AVPxVec3@2@XZ 0000000180019180 f i NpArticulationLink.obj
 0001:000181e0       ?getArticulation@NpArticulationLink@physx@@UEBAAEAVPxArticulationBase@2@XZ 00000001800191e0 f   NpArticulationLink.obj
 0001:00018220       ?getCMassLocalPose@?$NpRigidBodyTemplate@VPxArticulationLink@physx@@@physx@@UEBA?AVPxTransform@2@XZ 0000000180019220 f i NpArticulationLink.obj
 0001:000182b0       ?getChildren@NpArticulationLink@physx@@UEBAIPEAPEAVPxArticulationLink@2@II@Z 00000001800192b0 f   NpArticulationLink.obj
 0001:00018360       ?getConcreteTypeName@PxArticulationLink@physx@@UEBAPEBDXZ 0000000180019360 f i NpArticulationLink.obj
 0001:00018370       ?getConstraints@?$NpRigidActorTemplate@VPxArticulationLink@physx@@@physx@@UEBAIPEAPEAVPxConstraint@2@II@Z 0000000180019370 f i NpArticulationLink.obj
 0001:00018430       ?getDominanceGroup@?$NpActorTemplate@VPxArticulationLink@physx@@@physx@@UEBAEXZ 0000000180019430 f i NpArticulationLink.obj
 0001:000184c0       ?getGlobalInertiaTensorInverse@Body@Scb@physx@@QEBA?AVPxMat33@3@XZ 00000001800194c0 f i NpArticulationLink.obj
 0001:00018750       ?getGlobalPose@NpArticulationLink@physx@@UEBA?AVPxTransform@2@XZ 0000000180019750 f   NpArticulationLink.obj
 0001:00018a90       ?getInboundJoint@NpArticulationLink@physx@@UEBAPEAVPxArticulationJointBase@2@XZ 0000000180019a90 f   NpArticulationLink.obj
 0001:00018ad0       ?getInboundJointDof@NpArticulationLink@physx@@UEBAIXZ 0000000180019ad0 f   NpArticulationLink.obj
 0001:00018b10       ?getInternalIslandNodeIndex@?$NpRigidBodyTemplate@VPxArticulationLink@physx@@@physx@@UEBAIXZ 0000000180019b10 f i NpArticulationLink.obj
 0001:00018b60       ?getInvMass@?$NpRigidBodyTemplate@VPxArticulationLink@physx@@@physx@@UEBAMXZ 0000000180019b60 f i NpArticulationLink.obj
 0001:00018bd0       ?getLinearDamping@NpArticulationLink@physx@@UEBAMXZ 0000000180019bd0 f   NpArticulationLink.obj
 0001:00018c40       ?getLinearVelocity@?$NpRigidBodyTemplate@VPxArticulationLink@physx@@@physx@@UEBA?AVPxVec3@2@XZ 0000000180019c40 f i NpArticulationLink.obj
 0001:00018ca0       ?getLinkIndex@NpArticulationLink@physx@@UEBAIXZ 0000000180019ca0 f   NpArticulationLink.obj
 0001:00018ce0       ?getMass@?$NpRigidBodyTemplate@VPxArticulationLink@physx@@@physx@@UEBAMXZ 0000000180019ce0 f i NpArticulationLink.obj
 0001:00018d60       ?getMassSpaceInertiaTensor@?$NpRigidBodyTemplate@VPxArticulationLink@physx@@@physx@@UEBA?AVPxVec3@2@XZ 0000000180019d60 f i NpArticulationLink.obj
 0001:00018e20       ?getMassSpaceInvInertiaTensor@?$NpRigidBodyTemplate@VPxArticulationLink@physx@@@physx@@UEBA?AVPxVec3@2@XZ 0000000180019e20 f i NpArticulationLink.obj
 0001:00018ea0       ?getMaxAngularVelocity@NpArticulationLink@physx@@UEBAMXZ 0000000180019ea0 f   NpArticulationLink.obj
 0001:00018f10       ?getMaxContactImpulse@?$NpRigidBodyTemplate@VPxArticulationLink@physx@@@physx@@UEBAMXZ 0000000180019f10 f i NpArticulationLink.obj
 0001:00018f80       ?getMaxDepenetrationVelocity@?$NpRigidBodyTemplate@VPxArticulationLink@physx@@@physx@@UEBAMXZ 0000000180019f80 f i NpArticulationLink.obj
 0001:00018ff0       ?getMaxLinearVelocity@NpArticulationLink@physx@@UEBAMXZ 0000000180019ff0 f   NpArticulationLink.obj
 0001:00019060       ?getMinCCDAdvanceCoefficient@?$NpRigidBodyTemplate@VPxArticulationLink@physx@@@physx@@UEBAMXZ 000000018001a060 f i NpArticulationLink.obj
 0001:000190c0       ?getName@?$NpActorTemplate@VPxArticulationLink@physx@@@physx@@UEBAPEBDXZ 000000018001a0c0 f i NpArticulationLink.obj
 0001:00019100       ?getNbChildren@NpArticulationLink@physx@@UEBAIXZ 000000018001a100 f   NpArticulationLink.obj
 0001:00019140       ?getNbConstraints@?$NpRigidActorTemplate@VPxArticulationLink@physx@@@physx@@UEBAIXZ 000000018001a140 f i NpArticulationLink.obj
 0001:00019190       ?getNbShapes@?$NpRigidActorTemplate@VPxArticulationLink@physx@@@physx@@UEBAIXZ 000000018001a190 f i NpArticulationLink.obj
 0001:000191d0       ?getOwnerClient@?$NpActorTemplate@VPxArticulationLink@physx@@@physx@@UEBAEXZ 000000018001a1d0 f i NpArticulationLink.obj
 0001:000191d0       ?getOwnerClient@?$NpActorTemplate@VPxRigidDynamic@physx@@@physx@@UEBAEXZ 000000018001a1d0 f i NpRigidDynamic.obj
 0001:000191d0       ?getOwnerClient@?$NpActorTemplate@VPxRigidStatic@physx@@@physx@@UEBAEXZ 000000018001a1d0 f i NpRigidStatic.obj
 0001:00019200       ?getRigidBodyFlags@?$NpRigidBodyTemplate@VPxArticulationLink@physx@@@physx@@UEBA?AV?$PxFlags@W4Enum@PxRigidBodyFlag@physx@@G@2@XZ 000000018001a200 f i NpArticulationLink.obj
 0001:00019270       ?getScene@?$NpActorTemplate@VPxArticulationLink@physx@@@physx@@UEBAPEAVPxScene@2@XZ 000000018001a270 f i NpArticulationLink.obj
 0001:00019270       ?getScene@?$NpActorTemplate@VPxRigidDynamic@physx@@@physx@@UEBAPEAVPxScene@2@XZ 000000018001a270 f i NpRigidDynamic.obj
 0001:00019270       ?getScene@?$NpActorTemplate@VPxRigidStatic@physx@@@physx@@UEBAPEAVPxScene@2@XZ 000000018001a270 f i NpRigidStatic.obj
 0001:00019280       ?getShapes@?$NpRigidActorTemplate@VPxArticulationLink@physx@@@physx@@UEBAIPEAPEAVPxShape@2@II@Z 000000018001a280 f i NpArticulationLink.obj
 0001:000192f0       ?getType@BroadPhaseABP@Bp@physx@@UEBA?AW4Enum@PxBroadPhaseType@3@XZ 000000018001a2f0 f i LowLevelAABB_static_64:BpBroadPhaseABP.obj
 0001:000192f0       ?getType@NpArticulationLink@physx@@UEBA?AW4Enum@PxActorType@2@XZ 000000018001a2f0 f i NpArticulationLink.obj
 0001:00019300       ?getWorldBounds@?$NpRigidActorTemplate@VPxArticulationLink@physx@@@physx@@UEBA?AVPxBounds3@2@M@Z 000000018001a300 f i NpArticulationLink.obj
 0001:00019490       ?importExtraData@?$NpActorTemplate@VPxArticulationLink@physx@@@physx@@UEAAXAEAVPxDeserializationContext@2@@Z 000000018001a490 f i NpArticulationLink.obj
 0001:00019490       ?importExtraData@?$NpActorTemplate@VPxRigidDynamic@physx@@@physx@@UEAAXAEAVPxDeserializationContext@2@@Z 000000018001a490 f i NpRigidDynamic.obj
 0001:00019490       ?importExtraData@?$NpActorTemplate@VPxRigidStatic@physx@@@physx@@UEAAXAEAVPxDeserializationContext@2@@Z 000000018001a490 f i NpRigidStatic.obj
 0001:000194a0       ?importExtraData@?$NpRigidActorTemplate@VPxArticulationLink@physx@@@physx@@UEAAXAEAVPxDeserializationContext@2@@Z 000000018001a4a0 f i NpArticulationLink.obj
 0001:000194a0       ?importExtraData@?$NpRigidActorTemplate@VPxRigidDynamic@physx@@@physx@@UEAAXAEAVPxDeserializationContext@2@@Z 000000018001a4a0 f i NpRigidDynamic.obj
 0001:000194a0       ?importExtraData@?$NpRigidActorTemplate@VPxRigidStatic@physx@@@physx@@UEAAXAEAVPxDeserializationContext@2@@Z 000000018001a4a0 f i NpRigidStatic.obj
 0001:000194d0       ?importExtraData@NpArticulationLink@physx@@UEAAXAEAVPxDeserializationContext@2@@Z 000000018001a4d0 f   NpArticulationLink.obj
 0001:00019550       ?isKindOf@PxArticulationLink@physx@@MEBA_NPEBD@Z 000000018001a550 f i NpArticulationLink.obj
 0001:000195a0       ?isKindOf@PxRigidActor@physx@@MEBA_NPEBD@Z 000000018001a5a0 f i NpArticulationLink.obj
 0001:00019630       ?isKindOf@PxRigidBody@physx@@MEBA_NPEBD@Z 000000018001a630 f i NpArticulationLink.obj
 0001:000196c0       ?putToSleepInternal@Body@Scb@physx@@QEAAXXZ 000000018001a6c0 f i NpArticulationLink.obj
 0001:00019880       ?recreate@?$Array@UPxDebugLine@physx@@VNamedAllocator@shdfnd@2@@shdfnd@physx@@IEAAXI@Z 000000018001a880 f i NpArticulationLink.obj
 0001:00019920       ?release@?$NpActorTemplate@VPxArticulationLink@physx@@@physx@@UEAAXXZ 000000018001a920 f i NpArticulationLink.obj
 0001:00019920       ?release@?$NpActorTemplate@VPxRigidDynamic@physx@@@physx@@UEAAXXZ 000000018001a920 f i NpRigidDynamic.obj
 0001:00019920       ?release@?$NpActorTemplate@VPxRigidStatic@physx@@@physx@@UEAAXXZ 000000018001a920 f i NpRigidStatic.obj
 0001:00019930       ?release@?$NpRigidActorTemplate@VPxArticulationLink@physx@@@physx@@UEAAXXZ 000000018001a930 f i NpArticulationLink.obj
 0001:00019930       ?release@?$NpRigidActorTemplate@VPxRigidDynamic@physx@@@physx@@UEAAXXZ 000000018001a930 f i NpRigidDynamic.obj
 0001:00019930       ?release@?$NpRigidActorTemplate@VPxRigidStatic@physx@@@physx@@UEAAXXZ 000000018001a930 f i NpRigidStatic.obj
 0001:000199d0       ?release@NpArticulationLink@physx@@UEAAXXZ 000000018001a9d0 f   NpArticulationLink.obj
 0001:00019aa0       ?releaseInternal@NpArticulationLink@physx@@QEAAXXZ 000000018001aaa0 f   NpArticulationLink.obj
 0001:00019c30       ?requiresObjects@?$NpRigidActorTemplate@VPxArticulationLink@physx@@@physx@@UEAAXAEAVPxProcessPxBaseCallback@2@@Z 000000018001ac30 f i NpArticulationLink.obj
 0001:00019c30       ?requiresObjects@?$NpRigidActorTemplate@VPxRigidDynamic@physx@@@physx@@UEAAXAEAVPxProcessPxBaseCallback@2@@Z 000000018001ac30 f i NpRigidDynamic.obj
 0001:00019c30       ?requiresObjects@?$NpRigidActorTemplate@VPxRigidStatic@physx@@@physx@@UEAAXAEAVPxProcessPxBaseCallback@2@@Z 000000018001ac30 f i NpRigidStatic.obj
 0001:00019c30       ?requiresObjects@NpRigidDynamic@physx@@UEAAXAEAVPxProcessPxBaseCallback@2@@Z 000000018001ac30 f i NpRigidDynamic.obj
 0001:00019c30       ?requiresObjects@NpRigidStatic@physx@@UEAAXAEAVPxProcessPxBaseCallback@2@@Z 000000018001ac30 f i NpRigidStatic.obj
 0001:00019ca0       ?requiresObjects@NpArticulationLink@physx@@UEAAXAEAVPxProcessPxBaseCallback@2@@Z 000000018001aca0 f   NpArticulationLink.obj
 0001:00019d30       ?resolveReferences@?$NpActorTemplate@VPxArticulationLink@physx@@@physx@@UEAAXAEAVPxDeserializationContext@2@@Z 000000018001ad30 f i NpArticulationLink.obj
 0001:00019d30       ?resolveReferences@?$NpActorTemplate@VPxRigidDynamic@physx@@@physx@@UEAAXAEAVPxDeserializationContext@2@@Z 000000018001ad30 f i NpRigidDynamic.obj
 0001:00019d30       ?resolveReferences@?$NpActorTemplate@VPxRigidStatic@physx@@@physx@@UEAAXAEAVPxDeserializationContext@2@@Z 000000018001ad30 f i NpRigidStatic.obj
 0001:00019d40       ?resolveReferences@?$NpRigidActorTemplate@VPxArticulationLink@physx@@@physx@@UEAAXAEAVPxDeserializationContext@2@@Z 000000018001ad40 f i NpArticulationLink.obj
 0001:00019d40       ?resolveReferences@?$NpRigidActorTemplate@VPxRigidDynamic@physx@@@physx@@UEAAXAEAVPxDeserializationContext@2@@Z 000000018001ad40 f i NpRigidDynamic.obj
 0001:00019d40       ?resolveReferences@?$NpRigidActorTemplate@VPxRigidStatic@physx@@@physx@@UEAAXAEAVPxDeserializationContext@2@@Z 000000018001ad40 f i NpRigidStatic.obj
 0001:00019dd0       ?resolveReferences@NpArticulationLink@physx@@UEAAXAEAVPxDeserializationContext@2@@Z 000000018001add0 f   NpArticulationLink.obj
 0001:00019f00       ?setActorFlag@?$NpActorTemplate@VPxArticulationLink@physx@@@physx@@UEAAXW4Enum@PxActorFlag@2@_N@Z 000000018001af00 f i NpArticulationLink.obj
 0001:00019fe0       ?setActorFlag@?$NpRigidActorTemplate@VPxArticulationLink@physx@@@physx@@UEAAXW4Enum@PxActorFlag@2@_N@Z 000000018001afe0 f i NpArticulationLink.obj
 0001:0001a260       ?setActorFlags@?$NpActorTemplate@VPxArticulationLink@physx@@@physx@@UEAAXV?$PxFlags@W4Enum@PxActorFlag@physx@@E@2@@Z 000000018001b260 f i NpArticulationLink.obj
 0001:0001a2d0       ?setActorFlags@?$NpRigidActorTemplate@VPxArticulationLink@physx@@@physx@@UEAAXV?$PxFlags@W4Enum@PxActorFlag@physx@@E@2@@Z 000000018001b2d0 f i NpArticulationLink.obj
 0001:0001a4f0       ?setActorFlags@Actor@Scb@physx@@QEAAXV?$PxFlags@W4Enum@PxActorFlag@physx@@E@3@@Z 000000018001b4f0 f i NpArticulationLink.obj
 0001:0001a620       ?setAngularDamping@NpArticulationLink@physx@@UEAAXM@Z 000000018001b620 f   NpArticulationLink.obj
 0001:0001a780       ?setAngularVelocity@Body@Scb@physx@@QEAAXAEBVPxVec3@3@@Z 000000018001b780 f i NpArticulationLink.obj
 0001:0001a820       ?setAngularVelocity@NpArticulationLink@physx@@UEAAXAEBVPxVec3@2@_N@Z 000000018001b820 f   NpArticulationLink.obj
 0001:0001a980       ?setCMassLocalPose@NpArticulationLink@physx@@UEAAXAEBVPxTransform@2@@Z 000000018001b980 f   NpArticulationLink.obj
 0001:0001b170       ?setCMassLocalPoseInternal@?$NpRigidBodyTemplate@VPxArticulationLink@physx@@@physx@@IEAAXAEBVPxTransform@2@@Z 000000018001c170 f i NpArticulationLink.obj
 0001:0001b170       ?setCMassLocalPoseInternal@?$NpRigidBodyTemplate@VPxRigidDynamic@physx@@@physx@@IEAAXAEBVPxTransform@2@@Z 000000018001c170 f i NpRigidDynamic.obj
 0001:0001b530       ?setChildPose@ArticulationJoint@Scb@physx@@QEAAXAEBVPxTransform@3@@Z 000000018001c530 f i NpArticulationLink.obj
 0001:0001b600       ?setDominanceGroup@?$NpActorTemplate@VPxArticulationLink@physx@@@physx@@UEAAXE@Z 000000018001c600 f i NpArticulationLink.obj
 0001:0001b6e0       ?setFlags@Body@Scb@physx@@QEAAXV?$PxFlags@W4Enum@PxRigidBodyFlag@physx@@G@3@@Z 000000018001c6e0 f i NpArticulationLink.obj
 0001:0001b860       ?setForceAndTorque@NpArticulationLink@physx@@UEAAXAEBVPxVec3@2@0W4Enum@PxForceMode@2@@Z 000000018001c860 f   NpArticulationLink.obj
 0001:0001ba80       ?setGlobalPose@NpArticulationLink@physx@@UEAAXAEBVPxTransform@2@_N@Z 000000018001ca80 f   NpArticulationLink.obj
 0001:0001bad0       ?setGlobalPose@PxArticulationImpl@physx@@QEAAXXZ 000000018001cad0 f i NpArticulationLink.obj
 0001:0001bdc0       ?setGlobalPoseInternal@NpArticulationLink@physx@@QEAAXAEBVPxTransform@2@_N@Z 000000018001cdc0 f   NpArticulationLink.obj
 0001:0001c170       ?setKinematicLink@NpArticulationLink@physx@@QEAAX_N@Z 000000018001d170 f   NpArticulationLink.obj
 0001:0001c1d0       ?setLinearDamping@NpArticulationLink@physx@@UEAAXM@Z 000000018001d1d0 f   NpArticulationLink.obj
 0001:0001c330       ?setLinearVelocity@Body@Scb@physx@@QEAAXAEBVPxVec3@3@@Z 000000018001d330 f i NpArticulationLink.obj
 0001:0001c3d0       ?setLinearVelocity@NpArticulationLink@physx@@UEAAXAEBVPxVec3@2@_N@Z 000000018001d3d0 f   NpArticulationLink.obj
 0001:0001c530       ?setMass@?$NpRigidBodyTemplate@VPxArticulationLink@physx@@@physx@@UEAAXM@Z 000000018001d530 f i NpArticulationLink.obj
 0001:0001c6d0       ?setMassSpaceInertiaTensor@?$NpRigidBodyTemplate@VPxArticulationLink@physx@@@physx@@UEAAXAEBVPxVec3@2@@Z 000000018001d6d0 f i NpArticulationLink.obj
 0001:0001c9b0       ?setMaxAngularVelocity@NpArticulationLink@physx@@UEAAXM@Z 000000018001d9b0 f   NpArticulationLink.obj
 0001:0001cb10       ?setMaxContactImpulse@?$NpRigidBodyTemplate@VPxArticulationLink@physx@@@physx@@UEAAXM@Z 000000018001db10 f i NpArticulationLink.obj
 0001:0001cc20       ?setMaxDepenetrationVelocity@?$NpRigidBodyTemplate@VPxArticulationLink@physx@@@physx@@UEAAXM@Z 000000018001dc20 f i NpArticulationLink.obj
 0001:0001cd30       ?setMaxLinearVelocity@NpArticulationLink@physx@@UEAAXM@Z 000000018001dd30 f   NpArticulationLink.obj
 0001:0001ce90       ?setMinCCDAdvanceCoefficient@?$NpRigidBodyTemplate@VPxArticulationLink@physx@@@physx@@UEAAXM@Z 000000018001de90 f i NpArticulationLink.obj
 0001:0001cf50       ?setName@?$NpActorTemplate@VPxArticulationLink@physx@@@physx@@UEAAXPEBD@Z 000000018001df50 f i NpArticulationLink.obj
 0001:0001cfd0       ?setOwnerClient@?$NpActorTemplate@VPxArticulationLink@physx@@@physx@@UEAAXE@Z 000000018001dfd0 f i NpArticulationLink.obj
 0001:0001cfd0       ?setOwnerClient@?$NpActorTemplate@VPxRigidDynamic@physx@@@physx@@UEAAXE@Z 000000018001dfd0 f i NpRigidDynamic.obj
 0001:0001cfd0       ?setOwnerClient@?$NpActorTemplate@VPxRigidStatic@physx@@@physx@@UEAAXE@Z 000000018001dfd0 f i NpRigidStatic.obj
 0001:0001d0d0       ?setRigidBodyFlag@?$NpRigidBodyTemplate@VPxArticulationLink@physx@@@physx@@UEAAXW4Enum@PxRigidBodyFlag@2@_N@Z 000000018001e0d0 f i NpArticulationLink.obj
 0001:0001d5e0       ?setRigidBodyFlags@?$NpRigidBodyTemplate@VPxArticulationLink@physx@@@physx@@UEAAXV?$PxFlags@W4Enum@PxRigidBodyFlag@physx@@G@2@@Z 000000018001e5e0 f i NpArticulationLink.obj
 0001:0001dac0       ?setSpatialAcceleration@Body@Scb@physx@@QEAAXPEBVPxVec3@3@0@Z 000000018001eac0 f i NpArticulationLink.obj
 0001:0001dbe0       ?setSpatialForce@?$NpRigidBodyTemplate@VPxArticulationLink@physx@@@physx@@IEAAXPEBVPxVec3@2@0W4Enum@PxForceMode@2@@Z 000000018001ebe0 f i NpArticulationLink.obj
 0001:0001dbe0       ?setSpatialForce@?$NpRigidBodyTemplate@VPxRigidDynamic@physx@@@physx@@IEAAXPEBVPxVec3@2@0W4Enum@PxForceMode@2@@Z 000000018001ebe0 f i NpRigidDynamic.obj
 0001:0001de40       ?visualize@?$NpRigidBodyTemplate@VPxArticulationLink@physx@@@physx@@QEAAXAEAVRenderOutput@Cm@2@PEAVNpScene@2@@Z 000000018001ee40 f i NpArticulationLink.obj
 0001:0001de40       ?visualize@?$NpRigidBodyTemplate@VPxRigidDynamic@physx@@@physx@@QEAAXAEAVRenderOutput@Cm@2@PEAVNpScene@2@@Z 000000018001ee40 f i NpRigidDynamic.obj
 0001:0001e210       ?visualize@NpArticulationLink@physx@@QEAAXAEAVRenderOutput@Cm@2@PEAVNpScene@2@@Z 000000018001f210 f   NpArticulationLink.obj
 0001:0001e530       ?visualizeAngularLimit@ConstraintImmediateVisualizer@Cm@physx@@UEAAXAEBVPxTransform@3@MM_N@Z 000000018001f530 f i NpArticulationLink.obj
 0001:0001e560       ?visualizeDoubleCone@ConstraintImmediateVisualizer@Cm@physx@@UEAAXAEBVPxTransform@3@M_N@Z 000000018001f560 f i NpArticulationLink.obj
 0001:0001e590       ?visualizeJoint@NpArticulationLink@physx@@QEAAXAEAVPxConstraintVisualizer@2@@Z 000000018001f590 f   NpArticulationLink.obj
 0001:0001f6f0       ?visualizeJointFrames@ConstraintImmediateVisualizer@Cm@physx@@UEAAXAEBVPxTransform@3@0@Z 00000001800206f0 f i NpArticulationLink.obj
 0001:0001f710       ?visualizeLimitCone@ConstraintImmediateVisualizer@Cm@physx@@UEAAXAEBVPxTransform@3@MM_N@Z 0000000180020710 f i NpArticulationLink.obj
 0001:0001f740       ?visualizeLine@ConstraintImmediateVisualizer@Cm@physx@@UEAAXAEBVPxVec3@3@0I@Z 0000000180020740 f i NpArticulationLink.obj
 0001:0001f7c0       ?visualizeLinearLimit@ConstraintImmediateVisualizer@Cm@physx@@UEAAXAEBVPxTransform@3@0M_N@Z 00000001800207c0 f i NpArticulationLink.obj
 0001:0001f7f0       ??0NpBatchQuery@physx@@QEAA@AEAVNpScene@1@AEBVPxBatchQueryDesc@1@@Z 00000001800207f0 f   NpBatchQuery.obj
 0001:0001f940       ??_E?$PxHitBuffer@UPxRaycastHit@physx@@@physx@@UEAAPEAXI@Z 0000000180020940 f i NpBatchQuery.obj
 0001:0001f940       ??_E?$PxHitBuffer@UPxSweepHit@physx@@@physx@@UEAAPEAXI@Z 0000000180020940 f i NpBatchQuery.obj
 0001:0001f940       ??_E?$PxHitCallback@UPxRaycastHit@physx@@@physx@@UEAAPEAXI@Z 0000000180020940 f i NpBatchQuery.obj
 0001:0001f940       ??_E?$PxHitCallback@UPxSweepHit@physx@@@physx@@UEAAPEAXI@Z 0000000180020940 f i NpBatchQuery.obj
 0001:0001f940       ??_G?$PxHitBuffer@UPxRaycastHit@physx@@@physx@@UEAAPEAXI@Z 0000000180020940 f i NpBatchQuery.obj
 0001:0001f940       ??_G?$PxHitBuffer@UPxSweepHit@physx@@@physx@@UEAAPEAXI@Z 0000000180020940 f i NpBatchQuery.obj
 0001:0001f940       ??_G?$PxHitCallback@UPxRaycastHit@physx@@@physx@@UEAAPEAXI@Z 0000000180020940 f i NpBatchQuery.obj
 0001:0001f940       ??_G?$PxHitCallback@UPxSweepHit@physx@@@physx@@UEAAPEAXI@Z 0000000180020940 f i NpBatchQuery.obj
 0001:0001f970       ??_E?$PxHitCallback@UPxOverlapHit@physx@@@physx@@UEAAPEAXI@Z 0000000180020970 f i NpBatchQuery.obj
 0001:0001f970       ??_G?$PxHitCallback@UPxOverlapHit@physx@@@physx@@UEAAPEAXI@Z 0000000180020970 f i NpBatchQuery.obj
 0001:0001f9a0       ??_E?$PxOverflowBuffer@UPxOverlapHit@physx@@@@UEAAPEAXI@Z 00000001800209a0 f i NpBatchQuery.obj
 0001:0001f9a0       ??_G?$PxOverflowBuffer@UPxOverlapHit@physx@@@@UEAAPEAXI@Z 00000001800209a0 f i NpBatchQuery.obj
 0001:0001f9d0       ??_E?$PxOverflowBuffer@UPxRaycastHit@physx@@@@UEAAPEAXI@Z 00000001800209d0 f i NpBatchQuery.obj
 0001:0001f9d0       ??_E?$PxOverflowBuffer@UPxSweepHit@physx@@@@UEAAPEAXI@Z 00000001800209d0 f i NpBatchQuery.obj
 0001:0001f9d0       ??_G?$PxOverflowBuffer@UPxRaycastHit@physx@@@@UEAAPEAXI@Z 00000001800209d0 f i NpBatchQuery.obj
 0001:0001f9d0       ??_G?$PxOverflowBuffer@UPxSweepHit@physx@@@@UEAAPEAXI@Z 00000001800209d0 f i NpBatchQuery.obj
 0001:0001fa00       ??_ENpBatchQuery@physx@@UEAAPEAXI@Z 0000000180020a00 f i NpBatchQuery.obj
 0001:0001fa00       ??_GNpBatchQuery@physx@@UEAAPEAXI@Z 0000000180020a00 f i NpBatchQuery.obj
 0001:0001fad0       ??_EPxBatchQuery@physx@@MEAAPEAXI@Z 0000000180020ad0 f i NpBatchQuery.obj
 0001:0001fad0       ??_GPxBatchQuery@physx@@MEAAPEAXI@Z 0000000180020ad0 f i NpBatchQuery.obj
 0001:0001fb00       ?execute@NpBatchQuery@physx@@UEAAXXZ 0000000180020b00 f   NpBatchQuery.obj
 0001:00020700       ?finalizeExecute@NpBatchQuery@physx@@AEAAXXZ 0000000180021700 f   NpBatchQuery.obj
 0001:00020730       ?finalizeQuery@?$PxOverflowBuffer@UPxOverlapHit@physx@@@@UEAAXXZ 0000000180021730 f i NpBatchQuery.obj
 0001:00020750       ?finalizeQuery@?$PxOverflowBuffer@UPxRaycastHit@physx@@@@UEAAXXZ 0000000180021750 f i NpBatchQuery.obj
 0001:00020750       ?finalizeQuery@?$PxOverflowBuffer@UPxSweepHit@physx@@@@UEAAXXZ 0000000180021750 f i NpBatchQuery.obj
 0001:00020780       ?getDesc@NpBatchQuery@physx@@UEBAAEBVPxBatchQueryDesc@2@XZ 0000000180021780 f i NpBatchQuery.obj
 0001:00020790       ?getPreFilterShader@NpBatchQuery@physx@@UEBAP6A?AW4Enum@PxQueryHitType@2@UPxFilterData@2@0PEBXIAEAV?$PxFlags@W4Enum@PxHitFlag@physx@@G@2@@ZXZ 0000000180021790 f   NpBatchQuery.obj
 0001:000207a0       ?getUserMemory@NpBatchQuery@physx@@UEAAAEBUPxBatchQueryMemory@2@XZ 00000001800217a0 f   NpBatchQuery.obj
 0001:000207b0       ?overlap@NpBatchQuery@physx@@UEAAXAEBVPxGeometry@2@AEBVPxTransform@2@GAEBUPxQueryFilterData@2@PEAXPEBUPxQueryCache@2@@Z 00000001800217b0 f   NpBatchQuery.obj
 0001:00020970       ?applyCache@ArticulationV@Dy@physx@@UEAA_NAEAVPxArticulationCache@3@V?$PxFlags@W4Enum@PxArticulationCache@physx@@E@3@@Z 0000000180021970 f i LowLevelDynamics_static_64:DyArticulation.obj
 0001:00020970       ?canRun@PvdCommand@PvdInstanceDataStream@pvdsdk@physx@@UEAA_NAEAV234@@Z 0000000180021970 f i PvdMetaDataPvdBinding.obj
 0001:00020970       ?getLambda@ArticulationV@Dy@physx@@UEAA_NPEAUArticulationLoopConstraint@23@IAEAVPxArticulationCache@3@1PEBMAEBVPxVec3@3@I@Z 0000000180021970 f i LowLevelDynamics_static_64:DyArticulation.obj
 0001:00020970       ?isSubordinate@?$PxSerializerDefaultAdapter@VBV4TriangleMesh@Gu@physx@@@physx@@UEBA_NXZ 0000000180021970 f i NpSerializerAdapter.obj
 0001:00020970       ?isSubordinate@?$PxSerializerDefaultAdapter@VConvexMesh@Gu@physx@@@physx@@UEBA_NXZ 0000000180021970 f i NpSerializerAdapter.obj
 0001:00020970       ?isSubordinate@?$PxSerializerDefaultAdapter@VHeightField@Gu@physx@@@physx@@UEBA_NXZ 0000000180021970 f i NpSerializerAdapter.obj
 0001:00020970       ?isSubordinate@?$PxSerializerDefaultAdapter@VNpAggregate@physx@@@physx@@UEBA_NXZ 0000000180021970 f i NpSerializerAdapter.obj
 0001:00020970       ?isSubordinate@?$PxSerializerDefaultAdapter@VNpArticulation@physx@@@physx@@UEBA_NXZ 0000000180021970 f i NpSerializerAdapter.obj
 0001:00020970       ?isSubordinate@?$PxSerializerDefaultAdapter@VNpArticulationJointReducedCoordinate@physx@@@physx@@UEBA_NXZ 0000000180021970 f i NpSerializerAdapter.obj
 0001:00020970       ?isSubordinate@?$PxSerializerDefaultAdapter@VNpArticulationReducedCoordinate@physx@@@physx@@UEBA_NXZ 0000000180021970 f i NpSerializerAdapter.obj
 0001:00020970       ?isSubordinate@?$PxSerializerDefaultAdapter@VNpMaterial@physx@@@physx@@UEBA_NXZ 0000000180021970 f i NpSerializerAdapter.obj
 0001:00020970       ?isSubordinate@?$PxSerializerDefaultAdapter@VNpRigidDynamic@physx@@@physx@@UEBA_NXZ 0000000180021970 f i NpSerializerAdapter.obj
 0001:00020970       ?isSubordinate@?$PxSerializerDefaultAdapter@VNpRigidStatic@physx@@@physx@@UEBA_NXZ 0000000180021970 f i NpSerializerAdapter.obj
 0001:00020970       ?isSubordinate@?$PxSerializerDefaultAdapter@VNpShape@physx@@@physx@@UEBA_NXZ 0000000180021970 f i NpSerializerAdapter.obj
 0001:00020970       ?isSubordinate@?$PxSerializerDefaultAdapter@VPruningStructure@Sq@physx@@@physx@@UEBA_NXZ 0000000180021970 f i NpSerializerAdapter.obj
 0001:00020970       ?isSubordinate@?$PxSerializerDefaultAdapter@VRTreeTriangleMesh@Gu@physx@@@physx@@UEBA_NXZ 0000000180021970 f i NpSerializerAdapter.obj
 0001:00020970       ?processTouches@?$PxHitBuffer@UPxRaycastHit@physx@@@physx@@MEAA_NPEBUPxRaycastHit@2@I@Z 0000000180021970 f i NpBatchQuery.obj
 0001:00020970       ?processTouches@?$PxHitBuffer@UPxSweepHit@physx@@@physx@@MEAA_NPEBUPxSweepHit@2@I@Z 0000000180021970 f i NpBatchQuery.obj
 0001:00020970       ?removeRegion@BroadPhaseBase@Bp@physx@@UEAA_NI@Z 0000000180021970 f i LowLevelAABB_static_64:BpBroadPhaseSap.obj
 0001:00020970       ?storeStaticConstraint@ArticulationV@Dy@physx@@UEAA_NAEBUPxSolverConstraintDesc@3@@Z 0000000180021970 f i LowLevelDynamics_static_64:DyArticulation.obj
 0001:00020970       ?update@PersistentPairs@Bp@physx@@UEAA_NAEAVAABBManager@23@PEAUBpCacheData@23@@Z 0000000180021970 f i LowLevelAABB_static_64:BpAABBManager.obj
 0001:00020970       ?willStoreStaticConstraint@ArticulationV@Dy@physx@@UEAA_NXZ 0000000180021970 f i LowLevelDynamics_static_64:DyArticulation.obj
 0001:00020980       ?processTouches@?$PxOverflowBuffer@UPxOverlapHit@physx@@@@UEAA_NPEBUPxOverlapHit@physx@@I@Z 0000000180021980 f i NpBatchQuery.obj
 0001:000209b0       ?processTouches@?$PxOverflowBuffer@UPxRaycastHit@physx@@@@UEAA_NPEBUPxRaycastHit@physx@@I@Z 00000001800219b0 f i NpBatchQuery.obj
 0001:000209b0       ?processTouches@?$PxOverflowBuffer@UPxSweepHit@physx@@@@UEAA_NPEBUPxSweepHit@physx@@I@Z 00000001800219b0 f i NpBatchQuery.obj
 0001:000209f0       ?raycast@NpBatchQuery@physx@@UEAAXAEBVPxVec3@2@0MGV?$PxFlags@W4Enum@PxHitFlag@physx@@G@2@AEBUPxQueryFilterData@2@PEAXPEBUPxQueryCache@2@@Z 00000001800219f0 f   NpBatchQuery.obj
 0001:00020d50       ?recreate@?$Array@DVNamedAllocator@shdfnd@physx@@@shdfnd@physx@@IEAAXI@Z 0000000180021d50 f i NpBatchQuery.obj
 0001:00020d50       ?recreate@?$Array@EVNamedAllocator@shdfnd@physx@@@shdfnd@physx@@IEAAXI@Z 0000000180021d50 f i PvdMetaDataPvdBinding.obj
 0001:00020df0       ?release@NpBatchQuery@physx@@UEAAXXZ 0000000180021df0 f   NpBatchQuery.obj
 0001:00020e50       ?resizeUninitialized@?$Array@DVNamedAllocator@shdfnd@physx@@@shdfnd@physx@@QEAAXI@Z 0000000180021e50 f i NpBatchQuery.obj
 0001:00020e90       ?setUserMemory@NpBatchQuery@physx@@UEAAXAEBUPxBatchQueryMemory@2@@Z 0000000180021e90 f   NpBatchQuery.obj
 0001:00020f30       ?sweep@NpBatchQuery@physx@@UEAAXAEBVPxGeometry@2@AEBVPxTransform@2@AEBVPxVec3@2@MGV?$PxFlags@W4Enum@PxHitFlag@physx@@G@2@AEBUPxQueryFilterData@2@PEAXPEBUPxQueryCache@2@M@Z 0000000180021f30 f   NpBatchQuery.obj
 0001:00021490       ?writeBatchHeader@NpBatchQuery@physx@@AEAAXAEBUBatchStreamHeader@2@@Z 0000000180022490 f   NpBatchQuery.obj
 0001:000218d0       ??0NpConstraint@physx@@QEAA@PEAVPxRigidActor@1@0AEAVPxConstraintConnector@1@AEBUPxConstraintShaderTable@1@I@Z 00000001800228d0 f   NpConstraint.obj
 0001:00021b50       ??_ENpConstraint@physx@@UEAAPEAXI@Z 0000000180022b50 f i NpConstraint.obj
 0001:00021b50       ??_GNpConstraint@physx@@UEAAPEAXI@Z 0000000180022b50 f i NpConstraint.obj
 0001:00021bf0       ?NpConstraintGetRigidObjectsFromScb@physx@@YAXAEBVConstraint@Scb@1@AEAPEAVRigidObject@31@1@Z 0000000180022bf0 f   NpConstraint.obj
 0001:00021c60       ?actorDeleted@NpConstraint@physx@@QEAAXPEAVPxRigidActor@2@@Z 0000000180022c60 f   NpConstraint.obj
 0001:00021c80       ?comShift@NpConstraint@physx@@QEAAXPEAVPxRigidActor@2@@Z 0000000180022c80 f   NpConstraint.obj
 0001:00021cd0       ?createObject@NpConstraint@physx@@SAPEAV12@AEAPEAEAEAVPxDeserializationContext@2@@Z 0000000180022cd0 f   NpConstraint.obj
 0001:00021d70       ?getActors@NpConstraint@physx@@UEBAXAEAPEAVPxRigidActor@2@0@Z 0000000180022d70 f   NpConstraint.obj
 0001:00021e00       ?getBreakForce@NpConstraint@physx@@UEBAXAEAM0@Z 0000000180022e00 f   NpConstraint.obj
 0001:00021ee0       ?getConcreteTypeName@PxConstraint@physx@@UEBAPEBDXZ 0000000180022ee0 f i NpConstraint.obj
 0001:00021ef0       ?getExternalReference@NpConstraint@physx@@UEAAPEAXAEAI@Z 0000000180022ef0 f   NpConstraint.obj
 0001:00021f70       ?getFlags@NpConstraint@physx@@UEBA?AV?$PxFlags@W4Enum@PxConstraintFlag@physx@@G@2@XZ 0000000180022f70 f   NpConstraint.obj
 0001:00022010       ?getForce@NpConstraint@physx@@UEBAXAEAVPxVec3@2@0@Z 0000000180023010 f   NpConstraint.obj
 0001:000220c0       ?getMinResponseThreshold@NpConstraint@physx@@UEBAMXZ 00000001800230c0 f   NpConstraint.obj
 0001:00022170       ?getNpScene@NpConstraint@physx@@QEBAPEAVNpScene@2@XZ 0000000180023170 f   NpConstraint.obj
 0001:00022170       ?getScene@NpConstraint@physx@@UEBAPEAVPxScene@2@XZ 0000000180023170 f   NpConstraint.obj
 0001:000221a0       ?getSceneFromActors@NpConstraint@physx@@QEBAPEAVNpScene@2@XZ 00000001800231a0 f   NpConstraint.obj
 0001:00022280       ?isKindOf@PxConstraint@physx@@MEBA_NPEBD@Z 0000000180023280 f i NpConstraint.obj
 0001:000222d0       ?isValid@NpConstraint@physx@@UEBA_NXZ 00000001800232d0 f   NpConstraint.obj
 0001:00022390       ?markDirty@NpConstraint@physx@@UEAAXXZ 0000000180023390 f   NpConstraint.obj
 0001:000223a0       ?release@NpConstraint@physx@@UEAAXXZ 00000001800233a0 f   NpConstraint.obj
 0001:000224d0       ?setActors@NpConstraint@physx@@UEAAXPEAVPxRigidActor@2@0@Z 00000001800234d0 f   NpConstraint.obj
 0001:00022890       ?setBodies@Constraint@Scb@physx@@QEAAXPEAVRigidObject@23@0@Z 0000000180023890 f i NpConstraint.obj
 0001:000229b0       ?setBreakForce@NpConstraint@physx@@UEAAXMM@Z 00000001800239b0 f   NpConstraint.obj
 0001:00022b10       ?setConstraintFunctions@NpConstraint@physx@@UEAAXAEAVPxConstraintConnector@2@AEBUPxConstraintShaderTable@2@@Z 0000000180023b10 f   NpConstraint.obj
 0001:00022d20       ?setFlag@NpConstraint@physx@@UEAAXW4Enum@PxConstraintFlag@2@_N@Z 0000000180023d20 f   NpConstraint.obj
 0001:00022ed0       ?setFlags@Constraint@Scb@physx@@QEAAXV?$PxFlags@W4Enum@PxConstraintFlag@physx@@G@3@@Z 0000000180023ed0 f i NpConstraint.obj
 0001:00022f90       ?setFlags@NpConstraint@physx@@UEAAXV?$PxFlags@W4Enum@PxConstraintFlag@physx@@G@2@@Z 0000000180023f90 f   NpConstraint.obj
 0001:000230b0       ?setMinResponseThreshold@NpConstraint@physx@@UEAAXM@Z 00000001800240b0 f   NpConstraint.obj
 0001:000232b0       ?updateConstants@NpConstraint@physx@@QEAAXXZ 00000001800242b0 f   NpConstraint.obj
 0001:000238a0       ??$sort@PEAXU?$Less@PEAX@shdfnd@physx@@VNamedAllocator@23@@shdfnd@physx@@YAXPEAPEAXIAEBU?$Less@PEAX@01@AEBVNamedAllocator@01@I@Z 00000001800248a0 f i NpFactory.obj
 0001:00023c60       ??0?$InlineArray@PEAX$0EA@VNamedAllocator@shdfnd@physx@@@shdfnd@physx@@QEAA@AEBVNamedAllocator@12@@Z 0000000180024c60 f i NpFactory.obj
 0001:00023d40       ??0?$MutexT@V?$ReflectionAllocator@VMutexImpl@shdfnd@physx@@@shdfnd@physx@@@shdfnd@physx@@QEAA@AEBV?$ReflectionAllocator@VMutexImpl@shdfnd@physx@@@12@@Z 0000000180024d40 f i NpFactory.obj
 0001:00023de0       ??0NpConnectorArray@physx@@QEAA@XZ 0000000180024de0 f i NpFactory.obj
 0001:00023f70       ??0NpFactory@physx@@QEAA@XZ 0000000180024f70 f   NpFactory.obj
 0001:00024b60       ??1?$PoolBase@U?$Block@E$0BAA@@Scene@Sc@physx@@VNamedAllocator@shdfnd@4@@shdfnd@physx@@QEAA@XZ 0000000180025b60 f i NpScene.obj
 0001:00024b60       ??1?$PoolBase@U?$Block@E$0BIA@@Scene@Sc@physx@@VNamedAllocator@shdfnd@4@@shdfnd@physx@@QEAA@XZ 0000000180025b60 f i NpScene.obj
 0001:00024b60       ??1?$PoolBase@U?$Block@E$0IA@@Scene@Sc@physx@@VNamedAllocator@shdfnd@4@@shdfnd@physx@@QEAA@XZ 0000000180025b60 f i NpScene.obj
 0001:00024b60       ??1?$PoolBase@U?$Block@PEAX$07@Scene@Sc@physx@@VNamedAllocator@shdfnd@4@@shdfnd@physx@@QEAA@XZ 0000000180025b60 f i NpScene.obj
 0001:00024b60       ??1?$PoolBase@U?$Block@PEAX$0BA@@Scene@Sc@physx@@VNamedAllocator@shdfnd@4@@shdfnd@physx@@QEAA@XZ 0000000180025b60 f i NpScene.obj
 0001:00024b60       ??1?$PoolBase@U?$Block@PEAX$0CA@@Scene@Sc@physx@@VNamedAllocator@shdfnd@4@@shdfnd@physx@@QEAA@XZ 0000000180025b60 f i NpScene.obj
 0001:00024b60       ??1?$PoolBase@V?$PtrBlock@$03@NpPtrTableStorageManager@physx@@VNamedAllocator@shdfnd@3@@shdfnd@physx@@QEAA@XZ 0000000180025b60 f i NpFactory.obj
 0001:00024b60       ??1?$PoolBase@V?$PtrBlock@$0BA@@NpPtrTableStorageManager@physx@@VNamedAllocator@shdfnd@3@@shdfnd@physx@@QEAA@XZ 0000000180025b60 f i NpFactory.obj
 0001:00024b60       ??1?$PoolBase@V?$PtrBlock@$0EA@@NpPtrTableStorageManager@physx@@VNamedAllocator@shdfnd@3@@shdfnd@physx@@QEAA@XZ 0000000180025b60 f i NpFactory.obj
 0001:00024d00       ??1?$PoolBase@VNpAggregate@physx@@VNamedAllocator@shdfnd@2@@shdfnd@physx@@QEAA@XZ 0000000180025d00 f i NpFactory.obj
 0001:00024d00       ??1?$PoolBase@VNpMaterial@physx@@VNamedAllocator@shdfnd@2@@shdfnd@physx@@QEAA@XZ 0000000180025d00 f i NpFactory.obj
 0001:00024f20       ??1?$PoolBase@VNpArticulation@physx@@VNamedAllocator@shdfnd@2@@shdfnd@physx@@QEAA@XZ 0000000180025f20 f i NpFactory.obj
 0001:00024f20       ??1?$PoolBase@VNpConstraint@physx@@VNamedAllocator@shdfnd@2@@shdfnd@physx@@QEAA@XZ 0000000180025f20 f i NpFactory.obj
 0001:00025160       ??1?$PoolBase@VNpArticulationJoint@physx@@VNamedAllocator@shdfnd@2@@shdfnd@physx@@QEAA@XZ 0000000180026160 f i NpFactory.obj
 0001:00025160       ??1?$PoolBase@VNpArticulationJointReducedCoordinate@physx@@VNamedAllocator@shdfnd@2@@shdfnd@physx@@QEAA@XZ 0000000180026160 f i NpFactory.obj
 0001:000253a0       ??1?$PoolBase@VNpArticulationLink@physx@@VNamedAllocator@shdfnd@2@@shdfnd@physx@@QEAA@XZ 00000001800263a0 f i NpFactory.obj
 0001:000255e0       ??1?$PoolBase@VNpArticulationReducedCoordinate@physx@@VNamedAllocator@shdfnd@2@@shdfnd@physx@@QEAA@XZ 00000001800265e0 f i NpFactory.obj
 0001:00025820       ??1?$PoolBase@VNpConnectorArray@physx@@VNamedAllocator@shdfnd@2@@shdfnd@physx@@QEAA@XZ 0000000180026820 f i NpFactory.obj
 0001:000258d0       ??1?$PoolBase@VNpRigidDynamic@physx@@VNamedAllocator@shdfnd@2@@shdfnd@physx@@QEAA@XZ 00000001800268d0 f i NpFactory.obj
 0001:00025b00       ??1?$PoolBase@VNpRigidStatic@physx@@VNamedAllocator@shdfnd@2@@shdfnd@physx@@QEAA@XZ 0000000180026b00 f i NpFactory.obj
 0001:00025d40       ??1?$PoolBase@VNpShape@physx@@VNamedAllocator@shdfnd@2@@shdfnd@physx@@QEAA@XZ 0000000180026d40 f i NpFactory.obj
 0001:00025f80       ??1NpFactory@physx@@EEAA@XZ 0000000180026f80 f   NpFactory.obj
 0001:000262e0       ??_ENpFactory@physx@@EEAAPEAXI@Z 00000001800272e0 f i NpFactory.obj
 0001:000262e0       ??_GNpFactory@physx@@EEAAPEAXI@Z 00000001800272e0 f i NpFactory.obj
 0001:00026340       ??_ENpPtrTableStorageManager@physx@@UEAAPEAXI@Z 0000000180027340 f i NpFactory.obj
 0001:00026340       ??_GNpPtrTableStorageManager@physx@@UEAAPEAXI@Z 0000000180027340 f i NpFactory.obj
 0001:00026400       ??_EPtrTableStorageManager@Cm@physx@@MEAAPEAXI@Z 0000000180027400 f i NpFactory.obj
 0001:00026400       ??_GPtrTableStorageManager@Cm@physx@@MEAAPEAXI@Z 0000000180027400 f i NpFactory.obj
 0001:00026430       ?NpDestroy@physx@@YAXAEAVBase@Scb@1@@Z 0000000180027430 f   NpFactory.obj
 0001:00026840       ?acquireConnectorArray@NpFactory@physx@@QEAAPEAVNpConnectorArray@2@XZ 0000000180027840 f   NpFactory.obj
 0001:00026970       ?addCollection@NpFactory@physx@@QEAAXAEBVCollection@Cm@2@@Z 0000000180027970 f   NpFactory.obj
 0001:00026c10       ?allocate@?$Array@GV?$InlineAllocator@$07VNamedAllocator@shdfnd@physx@@@shdfnd@physx@@@shdfnd@physx@@IEAAPEAGI@Z 0000000180027c10 f i NpFactory.obj
 0001:00026c90       ?allocate@?$Array@PEAVPxActor@physx@@V?$ReflectionAllocator@PEAVPxActor@physx@@@shdfnd@2@@shdfnd@physx@@IEAAPEAPEAVPxActor@3@I@Z 0000000180027c90 f i NpFactory.obj
 0001:00026d60       ?allocate@?$Array@PEAVPxAggregate@physx@@V?$ReflectionAllocator@PEAVPxAggregate@physx@@@shdfnd@2@@shdfnd@physx@@IEAAPEAPEAVPxAggregate@3@I@Z 0000000180027d60 f i NpFactory.obj
 0001:00026e30       ?allocate@?$Array@PEAVPxArticulationBase@physx@@V?$ReflectionAllocator@PEAVPxArticulationBase@physx@@@shdfnd@2@@shdfnd@physx@@IEAAPEAPEAVPxArticulationBase@3@I@Z 0000000180027e30 f i NpFactory.obj
 0001:00026f00       ?allocate@?$Array@PEAVPxConstraint@physx@@V?$ReflectionAllocator@PEAVPxConstraint@physx@@@shdfnd@2@@shdfnd@physx@@IEAAPEAPEAVPxConstraint@3@I@Z 0000000180027f00 f i NpFactory.obj
 0001:00026fd0       ?allocate@?$Array@PEAXV?$InlineAllocator@$0CAA@VNamedAllocator@shdfnd@physx@@@shdfnd@physx@@@shdfnd@physx@@IEAAPEAPEAXI@Z 0000000180027fd0 f i NpFactory.obj
 0001:00027060       ?allocate@NpPtrTableStorageManager@physx@@UEAAPEAPEAXI@Z 0000000180028060 f i NpFactory.obj
 0001:00027440       ?canReuse@NpPtrTableStorageManager@physx@@UEAA_NII@Z 0000000180028440 f i NpFactory.obj
 0001:00027490       ?create@?$HashBase@PEAVPxActor@physx@@PEAV12@U?$Hash@PEAVPxActor@physx@@@shdfnd@2@UGetKey@?$HashSetBase@PEAVPxActor@physx@@U?$Hash@PEAVPxActor@physx@@@shdfnd@2@VNonTrackingAllocator@42@$0A@@internal@42@VNonTrackingAllocator@42@$0A@@internal@shdfnd@physx@@QEAAPEAPEAVPxActor@4@AEBQEAV54@AEA_N@Z 0000000180028490 f i NpFactory.obj
 0001:00027490       ?create@?$HashBase@PEAVPxAggregate@physx@@PEAV12@U?$Hash@PEAVPxAggregate@physx@@@shdfnd@2@UGetKey@?$HashSetBase@PEAVPxAggregate@physx@@U?$Hash@PEAVPxAggregate@physx@@@shdfnd@2@VNonTrackingAllocator@42@$0A@@internal@42@VNonTrackingAllocator@42@$0A@@internal@shdfnd@physx@@QEAAPEAPEAVPxAggregate@4@AEBQEAV54@AEA_N@Z 0000000180028490 f i NpFactory.obj
 0001:00027490       ?create@?$HashBase@PEAVPxArticulationBase@physx@@PEAV12@U?$Hash@PEAVPxArticulationBase@physx@@@shdfnd@2@UGetKey@?$HashSetBase@PEAVPxArticulationBase@physx@@U?$Hash@PEAVPxArticulationBase@physx@@@shdfnd@2@VNonTrackingAllocator@42@$0A@@internal@42@VNonTrackingAllocator@42@$0A@@internal@shdfnd@physx@@QEAAPEAPEAVPxArticulationBase@4@AEBQEAV54@AEA_N@Z 0000000180028490 f i NpFactory.obj
 0001:00027490       ?create@?$HashBase@PEAVPxConstraint@physx@@PEAV12@U?$Hash@PEAVPxConstraint@physx@@@shdfnd@2@UGetKey@?$HashSetBase@PEAVPxConstraint@physx@@U?$Hash@PEAVPxConstraint@physx@@@shdfnd@2@VNonTrackingAllocator@42@$0A@@internal@42@VNonTrackingAllocator@42@$0A@@internal@shdfnd@physx@@QEAAPEAPEAVPxConstraint@4@AEBQEAV54@AEA_N@Z 0000000180028490 f i NpFactory.obj
 0001:00027490       ?create@?$HashBase@PEBVPxBase@physx@@PEBV12@U?$Hash@PEBVPxBase@physx@@@shdfnd@2@UGetKey@?$HashSetBase@PEBVPxBase@physx@@U?$Hash@PEBVPxBase@physx@@@shdfnd@2@VNonTrackingAllocator@42@$0A@@internal@42@VNonTrackingAllocator@42@$0A@@internal@shdfnd@physx@@QEAAPEAPEBVPxBase@4@AEBQEBV54@AEA_N@Z 0000000180028490 f i NpPhysics.obj
 0001:00027490       ?create@?$HashBase@PEBVPxRigidActor@physx@@PEBV12@U?$Hash@PEBVPxRigidActor@physx@@@shdfnd@2@UGetKey@?$HashSetBase@PEBVPxRigidActor@physx@@U?$Hash@PEBVPxRigidActor@physx@@@shdfnd@2@VNonTrackingAllocator@42@$0A@@internal@42@VNonTrackingAllocator@42@$0A@@internal@shdfnd@physx@@QEAAPEAPEBVPxRigidActor@4@AEBQEBV54@AEA_N@Z 0000000180028490 f i PvdMetaDataPvdBinding.obj
 0001:00027630       ?createAggregate@NpFactory@physx@@QEAAPEAVPxAggregate@2@I_N@Z 0000000180028630 f   NpFactory.obj
 0001:00027960       ?createArticulation@NpFactory@physx@@QEAAPEAVPxArticulation@2@XZ 0000000180028960 f   NpFactory.obj
 0001:00027f50       ?createArticulationLink@NpFactory@physx@@QEAAPEAVPxArticulationLink@2@AEAVPxArticulationBase@2@PEAVNpArticulationLink@2@AEBVPxTransform@2@@Z 0000000180028f50 f   NpFactory.obj
 0001:00028150       ?createArticulationRC@NpFactory@physx@@QEAAPEAVPxArticulationReducedCoordinate@2@XZ 0000000180029150 f   NpFactory.obj
 0001:000281f0       ?createConstraint@NpFactory@physx@@QEAAPEAVPxConstraint@2@PEAVPxRigidActor@2@0AEAVPxConstraintConnector@2@AEBUPxConstraintShaderTable@2@I@Z 00000001800291f0 f   NpFactory.obj
 0001:00028460       ?createInstance@NpFactory@physx@@SAXXZ 0000000180029460 f   NpFactory.obj
 0001:000284f0       ?createMaterial@NpFactory@physx@@QEAAPEAVPxMaterial@2@MMM@Z 00000001800294f0 f   NpFactory.obj
 0001:000286f0       ?createNpArticulationJoint@NpFactory@physx@@QEAAPEAVNpArticulationJoint@2@AEAVNpArticulationLink@2@AEBVPxTransform@2@01@Z 00000001800296f0 f   NpFactory.obj
 0001:00028890       ?createNpArticulationJointRC@NpFactory@physx@@QEAAPEAVNpArticulationJointReducedCoordinate@2@AEAVNpArticulationLink@2@AEBVPxTransform@2@01@Z 0000000180029890 f   NpFactory.obj
 0001:00028a30       ?createRigidDynamic@NpFactory@physx@@QEAAPEAVPxRigidDynamic@2@AEBVPxTransform@2@@Z 0000000180029a30 f   NpFactory.obj
 0001:00028c30       ?createRigidStatic@NpFactory@physx@@QEAAPEAVPxRigidStatic@2@AEBVPxTransform@2@@Z 0000000180029c30 f   NpFactory.obj
 0001:00028e20       ?createShape@NpFactory@physx@@QEAAPEAVNpShape@2@AEBVPxGeometry@2@V?$PxFlags@W4Enum@PxShapeFlag@physx@@E@2@PEBQEAVPxMaterial@2@G_N@Z 0000000180029e20 f   NpFactory.obj
 0001:00029350       ?deallocate@NpPtrTableStorageManager@physx@@UEAAXPEAPEAXI@Z 000000018002a350 f i NpFactory.obj
 0001:00029400       ?destroyInstance@NpFactory@physx@@SAXXZ 000000018002a400 f   NpFactory.obj
 0001:00029490       ?disposeElements@?$PoolBase@VNpConnectorArray@physx@@VNamedAllocator@shdfnd@2@@shdfnd@physx@@IEAAXXZ 000000018002a490 f i NpFactory.obj
 0001:00029670       ?getNbShapes@NpFactory@physx@@QEBAIXZ 000000018002a670 f   NpFactory.obj
 0001:00029680       ?getShapes@NpFactory@physx@@QEBAIPEAPEAVPxShape@2@II@Z 000000018002a680 f   NpFactory.obj
 0001:000296e0       ?growAndPushBack@?$Array@PEAVPxActor@physx@@V?$ReflectionAllocator@PEAVPxActor@physx@@@shdfnd@2@@shdfnd@physx@@IEAAAEAPEAVPxActor@3@AEBQEAV43@@Z 000000018002a6e0 f i NpFactory.obj
 0001:000297a0       ?growAndPushBack@?$Array@PEAVPxAggregate@physx@@V?$ReflectionAllocator@PEAVPxAggregate@physx@@@shdfnd@2@@shdfnd@physx@@IEAAAEAPEAVPxAggregate@3@AEBQEAV43@@Z 000000018002a7a0 f i NpFactory.obj
 0001:00029860       ?growAndPushBack@?$Array@PEAVPxArticulationBase@physx@@V?$ReflectionAllocator@PEAVPxArticulationBase@physx@@@shdfnd@2@@shdfnd@physx@@IEAAAEAPEAVPxArticulationBase@3@AEBQEAV43@@Z 000000018002a860 f i NpFactory.obj
 0001:00029920       ?growAndPushBack@?$Array@PEAVPxConstraint@physx@@V?$ReflectionAllocator@PEAVPxConstraint@physx@@@shdfnd@2@@shdfnd@physx@@IEAAAEAPEAVPxConstraint@3@AEBQEAV43@@Z 000000018002a920 f i NpFactory.obj
 0001:000299e0       ?growAndPushBack@?$Array@PEAXV?$InlineAllocator@$0CAA@VNamedAllocator@shdfnd@physx@@@shdfnd@physx@@@shdfnd@physx@@IEAAAEAPEAXAEBQEAX@Z 000000018002a9e0 f i NpFactory.obj
 0001:00029ac0       ?isValid@PxBoxGeometry@physx@@QEBA_NXZ 000000018002aac0 f i NpFactory.obj
 0001:00029b40       ?isValid@PxCapsuleGeometry@physx@@QEBA_NXZ 000000018002ab40 f i NpFactory.obj
 0001:00029ba0       ?isValid@PxConvexMeshGeometry@physx@@QEBA_NXZ 000000018002aba0 f i NpFactory.obj
 0001:00029c50       ?isValid@PxHeightFieldGeometry@physx@@QEBA_NXZ 000000018002ac50 f i NpFactory.obj
 0001:00029ce0       ?isValid@PxSphereGeometry@physx@@QEBA_NXZ 000000018002ace0 f i NpFactory.obj
 0001:00029d20       ?isValid@PxTriangleMeshGeometry@physx@@QEBA_NXZ 000000018002ad20 f i NpFactory.obj
 0001:00029de0       ?onActorRelease@NpFactory@physx@@QEAAXPEAVPxActor@2@@Z 000000018002ade0 f   NpFactory.obj
 0001:00029f00       ?onAggregateRelease@NpFactory@physx@@QEAAXPEAVPxAggregate@2@@Z 000000018002af00 f   NpFactory.obj
 0001:0002a020       ?onArticulationRelease@NpFactory@physx@@QEAAXPEAVPxArticulationBase@2@@Z 000000018002b020 f   NpFactory.obj
 0001:0002a140       ?onConstraintRelease@NpFactory@physx@@QEAAXPEAVPxConstraint@2@@Z 000000018002b140 f   NpFactory.obj
 0001:0002a260       ?onShapeRelease@NpFactory@physx@@QEAAXPEAVPxShape@2@@Z 000000018002b260 f   NpFactory.obj
 0001:0002a2a0       ?recreate@?$Array@GV?$InlineAllocator@$07VNamedAllocator@shdfnd@physx@@@shdfnd@physx@@@shdfnd@physx@@IEAAXI@Z 000000018002b2a0 f i NpFactory.obj
 0001:0002a320       ?recreate@?$Array@PEAVPxActor@physx@@V?$ReflectionAllocator@PEAVPxActor@physx@@@shdfnd@2@@shdfnd@physx@@IEAAXI@Z 000000018002b320 f i NpFactory.obj
 0001:0002a3c0       ?recreate@?$Array@PEAVPxAggregate@physx@@V?$ReflectionAllocator@PEAVPxAggregate@physx@@@shdfnd@2@@shdfnd@physx@@IEAAXI@Z 000000018002b3c0 f i NpFactory.obj
 0001:0002a460       ?recreate@?$Array@PEAVPxArticulationBase@physx@@V?$ReflectionAllocator@PEAVPxArticulationBase@physx@@@shdfnd@2@@shdfnd@physx@@IEAAXI@Z 000000018002b460 f i NpFactory.obj
 0001:0002a500       ?recreate@?$Array@PEAVPxConstraint@physx@@V?$ReflectionAllocator@PEAVPxConstraint@physx@@@shdfnd@2@@shdfnd@physx@@IEAAXI@Z 000000018002b500 f i NpFactory.obj
 0001:0002a5a0       ?registerArticulationRCs@NpFactory@physx@@SAXXZ 000000018002b5a0 f   NpFactory.obj
 0001:0002a5c0       ?registerArticulations@NpFactory@physx@@SAXXZ 000000018002b5c0 f   NpFactory.obj
 0001:0002a5e0       ?releaseArticulationJointRCToPool@NpFactory@physx@@QEAAXAEAVNpArticulationJointReducedCoordinate@2@@Z 000000018002b5e0 f   NpFactory.obj
 0001:0002a640       ?releaseArticulationJointToPool@NpFactory@physx@@QEAAXAEAVNpArticulationJoint@2@@Z 000000018002b640 f   NpFactory.obj
 0001:0002a6a0       ?releaseConnectorArray@NpFactory@physx@@QEAAXPEAVNpConnectorArray@2@@Z 000000018002b6a0 f   NpFactory.obj
 0001:0002a720       ?releaseMaterialToPool@NpFactory@physx@@QEAAXAEAVNpMaterial@2@@Z 000000018002b720 f   NpFactory.obj
 0001:0002a780       ?reserveInternal@?$HashBase@PEAVPxActor@physx@@PEAV12@U?$Hash@PEAVPxActor@physx@@@shdfnd@2@UGetKey@?$HashSetBase@PEAVPxActor@physx@@U?$Hash@PEAVPxActor@physx@@@shdfnd@2@VNonTrackingAllocator@42@$0A@@internal@42@VNonTrackingAllocator@42@$0A@@internal@shdfnd@physx@@AEAAXI@Z 000000018002b780 f i NpFactory.obj
 0001:0002a780       ?reserveInternal@?$HashBase@PEAVPxAggregate@physx@@PEAV12@U?$Hash@PEAVPxAggregate@physx@@@shdfnd@2@UGetKey@?$HashSetBase@PEAVPxAggregate@physx@@U?$Hash@PEAVPxAggregate@physx@@@shdfnd@2@VNonTrackingAllocator@42@$0A@@internal@42@VNonTrackingAllocator@42@$0A@@internal@shdfnd@physx@@AEAAXI@Z 000000018002b780 f i NpFactory.obj
 0001:0002a780       ?reserveInternal@?$HashBase@PEAVPxArticulationBase@physx@@PEAV12@U?$Hash@PEAVPxArticulationBase@physx@@@shdfnd@2@UGetKey@?$HashSetBase@PEAVPxArticulationBase@physx@@U?$Hash@PEAVPxArticulationBase@physx@@@shdfnd@2@VNonTrackingAllocator@42@$0A@@internal@42@VNonTrackingAllocator@42@$0A@@internal@shdfnd@physx@@AEAAXI@Z 000000018002b780 f i NpFactory.obj
 0001:0002a780       ?reserveInternal@?$HashBase@PEAVPxConstraint@physx@@PEAV12@U?$Hash@PEAVPxConstraint@physx@@@shdfnd@2@UGetKey@?$HashSetBase@PEAVPxConstraint@physx@@U?$Hash@PEAVPxConstraint@physx@@@shdfnd@2@VNonTrackingAllocator@42@$0A@@internal@42@VNonTrackingAllocator@42@$0A@@internal@shdfnd@physx@@AEAAXI@Z 000000018002b780 f i NpFactory.obj
 0001:0002a780       ?reserveInternal@?$HashBase@PEBVPxBase@physx@@PEBV12@U?$Hash@PEBVPxBase@physx@@@shdfnd@2@UGetKey@?$HashSetBase@PEBVPxBase@physx@@U?$Hash@PEBVPxBase@physx@@@shdfnd@2@VNonTrackingAllocator@42@$0A@@internal@42@VNonTrackingAllocator@42@$0A@@internal@shdfnd@physx@@AEAAXI@Z 000000018002b780 f i NpPhysics.obj
 0001:0002a780       ?reserveInternal@?$HashBase@PEBVPxRigidActor@physx@@PEBV12@U?$Hash@PEBVPxRigidActor@physx@@@shdfnd@2@UGetKey@?$HashSetBase@PEBVPxRigidActor@physx@@U?$Hash@PEBVPxRigidActor@physx@@@shdfnd@2@VNonTrackingAllocator@42@$0A@@internal@42@VNonTrackingAllocator@42@$0A@@internal@shdfnd@physx@@AEAAXI@Z 000000018002b780 f i PvdMetaDataPvdBinding.obj
 0001:0002ab70       ?resize@?$Array@GV?$InlineAllocator@$07VNamedAllocator@shdfnd@physx@@@shdfnd@physx@@@shdfnd@physx@@QEAAXIAEBG@Z 000000018002bb70 f i NpFactory.obj
 0001:0002ac30       ?setNpFactoryListener@NpFactory@physx@@QEAAXAEAVNpFactoryListener@2@@Z 000000018002bc30 f   NpFactory.obj
 0001:0002ac40       ??0NpMaterial@physx@@QEAA@AEBVMaterialCore@Sc@1@@Z 000000018002bc40 f   NpMaterial.obj
 0001:0002acc8       ??_ENpMaterial@physx@@WBI@EAAPEAXI@Z 000000018002bcc8 f i NpMaterial.obj
 0001:0002ace0       ??_ENpMaterial@physx@@UEAAPEAXI@Z 000000018002bce0 f i NpMaterial.obj
 0001:0002ace0       ??_GNpMaterial@physx@@UEAAPEAXI@Z 000000018002bce0 f i NpMaterial.obj
 0001:0002ad70       ??_ERefCountable@Cm@physx@@UEAAPEAXI@Z 000000018002bd70 f i NpMaterial.obj
 0001:0002ad70       ??_GRefCountable@Cm@physx@@UEAAPEAXI@Z 000000018002bd70 f i NpMaterial.obj
 0001:0002ada0       ?acquireReference@NpMaterial@physx@@UEAAXXZ 000000018002bda0 f   NpMaterial.obj
 0001:0002ada0       ?acquireReference@NpShape@physx@@UEAAXXZ 000000018002bda0 f   NpShape.obj
 0001:0002adb0       ?createObject@NpMaterial@physx@@SAPEAV12@AEAPEAEAEAVPxDeserializationContext@2@@Z 000000018002bdb0 f   NpMaterial.obj
 0001:0002ae10       ?getConcreteTypeName@PxMaterial@physx@@UEBAPEBDXZ 000000018002be10 f i NpMaterial.obj
 0001:0002ae20       ?getDynamicFriction@NpMaterial@physx@@UEBAMXZ 000000018002be20 f   NpMaterial.obj
 0001:0002ae30       ?getFlags@NpMaterial@physx@@UEBA?AV?$PxFlags@W4Enum@PxMaterialFlag@physx@@G@2@XZ 000000018002be30 f   NpMaterial.obj
 0001:0002ae40       ?getFrictionCombineMode@NpMaterial@physx@@UEBA?AW4Enum@PxCombineMode@2@XZ 000000018002be40 f   NpMaterial.obj
 0001:0002ae50       ?getNbLines@RenderBuffer@Cm@physx@@UEBAIXZ 000000018002be50 f   NpScene.obj
 0001:0002ae50       ?getReference@PxLightCpuTask@physx@@UEBAHXZ 000000018002be50 f   NpScene.obj
 0001:0002ae50       ?getReferenceCount@NpMaterial@physx@@UEBAIXZ 000000018002be50 f   NpMaterial.obj
 0001:0002ae50       ?getReferenceCount@NpShape@physx@@UEBAIXZ 000000018002be50 f   NpShape.obj
 0001:0002ae60       ?getRestitution@NpMaterial@physx@@UEBAMXZ 000000018002be60 f   NpMaterial.obj
 0001:0002ae70       ?getRestitutionCombineMode@NpMaterial@physx@@UEBA?AW4Enum@PxCombineMode@2@XZ 000000018002be70 f   NpMaterial.obj
 0001:0002ae80       ?getStaticFriction@NpMaterial@physx@@UEBAMXZ 000000018002be80 f   NpMaterial.obj
 0001:0002ae90       ?isKindOf@PxMaterial@physx@@MEBA_NPEBD@Z 000000018002be90 f i NpMaterial.obj
 0001:0002aee0       ?onRefCountZero@NpMaterial@physx@@UEAAXXZ 000000018002bee0 f   NpMaterial.obj
 0001:0002af40       ?destroy@BroadPhaseABP@Bp@physx@@UEAAXXZ 000000018002bf40 f i LowLevelAABB_static_64:BpBroadPhaseABP.obj
 0001:0002af40       ?destroy@BroadPhaseMBP@Bp@physx@@UEAAXXZ 000000018002bf40 f i LowLevelAABB_static_64:BpBroadPhaseMBP.obj
 0001:0002af40       ?onRefCountZero@RefCountable@Cm@physx@@UEAAXXZ 000000018002bf40 f i NpMaterial.obj
 0001:0002af60       ?release@NpMaterial@physx@@UEAAXXZ 000000018002bf60 f   NpMaterial.obj
 0001:0002af60       ?releaseInternal@NpShape@physx@@QEAAXXZ 000000018002bf60 f   NpShape.obj
 0001:0002af90       ?resolveReferences@NpMaterial@physx@@UEAAXAEAVPxDeserializationContext@2@@Z 000000018002bf90 f   NpMaterial.obj
 0001:0002afb0       ?setDynamicFriction@NpMaterial@physx@@UEAAXM@Z 000000018002bfb0 f   NpMaterial.obj
 0001:0002b050       ?setFlag@NpMaterial@physx@@UEAAXW4Enum@PxMaterialFlag@2@_N@Z 000000018002c050 f   NpMaterial.obj
 0001:0002b080       ?setFlags@NpMaterial@physx@@UEAAXV?$PxFlags@W4Enum@PxMaterialFlag@physx@@G@2@@Z 000000018002c080 f   NpMaterial.obj
 0001:0002b0a0       ?setFrictionCombineMode@NpMaterial@physx@@UEAAXW4Enum@PxCombineMode@2@@Z 000000018002c0a0 f   NpMaterial.obj
 0001:0002b0c0       ?setRestitution@NpMaterial@physx@@UEAAXM@Z 000000018002c0c0 f   NpMaterial.obj
 0001:0002b1f0       ?setRestitutionCombineMode@NpMaterial@physx@@UEAAXW4Enum@PxCombineMode@2@@Z 000000018002c1f0 f   NpMaterial.obj
 0001:0002b210       ?setStaticFriction@NpMaterial@physx@@UEAAXM@Z 000000018002c210 f   NpMaterial.obj
 0001:0002b2b0       ?getBinaryMetaData@NpArticulationLink@physx@@SAXAEAVPxOutputStream@2@@Z 000000018002c2b0 f   NpMetaData.obj
 0001:0002b690       ?getBinaryMetaData@NpArticulationLinkArray@physx@@SAXAEAVPxOutputStream@2@@Z 000000018002c690 f   NpMetaData.obj
 0001:0002b8c0       ?getBinaryMetaData@NpArticulationReducedCoordinate@physx@@SAXAEAVPxOutputStream@2@@Z 000000018002c8c0 f   NpMetaData.obj
 0001:0002bb20       ?getBinaryMetaData@NpConnectorArray@physx@@SAXAEAVPxOutputStream@2@@Z 000000018002cb20 f   NpMetaData.obj
 0001:0002bd50       ?getBinaryMetaData@NpRigidDynamic@physx@@SAXAEAVPxOutputStream@2@@Z 000000018002cd50 f   NpMetaData.obj
 0001:0002bfa0       ?getBinaryMetaData@NpRigidStatic@physx@@SAXAEAVPxOutputStream@2@@Z 000000018002cfa0 f   NpMetaData.obj
 0001:0002c1f0       ?getBinaryMetaData@NpShape@physx@@SAXAEAVPxOutputStream@2@@Z 000000018002d1f0 f   NpMetaData.obj
 0001:0002d1e0       PxGetPhysicsBinaryMetaData 000000018002e1e0 f   NpMetaData.obj
 0001:0002dfc0       ??0NpPhysics@physx@@AEAA@AEBVPxTolerancesScale@1@AEBUPxvOffsetTable@1@_NPEAVPsPvd@pvdsdk@1@@Z 000000018002efc0 f   NpPhysics.obj
 0001:0002e340       ??1NpPhysics@physx@@EEAA@XZ 000000018002f340 f   NpPhysics.obj
 0001:0002e6d0       ??_EEndPropertyMessageGroup@pvdsdk@physx@@UEAAPEAXI@Z 000000018002f6d0 f i PhysXPvdSDK_static_64:PxPvdDataStream.obj
 0001:0002e6d0       ??_EEndSetPropertyValue@pvdsdk@physx@@UEAAPEAXI@Z 000000018002f6d0 f i PhysXPvdSDK_static_64:PxPvdDataStream.obj
 0001:0002e6d0       ??_EEventSerializeable@pvdsdk@physx@@MEAAPEAXI@Z 000000018002f6d0 f i PhysXPvdSDK_static_64:PxPvdDataStream.obj
 0001:0002e6d0       ??_EGuMeshFactoryListener@physx@@MEAAPEAXI@Z 000000018002f6d0 f i NpPhysics.obj
 0001:0002e6d0       ??_EMeshDeletionListener@NpPhysics@physx@@UEAAPEAXI@Z 000000018002f6d0 f i NpPhysics.obj
 0001:0002e6d0       ??_EPvdVisualizer@Vd@physx@@MEAAPEAXI@Z 000000018002f6d0 f i ScbScenePvdClient.obj
 0001:0002e6d0       ??_EPxErrorCallback@physx@@UEAAPEAXI@Z 000000018002f6d0 f i PvdPhysicsClient.obj
 0001:0002e6d0       ??_EPxProcessPxBaseCallback@physx@@UEAAPEAXI@Z 000000018002f6d0 f i NpSerializerAdapter.obj
 0001:0002e6d0       ??_ERendererEventClient@pvdsdk@physx@@UEAAPEAXI@Z 000000018002f6d0 f i ScbScenePvdClient.obj
 0001:0002e6d0       ??_GEndPropertyMessageGroup@pvdsdk@physx@@UEAAPEAXI@Z 000000018002f6d0 f i PhysXPvdSDK_static_64:PxPvdDataStream.obj
 0001:0002e6d0       ??_GEndSetPropertyValue@pvdsdk@physx@@UEAAPEAXI@Z 000000018002f6d0 f i PhysXPvdSDK_static_64:PxPvdDataStream.obj
 0001:0002e6d0       ??_GEventSerializeable@pvdsdk@physx@@MEAAPEAXI@Z 000000018002f6d0 f i PhysXPvdSDK_static_64:PxPvdDataStream.obj
 0001:0002e6d0       ??_GGuMeshFactoryListener@physx@@MEAAPEAXI@Z 000000018002f6d0 f i NpPhysics.obj
 0001:0002e6d0       ??_GMeshDeletionListener@NpPhysics@physx@@UEAAPEAXI@Z 000000018002f6d0 f i NpPhysics.obj
 0001:0002e6d0       ??_GPvdVisualizer@Vd@physx@@MEAAPEAXI@Z 000000018002f6d0 f i ScbScenePvdClient.obj
 0001:0002e6d0       ??_GPxErrorCallback@physx@@UEAAPEAXI@Z 000000018002f6d0 f i PvdPhysicsClient.obj
 0001:0002e6d0       ??_GPxProcessPxBaseCallback@physx@@UEAAPEAXI@Z 000000018002f6d0 f i NpSerializerAdapter.obj
 0001:0002e6d0       ??_GRendererEventClient@pvdsdk@physx@@UEAAPEAXI@Z 000000018002f6d0 f i ScbScenePvdClient.obj
 0001:0002e700       ??_ENpPhysics@physx@@EEAAPEAXI@Z 000000018002f700 f i NpPhysics.obj
 0001:0002e700       ??_GNpPhysics@physx@@EEAAPEAXI@Z 000000018002f700 f i NpPhysics.obj
 0001:0002e760       ??_ECmEventNameProvider@pvdsdk@physx@@UEAAPEAXI@Z 000000018002f760 f i PhysXPvdSDK_static_64:PxPvdImpl.obj
 0001:0002e760       ??_ENpPhysicsInsertionCallback@physx@@UEAAPEAXI@Z 000000018002f760 f i NpPhysics.obj
 0001:0002e760       ??_EPrunerCallback@Sq@physx@@UEAAPEAXI@Z 000000018002f760 f i NpSceneQueries.obj
 0001:0002e760       ??_EPxPhysicsInsertionCallback@physx@@MEAAPEAXI@Z 000000018002f760 f i NpPhysics.obj
 0001:0002e760       ??_EPxProfileNameProvider@profile@physx@@MEAAPEAXI@Z 000000018002f760 f i PhysXPvdSDK_static_64:PxPvdImpl.obj
 0001:0002e760       ??_ESqBoundsSync@Sc@physx@@UEAAPEAXI@Z 000000018002f760 f i SceneQuery_static_64:SqSceneQueryManager.obj
 0001:0002e760       ??_ESqRefFinder@@UEAAPEAXI@Z 000000018002f760 f i NpScene.obj
 0001:0002e760       ??_ESqRefFinder@Sc@physx@@UEAAPEAXI@Z 000000018002f760 f i NpScene.obj
 0001:0002e760       ??_GCmEventNameProvider@pvdsdk@physx@@UEAAPEAXI@Z 000000018002f760 f i PhysXPvdSDK_static_64:PxPvdImpl.obj
 0001:0002e760       ??_GNpPhysicsInsertionCallback@physx@@UEAAPEAXI@Z 000000018002f760 f i NpPhysics.obj
 0001:0002e760       ??_GPrunerCallback@Sq@physx@@UEAAPEAXI@Z 000000018002f760 f i NpSceneQueries.obj
 0001:0002e760       ??_GPxPhysicsInsertionCallback@physx@@MEAAPEAXI@Z 000000018002f760 f i NpPhysics.obj
 0001:0002e760       ??_GPxProfileNameProvider@profile@physx@@MEAAPEAXI@Z 000000018002f760 f i PhysXPvdSDK_static_64:PxPvdImpl.obj
 0001:0002e760       ??_GSqBoundsSync@Sc@physx@@UEAAPEAXI@Z 000000018002f760 f i SceneQuery_static_64:SqSceneQueryManager.obj
 0001:0002e760       ??_GSqRefFinder@@UEAAPEAXI@Z 000000018002f760 f i NpScene.obj
 0001:0002e760       ??_GSqRefFinder@Sc@physx@@UEAAPEAXI@Z 000000018002f760 f i NpScene.obj
 0001:0002e790       ??_EPxPhysics@physx@@UEAAPEAXI@Z 000000018002f790 f i NpPhysics.obj
 0001:0002e790       ??_GPxPhysics@physx@@UEAAPEAXI@Z 000000018002f790 f i NpPhysics.obj
 0001:0002e7c0       ?addMaterial@NpPhysics@physx@@QEAAPEAVNpMaterial@2@PEAV32@@Z 000000018002f7c0 f   NpPhysics.obj
 0001:0002e980       ?buildObjectFromData@NpPhysicsInsertionCallback@physx@@UEAAPEAVPxBase@2@W4Enum@PxConcreteType@2@PEAX@Z 000000018002f980 f i NpPhysics.obj
 0001:0002ea20       ?create@?$HashBase@V?$Pair@QEAVPxDeletionListener@physx@@PEAUNpDelListenerEntry@NpPhysics@2@@shdfnd@physx@@PEAVPxDeletionListener@3@U?$Hash@PEAVPxDeletionListener@physx@@@23@UGetKey@?$HashMapBase@PEAVPxDeletionListener@physx@@PEAUNpDelListenerEntry@NpPhysics@2@U?$Hash@PEAVPxDeletionListener@physx@@@shdfnd@2@VNonTrackingAllocator@62@@internal@23@VNonTrackingAllocator@23@$00@internal@shdfnd@physx@@QEAAPEAV?$Pair@QEAVPxDeletionListener@physx@@PEAUNpDelListenerEntry@NpPhysics@2@@34@AEBQEAVPxDeletionListener@4@AEA_N@Z 000000018002fa20 f i NpPhysics.obj
 0001:0002ea20       ?create@?$HashBase@V?$Pair@QEBVPxShape@physx@@PEAV?$HashSet@PEBVPxRigidActor@physx@@U?$Hash@PEBVPxRigidActor@physx@@@shdfnd@2@VNonTrackingAllocator@42@@shdfnd@2@@shdfnd@physx@@PEBVPxShape@3@U?$Hash@PEBVPxShape@physx@@@23@UGetKey@?$HashMapBase@PEBVPxShape@physx@@PEAV?$HashSet@PEBVPxRigidActor@physx@@U?$Hash@PEBVPxRigidActor@physx@@@shdfnd@2@VNonTrackingAllocator@42@@shdfnd@2@U?$Hash@PEBVPxShape@physx@@@42@VNonTrackingAllocator@42@@internal@23@VNonTrackingAllocator@23@$00@internal@shdfnd@physx@@QEAAPEAV?$Pair@QEBVPxShape@physx@@PEAV?$HashSet@PEBVPxRigidActor@physx@@U?$Hash@PEBVPxRigidActor@physx@@@shdfnd@2@VNonTrackingAllocator@42@@shdfnd@2@@34@AEBQEBVPxShape@4@AEA_N@Z 000000018002fa20 f i PvdMetaDataPvdBinding.obj
 0001:0002ebb0       ?createAggregate@NpPhysics@physx@@UEAAPEAVPxAggregate@2@I_N@Z 000000018002fbb0 f   NpPhysics.obj
 0001:0002ebc0       ?createArticulation@NpPhysics@physx@@UEAAPEAVPxArticulation@2@XZ 000000018002fbc0 f   NpPhysics.obj
 0001:0002ebd0       ?createArticulationReducedCoordinate@NpPhysics@physx@@UEAAPEAVPxArticulationReducedCoordinate@2@XZ 000000018002fbd0 f   NpPhysics.obj
 0001:0002ebe0       ?createBVHStructure@NpPhysics@physx@@UEAAPEAVPxBVHStructure@2@AEAVPxInputStream@2@@Z 000000018002fbe0 f   NpPhysics.obj
 0001:0002ebf0       ?createConstraint@NpPhysics@physx@@UEAAPEAVPxConstraint@2@PEAVPxRigidActor@2@0AEAVPxConstraintConnector@2@AEBUPxConstraintShaderTable@2@I@Z 000000018002fbf0 f   NpPhysics.obj
 0001:0002ec00       ?createConvexMesh@NpPhysics@physx@@UEAAPEAVPxConvexMesh@2@AEAVPxInputStream@2@@Z 000000018002fc00 f   NpPhysics.obj
 0001:0002ec10       ?createHeightField@NpPhysics@physx@@UEAAPEAVPxHeightField@2@AEAVPxInputStream@2@@Z 000000018002fc10 f   NpPhysics.obj
 0001:0002ec20       ?createInstance@NpPhysics@physx@@SAPEAV12@IAEAVPxFoundation@2@AEBVPxTolerancesScale@2@_NPEAVPsPvd@pvdsdk@2@@Z 000000018002fc20 f   NpPhysics.obj
 0001:0002ee80       ?createMaterial@NpPhysics@physx@@UEAAPEAVPxMaterial@2@MMM@Z 000000018002fe80 f   NpPhysics.obj
 0001:0002eeb0       ?createPruningStructure@NpPhysics@physx@@UEAAPEAVPxPruningStructure@2@PEBQEAVPxRigidActor@2@I@Z 000000018002feb0 f   NpPhysics.obj
 0001:0002efa0       ?createRigidDynamic@NpPhysics@physx@@UEAAPEAVPxRigidDynamic@2@AEBVPxTransform@2@@Z 000000018002ffa0 f   NpPhysics.obj
 0001:0002f0c0       ?createRigidStatic@NpPhysics@physx@@UEAAPEAVPxRigidStatic@2@AEBVPxTransform@2@@Z 00000001800300c0 f   NpPhysics.obj
 0001:0002f1e0       ?createScene@NpPhysics@physx@@UEAAPEAVPxScene@2@AEBVPxSceneDesc@2@@Z 00000001800301e0 f   NpPhysics.obj
 0001:0002f480       ?createShape@NpPhysics@physx@@UEAAPEAVPxShape@2@AEBVPxGeometry@2@PEBQEAVPxMaterial@2@G_NV?$PxFlags@W4Enum@PxShapeFlag@physx@@E@2@@Z 0000000180030480 f   NpPhysics.obj
 0001:0002f5f0       ?createTriangleMesh@NpPhysics@physx@@UEAAPEAVPxTriangleMesh@2@AEAVPxInputStream@2@@Z 00000001800305f0 f   NpPhysics.obj
 0001:0002f600       ?erase@?$HashBase@V?$Pair@QEAVPxDeletionListener@physx@@PEAUNpDelListenerEntry@NpPhysics@2@@shdfnd@physx@@PEAVPxDeletionListener@3@U?$Hash@PEAVPxDeletionListener@physx@@@23@UGetKey@?$HashMapBase@PEAVPxDeletionListener@physx@@PEAUNpDelListenerEntry@NpPhysics@2@U?$Hash@PEAVPxDeletionListener@physx@@@shdfnd@2@VNonTrackingAllocator@62@@internal@23@VNonTrackingAllocator@23@$00@internal@shdfnd@physx@@QEAA_NAEBQEAVPxDeletionListener@4@@Z 0000000180030600 f i NpPhysics.obj
 0001:0002f600       ?erase@?$HashBase@V?$Pair@QEBVPxShape@physx@@PEAV?$HashSet@PEBVPxRigidActor@physx@@U?$Hash@PEBVPxRigidActor@physx@@@shdfnd@2@VNonTrackingAllocator@42@@shdfnd@2@@shdfnd@physx@@PEBVPxShape@3@U?$Hash@PEBVPxShape@physx@@@23@UGetKey@?$HashMapBase@PEBVPxShape@physx@@PEAV?$HashSet@PEBVPxRigidActor@physx@@U?$Hash@PEBVPxRigidActor@physx@@@shdfnd@2@VNonTrackingAllocator@42@@shdfnd@2@U?$Hash@PEBVPxShape@physx@@@42@VNonTrackingAllocator@42@@internal@23@VNonTrackingAllocator@23@$00@internal@shdfnd@physx@@QEAA_NAEBQEBVPxShape@4@@Z 0000000180030600 f i PvdMetaDataPvdBinding.obj
 0001:0002f7b0       ?getBVHStructures@NpPhysics@physx@@UEBAIPEAPEAVPxBVHStructure@2@II@Z 00000001800307b0 f   NpPhysics.obj
 0001:0002f7c0       ?getConvexMeshes@NpPhysics@physx@@UEBAIPEAPEAVPxConvexMesh@2@II@Z 00000001800307c0 f   NpPhysics.obj
 0001:0002f7d0       ?getFoundation@NpPhysics@physx@@UEAAAEAVPxFoundation@2@XZ 00000001800307d0 f   NpPhysics.obj
 0001:0002f7e0       ?getHeightFields@NpPhysics@physx@@UEBAIPEAPEAVPxHeightField@2@II@Z 00000001800307e0 f   NpPhysics.obj
 0001:0002f7f0       ?getMaterials@NpPhysics@physx@@UEBAIPEAPEAVPxMaterial@2@II@Z 00000001800307f0 f   NpPhysics.obj
 0001:0002f8b0       ?getNbBVHStructures@NpPhysics@physx@@UEBAIXZ 00000001800308b0 f   NpPhysics.obj
 0001:0002f8c0       ?getNbConvexMeshes@NpPhysics@physx@@UEBAIXZ 00000001800308c0 f   NpPhysics.obj
 0001:0002f8d0       ?getNbHeightFields@NpPhysics@physx@@UEBAIXZ 00000001800308d0 f   NpPhysics.obj
 0001:0002f8e0       ?getNbMaterials@NpPhysics@physx@@UEBAIXZ 00000001800308e0 f   NpPhysics.obj
 0001:0002f920       ?getNbScenes@NpPhysics@physx@@UEBAIXZ 0000000180030920 f   NpPhysics.obj
 0001:0002f960       ?getNbShapes@NpPhysics@physx@@UEBAIXZ 0000000180030960 f   NpPhysics.obj
 0001:0002f970       ?getNbTriangleMeshes@NpPhysics@physx@@UEBAIXZ 0000000180030970 f   NpPhysics.obj
 0001:0002f980       ?getPhysicsInsertionCallback@NpPhysics@physx@@UEAAAEAVPxPhysicsInsertionCallback@2@XZ 0000000180030980 f i NpPhysics.obj
 0001:0002f990       ?getScenes@NpPhysics@physx@@UEBAIPEAPEAVPxScene@2@II@Z 0000000180030990 f   NpPhysics.obj
 0001:0002fa20       ?getShapes@NpPhysics@physx@@UEBAIPEAPEAVPxShape@2@II@Z 0000000180030a20 f   NpPhysics.obj
 0001:0002fa30       ?getTriangleMeshes@NpPhysics@physx@@UEBAIPEAPEAVPxTriangleMesh@2@II@Z 0000000180030a30 f   NpPhysics.obj
 0001:0002fa40       ?growAndPushBack@?$Array@IVNamedAllocator@shdfnd@physx@@@shdfnd@physx@@IEAAAEAIAEBI@Z 0000000180030a40 f i NpPhysics.obj
 0001:0002fb30       ?isValid@PxSceneDesc@physx@@QEBA_NXZ 0000000180030b30 f i NpPhysics.obj
 0001:0002fd50       ?notifyDeletionListeners@NpPhysics@physx@@QEAAXPEBVPxBase@2@PEAXW4Enum@PxDeletionEventFlag@2@@Z 0000000180030d50 f   NpPhysics.obj
 0001:0002fe90       ?onGuMeshFactoryBufferRelease@MeshDeletionListener@NpPhysics@physx@@UEAAXPEBVPxBase@3@G@Z 0000000180030e90 f i NpPhysics.obj
 0001:0002feb0       ?registerDeletionListener@NpPhysics@physx@@UEAAXAEAVPxDeletionListener@2@AEBV?$PxFlags@W4Enum@PxDeletionEventFlag@physx@@E@2@_N@Z 0000000180030eb0 f   NpPhysics.obj
 0001:00030090       ?registerDeletionListenerObjects@NpPhysics@physx@@UEAAXAEAVPxDeletionListener@2@PEBQEBVPxBase@2@I@Z 0000000180031090 f   NpPhysics.obj
 0001:00030210       ?release@NpPhysics@physx@@UEAAXXZ 0000000180031210 f   NpPhysics.obj
 0001:00030280       ?releaseSceneInternal@NpPhysics@physx@@QEAAXAEAVPxScene@2@@Z 0000000180031280 f   NpPhysics.obj
 0001:00030300       ?removeMaterialFromTable@NpPhysics@physx@@QEAAXAEAVNpMaterial@2@@Z 0000000180031300 f   NpPhysics.obj
 0001:000303c0       ?reserveInternal@?$HashBase@V?$Pair@QEAVPxDeletionListener@physx@@PEAUNpDelListenerEntry@NpPhysics@2@@shdfnd@physx@@PEAVPxDeletionListener@3@U?$Hash@PEAVPxDeletionListener@physx@@@23@UGetKey@?$HashMapBase@PEAVPxDeletionListener@physx@@PEAUNpDelListenerEntry@NpPhysics@2@U?$Hash@PEAVPxDeletionListener@physx@@@shdfnd@2@VNonTrackingAllocator@62@@internal@23@VNonTrackingAllocator@23@$00@internal@shdfnd@physx@@AEAAXI@Z 00000001800313c0 f i NpPhysics.obj
 0001:000303c0       ?reserveInternal@?$HashBase@V?$Pair@QEBVPxShape@physx@@PEAV?$HashSet@PEBVPxRigidActor@physx@@U?$Hash@PEBVPxRigidActor@physx@@@shdfnd@2@VNonTrackingAllocator@42@@shdfnd@2@@shdfnd@physx@@PEBVPxShape@3@U?$Hash@PEBVPxShape@physx@@@23@UGetKey@?$HashMapBase@PEBVPxShape@physx@@PEAV?$HashSet@PEBVPxRigidActor@physx@@U?$Hash@PEBVPxRigidActor@physx@@@shdfnd@2@VNonTrackingAllocator@42@@shdfnd@2@U?$Hash@PEBVPxShape@physx@@@42@VNonTrackingAllocator@42@@internal@23@VNonTrackingAllocator@23@$00@internal@shdfnd@physx@@AEAAXI@Z 00000001800313c0 f i PvdMetaDataPvdBinding.obj
 0001:000305a0       ?unregisterDeletionListener@NpPhysics@physx@@UEAAXAEAVPxDeletionListener@2@@Z 00000001800315a0 f   NpPhysics.obj
 0001:000306d0       ?unregisterDeletionListenerObjects@NpPhysics@physx@@UEAAXAEAVPxDeletionListener@2@PEBQEBVPxBase@2@I@Z 00000001800316d0 f   NpPhysics.obj
 0001:000308f0       ?updateMaterial@NpPhysics@physx@@QEAAXAEAVNpMaterial@2@@Z 00000001800318f0 f   NpPhysics.obj
 0001:00030960       PxAddCollectionToPhysics   0000000180031960 f   NpPhysics.obj
 0001:00030970       PxCreateBasePhysics        0000000180031970 f   NpPhysics.obj
 0001:00030980       ?getPhysics@NpScene@physx@@UEAAAEAVPxPhysics@2@XZ 0000000180031980 f   NpScene.obj
 0001:00030980       PxGetPhysics               0000000180031980 f   NpPhysics.obj
 0001:00030990       PxRegisterArticulations    0000000180031990 f   NpPhysics.obj
 0001:000309b0       PxRegisterArticulationsReducedCoordinate 00000001800319b0 f   NpPhysics.obj
 0001:000309d0       PxRegisterHeightFields     00000001800319d0 f   NpPhysics.obj
 0001:00031650       ??0PvdSceneQueryCollector@Vd@physx@@QEAA@AEAVScene@Scb@2@_N@Z 0000000180032650 f   NpPvdSceneQueryCollector.obj
 0001:00031950       ?collectAllBatchedHits@PvdSceneQueryCollector@Vd@physx@@QEAAXPEBU?$PxBatchQueryResult@UPxRaycastHit@physx@@@3@IIPEBU?$PxBatchQueryResult@UPxOverlapHit@physx@@@3@IIPEBU?$PxBatchQueryResult@UPxSweepHit@physx@@@3@II@Z 0000000180032950 f   NpPvdSceneQueryCollector.obj
 0001:00031a00       ?copy@?$Array@UPvdOverlap@Vd@physx@@VNamedAllocator@shdfnd@3@@shdfnd@physx@@KAXPEAUPvdOverlap@Vd@3@0PEBU453@@Z 0000000180032a00 f i NpPvdSceneQueryCollector.obj
 0001:00031ce0       ?copy@?$Array@UPvdRaycast@Vd@physx@@VNamedAllocator@shdfnd@3@@shdfnd@physx@@KAXPEAUPvdRaycast@Vd@3@0PEBU453@@Z 0000000180032ce0 f i NpPvdSceneQueryCollector.obj
 0001:00031f60       ?growAndPushBack@?$Array@UPvdOverlap@Vd@physx@@VNamedAllocator@shdfnd@3@@shdfnd@physx@@IEAAAEAUPvdOverlap@Vd@3@AEBU453@@Z 0000000180032f60 f i NpPvdSceneQueryCollector.obj
 0001:000320a0       ?growAndPushBack@?$Array@UPvdRaycast@Vd@physx@@VNamedAllocator@shdfnd@3@@shdfnd@physx@@IEAAAEAUPvdRaycast@Vd@3@AEBU453@@Z 00000001800330a0 f i NpPvdSceneQueryCollector.obj
 0001:000321f0       ?growAndPushBack@?$Array@UPvdSqHit@Vd@physx@@VNamedAllocator@shdfnd@3@@shdfnd@physx@@IEAAAEAUPvdSqHit@Vd@3@AEBU453@@Z 00000001800331f0 f i NpPvdSceneQueryCollector.obj
 0001:00032550       ?growAndPushBack@?$Array@UPvdSweep@Vd@physx@@VNamedAllocator@shdfnd@3@@shdfnd@physx@@IEAAAEAUPvdSweep@Vd@3@AEBU453@@Z 0000000180033550 f i NpPvdSceneQueryCollector.obj
 0001:00032890       ?growAndPushBack@?$Array@UPxFilterData@physx@@VNamedAllocator@shdfnd@2@@shdfnd@physx@@IEAAAEAUPxFilterData@3@AEBU43@@Z 0000000180033890 f i NpPvdSceneQueryCollector.obj
 0001:000329b0       ?growAndPushBack@?$Array@VPxGeometryHolder@physx@@VNamedAllocator@shdfnd@2@@shdfnd@physx@@IEAAAEAVPxGeometryHolder@3@AEBV43@@Z 00000001800339b0 f i NpPvdSceneQueryCollector.obj
 0001:00032ad0       ?growAndPushBack@?$Array@VPxTransform@physx@@VNamedAllocator@shdfnd@2@@shdfnd@physx@@IEAAAEAVPxTransform@3@AEBV43@@Z 0000000180033ad0 f i NpPvdSceneQueryCollector.obj
 0001:00032d20       ?overlapMultiple@PvdSceneQueryCollector@Vd@physx@@QEAAXAEBVPxGeometry@3@AEBVPxTransform@3@PEBUPxOverlapHit@3@IAEBUPxQueryFilterData@3@@Z 0000000180033d20 f   NpPvdSceneQueryCollector.obj
 0001:00033030       ?raycast@PvdSceneQueryCollector@Vd@physx@@QEAAXAEBVPxVec3@3@0MPEBUPxRaycastHit@3@IAEBUPxQueryFilterData@3@_N@Z 0000000180034030 f   NpPvdSceneQueryCollector.obj
 0001:00033160       ?release@PvdSceneQueryCollector@Vd@physx@@QEAAXXZ 0000000180034160 f   NpPvdSceneQueryCollector.obj
 0001:00033210       ?sweep@PvdSceneQueryCollector@Vd@physx@@QEAAXAEBVPxGeometry@3@AEBVPxTransform@3@AEBVPxVec3@3@MPEBUPxSweepHit@3@IAEBUPxQueryFilterData@3@_N@Z 0000000180034210 f   NpPvdSceneQueryCollector.obj
 0001:000335d0       ??0NpReadCheck@physx@@QEAA@PEBVNpScene@1@PEBD@Z 00000001800345d0 f   NpReadCheck.obj
 0001:000336b0       ??1NpReadCheck@physx@@QEAA@XZ 00000001800346b0 f   NpReadCheck.obj
 0001:00033750       ??0NpRigidDynamic@physx@@QEAA@AEBVPxTransform@1@@Z 0000000180034750 f   NpRigidDynamic.obj
 0001:000338b0       ??_E?$NpActorTemplate@VPxRigidDynamic@physx@@@physx@@UEAAPEAXI@Z 00000001800348b0 f i NpRigidDynamic.obj
 0001:000338b0       ??_G?$NpActorTemplate@VPxRigidDynamic@physx@@@physx@@UEAAPEAXI@Z 00000001800348b0 f i NpRigidDynamic.obj
 0001:00033930       ??_E?$NpRigidActorTemplate@VPxRigidDynamic@physx@@@physx@@UEAAPEAXI@Z 0000000180034930 f i NpRigidDynamic.obj
 0001:00033930       ??_G?$NpRigidActorTemplate@VPxRigidDynamic@physx@@@physx@@UEAAPEAXI@Z 0000000180034930 f i NpRigidDynamic.obj
 0001:000339c0       ??_E?$NpRigidBodyTemplate@VPxRigidDynamic@physx@@@physx@@UEAAPEAXI@Z 00000001800349c0 f i NpRigidDynamic.obj
 0001:000339c0       ??_ENpRigidDynamic@physx@@UEAAPEAXI@Z 00000001800349c0 f i NpRigidDynamic.obj
 0001:000339c0       ??_G?$NpRigidBodyTemplate@VPxRigidDynamic@physx@@@physx@@UEAAPEAXI@Z 00000001800349c0 f i NpRigidDynamic.obj
 0001:000339c0       ??_GNpRigidDynamic@physx@@UEAAPEAXI@Z 00000001800349c0 f i NpRigidDynamic.obj
 0001:00033a70       ?NpRigidDynamicGetShapes@physx@@YAIAEAVBody@Scb@1@AEAPEBQEAXPEA_N@Z 0000000180034a70 f   NpRigidDynamic.obj
 0001:00033ac0       ?addForce@NpRigidDynamic@physx@@UEAAXAEBVPxVec3@2@W4Enum@PxForceMode@2@_N@Z 0000000180034ac0 f   NpRigidDynamic.obj
 0001:00033d40       ?addTorque@NpRigidDynamic@physx@@UEAAXAEBVPxVec3@2@W4Enum@PxForceMode@2@_N@Z 0000000180034d40 f   NpRigidDynamic.obj
 0001:00033fc0       ?attachShape@?$NpRigidActorTemplate@VPxRigidDynamic@physx@@@physx@@UEAA_NAEAVPxShape@2@@Z 0000000180034fc0 f i NpRigidDynamic.obj
 0001:00034100       ?attachShape@?$NpRigidBodyTemplate@VPxRigidDynamic@physx@@@physx@@UEAA_NAEAVPxShape@2@@Z 0000000180035100 f i NpRigidDynamic.obj
 0001:000343c0       ?clearForce@NpRigidDynamic@physx@@UEAAXW4Enum@PxForceMode@2@@Z 00000001800353c0 f   NpRigidDynamic.obj
 0001:00034530       ?clearTorque@NpRigidDynamic@physx@@UEAAXW4Enum@PxForceMode@2@@Z 0000000180035530 f   NpRigidDynamic.obj
 0001:000346a0       ?createObject@NpRigidDynamic@physx@@SAPEAV12@AEAPEAEAEAVPxDeserializationContext@2@@Z 00000001800356a0 f   NpRigidDynamic.obj
 0001:00034760       ?detachShape@?$NpRigidActorTemplate@VPxRigidDynamic@physx@@@physx@@UEAAXAEAVPxShape@2@_N@Z 0000000180035760 f i NpRigidDynamic.obj
 0001:00034830       ?getActorFlags@?$NpActorTemplate@VPxRigidDynamic@physx@@@physx@@UEBA?AV?$PxFlags@W4Enum@PxActorFlag@physx@@E@2@XZ 0000000180035830 f i NpRigidDynamic.obj
 0001:000348b0       ?getAngularDamping@NpRigidDynamic@physx@@UEBAMXZ 00000001800358b0 f   NpRigidDynamic.obj
 0001:00034920       ?getAngularVelocity@?$NpRigidBodyTemplate@VPxRigidDynamic@physx@@@physx@@UEBA?AVPxVec3@2@XZ 0000000180035920 f i NpRigidDynamic.obj
 0001:00034980       ?getCMassLocalPose@?$NpRigidBodyTemplate@VPxRigidDynamic@physx@@@physx@@UEBA?AVPxTransform@2@XZ 0000000180035980 f i NpRigidDynamic.obj
 0001:00034a10       ?getConcreteTypeName@PxRigidDynamic@physx@@UEBAPEBDXZ 0000000180035a10 f i NpRigidDynamic.obj
 0001:00034a20       ?getConstraints@?$NpRigidActorTemplate@VPxRigidDynamic@physx@@@physx@@UEBAIPEAPEAVPxConstraint@2@II@Z 0000000180035a20 f i NpRigidDynamic.obj
 0001:00034ae0       ?getContactReportThreshold@NpRigidDynamic@physx@@UEBAMXZ 0000000180035ae0 f   NpRigidDynamic.obj
 0001:00034b50       ?getDominanceGroup@?$NpActorTemplate@VPxRigidDynamic@physx@@@physx@@UEBAEXZ 0000000180035b50 f i NpRigidDynamic.obj
 0001:00034be0       ?getGlobalPose@NpRigidDynamic@physx@@UEBA?AVPxTransform@2@XZ 0000000180035be0 f i NpRigidDynamic.obj
 0001:00034f20       ?getInternalIslandNodeIndex@?$NpRigidBodyTemplate@VPxRigidDynamic@physx@@@physx@@UEBAIXZ 0000000180035f20 f i NpRigidDynamic.obj
 0001:00034f70       ?getInvMass@?$NpRigidBodyTemplate@VPxRigidDynamic@physx@@@physx@@UEBAMXZ 0000000180035f70 f i NpRigidDynamic.obj
 0001:00034fe0       ?getKinematicTarget@NpRigidDynamic@physx@@UEBA_NAEAVPxTransform@2@@Z 0000000180035fe0 f   NpRigidDynamic.obj
 0001:000354b0       ?getLinearDamping@NpRigidDynamic@physx@@UEBAMXZ 00000001800364b0 f   NpRigidDynamic.obj
 0001:00035520       ?getLinearVelocity@?$NpRigidBodyTemplate@VPxRigidDynamic@physx@@@physx@@UEBA?AVPxVec3@2@XZ 0000000180036520 f i NpRigidDynamic.obj
 0001:00035580       ?getMass@?$NpRigidBodyTemplate@VPxRigidDynamic@physx@@@physx@@UEBAMXZ 0000000180036580 f i NpRigidDynamic.obj
 0001:00035600       ?getMassSpaceInertiaTensor@?$NpRigidBodyTemplate@VPxRigidDynamic@physx@@@physx@@UEBA?AVPxVec3@2@XZ 0000000180036600 f i NpRigidDynamic.obj
 0001:000356c0       ?getMassSpaceInvInertiaTensor@?$NpRigidBodyTemplate@VPxRigidDynamic@physx@@@physx@@UEBA?AVPxVec3@2@XZ 00000001800366c0 f i NpRigidDynamic.obj
 0001:00035740       ?getMaxAngularVelocity@NpRigidDynamic@physx@@UEBAMXZ 0000000180036740 f   NpRigidDynamic.obj
 0001:000357b0       ?getMaxContactImpulse@?$NpRigidBodyTemplate@VPxRigidDynamic@physx@@@physx@@UEBAMXZ 00000001800367b0 f i NpRigidDynamic.obj
 0001:00035820       ?getMaxDepenetrationVelocity@?$NpRigidBodyTemplate@VPxRigidDynamic@physx@@@physx@@UEBAMXZ 0000000180036820 f i NpRigidDynamic.obj
 0001:00035890       ?getMaxLinearVelocity@NpRigidDynamic@physx@@UEBAMXZ 0000000180036890 f   NpRigidDynamic.obj
 0001:00035900       ?getMinCCDAdvanceCoefficient@?$NpRigidBodyTemplate@VPxRigidDynamic@physx@@@physx@@UEBAMXZ 0000000180036900 f i NpRigidDynamic.obj
 0001:00035960       ?getName@?$NpActorTemplate@VPxRigidDynamic@physx@@@physx@@UEBAPEBDXZ 0000000180036960 f i NpRigidDynamic.obj
 0001:000359a0       ?getNbConstraints@?$NpRigidActorTemplate@VPxRigidDynamic@physx@@@physx@@UEBAIXZ 00000001800369a0 f i NpRigidDynamic.obj
 0001:000359f0       ?getNbShapes@?$NpRigidActorTemplate@VPxRigidDynamic@physx@@@physx@@UEBAIXZ 00000001800369f0 f i NpRigidDynamic.obj
 0001:00035a30       ?getRigidBodyFlags@?$NpRigidBodyTemplate@VPxRigidDynamic@physx@@@physx@@UEBA?AV?$PxFlags@W4Enum@PxRigidBodyFlag@physx@@G@2@XZ 0000000180036a30 f i NpRigidDynamic.obj
 0001:00035aa0       ?getRigidDynamicLockFlags@NpRigidDynamic@physx@@UEBA?AV?$PxFlags@W4Enum@PxRigidDynamicLockFlag@physx@@E@2@XZ 0000000180036aa0 f   NpRigidDynamic.obj
 0001:00035ad0       ?getShapes@?$NpRigidActorTemplate@VPxRigidDynamic@physx@@@physx@@UEBAIPEAPEAVPxShape@2@II@Z 0000000180036ad0 f i NpRigidDynamic.obj
 0001:00035b40       ?getSleepThreshold@NpRigidDynamic@physx@@UEBAMXZ 0000000180036b40 f   NpRigidDynamic.obj
 0001:00035ba0       ?getSolverIterationCounts@NpRigidDynamic@physx@@UEBAXAEAI0@Z 0000000180036ba0 f   NpRigidDynamic.obj
 0001:00035c20       ?getStabilizationThreshold@NpRigidDynamic@physx@@UEBAMXZ 0000000180036c20 f   NpRigidDynamic.obj
 0001:00035c90       ?getType@BroadPhaseMBP@Bp@physx@@UEBA?AW4Enum@PxBroadPhaseType@3@XZ 0000000180036c90 f i LowLevelAABB_static_64:BpBroadPhaseMBP.obj
 0001:00035c90       ?getType@NpRigidDynamic@physx@@UEBA?AW4Enum@PxActorType@2@XZ 0000000180036c90 f i NpRigidDynamic.obj
 0001:00035c90       _get_startup_argv_mode     0000000180036c90 f i MSVCRT:argv_mode.obj
 0001:00035ca0       ?getWakeCounter@NpRigidDynamic@physx@@UEBAMXZ 0000000180036ca0 f   NpRigidDynamic.obj
 0001:00035cf0       ?getWorldBounds@?$NpRigidActorTemplate@VPxRigidDynamic@physx@@@physx@@UEBA?AVPxBounds3@2@M@Z 0000000180036cf0 f i NpRigidDynamic.obj
 0001:00035e80       ?isKindOf@PxRigidDynamic@physx@@MEBA_NPEBD@Z 0000000180036e80 f i NpRigidDynamic.obj
 0001:00035f20       ?isSleeping@NpRigidDynamic@physx@@UEBA_NXZ 0000000180036f20 f   NpRigidDynamic.obj
 0001:00035fc0       ?preExportDataReset@NpRigidDynamic@physx@@QEAAXXZ 0000000180036fc0 f   NpRigidDynamic.obj
 0001:00036060       ?putToSleep@NpRigidDynamic@physx@@UEAAXXZ 0000000180037060 f   NpRigidDynamic.obj
 0001:000361c0       ?release@NpRigidDynamic@physx@@UEAAXXZ 00000001800371c0 f   NpRigidDynamic.obj
 0001:000362d0       ?setActorFlag@?$NpActorTemplate@VPxRigidDynamic@physx@@@physx@@UEAAXW4Enum@PxActorFlag@2@_N@Z 00000001800372d0 f i NpRigidDynamic.obj
 0001:000363b0       ?setActorFlag@?$NpRigidActorTemplate@VPxRigidDynamic@physx@@@physx@@UEAAXW4Enum@PxActorFlag@2@_N@Z 00000001800373b0 f i NpRigidDynamic.obj
 0001:00036630       ?setActorFlags@?$NpActorTemplate@VPxRigidDynamic@physx@@@physx@@UEAAXV?$PxFlags@W4Enum@PxActorFlag@physx@@E@2@@Z 0000000180037630 f i NpRigidDynamic.obj
 0001:000366a0       ?setActorFlags@?$NpRigidActorTemplate@VPxRigidDynamic@physx@@@physx@@UEAAXV?$PxFlags@W4Enum@PxActorFlag@physx@@E@2@@Z 00000001800376a0 f i NpRigidDynamic.obj
 0001:000368c0       ?setAngularDamping@NpRigidDynamic@physx@@UEAAXM@Z 00000001800378c0 f   NpRigidDynamic.obj
 0001:00036a20       ?setAngularVelocity@NpRigidDynamic@physx@@UEAAXAEBVPxVec3@2@_N@Z 0000000180037a20 f   NpRigidDynamic.obj
 0001:00036c60       ?setCMassLocalPose@NpRigidDynamic@physx@@UEAAXAEBVPxTransform@2@@Z 0000000180037c60 f   NpRigidDynamic.obj
 0001:00037420       ?setContactReportThreshold@NpRigidDynamic@physx@@UEAAXM@Z 0000000180038420 f   NpRigidDynamic.obj
 0001:00037570       ?setDominanceGroup@?$NpActorTemplate@VPxRigidDynamic@physx@@@physx@@UEAAXE@Z 0000000180038570 f i NpRigidDynamic.obj
 0001:00037650       ?setForceAndTorque@NpRigidDynamic@physx@@UEAAXAEBVPxVec3@2@0W4Enum@PxForceMode@2@@Z 0000000180038650 f   NpRigidDynamic.obj
 0001:00037940       ?setGlobalPose@NpRigidDynamic@physx@@UEAAXAEBVPxTransform@2@_N@Z 0000000180038940 f   NpRigidDynamic.obj
 0001:00037e80       ?setKinematicTarget@Body@Scb@physx@@QEAAXAEBVPxTransform@3@@Z 0000000180038e80 f i NpRigidDynamic.obj
 0001:00037fe0       ?setKinematicTarget@NpRigidDynamic@physx@@UEAAXAEBVPxTransform@2@@Z 0000000180038fe0 f   NpRigidDynamic.obj
 0001:00038500       ?setLinearDamping@NpRigidDynamic@physx@@UEAAXM@Z 0000000180039500 f   NpRigidDynamic.obj
 0001:00038660       ?setLinearVelocity@NpRigidDynamic@physx@@UEAAXAEBVPxVec3@2@_N@Z 0000000180039660 f   NpRigidDynamic.obj
 0001:000388a0       ?setLockFlags@Body@Scb@physx@@QEAAXV?$PxFlags@W4Enum@PxRigidDynamicLockFlag@physx@@E@3@@Z 00000001800398a0 f i NpRigidDynamic.obj
 0001:00038940       ?setMass@?$NpRigidBodyTemplate@VPxRigidDynamic@physx@@@physx@@UEAAXM@Z 0000000180039940 f i NpRigidDynamic.obj
 0001:00038ae0       ?setMassSpaceInertiaTensor@?$NpRigidBodyTemplate@VPxRigidDynamic@physx@@@physx@@UEAAXAEBVPxVec3@2@@Z 0000000180039ae0 f i NpRigidDynamic.obj
 0001:00038dc0       ?setMaxAngularVelocity@NpRigidDynamic@physx@@UEAAXM@Z 0000000180039dc0 f   NpRigidDynamic.obj
 0001:00038f20       ?setMaxContactImpulse@?$NpRigidBodyTemplate@VPxRigidDynamic@physx@@@physx@@UEAAXM@Z 0000000180039f20 f i NpRigidDynamic.obj
 0001:00039030       ?setMaxDepenetrationVelocity@?$NpRigidBodyTemplate@VPxRigidDynamic@physx@@@physx@@UEAAXM@Z 000000018003a030 f i NpRigidDynamic.obj
 0001:00039140       ?setMaxLinearVelocity@NpRigidDynamic@physx@@UEAAXM@Z 000000018003a140 f   NpRigidDynamic.obj
 0001:000392a0       ?setMinCCDAdvanceCoefficient@?$NpRigidBodyTemplate@VPxRigidDynamic@physx@@@physx@@UEAAXM@Z 000000018003a2a0 f i NpRigidDynamic.obj
 0001:00039360       ?setName@?$NpActorTemplate@VPxRigidDynamic@physx@@@physx@@UEAAXPEBD@Z 000000018003a360 f i NpRigidDynamic.obj
 0001:000393e0       ?setRigidBodyFlag@?$NpRigidBodyTemplate@VPxRigidDynamic@physx@@@physx@@UEAAXW4Enum@PxRigidBodyFlag@2@_N@Z 000000018003a3e0 f i NpRigidDynamic.obj
 0001:000398f0       ?setRigidBodyFlags@?$NpRigidBodyTemplate@VPxRigidDynamic@physx@@@physx@@UEAAXV?$PxFlags@W4Enum@PxRigidBodyFlag@physx@@G@2@@Z 000000018003a8f0 f i NpRigidDynamic.obj
 0001:00039dd0       ?setRigidDynamicLockFlag@NpRigidDynamic@physx@@UEAAXW4Enum@PxRigidDynamicLockFlag@2@_N@Z 000000018003add0 f   NpRigidDynamic.obj
 0001:00039e20       ?setRigidDynamicLockFlags@NpRigidDynamic@physx@@UEAAXV?$PxFlags@W4Enum@PxRigidDynamicLockFlag@physx@@E@2@@Z 000000018003ae20 f   NpRigidDynamic.obj
 0001:00039e40       ?setSleepThreshold@NpRigidDynamic@physx@@UEAAXM@Z 000000018003ae40 f   NpRigidDynamic.obj
 0001:00039fa0       ?setSolverIterationCounts@NpRigidDynamic@physx@@UEAAXII@Z 000000018003afa0 f   NpRigidDynamic.obj
 0001:0003a100       ?setStabilizationThreshold@NpRigidDynamic@physx@@UEAAXM@Z 000000018003b100 f   NpRigidDynamic.obj
 0001:0003a260       ?setWakeCounter@NpRigidDynamic@physx@@UEAAXM@Z 000000018003b260 f   NpRigidDynamic.obj
 0001:0003a490       ?switchFromNoSim@NpRigidDynamic@physx@@UEAAXXZ 000000018003b490 f   NpRigidDynamic.obj
 0001:0003a4b0       ?switchToNoSim@NpRigidDynamic@physx@@UEAAXXZ 000000018003b4b0 f   NpRigidDynamic.obj
 0001:0003a5c0       ?visualize@NpRigidDynamic@physx@@QEAAXAEAVRenderOutput@Cm@2@PEAVNpScene@2@@Z 000000018003b5c0 f   NpRigidDynamic.obj
 0001:0003a850       ?wakeUp@NpRigidDynamic@physx@@UEAAXXZ 000000018003b850 f   NpRigidDynamic.obj
 0001:0003a9c0       ?wakeUpInternalNoKinematicTest@NpRigidDynamic@physx@@QEAAXAEAVBody@Scb@2@_N1@Z 000000018003b9c0 f   NpRigidDynamic.obj
 0001:0003aa40       ??0NpRigidStatic@physx@@QEAA@AEBVPxTransform@1@@Z 000000018003ba40 f   NpRigidStatic.obj
 0001:0003ab10       ??_E?$NpActorTemplate@VPxRigidStatic@physx@@@physx@@UEAAPEAXI@Z 000000018003bb10 f i NpRigidStatic.obj
 0001:0003ab10       ??_G?$NpActorTemplate@VPxRigidStatic@physx@@@physx@@UEAAPEAXI@Z 000000018003bb10 f i NpRigidStatic.obj
 0001:0003ab90       ??_E?$NpRigidActorTemplate@VPxRigidStatic@physx@@@physx@@UEAAPEAXI@Z 000000018003bb90 f i NpRigidStatic.obj
 0001:0003ab90       ??_G?$NpRigidActorTemplate@VPxRigidStatic@physx@@@physx@@UEAAPEAXI@Z 000000018003bb90 f i NpRigidStatic.obj
 0001:0003ac20       ??_ENpRigidStatic@physx@@UEAAPEAXI@Z 000000018003bc20 f i NpRigidStatic.obj
 0001:0003ac20       ??_GNpRigidStatic@physx@@UEAAPEAXI@Z 000000018003bc20 f i NpRigidStatic.obj
 0001:0003acd0       ?NpRigidStaticGetShapes@physx@@YAIAEAVRigidStatic@Scb@1@AEAPEBQEAX@Z 000000018003bcd0 f   NpRigidStatic.obj
 0001:0003ad10       ?attachShape@?$NpRigidActorTemplate@VPxRigidStatic@physx@@@physx@@UEAA_NAEAVPxShape@2@@Z 000000018003bd10 f i NpRigidStatic.obj
 0001:0003ae50       ?checkConstraintValidity@NpRigidStatic@physx@@QEBA_NXZ 000000018003be50 f   NpRigidStatic.obj
 0001:0003aed0       ?createObject@NpRigidStatic@physx@@SAPEAV12@AEAPEAEAEAVPxDeserializationContext@2@@Z 000000018003bed0 f   NpRigidStatic.obj
 0001:0003af80       ?detachShape@?$NpRigidActorTemplate@VPxRigidStatic@physx@@@physx@@UEAAXAEAVPxShape@2@_N@Z 000000018003bf80 f i NpRigidStatic.obj
 0001:0003b050       ?getActorFlags@?$NpActorTemplate@VPxRigidStatic@physx@@@physx@@UEBA?AV?$PxFlags@W4Enum@PxActorFlag@physx@@E@2@XZ 000000018003c050 f i NpRigidStatic.obj
 0001:0003b0d0       ?getConcreteTypeName@PxRigidStatic@physx@@UEBAPEBDXZ 000000018003c0d0 f i NpRigidStatic.obj
 0001:0003b0e0       ?getConstraints@?$NpRigidActorTemplate@VPxRigidStatic@physx@@@physx@@UEBAIPEAPEAVPxConstraint@2@II@Z 000000018003c0e0 f i NpRigidStatic.obj
 0001:0003b1a0       ?getDominanceGroup@?$NpActorTemplate@VPxRigidStatic@physx@@@physx@@UEBAEXZ 000000018003c1a0 f i NpRigidStatic.obj
 0001:0003b230       ?getGlobalPose@NpRigidStatic@physx@@UEBA?AVPxTransform@2@XZ 000000018003c230 f   NpRigidStatic.obj
 0001:0003b2c0       ?getName@?$NpActorTemplate@VPxRigidStatic@physx@@@physx@@UEBAPEBDXZ 000000018003c2c0 f i NpRigidStatic.obj
 0001:0003b300       ?getNbConstraints@?$NpRigidActorTemplate@VPxRigidStatic@physx@@@physx@@UEBAIXZ 000000018003c300 f i NpRigidStatic.obj
 0001:0003b350       ?getNbShapes@?$NpRigidActorTemplate@VPxRigidStatic@physx@@@physx@@UEBAIXZ 000000018003c350 f i NpRigidStatic.obj
 0001:0003b390       ?getShapes@?$NpRigidActorTemplate@VPxRigidStatic@physx@@@physx@@UEBAIPEAPEAVPxShape@2@II@Z 000000018003c390 f i NpRigidStatic.obj
 0001:0003b400       ?createDeviceMemoryAllocator@PxsDefaultMemoryManager@physx@@UEAAPEAVVirtualAllocatorCallback@shdfnd@2@I@Z 000000018003c400 f i LowLevel_static_64:PxsDefaultMemoryManager.obj
 0001:0003b400       ?getActiveBodies@SimulationController@Sc@physx@@UEAAPEAIXZ 000000018003c400 f i SimulationController_static_64:ScSimulationController.obj
 0001:0003b400       ?getBroadPhasePairs@BroadPhaseABP@Bp@physx@@UEBAPEAUBroadPhasePair@23@XZ 000000018003c400 f i LowLevelAABB_static_64:BpBroadPhaseABP.obj
 0001:0003b400       ?getBroadPhasePairs@BroadPhaseMBP@Bp@physx@@UEBAPEAUBroadPhasePair@23@XZ 000000018003c400 f i LowLevelAABB_static_64:BpBroadPhaseMBP.obj
 0001:0003b400       ?getDeactiveBodies@SimulationController@Sc@physx@@UEAAPEAIXZ 000000018003c400 f i SimulationController_static_64:ScSimulationController.obj
 0001:0003b400       ?getDof@ArticulationV@Dy@physx@@UEAAII@Z 000000018003c400 f i LowLevelDynamics_static_64:DyArticulation.obj
 0001:0003b400       ?getDofs@ArticulationV@Dy@physx@@UEAAIXZ 000000018003c400 f i LowLevelDynamics_static_64:DyArticulation.obj
 0001:0003b400       ?getFrozenShapes@SimulationController@Sc@physx@@UEAAPEAIXZ 000000018003c400 f i SimulationController_static_64:ScSimulationController.obj
 0001:0003b400       ?getGPUContactManagerOutputBase@PxsNphaseImplementationContext@physx@@UEAAPEAUPxsContactManagerOutput@2@XZ 000000018003c400 f i LowLevel_static_64:PxsNphaseImplementationContext.obj
 0001:0003b400       ?getNbBodies@SimulationController@Sc@physx@@UEAAIXZ 000000018003c400 f i SimulationController_static_64:ScSimulationController.obj
 0001:0003b400       ?getNbFrozenShapes@SimulationController@Sc@physx@@UEAAIXZ 000000018003c400 f i SimulationController_static_64:ScSimulationController.obj
 0001:0003b400       ?getNbOutOfBoundsObjects@BroadPhaseBase@Bp@physx@@UEBAIXZ 000000018003c400 f i LowLevelAABB_static_64:BpBroadPhaseSap.obj
 0001:0003b400       ?getNbRegions@BroadPhaseBase@Bp@physx@@UEBAIXZ 000000018003c400 f i LowLevelAABB_static_64:BpBroadPhaseSap.obj
 0001:0003b400       ?getNbShapes@SimulationController@Sc@physx@@UEAAIXZ 000000018003c400 f i SimulationController_static_64:ScSimulationController.obj
 0001:0003b400       ?getNbUnfrozenShapes@SimulationController@Sc@physx@@UEAAIXZ 000000018003c400 f i SimulationController_static_64:ScSimulationController.obj
 0001:0003b400       ?getOutOfBoundsObjects@BroadPhaseBase@Bp@physx@@UEBAPEBIXZ 000000018003c400 f i LowLevelAABB_static_64:BpBroadPhaseSap.obj
 0001:0003b400       ?getRegions@BroadPhaseBase@Bp@physx@@UEBAIPEAUPxBroadPhaseRegionInfo@3@II@Z 000000018003c400 f i LowLevelAABB_static_64:BpBroadPhaseSap.obj
 0001:0003b400       ?getRigidBodies@SimulationController@Sc@physx@@UEAAPEAPEAXXZ 000000018003c400 f i SimulationController_static_64:ScSimulationController.obj
 0001:0003b400       ?getShapeSims@SimulationController@Sc@physx@@UEAAPEAPEAUPxsShapeSim@3@XZ 000000018003c400 f i SimulationController_static_64:ScSimulationController.obj
 0001:0003b400       ?getType@BroadPhaseSap@Bp@physx@@UEBA?AW4Enum@PxBroadPhaseType@3@XZ 000000018003c400 f i LowLevelAABB_static_64:BpBroadPhaseSap.obj
 0001:0003b400       ?getType@NpRigidStatic@physx@@UEBA?AW4Enum@PxActorType@2@XZ 000000018003c400 f i NpRigidStatic.obj
 0001:0003b400       ?getUnfrozenShapes@SimulationController@Sc@physx@@UEAAPEAIXZ 000000018003c400 f i SimulationController_static_64:ScSimulationController.obj
 0001:0003b400       __scrt_stub_for_is_c_termination_complete 000000018003c400 f i MSVCRT:ucrt_stubs.obj
 0001:0003b400       _is_c_termination_complete 000000018003c400 f i MSVCRT:ucrt_stubs.obj
 0001:0003b410       ?getWorldBounds@?$NpRigidActorTemplate@VPxRigidStatic@physx@@@physx@@UEBA?AVPxBounds3@2@M@Z 000000018003c410 f i NpRigidStatic.obj
 0001:0003b5a0       ?isKindOf@PxRigidStatic@physx@@MEBA_NPEBD@Z 000000018003c5a0 f i NpRigidStatic.obj
 0001:0003b5f0       ?release@NpRigidStatic@physx@@UEAAXXZ 000000018003c5f0 f   NpRigidStatic.obj
 0001:0003b700       ?setActorFlag@?$NpActorTemplate@VPxRigidStatic@physx@@@physx@@UEAAXW4Enum@PxActorFlag@2@_N@Z 000000018003c700 f i NpRigidStatic.obj
 0001:0003b7e0       ?setActorFlag@?$NpRigidActorTemplate@VPxRigidStatic@physx@@@physx@@UEAAXW4Enum@PxActorFlag@2@_N@Z 000000018003c7e0 f i NpRigidStatic.obj
 0001:0003ba60       ?setActorFlags@?$NpActorTemplate@VPxRigidStatic@physx@@@physx@@UEAAXV?$PxFlags@W4Enum@PxActorFlag@physx@@E@2@@Z 000000018003ca60 f i NpRigidStatic.obj
 0001:0003bad0       ?setActorFlags@?$NpRigidActorTemplate@VPxRigidStatic@physx@@@physx@@UEAAXV?$PxFlags@W4Enum@PxActorFlag@physx@@E@2@@Z 000000018003cad0 f i NpRigidStatic.obj
 0001:0003bcf0       ?setDominanceGroup@?$NpActorTemplate@VPxRigidStatic@physx@@@physx@@UEAAXE@Z 000000018003ccf0 f i NpRigidStatic.obj
 0001:0003bdd0       ?setGlobalPose@NpRigidStatic@physx@@UEAAXAEBVPxTransform@2@_N@Z 000000018003cdd0 f   NpRigidStatic.obj
 0001:0003c150       ?setName@?$NpActorTemplate@VPxRigidStatic@physx@@@physx@@UEAAXPEBD@Z 000000018003d150 f i NpRigidStatic.obj
 0001:0003c1d0       ?switchFromNoSim@NpRigidStatic@physx@@UEAAXXZ 000000018003d1d0 f   NpRigidStatic.obj
 0001:0003c1f0       ?switchToNoSim@NpRigidStatic@physx@@UEAAXXZ 000000018003d1f0 f   NpRigidStatic.obj
 0001:0003c210       ?visualize@NpRigidStatic@physx@@QEAAXAEAVRenderOutput@Cm@2@PEAVNpScene@2@@Z 000000018003d210 f   NpRigidStatic.obj
 0001:0003c340       ??0NpScene@physx@@QEAA@AEBVPxSceneDesc@1@@Z 000000018003d340 f   NpScene.obj
 0001:0003cb60       ??1FanoutTask@Cm@physx@@UEAA@XZ 000000018003db60 f i NpScene.obj
 0001:0003cc10       ??1FlushPool@Cm@physx@@QEAA@XZ 000000018003dc10 f i NpScene.obj
 0001:0003ccc0       ??1NpScene@physx@@UEAA@XZ  000000018003dcc0 f   NpScene.obj
 0001:0003d2b0       ??1NpSceneQueries@physx@@UEAA@XZ 000000018003e2b0 f   NpScene.obj
 0001:0003d330       ??1PvdSceneQueryCollector@Vd@physx@@QEAA@XZ 000000018003e330 f i NpScene.obj
 0001:0003d4c0       ??1RenderBuffer@Cm@physx@@UEAA@XZ 000000018003e4c0 f i NpScene.obj
 0001:0003d5a0       ??1Scene@Sc@physx@@QEAA@XZ 000000018003e5a0 f i NpScene.obj
 0001:0003e040       ??1Scene@Scb@physx@@QEAA@XZ 000000018003f040 f i NpScene.obj
 0001:0003e240       ??_E?$DelegateTask@VNpScene@physx@@$H?executeAdvance@12@QEAAXPEAVPxBaseTask@2@@ZA@@Cm@physx@@UEAAPEAXI@Z 000000018003f240 f i NpScene.obj
 0001:0003e240       ??_E?$DelegateTask@VNpScene@physx@@$H?executeCollide@12@QEAAXPEAVPxBaseTask@2@@ZA@@Cm@physx@@UEAAPEAXI@Z 000000018003f240 f i NpScene.obj
 0001:0003e240       ??_E?$DelegateTask@VNpScene@physx@@$H?executeScene@12@QEAAXPEAVPxBaseTask@2@@ZA@@Cm@physx@@UEAAPEAXI@Z 000000018003f240 f i NpScene.obj
 0001:0003e240       ??_E?$DelegateTask@VNpSceneQueries@physx@@$1?sceneQueriesDynamicPrunerUpdate@12@QEAAXPEAVPxBaseTask@2@@Z@Cm@physx@@UEAAPEAXI@Z 000000018003f240 f i NpScene.obj
 0001:0003e240       ??_E?$DelegateTask@VNpSceneQueries@physx@@$1?sceneQueriesStaticPrunerUpdate@12@QEAAXPEAVPxBaseTask@2@@Z@Cm@physx@@UEAAPEAXI@Z 000000018003f240 f i NpScene.obj
 0001:0003e240       ??_G?$DelegateTask@VNpScene@physx@@$H?executeAdvance@12@QEAAXPEAVPxBaseTask@2@@ZA@@Cm@physx@@UEAAPEAXI@Z 000000018003f240 f i NpScene.obj
 0001:0003e240       ??_G?$DelegateTask@VNpScene@physx@@$H?executeCollide@12@QEAAXPEAVPxBaseTask@2@@ZA@@Cm@physx@@UEAAPEAXI@Z 000000018003f240 f i NpScene.obj
 0001:0003e240       ??_G?$DelegateTask@VNpScene@physx@@$H?executeScene@12@QEAAXPEAVPxBaseTask@2@@ZA@@Cm@physx@@UEAAPEAXI@Z 000000018003f240 f i NpScene.obj
 0001:0003e240       ??_G?$DelegateTask@VNpSceneQueries@physx@@$1?sceneQueriesDynamicPrunerUpdate@12@QEAAXPEAVPxBaseTask@2@@Z@Cm@physx@@UEAAPEAXI@Z 000000018003f240 f i NpScene.obj
 0001:0003e240       ??_G?$DelegateTask@VNpSceneQueries@physx@@$1?sceneQueriesStaticPrunerUpdate@12@QEAAXPEAVPxBaseTask@2@@Z@Cm@physx@@UEAAPEAXI@Z 000000018003f240 f i NpScene.obj
 0001:0003e2a0       ??_ENpContactCallbackTask@physx@@UEAAPEAXI@Z 000000018003f2a0 f i NpScene.obj
 0001:0003e2a0       ??_EScKinematicAddDynamicTask@@UEAAPEAXI@Z 000000018003f2a0 f i SimulationController_static_64:ScScene.obj
 0001:0003e2a0       ??_ESetStepperTask@Dy@physx@@UEAAPEAXI@Z 000000018003f2a0 f i LowLevelDynamics_static_64:DyTGSDynamics.obj
 0001:0003e2a0       ??_EUpdateArticulationTask@@UEAAPEAXI@Z 000000018003f2a0 f i SimulationController_static_64:ScScene.obj
 0001:0003e2a0       ??_EUpdateCCDBoundsTask@@UEAAPEAXI@Z 000000018003f2a0 f i SimulationController_static_64:ScScene.obj
 0001:0003e2a0       ??_EUpdateContinuationTGSTask@Dy@physx@@UEAAPEAXI@Z 000000018003f2a0 f i LowLevelDynamics_static_64:DyTGSDynamics.obj
 0001:0003e2a0       ??_EUpdateContinuationTask@Dy@physx@@UEAAPEAXI@Z 000000018003f2a0 f i LowLevelDynamics_static_64:DyDynamics.obj
 0001:0003e2a0       ??_GNpContactCallbackTask@physx@@UEAAPEAXI@Z 000000018003f2a0 f i NpScene.obj
 0001:0003e2a0       ??_GScKinematicAddDynamicTask@@UEAAPEAXI@Z 000000018003f2a0 f i SimulationController_static_64:ScScene.obj
 0001:0003e2a0       ??_GSetStepperTask@Dy@physx@@UEAAPEAXI@Z 000000018003f2a0 f i LowLevelDynamics_static_64:DyTGSDynamics.obj
 0001:0003e2a0       ??_GUpdateArticulationTask@@UEAAPEAXI@Z 000000018003f2a0 f i SimulationController_static_64:ScScene.obj
 0001:0003e2a0       ??_GUpdateCCDBoundsTask@@UEAAPEAXI@Z 000000018003f2a0 f i SimulationController_static_64:ScScene.obj
 0001:0003e2a0       ??_GUpdateContinuationTGSTask@Dy@physx@@UEAAPEAXI@Z 000000018003f2a0 f i LowLevelDynamics_static_64:DyTGSDynamics.obj
 0001:0003e2a0       ??_GUpdateContinuationTask@Dy@physx@@UEAAPEAXI@Z 000000018003f2a0 f i LowLevelDynamics_static_64:DyDynamics.obj
 0001:0003e2e0       ??_ENpScene@physx@@UEAAPEAXI@Z 000000018003f2e0 f i NpScene.obj
 0001:0003e2e0       ??_GNpScene@physx@@UEAAPEAXI@Z 000000018003f2e0 f i NpScene.obj
 0001:0003e340       ??_ENpSceneQueries@physx@@UEAAPEAXI@Z 000000018003f340 f i NpScene.obj
 0001:0003e340       ??_GNpSceneQueries@physx@@UEAAPEAXI@Z 000000018003f340 f i NpScene.obj
 0001:0003e380       ??_EPxBaseTask@physx@@UEAAPEAXI@Z 000000018003f380 f i NpScene.obj
 0001:0003e380       ??_GPxBaseTask@physx@@UEAAPEAXI@Z 000000018003f380 f i NpScene.obj
 0001:0003e3b0       ??_EPxLightCpuTask@physx@@UEAAPEAXI@Z 000000018003f3b0 f i NpScene.obj
 0001:0003e3b0       ??_GPxLightCpuTask@physx@@UEAAPEAXI@Z 000000018003f3b0 f i NpScene.obj
 0001:0003e3f0       ??_EPvdEventSerializer@pvdsdk@physx@@MEAAPEAXI@Z 000000018003f3f0 f i PhysXPvdSDK_static_64:PxPvdDataStream.obj
 0001:0003e3f0       ??_EPxRenderBuffer@physx@@UEAAPEAXI@Z 000000018003f3f0 f i NpScene.obj
 0001:0003e3f0       ??_GPvdEventSerializer@pvdsdk@physx@@MEAAPEAXI@Z 000000018003f3f0 f i PhysXPvdSDK_static_64:PxPvdDataStream.obj
 0001:0003e3f0       ??_GPxRenderBuffer@physx@@UEAAPEAXI@Z 000000018003f3f0 f i NpScene.obj
 0001:0003e420       ??_EPxScene@physx@@MEAAPEAXI@Z 000000018003f420 f i NpScene.obj
 0001:0003e420       ??_GPxScene@physx@@MEAAPEAXI@Z 000000018003f420 f i NpScene.obj
 0001:0003e450       ??_ERenderBuffer@Cm@physx@@UEAAPEAXI@Z 000000018003f450 f i NpScene.obj
 0001:0003e450       ??_GRenderBuffer@Cm@physx@@UEAAPEAXI@Z 000000018003f450 f i NpScene.obj
 0001:0003e4b0       ??_EDynamicsMergeTask@Dy@physx@@UEAAPEAXI@Z 000000018003f4b0 f i LowLevelDynamics_static_64:DyTGSDynamics.obj
 0001:0003e4b0       ??_EPostThirdPassTask@IG@physx@@UEAAPEAXI@Z 000000018003f4b0 f i LowLevel_static_64:PxsSimpleIslandManager.obj
 0001:0003e4b0       ??_EPxsForceThresholdTask@Dy@physx@@UEAAPEAXI@Z 000000018003f4b0 f i LowLevelDynamics_static_64:DyDynamics.obj
 0001:0003e4b0       ??_ESceneCompletion@NpScene@physx@@UEAAPEAXI@Z 000000018003f4b0 f i NpScene.obj
 0001:0003e4b0       ??_GDynamicsMergeTask@Dy@physx@@UEAAPEAXI@Z 000000018003f4b0 f i LowLevelDynamics_static_64:DyTGSDynamics.obj
 0001:0003e4b0       ??_GPostThirdPassTask@IG@physx@@UEAAPEAXI@Z 000000018003f4b0 f i LowLevel_static_64:PxsSimpleIslandManager.obj
 0001:0003e4b0       ??_GPxsForceThresholdTask@Dy@physx@@UEAAPEAXI@Z 000000018003f4b0 f i LowLevelDynamics_static_64:DyDynamics.obj
 0001:0003e4b0       ??_GSceneCompletion@NpScene@physx@@UEAAPEAXI@Z 000000018003f4b0 f i NpScene.obj
 0001:0003e4f0       ?addActor@NpScene@physx@@UEAAXAEAVPxActor@2@PEBVPxBVHStructure@2@@Z 000000018003f4f0 f   NpScene.obj
 0001:0003e850       ?addActorInternal@NpScene@physx@@QEAAXAEAVPxActor@2@PEBVPxBVHStructure@2@@Z 000000018003f850 f   NpScene.obj
 0001:0003e9b0       ?addActors@NpScene@physx@@UEAAXAEBVPxPruningStructure@2@@Z 000000018003f9b0 f   NpScene.obj
 0001:0003ea00       ?addActors@NpScene@physx@@UEAAXPEBQEAVPxActor@2@I@Z 000000018003fa00 f   NpScene.obj
 0001:0003ea10       ?addActorsInternal@NpScene@physx@@QEAAXPEIBQEAVPxActor@2@IPEBVPruningStructure@Sq@2@@Z 000000018003fa10 f   NpScene.obj
 0001:0003f310       ?addAggregate@NpScene@physx@@UEAAXAEAVPxAggregate@2@@Z 0000000180040310 f   NpScene.obj
 0001:0003f640       ?addArticulation@NpScene@physx@@UEAAXAEAVPxArticulationBase@2@@Z 0000000180040640 f   NpScene.obj
 0001:0003f850       ?addArticulationInternal@NpScene@physx@@QEAAXAEAVPxArticulationBase@2@@Z 0000000180040850 f   NpScene.obj
 0001:0003fe90       ?addArticulationLink@NpScene@physx@@QEAAXAEAVNpArticulationLink@2@@Z 0000000180040e90 f   NpScene.obj
 0001:0003ff70       ?addBroadPhaseRegion@NpScene@physx@@UEAAIAEBUPxBroadPhaseRegion@2@_N@Z 0000000180040f70 f   NpScene.obj
 0001:000401b0       ?addCollection@NpScene@physx@@UEAAXAEBVPxCollection@2@@Z 00000001800411b0 f   NpScene.obj
 0001:00040460       ?addMaterial@NpScene@physx@@QEAAXAEBVNpMaterial@2@@Z 0000000180041460 f   NpScene.obj
 0001:00040470       ?addReference@PxLightCpuTask@physx@@UEAAXXZ 0000000180041470 f i NpScene.obj
 0001:00040480       ?addRigidDynamic@NpScene@physx@@AEAAXAEAVNpRigidDynamic@2@PEBVBVHStructure@Gu@2@_N@Z 0000000180041480 f   NpScene.obj
 0001:000405a0       ?addRigidStatic@NpScene@physx@@AEAAXAEAVNpRigidStatic@2@PEBVBVHStructure@Gu@2@_N@Z 00000001800415a0 f   NpScene.obj
 0001:000406c0       ?advance@NpScene@physx@@UEAAXPEAVPxBaseTask@2@@Z 00000001800416c0 f   NpScene.obj
 0001:00040870       ?allocate@?$Array@VPxBounds3@physx@@V?$InlineAllocator@$0MA@VNamedAllocator@shdfnd@physx@@@shdfnd@2@@shdfnd@physx@@IEAAPEAVPxBounds3@3@I@Z 0000000180041870 f i NpScene.obj
 0001:00040900       ?append@RenderBuffer@Cm@physx@@UEAAXAEBVPxRenderBuffer@3@@Z 0000000180041900 f i NpScene.obj
 0001:00040d10       ?checkCollision@NpScene@physx@@UEAA_N_N@Z 0000000180041d10 f   NpScene.obj
 0001:00040d20       ?checkCollisionInternal@NpScene@physx@@AEAA_N_N@Z 0000000180041d20 f   NpScene.obj
 0001:00040dd0       ?checkPositionSanity@NpScene@physx@@QEBAXAEBVPxRigidActor@2@AEBVPxTransform@2@PEBD@Z 0000000180041dd0 f   NpScene.obj
 0001:00040e70       ?checkQueries@NpScene@physx@@UEAA_N_N@Z 0000000180041e70 f   NpScene.obj
 0001:00040e80       ?checkResults@NpScene@physx@@UEAA_N_N@Z 0000000180041e80 f   NpScene.obj
 0001:00040e90       ?checkResultsInternal@NpScene@physx@@AEAA_N_N@Z 0000000180041e90 f   NpScene.obj
 0001:00040f40       ?checkSceneQueriesInternal@NpScene@physx@@AEAA_N_N@Z 0000000180041f40 f   NpScene.obj
 0001:00040ff0       ?clear@RenderBuffer@Cm@physx@@UEAAXXZ 0000000180041ff0 f i NpScene.obj
 0001:00041010       ?collide@NpScene@physx@@UEAAXMPEAVPxBaseTask@2@PEAXI_N@Z 0000000180042010 f   NpScene.obj
 0001:00041050       ?copy@?$Array@UPxDebugPoint@physx@@VNamedAllocator@shdfnd@2@@shdfnd@physx@@KAXPEAUPxDebugPoint@3@0PEBU43@@Z 0000000180042050 f i NpScene.obj
 0001:00041150       ?copy@?$Array@UPxDebugText@physx@@VNamedAllocator@shdfnd@2@@shdfnd@physx@@KAXPEAUPxDebugText@3@0PEBU43@@Z 0000000180042150 f i NpScene.obj
 0001:000412c0       ?copy@?$Array@UPxDebugTriangle@physx@@VNamedAllocator@shdfnd@2@@shdfnd@physx@@KAXPEAUPxDebugTriangle@3@0PEBU43@@Z 00000001800422c0 f i NpScene.obj
 0001:000414c0       ?createBatchQuery@NpScene@physx@@UEAAPEAVPxBatchQuery@2@AEBVPxBatchQueryDesc@2@@Z 00000001800424c0 f   NpScene.obj
 0001:00041680       ?createClient@NpScene@physx@@UEAAEXZ 0000000180042680 f   NpScene.obj
 0001:00041750       ?fetchCollision@NpScene@physx@@UEAA_N_N@Z 0000000180042750 f   NpScene.obj
 0001:000417e0       ?fetchQueries@NpScene@physx@@UEAA_N_N@Z 00000001800427e0 f   NpScene.obj
 0001:00041920       ?fetchResults@NpScene@physx@@UEAA_N_NPEAI@Z 0000000180042920 f   NpScene.obj
 0001:00041bd0       ?fetchResultsFinish@NpScene@physx@@UEAAXPEAI@Z 0000000180042bd0 f   NpScene.obj
 0001:00041d80       ?fetchResultsPostContactCallbacks@NpScene@physx@@AEAAXXZ 0000000180042d80 f   NpScene.obj
 0001:00042010       ?fetchResultsPreContactCallbacks@NpScene@physx@@AEAAXXZ 0000000180043010 f   NpScene.obj
 0001:000422b0       ?fetchResultsStart@NpScene@physx@@UEAA_NAEAPEBUPxContactPairHeader@2@AEAI_N@Z 00000001800432b0 f   NpScene.obj
 0001:00042480       ?find@SqRefFinder@@UEAAIPEBVPxRigidBody@physx@@PEBVPxShape@3@@Z 0000000180043480 f i NpScene.obj
 0001:000424b0       ?flushQueryUpdates@NpScene@physx@@UEAAXXZ 00000001800434b0 f   NpScene.obj
 0001:000425b0       ?flushSimulation@NpScene@physx@@UEAAX_N@Z 00000001800435b0 f   NpScene.obj
 0001:000427c0       ?forceDynamicTreeRebuild@NpScene@physx@@UEAAX_N0@Z 00000001800437c0 f   NpScene.obj
 0001:000428e0       ?forceSceneQueryRebuild@NpScene@physx@@UEAAXXZ 00000001800438e0 f   NpScene.obj
 0001:00042930       ?frameEnd@NpScene@physx@@UEAAXXZ 0000000180043930 f   NpScene.obj
 0001:00042940       ?getActiveActors@NpScene@physx@@UEAAPEAPEAVPxActor@2@AEAI@Z 0000000180043940 f   NpScene.obj
 0001:000429d0       ?getActors@NpScene@physx@@UEBAIV?$PxFlags@W4Enum@PxActorTypeFlag@physx@@G@2@PEAPEAVPxActor@2@II@Z 00000001800439d0 f   NpScene.obj
 0001:00042b00       ?getAggregates@NpScene@physx@@UEBAIPEAPEAVPxAggregate@2@II@Z 0000000180043b00 f   NpScene.obj
 0001:00042ba0       ?getArticulations@NpScene@physx@@UEBAIPEAPEAVPxArticulationBase@2@II@Z 0000000180043ba0 f   NpScene.obj
 0001:00042c40       ?getBounceThresholdVelocity@NpScene@physx@@UEBAMXZ 0000000180043c40 f   NpScene.obj
 0001:00042ca0       ?getBroadPhaseCallback@NpScene@physx@@UEBAPEAVPxBroadPhaseCallback@2@XZ 0000000180043ca0 f   NpScene.obj
 0001:00042ce0       ?getBroadPhaseCaps@NpScene@physx@@UEBA_NAEAUPxBroadPhaseCaps@2@@Z 0000000180043ce0 f   NpScene.obj
 0001:00042d30       ?getBroadPhaseRegions@NpScene@physx@@UEBAIPEAUPxBroadPhaseRegionInfo@2@II@Z 0000000180043d30 f   NpScene.obj
 0001:00042da0       ?getBroadPhaseType@NpScene@physx@@UEBA?AW4Enum@PxBroadPhaseType@2@XZ 0000000180043da0 f   NpScene.obj
 0001:00042de0       ?getCCDContactModifyCallback@NpScene@physx@@UEBAPEAVPxCCDContactModifyCallback@2@XZ 0000000180043de0 f   NpScene.obj
 0001:00042e20       ?getCCDMaxPasses@NpScene@physx@@UEBAIXZ 0000000180043e20 f   NpScene.obj
 0001:00042e60       ?getConstraints@NpScene@physx@@UEBAIPEAPEAVPxConstraint@2@II@Z 0000000180043e60 f   NpScene.obj
 0001:00042f00       ?getContactModifyCallback@NpScene@physx@@UEBAPEAVPxContactModifyCallback@2@XZ 0000000180043f00 f   NpScene.obj
 0001:00042f40       ?getContactReportStreamBufferSize@NpScene@physx@@UEBAIXZ 0000000180043f40 f   NpScene.obj
 0001:00042f50       ?getCpuDispatcher@NpScene@physx@@UEBAPEAVPxCpuDispatcher@2@XZ 0000000180043f50 f   NpScene.obj
 0001:00042f70       ?getCudaContextManager@NpScene@physx@@UEAAPEAVPxCudaContextManager@2@XZ 0000000180043f70 f i NpScene.obj
 0001:00042f70       ?getCudaContextManager@NpScene@physx@@UEBAPEAVPxCudaContextManager@2@XZ 0000000180043f70 f i NpScene.obj
 0001:00042f80       ?getDominanceGroupPair@NpScene@physx@@UEBA?AUPxDominanceGroupPair@2@EE@Z 0000000180043f80 f   NpScene.obj
 0001:000430c0       ?getDynamicStructure@NpScene@physx@@UEBA?AW4Enum@PxPruningStructureType@2@XZ 00000001800440c0 f   NpScene.obj
 0001:000430d0       ?getDynamicTreeRebuildRateHint@NpScene@physx@@UEBAIXZ 00000001800440d0 f   NpScene.obj
 0001:00043110       ?getFilterCallback@NpScene@physx@@UEBAPEAVPxSimulationFilterCallback@2@XZ 0000000180044110 f   NpScene.obj
 0001:00043150       ?getFilterShader@NpScene@physx@@UEBAP6A?AV?$PxFlags@W4Enum@PxFilterFlag@physx@@G@2@IUPxFilterData@2@I0AEAV?$PxFlags@W4Enum@PxPairFlag@physx@@G@2@PEBXI@ZXZ 0000000180044150 f   NpScene.obj
 0001:00043190       ?getFilterShaderData@NpScene@physx@@UEBAPEBXXZ 0000000180044190 f   NpScene.obj
 0001:000431d0       ?getFilterShaderDataSize@NpScene@physx@@UEBAIXZ 00000001800441d0 f   NpScene.obj
 0001:00043210       ?getFlags@NpScene@physx@@UEBA?AV?$PxFlags@W4Enum@PxSceneFlag@physx@@I@2@XZ 0000000180044210 f   NpScene.obj
 0001:00043270       ?getFrictionOffsetThreshold@NpScene@physx@@UEBAMXZ 0000000180044270 f   NpScene.obj
 0001:00043280       ?getFrictionType@NpScene@physx@@UEBA?AW4Enum@PxFrictionType@2@XZ 0000000180044280 f   NpScene.obj
 0001:000432c0       ?getFrozenActors@NpScene@physx@@UEAAPEAPEAVPxActor@2@AEAI@Z 00000001800442c0 f   NpScene.obj
 0001:00043350       ?getGravity@NpScene@physx@@UEBA?AVPxVec3@2@XZ 0000000180044350 f   NpScene.obj
 0001:000433e0       ?getKinematicKinematicFilteringMode@NpScene@physx@@UEBA?AW4Enum@PxPairFilteringMode@2@XZ 00000001800443e0 f   NpScene.obj
 0001:00043420       ?getLimits@NpScene@physx@@UEBA?AVPxSceneLimits@2@XZ 0000000180044420 f   NpScene.obj
 0001:00043480       ?getMaxNbContactDataBlocksUsed@NpScene@physx@@UEBAIXZ 0000000180044480 f   NpScene.obj
 0001:000434d0       ?getName@?$DelegateTask@VAABBManager@Bp@physx@@$1?postBpStage3@123@AEAAXPEAVPxBaseTask@3@@Z@Cm@physx@@UEBAPEBDXZ 00000001800444d0 f i LowLevelAABB_static_64:BpAABBManager.obj
 0001:000434d0       ?getName@?$DelegateTask@VNPhaseCore@Sc@physx@@$1?mergeProcessedTriggerInteractions@123@QEAAXPEAVPxBaseTask@3@@Z@Cm@physx@@UEBAPEBDXZ 00000001800444d0 f i SimulationController_static_64:ScNPhaseCore.obj
 0001:000434d0       ?getName@?$DelegateTask@VNpScene@physx@@$H?executeAdvance@12@QEAAXPEAVPxBaseTask@2@@ZA@@Cm@physx@@UEBAPEBDXZ 00000001800444d0 f i NpScene.obj
 0001:000434d0       ?getName@?$DelegateTask@VNpScene@physx@@$H?executeCollide@12@QEAAXPEAVPxBaseTask@2@@ZA@@Cm@physx@@UEBAPEBDXZ 00000001800444d0 f i NpScene.obj
 0001:000434d0       ?getName@?$DelegateTask@VNpScene@physx@@$H?executeScene@12@QEAAXPEAVPxBaseTask@2@@ZA@@Cm@physx@@UEBAPEBDXZ 00000001800444d0 f i NpScene.obj
 0001:000434d0       ?getName@?$DelegateTask@VNpSceneQueries@physx@@$1?sceneQueriesDynamicPrunerUpdate@12@QEAAXPEAVPxBaseTask@2@@Z@Cm@physx@@UEBAPEBDXZ 00000001800444d0 f i NpScene.obj
 0001:000434d0       ?getName@?$DelegateTask@VNpSceneQueries@physx@@$1?sceneQueriesStaticPrunerUpdate@12@QEAAXPEAVPxBaseTask@2@@Z@Cm@physx@@UEBAPEBDXZ 00000001800444d0 f i NpScene.obj
 0001:000434d0       ?getName@?$DelegateTask@VPxsCCDContext@physx@@$1?postCCDAdvance@12@AEAAXPEAVPxBaseTask@2@@Z@Cm@physx@@UEBAPEBDXZ 00000001800444d0 f i LowLevel_static_64:PxsCCD.obj
 0001:000434d0       ?getName@?$DelegateTask@VPxsCCDContext@physx@@$1?postCCDDepenetrate@12@AEAAXPEAVPxBaseTask@2@@Z@Cm@physx@@UEBAPEBDXZ 00000001800444d0 f i LowLevel_static_64:PxsCCD.obj
 0001:000434d0       ?getName@?$DelegateTask@VPxsCCDContext@physx@@$1?postCCDSweep@12@AEAAXPEAVPxBaseTask@2@@Z@Cm@physx@@UEBAPEBDXZ 00000001800444d0 f i LowLevel_static_64:PxsCCD.obj
 0001:000434d0       ?getName@?$DelegateTask@VScene@Sc@physx@@$1?advanceStep@123@AEAAXPEAVPxBaseTask@3@@Z@Cm@physx@@UEBAPEBDXZ 00000001800444d0 f i SimulationController_static_64:ScScene.obj
 0001:000434d0       ?getName@?$DelegateTask@VScene@Sc@physx@@$1?afterIntegration@123@AEAAXPEAVPxBaseTask@3@@Z@Cm@physx@@UEBAPEBDXZ 00000001800444d0 f i SimulationController_static_64:ScScene.obj
 0001:000434d0       ?getName@?$DelegateTask@VScene@Sc@physx@@$1?broadPhase@123@AEAAXPEAVPxBaseTask@3@@Z@Cm@physx@@UEBAPEBDXZ 00000001800444d0 f i SimulationController_static_64:ScScene.obj
 0001:000434d0       ?getName@?$DelegateTask@VScene@Sc@physx@@$1?ccdBroadPhase@123@AEAAXPEAVPxBaseTask@3@@Z@Cm@physx@@UEBAPEBDXZ 00000001800444d0 f i SimulationController_static_64:ScScene.obj
 0001:000434d0       ?getName@?$DelegateTask@VScene@Sc@physx@@$1?ccdBroadPhaseAABB@123@AEAAXPEAVPxBaseTask@3@@Z@Cm@physx@@UEBAPEBDXZ 00000001800444d0 f i SimulationController_static_64:ScScene.obj
 0001:000434d0       ?getName@?$DelegateTask@VScene@Sc@physx@@$1?collideStep@123@AEAAXPEAVPxBaseTask@3@@Z@Cm@physx@@UEBAPEBDXZ 00000001800444d0 f i SimulationController_static_64:ScScene.obj
 0001:000434d0       ?getName@?$DelegateTask@VScene@Sc@physx@@$1?constraintProjection@123@AEAAXPEAVPxBaseTask@3@@Z@Cm@physx@@UEBAPEBDXZ 00000001800444d0 f i SimulationController_static_64:ScScene.obj
 0001:000434d0       ?getName@?$DelegateTask@VScene@Sc@physx@@$1?destroyManagers@123@AEAAXPEAVPxBaseTask@3@@Z@Cm@physx@@UEBAPEBDXZ 00000001800444d0 f i SimulationController_static_64:ScScene.obj
 0001:000434d0       ?getName@?$DelegateTask@VScene@Sc@physx@@$1?fetchPatchEvents@123@AEAAXPEAVPxBaseTask@3@@Z@Cm@physx@@UEBAPEBDXZ 00000001800444d0 f i SimulationController_static_64:ScScene.obj
 0001:000434d0       ?getName@?$DelegateTask@VScene@Sc@physx@@$1?islandGen@123@AEAAXPEAVPxBaseTask@3@@Z@Cm@physx@@UEBAPEBDXZ 00000001800444d0 f i SimulationController_static_64:ScScene.obj
 0001:000434d0       ?getName@?$DelegateTask@VScene@Sc@physx@@$1?islandInsertion@123@QEAAXPEAVPxBaseTask@3@@Z@Cm@physx@@UEBAPEBDXZ 00000001800444d0 f i SimulationController_static_64:ScScene.obj
 0001:000434d0       ?getName@?$DelegateTask@VScene@Sc@physx@@$1?lostTouchReports@123@AEAAXPEAVPxBaseTask@3@@Z@Cm@physx@@UEBAPEBDXZ 00000001800444d0 f i SimulationController_static_64:ScScene.obj
 0001:000434d0       ?getName@?$DelegateTask@VScene@Sc@physx@@$1?postBroadPhase@123@AEAAXPEAVPxBaseTask@3@@Z@Cm@physx@@UEBAPEBDXZ 00000001800444d0 f i SimulationController_static_64:ScScene.obj
 0001:000434d0       ?getName@?$DelegateTask@VScene@Sc@physx@@$1?postBroadPhaseContinuation@123@AEAAXPEAVPxBaseTask@3@@Z@Cm@physx@@UEBAPEBDXZ 00000001800444d0 f i SimulationController_static_64:ScScene.obj
 0001:000434d0       ?getName@?$DelegateTask@VScene@Sc@physx@@$1?postBroadPhaseStage2@123@AEAAXPEAVPxBaseTask@3@@Z@Cm@physx@@UEBAPEBDXZ 00000001800444d0 f i SimulationController_static_64:ScScene.obj
 0001:000434d0       ?getName@?$DelegateTask@VScene@Sc@physx@@$1?postCCDPass@123@AEAAXPEAVPxBaseTask@3@@Z@Cm@physx@@UEBAPEBDXZ 00000001800444d0 f i SimulationController_static_64:ScScene.obj
 0001:000434d0       ?getName@?$DelegateTask@VScene@Sc@physx@@$1?postIslandGen@123@AEAAXPEAVPxBaseTask@3@@Z@Cm@physx@@UEBAPEBDXZ 00000001800444d0 f i SimulationController_static_64:ScScene.obj
 0001:000434d0       ?getName@?$DelegateTask@VScene@Sc@physx@@$1?postSolver@123@AEAAXPEAVPxBaseTask@3@@Z@Cm@physx@@UEBAPEBDXZ 00000001800444d0 f i SimulationController_static_64:ScScene.obj
 0001:000434d0       ?getName@?$DelegateTask@VScene@Sc@physx@@$1?postThirdPassIslandGen@123@AEAAXPEAVPxBaseTask@3@@Z@Cm@physx@@UEBAPEBDXZ 00000001800444d0 f i SimulationController_static_64:ScScene.obj
 0001:000434d0       ?getName@?$DelegateTask@VScene@Sc@physx@@$1?preRigidBodyNarrowPhase@123@AEAAXPEAVPxBaseTask@3@@Z@Cm@physx@@UEBAPEBDXZ 00000001800444d0 f i SimulationController_static_64:ScScene.obj
 0001:000434d0       ?getName@?$DelegateTask@VScene@Sc@physx@@$1?preallocateContactManagers@123@QEAAXPEAVPxBaseTask@3@@Z@Cm@physx@@UEBAPEBDXZ 00000001800444d0 f i SimulationController_static_64:ScScene.obj
 0001:000434d0       ?getName@?$DelegateTask@VScene@Sc@physx@@$1?processLostContacts2@123@AEAAXPEAVPxBaseTask@3@@Z@Cm@physx@@UEBAPEBDXZ 00000001800444d0 f i SimulationController_static_64:ScScene.obj
 0001:000434d0       ?getName@?$DelegateTask@VScene@Sc@physx@@$1?processLostContacts3@123@AEAAXPEAVPxBaseTask@3@@Z@Cm@physx@@UEBAPEBDXZ 00000001800444d0 f i SimulationController_static_64:ScScene.obj
 0001:000434d0       ?getName@?$DelegateTask@VScene@Sc@physx@@$1?processLostContacts@123@AEAAXPEAVPxBaseTask@3@@Z@Cm@physx@@UEBAPEBDXZ 00000001800444d0 f i SimulationController_static_64:ScScene.obj
 0001:000434d0       ?getName@?$DelegateTask@VScene@Sc@physx@@$1?processLostSolverPatches@123@AEAAXPEAVPxBaseTask@3@@Z@Cm@physx@@UEBAPEBDXZ 00000001800444d0 f i SimulationController_static_64:ScScene.obj
 0001:000434d0       ?getName@?$DelegateTask@VScene@Sc@physx@@$1?processNarrowPhaseLostTouchEvents@123@AEAAXPEAVPxBaseTask@3@@Z@Cm@physx@@UEBAPEBDXZ 00000001800444d0 f i SimulationController_static_64:ScScene.obj
 0001:000434d0       ?getName@?$DelegateTask@VScene@Sc@physx@@$1?processNarrowPhaseLostTouchEventsIslands@123@AEAAXPEAVPxBaseTask@3@@Z@Cm@physx@@UEBAPEBDXZ 00000001800444d0 f i SimulationController_static_64:ScScene.obj
 0001:000434d0       ?getName@?$DelegateTask@VScene@Sc@physx@@$1?registerContactManagers@123@QEAAXPEAVPxBaseTask@3@@Z@Cm@physx@@UEBAPEBDXZ 00000001800444d0 f i SimulationController_static_64:ScScene.obj
 0001:000434d0       ?getName@?$DelegateTask@VScene@Sc@physx@@$1?registerInteractions@123@QEAAXPEAVPxBaseTask@3@@Z@Cm@physx@@UEBAPEBDXZ 00000001800444d0 f i SimulationController_static_64:ScScene.obj
 0001:000434d0       ?getName@?$DelegateTask@VScene@Sc@physx@@$1?registerSceneInteractions@123@QEAAXPEAVPxBaseTask@3@@Z@Cm@physx@@UEBAPEBDXZ 00000001800444d0 f i SimulationController_static_64:ScScene.obj
 0001:000434d0       ?getName@?$DelegateTask@VScene@Sc@physx@@$1?rigidBodyNarrowPhase@123@AEAAXPEAVPxBaseTask@3@@Z@Cm@physx@@UEBAPEBDXZ 00000001800444d0 f i SimulationController_static_64:ScScene.obj
 0001:000434d0       ?getName@?$DelegateTask@VScene@Sc@physx@@$1?secondPassNarrowPhase@123@QEAAXPEAVPxBaseTask@3@@Z@Cm@physx@@UEBAPEBDXZ 00000001800444d0 f i SimulationController_static_64:ScScene.obj
 0001:000434d0       ?getName@?$DelegateTask@VScene@Sc@physx@@$1?setEdgesConnected@123@AEAAXPEAVPxBaseTask@3@@Z@Cm@physx@@UEBAPEBDXZ 00000001800444d0 f i SimulationController_static_64:ScScene.obj
 0001:000434d0       ?getName@?$DelegateTask@VScene@Sc@physx@@$1?solver@123@AEAAXPEAVPxBaseTask@3@@Z@Cm@physx@@UEBAPEBDXZ 00000001800444d0 f i SimulationController_static_64:ScScene.obj
 0001:000434d0       ?getName@?$DelegateTask@VScene@Sc@physx@@$1?unblockNarrowPhase@123@AEAAXPEAVPxBaseTask@3@@Z@Cm@physx@@UEBAPEBDXZ 00000001800444d0 f i SimulationController_static_64:ScScene.obj
 0001:000434d0       ?getName@?$DelegateTask@VScene@Sc@physx@@$1?unregisterInteractions@123@AEAAXPEAVPxBaseTask@3@@Z@Cm@physx@@UEBAPEBDXZ 00000001800444d0 f i SimulationController_static_64:ScScene.obj
 0001:000434d0       ?getName@?$DelegateTask@VScene@Sc@physx@@$1?updateBodiesAndShapes@123@AEAAXPEAVPxBaseTask@3@@Z@Cm@physx@@UEBAPEBDXZ 00000001800444d0 f i SimulationController_static_64:ScScene.obj
 0001:000434d0       ?getName@?$DelegateTask@VScene@Sc@physx@@$1?updateCCDMultiPass@123@AEAAXPEAVPxBaseTask@3@@Z@Cm@physx@@UEBAPEBDXZ 00000001800444d0 f i SimulationController_static_64:ScScene.obj
 0001:000434d0       ?getName@?$DelegateTask@VScene@Sc@physx@@$1?updateCCDSinglePass@123@AEAAXPEAVPxBaseTask@3@@Z@Cm@physx@@UEBAPEBDXZ 00000001800444d0 f i SimulationController_static_64:ScScene.obj
 0001:000434d0       ?getName@?$DelegateTask@VScene@Sc@physx@@$1?updateCCDSinglePassStage2@123@AEAAXPEAVPxBaseTask@3@@Z@Cm@physx@@UEBAPEBDXZ 00000001800444d0 f i SimulationController_static_64:ScScene.obj
 0001:000434d0       ?getName@?$DelegateTask@VScene@Sc@physx@@$1?updateCCDSinglePassStage3@123@AEAAXPEAVPxBaseTask@3@@Z@Cm@physx@@UEBAPEBDXZ 00000001800444d0 f i SimulationController_static_64:ScScene.obj
 0001:000434d0       ?getName@?$DelegateTask@VScene@Sc@physx@@$1?updateDynamics@123@AEAAXPEAVPxBaseTask@3@@Z@Cm@physx@@UEBAPEBDXZ 00000001800444d0 f i SimulationController_static_64:ScScene.obj
 0001:000434d0       ?getName@?$DelegateTask@VScene@Sc@physx@@$1?updateSimulationController@123@AEAAXPEAVPxBaseTask@3@@Z@Cm@physx@@UEBAPEBDXZ 00000001800444d0 f i SimulationController_static_64:ScScene.obj
 0001:000434e0       ?getName@NpContactCallbackTask@physx@@UEBAPEBDXZ 00000001800444e0 f i NpScene.obj
 0001:000434f0       ?getName@SceneCompletion@NpScene@physx@@UEBAPEBDXZ 00000001800444f0 f i NpScene.obj
 0001:00043500       ?getNbActors@NpScene@physx@@UEBAIV?$PxFlags@W4Enum@PxActorTypeFlag@physx@@G@2@@Z 0000000180044500 f   NpScene.obj
 0001:000435d0       ?getNbAggregates@NpScene@physx@@UEBAIXZ 00000001800445d0 f   NpScene.obj
 0001:00043610       ?getNbArticulations@NpScene@physx@@UEBAIXZ 0000000180044610 f   NpScene.obj
 0001:00043650       ?getNbBroadPhaseRegions@NpScene@physx@@UEBAIXZ 0000000180044650 f   NpScene.obj
 0001:00043690       ?getNbConstraints@NpScene@physx@@UEBAIXZ 0000000180044690 f   NpScene.obj
 0001:000436d0       ?getNbContactDataBlocksUsed@NpScene@physx@@UEBAIXZ 00000001800446d0 f   NpScene.obj
 0001:00043720       ?getRenderBuffer@NpScene@physx@@UEAAAEBVPxRenderBuffer@2@XZ 0000000180044720 f   NpScene.obj
 0001:00043780       ?getScenePvdClient@NpScene@physx@@UEAAPEAVPxPvdSceneClient@2@XZ 0000000180044780 f   NpScene.obj
 0001:00043790       ?getSceneQueryStaticTimestamp@NpScene@physx@@UEBAIXZ 0000000180044790 f   NpScene.obj
 0001:000437a0       ?getSceneQueryUpdateMode@NpScene@physx@@UEBA?AW4Enum@PxSceneQueryUpdateMode@2@XZ 00000001800447a0 f   NpScene.obj
 0001:000437e0       ?getSimulationController@NpScene@physx@@UEAAPEAVPxsSimulationController@2@XZ 00000001800447e0 f   NpScene.obj
 0001:000437f0       ?getSimulationEventCallback@NpScene@physx@@UEBAPEAVPxSimulationEventCallback@2@XZ 00000001800447f0 f   NpScene.obj
 0001:00043830       ?getSimulationStatistics@NpScene@physx@@UEBAXAEAVPxSimulationStatistics@2@@Z 0000000180044830 f   NpScene.obj
 0001:000438b0       ?getSolverArticulationBatchSize@NpScene@physx@@UEBAIXZ 00000001800448b0 f   NpScene.obj
 0001:00043910       ?getSolverBatchSize@NpScene@physx@@UEBAIXZ 0000000180044910 f   NpScene.obj
 0001:00043970       ?getStaticKinematicFilteringMode@NpScene@physx@@UEBA?AW4Enum@PxPairFilteringMode@2@XZ 0000000180044970 f   NpScene.obj
 0001:000439b0       ?getStaticStructure@NpScene@physx@@UEBA?AW4Enum@PxPruningStructureType@2@XZ 00000001800449b0 f   NpScene.obj
 0001:000439c0       ?getTaskManager@NpScene@physx@@UEAAPEAVPxTaskManager@2@XZ 00000001800449c0 f i NpScene.obj
 0001:000439c0       ?getTaskManager@NpScene@physx@@UEBAPEAVPxTaskManager@2@XZ 00000001800449c0 f i NpScene.obj
 0001:000439d0       ?getTimestamp@NpScene@physx@@UEBAIXZ 00000001800449d0 f   NpScene.obj
 0001:000439e0       ?getVisualizationCullingBox@NpScene@physx@@UEBA?AVPxBounds3@2@XZ 00000001800449e0 f   NpScene.obj
 0001:00043a60       ?getVisualizationParameter@NpScene@physx@@UEBAMW4Enum@PxVisualizationParameter@2@@Z 0000000180044a60 f   NpScene.obj
 0001:00043ad0       ?getWakeCounterResetValue@NpScene@physx@@UEBAMXZ 0000000180044ad0 f   NpScene.obj
 0001:00043b20       ?growAndPushBack@?$Array@UPxDebugLine@physx@@VNamedAllocator@shdfnd@2@@shdfnd@physx@@IEAAAEAUPxDebugLine@3@AEBU43@@Z 0000000180044b20 f i NpScene.obj
 0001:00043c30       ?growAndPushBack@?$Array@UPxDebugPoint@physx@@VNamedAllocator@shdfnd@2@@shdfnd@physx@@IEAAAEAUPxDebugPoint@3@AEBU43@@Z 0000000180044c30 f i NpScene.obj
 0001:00043d20       ?growAndPushBack@?$Array@UPxDebugText@physx@@VNamedAllocator@shdfnd@2@@shdfnd@physx@@IEAAAEAUPxDebugText@3@AEBU43@@Z 0000000180044d20 f i NpScene.obj
 0001:00043e20       ?growAndPushBack@?$Array@UPxDebugTriangle@physx@@VNamedAllocator@shdfnd@2@@shdfnd@physx@@IEAAAEAUPxDebugTriangle@3@AEBU43@@Z 0000000180044e20 f i NpScene.obj
 0001:00043f50       ?isAddedShape@RigidObject@Scb@physx@@QEAA_NAEAVShape@23@@Z 0000000180044f50 f i NpScene.obj
 0001:00043fe0       ?loadFromDesc@NpScene@physx@@QEAA_NAEBVPxSceneDesc@2@@Z 0000000180044fe0 f   NpScene.obj
 0001:00044050       ?lockRead@NpScene@physx@@UEAAXPEBDI@Z 0000000180045050 f   NpScene.obj
 0001:000440e0       ?lockWrite@NpScene@physx@@UEAAXPEBDI@Z 00000001800450e0 f   NpScene.obj
 0001:000441d0       ?processCallbacks@NpScene@physx@@UEAAXPEAVPxBaseTask@2@@Z 00000001800451d0 f   NpScene.obj
 0001:00044500       ?recreate@?$Array@GVNamedAllocator@shdfnd@physx@@@shdfnd@physx@@IEAAXI@Z 0000000180045500 f i NpScene.obj
 0001:000445b0       ?recreate@?$Array@UPxDebugPoint@physx@@VNamedAllocator@shdfnd@2@@shdfnd@physx@@IEAAXI@Z 00000001800455b0 f i NpScene.obj
 0001:00044650       ?recreate@?$Array@UPxDebugText@physx@@VNamedAllocator@shdfnd@2@@shdfnd@physx@@IEAAXI@Z 0000000180045650 f i NpScene.obj
 0001:000446f0       ?recreate@?$Array@UPxDebugTriangle@physx@@VNamedAllocator@shdfnd@2@@shdfnd@physx@@IEAAXI@Z 00000001800456f0 f i NpScene.obj
 0001:00044790       ?recreate@?$Array@VPxBounds3@physx@@V?$InlineAllocator@$0MA@VNamedAllocator@shdfnd@physx@@@shdfnd@2@@shdfnd@physx@@IEAAXI@Z 0000000180045790 f i NpScene.obj
 0001:00044930       ?release@NpScene@physx@@UEAAXXZ 0000000180045930 f   NpScene.obj
 0001:00044a00       ?release@PxLightCpuTask@physx@@UEAAXXZ 0000000180045a00 f i NpScene.obj
 0001:00044a20       ?release@SceneCompletion@NpScene@physx@@UEAAXXZ 0000000180045a20 f i NpScene.obj
 0001:00044a50       ?releaseBatchQuery@NpScene@physx@@QEAAXPEAVPxBatchQuery@2@@Z 0000000180045a50 f   NpScene.obj
 0001:00044b50       ?removeActor@NpScene@physx@@UEAAXAEAVPxActor@2@_N@Z 0000000180045b50 f   NpScene.obj
 0001:00044c80       ?removeActorInternal@NpScene@physx@@QEAAXAEAVPxActor@2@_N1@Z 0000000180045c80 f   NpScene.obj
 0001:00044eb0       ?removeActors@NpScene@physx@@UEAAXPEBQEAVPxActor@2@I_N@Z 0000000180045eb0 f   NpScene.obj
 0001:00045610       ?removeAggregate@NpScene@physx@@UEAAXAEAVPxAggregate@2@_N@Z 0000000180046610 f   NpScene.obj
 0001:000458d0       ?removeArticulation@NpScene@physx@@UEAAXAEAVPxArticulationBase@2@_N@Z 00000001800468d0 f   NpScene.obj
 0001:00045a00       ?removeArticulationInternal@NpScene@physx@@QEAAXAEAVPxArticulationBase@2@_N1@Z 0000000180046a00 f   NpScene.obj
 0001:00045cd0       ?removeBroadPhaseRegion@NpScene@physx@@UEAA_NI@Z 0000000180046cd0 f   NpScene.obj
 0001:00045d20       ?removeFromRigidActorList@NpScene@physx@@QEAAXAEBI@Z 0000000180046d20 f   NpScene.obj
 0001:00045da0       ?removeMaterial@NpScene@physx@@QEAAXAEBVNpMaterial@2@@Z 0000000180046da0 f   NpScene.obj
 0001:00045db0       ?removeReference@PxLightCpuTask@physx@@UEAAXXZ 0000000180046db0 f i NpScene.obj
 0001:00045dd0       ?resetFiltering@?$NpRigidActorTemplate@VPxArticulationLink@physx@@@physx@@QEAA_NAEAVRigidObject@Scb@2@PEBQEAVPxShape@2@I@Z 0000000180046dd0 f i NpScene.obj
 0001:00045dd0       ?resetFiltering@?$NpRigidActorTemplate@VPxRigidDynamic@physx@@@physx@@QEAA_NAEAVRigidObject@Scb@2@PEBQEAVPxShape@2@I@Z 0000000180046dd0 f i NpScene.obj
 0001:00045dd0       ?resetFiltering@?$NpRigidActorTemplate@VPxRigidStatic@physx@@@physx@@QEAA_NAEAVRigidObject@Scb@2@PEBQEAVPxShape@2@I@Z 0000000180046dd0 f i NpScene.obj
 0001:000460c0       ?resetFiltering@NpScene@physx@@UEAAXAEAVPxActor@2@@Z 00000001800470c0 f   NpScene.obj
 0001:00046240       ?resetFiltering@NpScene@physx@@UEAAXAEAVPxRigidActor@2@PEBQEAVPxShape@2@I@Z 0000000180047240 f   NpScene.obj
 0001:00046410       ?resetFiltering@RigidObject@Scb@physx@@QEAAXPEBQEAVShape@23@I@Z 0000000180047410 f i NpScene.obj
 0001:000466b0       ?resize@?$Array@GVNamedAllocator@shdfnd@physx@@@shdfnd@physx@@QEAAXIAEBG@Z 00000001800476b0 f i NpScene.obj
 0001:00046770       ?resize@?$Array@PEAVActor@Scb@physx@@VNamedAllocator@shdfnd@3@@shdfnd@physx@@QEAAXIAEBQEAVActor@Scb@3@@Z 0000000180047770 f i NpScene.obj
 0001:00046770       ?resize@?$Array@PEAVPxActor@physx@@VNamedAllocator@shdfnd@2@@shdfnd@physx@@QEAAXIAEBQEAVPxActor@3@@Z 0000000180047770 f i PvdMetaDataPvdBinding.obj
 0001:00046770       ?resize@?$Array@PEAVPxArticulationBase@physx@@VNamedAllocator@shdfnd@2@@shdfnd@physx@@QEAAXIAEBQEAVPxArticulationBase@3@@Z 0000000180047770 f i PvdMetaDataPvdBinding.obj
 0001:00046770       ?resize@?$Array@PEAVPxArticulationLink@physx@@VNamedAllocator@shdfnd@2@@shdfnd@physx@@QEAAXIAEBQEAVPxArticulationLink@3@@Z 0000000180047770 f i PvdMetaDataPvdBinding.obj
 0001:00046770       ?resize@?$Array@PEAVPxConvexMesh@physx@@VNamedAllocator@shdfnd@2@@shdfnd@physx@@QEAAXIAEBQEAVPxConvexMesh@3@@Z 0000000180047770 f i PvdPhysicsClient.obj
 0001:00046770       ?resize@?$Array@PEAVPxHeightField@physx@@VNamedAllocator@shdfnd@2@@shdfnd@physx@@QEAAXIAEBQEAVPxHeightField@3@@Z 0000000180047770 f i PvdPhysicsClient.obj
 0001:00046770       ?resize@?$Array@PEAVPxMaterial@physx@@VNamedAllocator@shdfnd@2@@shdfnd@physx@@QEAAXIAEBQEAVPxMaterial@3@@Z 0000000180047770 f i PvdPhysicsClient.obj
 0001:00046770       ?resize@?$Array@PEAVPxTriangleMesh@physx@@VNamedAllocator@shdfnd@2@@shdfnd@physx@@QEAAXIAEBQEAVPxTriangleMesh@3@@Z 0000000180047770 f i PvdPhysicsClient.obj
 0001:00046770       ?resize@?$Array@PEAVShape@Scb@physx@@VNamedAllocator@shdfnd@3@@shdfnd@physx@@QEAAXIAEBQEAVShape@Scb@3@@Z 0000000180047770 f i NpScene.obj
 0001:00046770       ?resize@?$Array@VMaterialEvent@Scb@physx@@VNamedAllocator@shdfnd@3@@shdfnd@physx@@QEAAXIAEBVMaterialEvent@Scb@3@@Z 0000000180047770 f i ScbScene.obj
 0001:00046830       ?resizeUninitialized@?$Array@VPxBounds3@physx@@V?$InlineAllocator@$0MA@VNamedAllocator@shdfnd@physx@@@shdfnd@2@@shdfnd@physx@@QEAAXI@Z 0000000180047830 f i NpScene.obj
 0001:00046880       ?run@NpContactCallbackTask@physx@@UEAAXXZ 0000000180047880 f   NpScene.obj
 0001:00046910       ?run@BaseTask@Cm@physx@@UEAAXXZ 0000000180047910 f i SimulationController_static_64:ScScene.obj
 0001:00046910       ?run@Task@Cm@physx@@UEAAXXZ 0000000180047910 f i NpScene.obj
 0001:00046950       ?runInternal@?$DelegateTask@VNpScene@physx@@$H?executeAdvance@12@QEAAXPEAVPxBaseTask@2@@ZA@@Cm@physx@@UEAAXXZ 0000000180047950 f i NpScene.obj
 0001:00046970       ?runInternal@?$DelegateTask@VNpScene@physx@@$H?executeCollide@12@QEAAXPEAVPxBaseTask@2@@ZA@@Cm@physx@@UEAAXXZ 0000000180047970 f i NpScene.obj
 0001:00046990       ?runInternal@?$DelegateTask@VNpScene@physx@@$H?executeScene@12@QEAAXPEAVPxBaseTask@2@@ZA@@Cm@physx@@UEAAXXZ 0000000180047990 f i NpScene.obj
 0001:000469b0       ?runInternal@?$DelegateTask@VNpSceneQueries@physx@@$1?sceneQueriesDynamicPrunerUpdate@12@QEAAXPEAVPxBaseTask@2@@Z@Cm@physx@@UEAAXXZ 00000001800479b0 f i NpScene.obj
 0001:000469c0       ?runInternal@?$DelegateTask@VNpSceneQueries@physx@@$1?sceneQueriesStaticPrunerUpdate@12@QEAAXPEAVPxBaseTask@2@@Z@Cm@physx@@UEAAXXZ 00000001800479c0 f i NpScene.obj
 0001:000469d0       ?sceneQueriesUpdate@NpScene@physx@@UEAAXPEAVPxBaseTask@2@_N@Z 00000001800479d0 f   NpScene.obj
 0001:00046d50       ?setActiveActors@NpScene@physx@@UEAAXPEAPEAVPxActor@2@I@Z 0000000180047d50 f   NpScene.obj
 0001:00046db0       ?setBounceThresholdVelocity@NpScene@physx@@UEAAXM@Z 0000000180047db0 f   NpScene.obj
 0001:00046e30       ?setBroadPhaseCallback@NpScene@physx@@UEAAXPEAVPxBroadPhaseCallback@2@@Z 0000000180047e30 f   NpScene.obj
 0001:00046eb0       ?setCCDContactModifyCallback@NpScene@physx@@UEAAXPEAVPxCCDContactModifyCallback@2@@Z 0000000180047eb0 f   NpScene.obj
 0001:00046f30       ?setCCDMaxPasses@NpScene@physx@@UEAAXI@Z 0000000180047f30 f   NpScene.obj
 0001:00046fb0       ?setContactModifyCallback@NpScene@physx@@UEAAXPEAVPxContactModifyCallback@2@@Z 0000000180047fb0 f   NpScene.obj
 0001:00047030       ?setDominanceGroupPair@NpScene@physx@@UEAAXEEAEBUPxDominanceGroupPair@2@@Z 0000000180048030 f   NpScene.obj
 0001:00047260       ?setDynamicTreeRebuildRateHint@NpScene@physx@@UEAAXI@Z 0000000180048260 f   NpScene.obj
 0001:000472b0       ?setFilterShaderData@NpScene@physx@@UEAAXPEBXI@Z 00000001800482b0 f   NpScene.obj
 0001:00047370       ?setFlag@NpScene@physx@@UEAAXW4Enum@PxSceneFlag@2@_N@Z 0000000180048370 f   NpScene.obj
 0001:00047490       ?setFrictionType@NpScene@physx@@UEAAXW4Enum@PxFrictionType@2@@Z 0000000180048490 f   NpScene.obj
 0001:00047510       ?setFrozenActorFlag@NpScene@physx@@UEAAX_N@Z 0000000180048510 f   NpScene.obj
 0001:000475b0       ?setGravity@NpScene@physx@@UEAAXAEBVPxVec3@2@@Z 00000001800485b0 f   NpScene.obj
 0001:00047660       ?setLimits@NpScene@physx@@UEAAXAEBVPxSceneLimits@2@@Z 0000000180048660 f   NpScene.obj
 0001:00047700       ?setNbContactDataBlocks@NpScene@physx@@UEAAXI@Z 0000000180048700 f   NpScene.obj
 0001:00047750       ?setSceneQueryUpdateMode@NpScene@physx@@UEAAXW4Enum@PxSceneQueryUpdateMode@2@@Z 0000000180048750 f   NpScene.obj
 0001:000477a0       ?setSimulationEventCallback@NpScene@physx@@UEAAXPEAVPxSimulationEventCallback@2@@Z 00000001800487a0 f   NpScene.obj
 0001:00047820       ?setSolverArticulationBatchSize@NpScene@physx@@UEAAXI@Z 0000000180048820 f   NpScene.obj
 0001:000478a0       ?setSolverBatchSize@NpScene@physx@@UEAAXI@Z 00000001800488a0 f   NpScene.obj
 0001:00047920       ?setVisualizationCullingBox@NpScene@physx@@UEAAXAEBVPxBounds3@2@@Z 0000000180048920 f   NpScene.obj
 0001:00047b00       ?setVisualizationParameter@NpScene@physx@@UEAA_NW4Enum@PxVisualizationParameter@2@M@Z 0000000180048b00 f   NpScene.obj
 0001:00047c20       ?shift@RenderBuffer@Cm@physx@@QEAAXAEBVPxVec3@3@@Z 0000000180048c20 f i NpScene.obj
 0001:00047e10       ?shiftOrigin@NpScene@physx@@UEAAXAEBVPxVec3@2@@Z 0000000180048e10 f   NpScene.obj
 0001:000483c0       ?simulate@NpScene@physx@@UEAAXMPEAVPxBaseTask@2@PEAXI_N@Z 00000001800493c0 f   NpScene.obj
 0001:00048400       ?simulateOrCollide@NpScene@physx@@AEAAXMPEAVPxBaseTask@2@PEAXI_NPEBDW4Enum@SimulationStage@Sc@2@@Z 0000000180049400 f   NpScene.obj
 0001:00048960       ?startRead@NpScene@physx@@QEBA_NXZ 0000000180049960 f   NpScene.obj
 0001:00048a50       ?startWrite@NpScene@physx@@QEAA?AW4Enum@StartWriteResult@12@_N@Z 0000000180049a50 f   NpScene.obj
 0001:00048ba0       ?stopRead@NpScene@physx@@QEBAXXZ 0000000180049ba0 f   NpScene.obj
 0001:00048c30       ?stopWrite@NpScene@physx@@QEAAX_N@Z 0000000180049c30 f   NpScene.obj
 0001:00048cd0       ?unlockRead@NpScene@physx@@UEAAXXZ 0000000180049cd0 f   NpScene.obj
 0001:00048d90       ?unlockWrite@NpScene@physx@@UEAAXXZ 0000000180049d90 f   NpScene.obj
 0001:00048e60       ?updateMaterial@NpScene@physx@@QEAAXAEBVNpMaterial@2@@Z 0000000180049e60 f   NpScene.obj
 0001:00048e70       ?updateScbStateAndSetupSq@NpScene@physx@@AEAAXAEBVPxRigidActor@2@AEAVActor@Scb@2@AEAVNpShapeManager@2@_NPEBVPxBounds3@2@3@Z 0000000180049e70 f   NpScene.obj
 0001:00048fa0       ?visualize@NpScene@physx@@AEAAXXZ 0000000180049fa0 f   NpScene.obj
 0001:00049500       ??$multiQuery@UPxOverlapHit@physx@@@NpSceneQueries@physx@@QEBA_NAEBUMultiQueryInput@1@AEAU?$PxHitCallback@UPxOverlapHit@physx@@@1@V?$PxFlags@W4Enum@PxHitFlag@physx@@G@1@PEBUPxQueryCache@1@AEBUPxQueryFilterData@1@PEAVPxQueryFilterCallback@1@PEAUBatchQueryFilterData@1@@Z 000000018004a500 f i NpSceneQueries.obj
 0001:00049970       ??$multiQuery@UPxRaycastHit@physx@@@NpSceneQueries@physx@@QEBA_NAEBUMultiQueryInput@1@AEAU?$PxHitCallback@UPxRaycastHit@physx@@@1@V?$PxFlags@W4Enum@PxHitFlag@physx@@G@1@PEBUPxQueryCache@1@AEBUPxQueryFilterData@1@PEAVPxQueryFilterCallback@1@PEAUBatchQueryFilterData@1@@Z 000000018004a970 f i NpSceneQueries.obj
 0001:00049f70       ??$multiQuery@UPxSweepHit@physx@@@NpSceneQueries@physx@@QEBA_NAEBUMultiQueryInput@1@AEAU?$PxHitCallback@UPxSweepHit@physx@@@1@V?$PxFlags@W4Enum@PxHitFlag@physx@@G@1@PEBUPxQueryCache@1@AEBUPxQueryFilterData@1@PEAVPxQueryFilterCallback@1@PEAUBatchQueryFilterData@1@@Z 000000018004af70 f i NpSceneQueries.obj
 0001:0004a680       ??1?$CapturePvdOnReturn@UPxOverlapHit@physx@@@@UEAA@XZ 000000018004b680 f i NpSceneQueries.obj
 0001:0004a820       ??1?$CapturePvdOnReturn@UPxRaycastHit@physx@@@@UEAA@XZ 000000018004b820 f i NpSceneQueries.obj
 0001:0004aa70       ??1?$CapturePvdOnReturn@UPxSweepHit@physx@@@@UEAA@XZ 000000018004ba70 f i NpSceneQueries.obj
 0001:0004acc0       ??_E?$CapturePvdOnReturn@UPxOverlapHit@physx@@@@UEAAPEAXI@Z 000000018004bcc0 f i NpSceneQueries.obj
 0001:0004acc0       ??_G?$CapturePvdOnReturn@UPxOverlapHit@physx@@@@UEAAPEAXI@Z 000000018004bcc0 f i NpSceneQueries.obj
 0001:0004ad00       ??_E?$CapturePvdOnReturn@UPxRaycastHit@physx@@@@UEAAPEAXI@Z 000000018004bd00 f i NpSceneQueries.obj
 0001:0004ad00       ??_G?$CapturePvdOnReturn@UPxRaycastHit@physx@@@@UEAAPEAXI@Z 000000018004bd00 f i NpSceneQueries.obj
 0001:0004ad40       ??_E?$CapturePvdOnReturn@UPxSweepHit@physx@@@@UEAAPEAXI@Z 000000018004bd40 f i NpSceneQueries.obj
 0001:0004ad40       ??_G?$CapturePvdOnReturn@UPxSweepHit@physx@@@@UEAAPEAXI@Z 000000018004bd40 f i NpSceneQueries.obj
 0001:0004ad80       ??_E?$MultiQueryCallback@UPxOverlapHit@physx@@@@UEAAPEAXI@Z 000000018004bd80 f i NpSceneQueries.obj
 0001:0004ad80       ??_E?$MultiQueryCallback@UPxRaycastHit@physx@@@@UEAAPEAXI@Z 000000018004bd80 f i NpSceneQueries.obj
 0001:0004ad80       ??_E?$MultiQueryCallback@UPxSweepHit@physx@@@@UEAAPEAXI@Z 000000018004bd80 f i NpSceneQueries.obj
 0001:0004ad80       ??_G?$MultiQueryCallback@UPxOverlapHit@physx@@@@UEAAPEAXI@Z 000000018004bd80 f i NpSceneQueries.obj
 0001:0004ad80       ??_G?$MultiQueryCallback@UPxRaycastHit@physx@@@@UEAAPEAXI@Z 000000018004bd80 f i NpSceneQueries.obj
 0001:0004ad80       ??_G?$MultiQueryCallback@UPxSweepHit@physx@@@@UEAAPEAXI@Z 000000018004bd80 f i NpSceneQueries.obj
 0001:0004adb0       ?growAndPushBack@?$Array@UPropertyMessageArg@pvdsdk@physx@@VNamedAllocator@shdfnd@3@@shdfnd@physx@@IEAAAEAUPropertyMessageArg@pvdsdk@3@AEBU453@@Z 000000018004bdb0 f i PhysXPvdSDK_static_64:PxPvdDataStream.obj
 0001:0004adb0       ?growAndPushBack@?$Array@UPxOverlapHit@physx@@VNamedAllocator@shdfnd@2@@shdfnd@physx@@IEAAAEAUPxOverlapHit@3@AEBU43@@Z 000000018004bdb0 f i NpSceneQueries.obj
 0001:0004aec0       ?growAndPushBack@?$Array@UPxRaycastHit@physx@@VNamedAllocator@shdfnd@2@@shdfnd@physx@@IEAAAEAUPxRaycastHit@3@AEBU43@@Z 000000018004bec0 f i NpSceneQueries.obj
 0001:0004b210       ?growAndPushBack@?$Array@UPxSweepHit@physx@@VNamedAllocator@shdfnd@2@@shdfnd@physx@@IEAAAEAUPxSweepHit@3@AEBU43@@Z 000000018004c210 f i NpSceneQueries.obj
 0001:0004b550       ?invoke@?$MultiQueryCallback@UPxOverlapHit@physx@@@@UEAA_NAEAMAEBUPrunerPayload@Sq@physx@@@Z 000000018004c550 f i NpSceneQueries.obj
 0001:0004bab0       ?invoke@?$MultiQueryCallback@UPxRaycastHit@physx@@@@UEAA_NAEAMAEBUPrunerPayload@Sq@physx@@@Z 000000018004cab0 f i NpSceneQueries.obj
 0001:0004c3f0       ?invoke@?$MultiQueryCallback@UPxSweepHit@physx@@@@UEAA_NAEAMAEBUPrunerPayload@Sq@physx@@@Z 000000018004d3f0 f i NpSceneQueries.obj
 0001:0004d280       ?overlap@NpSceneQueries@physx@@UEBA_NAEBVPxGeometry@2@AEBVPxTransform@2@AEAU?$PxHitCallback@UPxOverlapHit@physx@@@2@AEBUPxQueryFilterData@2@PEAVPxQueryFilterCallback@2@@Z 000000018004e280 f   NpSceneQueries.obj
 0001:0004d410       ?processTouches@?$CapturePvdOnReturn@UPxOverlapHit@physx@@@@UEAA_NPEBUPxOverlapHit@physx@@I@Z 000000018004e410 f i NpSceneQueries.obj
 0001:0004d4b0       ?processTouches@?$CapturePvdOnReturn@UPxRaycastHit@physx@@@@UEAA_NPEBUPxRaycastHit@physx@@I@Z 000000018004e4b0 f i NpSceneQueries.obj
 0001:0004d590       ?processTouches@?$CapturePvdOnReturn@UPxSweepHit@physx@@@@UEAA_NPEBUPxSweepHit@physx@@I@Z 000000018004e590 f i NpSceneQueries.obj
 0001:0004d660       ?raycast@NpSceneQueries@physx@@UEBA_NAEBVPxVec3@2@0MAEAU?$PxHitCallback@UPxRaycastHit@physx@@@2@V?$PxFlags@W4Enum@PxHitFlag@physx@@G@2@AEBUPxQueryFilterData@2@PEAVPxQueryFilterCallback@2@PEBUPxQueryCache@2@@Z 000000018004e660 f   NpSceneQueries.obj
 0001:0004d810       ?sceneQueriesDynamicPrunerUpdate@NpSceneQueries@physx@@QEAAXPEAVPxBaseTask@2@@Z 000000018004e810 f   NpSceneQueries.obj
 0001:0004d8b0       ?sceneQueriesStaticPrunerUpdate@NpSceneQueries@physx@@QEAAXPEAVPxBaseTask@2@@Z 000000018004e8b0 f   NpSceneQueries.obj
 0001:0004d950       ?sweep@NpSceneQueries@physx@@UEBA_NAEBVPxGeometry@2@AEBVPxTransform@2@AEBVPxVec3@2@MAEAU?$PxHitCallback@UPxSweepHit@physx@@@2@V?$PxFlags@W4Enum@PxHitFlag@physx@@G@2@AEBUPxQueryFilterData@2@PEAVPxQueryFilterCallback@2@PEBUPxQueryCache@2@M@Z 000000018004e950 f   NpSceneQueries.obj
 0001:0004dc20       ??_E?$PxSerializerDefaultAdapter@VBV4TriangleMesh@Gu@physx@@@physx@@UEAAPEAXI@Z 000000018004ec20 f i NpSerializerAdapter.obj
 0001:0004dc20       ??_E?$PxSerializerDefaultAdapter@VConvexMesh@Gu@physx@@@physx@@UEAAPEAXI@Z 000000018004ec20 f i NpSerializerAdapter.obj
 0001:0004dc20       ??_E?$PxSerializerDefaultAdapter@VHeightField@Gu@physx@@@physx@@UEAAPEAXI@Z 000000018004ec20 f i NpSerializerAdapter.obj
 0001:0004dc20       ??_E?$PxSerializerDefaultAdapter@VNpAggregate@physx@@@physx@@UEAAPEAXI@Z 000000018004ec20 f i NpSerializerAdapter.obj
 0001:0004dc20       ??_E?$PxSerializerDefaultAdapter@VNpArticulation@physx@@@physx@@UEAAPEAXI@Z 000000018004ec20 f i NpSerializerAdapter.obj
 0001:0004dc20       ??_E?$PxSerializerDefaultAdapter@VNpArticulationJoint@physx@@@physx@@UEAAPEAXI@Z 000000018004ec20 f i NpSerializerAdapter.obj
 0001:0004dc20       ??_E?$PxSerializerDefaultAdapter@VNpArticulationJointReducedCoordinate@physx@@@physx@@UEAAPEAXI@Z 000000018004ec20 f i NpSerializerAdapter.obj
 0001:0004dc20       ??_E?$PxSerializerDefaultAdapter@VNpArticulationLink@physx@@@physx@@UEAAPEAXI@Z 000000018004ec20 f i NpSerializerAdapter.obj
 0001:0004dc20       ??_E?$PxSerializerDefaultAdapter@VNpArticulationReducedCoordinate@physx@@@physx@@UEAAPEAXI@Z 000000018004ec20 f i NpSerializerAdapter.obj
 0001:0004dc20       ??_E?$PxSerializerDefaultAdapter@VNpConstraint@physx@@@physx@@UEAAPEAXI@Z 000000018004ec20 f i NpSerializerAdapter.obj
 0001:0004dc20       ??_E?$PxSerializerDefaultAdapter@VNpMaterial@physx@@@physx@@UEAAPEAXI@Z 000000018004ec20 f i NpSerializerAdapter.obj
 0001:0004dc20       ??_E?$PxSerializerDefaultAdapter@VNpRigidDynamic@physx@@@physx@@UEAAPEAXI@Z 000000018004ec20 f i NpSerializerAdapter.obj
 0001:0004dc20       ??_E?$PxSerializerDefaultAdapter@VNpRigidStatic@physx@@@physx@@UEAAPEAXI@Z 000000018004ec20 f i NpSerializerAdapter.obj
 0001:0004dc20       ??_E?$PxSerializerDefaultAdapter@VNpShape@physx@@@physx@@UEAAPEAXI@Z 000000018004ec20 f i NpSerializerAdapter.obj
 0001:0004dc20       ??_E?$PxSerializerDefaultAdapter@VPruningStructure@Sq@physx@@@physx@@UEAAPEAXI@Z 000000018004ec20 f i NpSerializerAdapter.obj
 0001:0004dc20       ??_E?$PxSerializerDefaultAdapter@VRTreeTriangleMesh@Gu@physx@@@physx@@UEAAPEAXI@Z 000000018004ec20 f i NpSerializerAdapter.obj
 0001:0004dc20       ??_G?$PxSerializerDefaultAdapter@VBV4TriangleMesh@Gu@physx@@@physx@@UEAAPEAXI@Z 000000018004ec20 f i NpSerializerAdapter.obj
 0001:0004dc20       ??_G?$PxSerializerDefaultAdapter@VConvexMesh@Gu@physx@@@physx@@UEAAPEAXI@Z 000000018004ec20 f i NpSerializerAdapter.obj
 0001:0004dc20       ??_G?$PxSerializerDefaultAdapter@VHeightField@Gu@physx@@@physx@@UEAAPEAXI@Z 000000018004ec20 f i NpSerializerAdapter.obj
 0001:0004dc20       ??_G?$PxSerializerDefaultAdapter@VNpAggregate@physx@@@physx@@UEAAPEAXI@Z 000000018004ec20 f i NpSerializerAdapter.obj
 0001:0004dc20       ??_G?$PxSerializerDefaultAdapter@VNpArticulation@physx@@@physx@@UEAAPEAXI@Z 000000018004ec20 f i NpSerializerAdapter.obj
 0001:0004dc20       ??_G?$PxSerializerDefaultAdapter@VNpArticulationJoint@physx@@@physx@@UEAAPEAXI@Z 000000018004ec20 f i NpSerializerAdapter.obj
 0001:0004dc20       ??_G?$PxSerializerDefaultAdapter@VNpArticulationJointReducedCoordinate@physx@@@physx@@UEAAPEAXI@Z 000000018004ec20 f i NpSerializerAdapter.obj
 0001:0004dc20       ??_G?$PxSerializerDefaultAdapter@VNpArticulationLink@physx@@@physx@@UEAAPEAXI@Z 000000018004ec20 f i NpSerializerAdapter.obj
 0001:0004dc20       ??_G?$PxSerializerDefaultAdapter@VNpArticulationReducedCoordinate@physx@@@physx@@UEAAPEAXI@Z 000000018004ec20 f i NpSerializerAdapter.obj
 0001:0004dc20       ??_G?$PxSerializerDefaultAdapter@VNpConstraint@physx@@@physx@@UEAAPEAXI@Z 000000018004ec20 f i NpSerializerAdapter.obj
 0001:0004dc20       ??_G?$PxSerializerDefaultAdapter@VNpMaterial@physx@@@physx@@UEAAPEAXI@Z 000000018004ec20 f i NpSerializerAdapter.obj
 0001:0004dc20       ??_G?$PxSerializerDefaultAdapter@VNpRigidDynamic@physx@@@physx@@UEAAPEAXI@Z 000000018004ec20 f i NpSerializerAdapter.obj
 0001:0004dc20       ??_G?$PxSerializerDefaultAdapter@VNpRigidStatic@physx@@@physx@@UEAAPEAXI@Z 000000018004ec20 f i NpSerializerAdapter.obj
 0001:0004dc20       ??_G?$PxSerializerDefaultAdapter@VNpShape@physx@@@physx@@UEAAPEAXI@Z 000000018004ec20 f i NpSerializerAdapter.obj
 0001:0004dc20       ??_G?$PxSerializerDefaultAdapter@VPruningStructure@Sq@physx@@@physx@@UEAAPEAXI@Z 000000018004ec20 f i NpSerializerAdapter.obj
 0001:0004dc20       ??_G?$PxSerializerDefaultAdapter@VRTreeTriangleMesh@Gu@physx@@@physx@@UEAAPEAXI@Z 000000018004ec20 f i NpSerializerAdapter.obj
 0001:0004dc50       ??_EPxSerializer@physx@@UEAAPEAXI@Z 000000018004ec50 f i NpSerializerAdapter.obj
 0001:0004dc50       ??_GPxSerializer@physx@@UEAAPEAXI@Z 000000018004ec50 f i NpSerializerAdapter.obj
 0001:0004dc80       ??_EBeginPropertyMessageGroup@pvdsdk@physx@@UEAAPEAXI@Z 000000018004ec80 f i PhysXPvdSDK_static_64:PxPvdDataStream.obj
 0001:0004dc80       ??_ECreateClass@pvdsdk@physx@@UEAAPEAXI@Z 000000018004ec80 f i PhysXPvdSDK_static_64:PxPvdDataStream.obj
 0001:0004dc80       ??_EDestroyInstance@pvdsdk@physx@@UEAAPEAXI@Z 000000018004ec80 f i PhysXPvdSDK_static_64:PxPvdDataStream.obj
 0001:0004dc80       ??_ENameHandleValue@pvdsdk@physx@@UEAAPEAXI@Z 000000018004ec80 f i PhysXPvdSDK_static_64:PxPvdDataStream.obj
 0001:0004dc80       ??_ERequiresCallback@?1??registerReferences@?$PxSerializerDefaultAdapter@VBV4TriangleMesh@Gu@physx@@@physx@@UEBAXAEAVPxBase@3@AEAVPxSerializationContext@3@@Z@UEAAPEAXI@Z 000000018004ec80 f i NpSerializerAdapter.obj
 0001:0004dc80       ??_ERequiresCallback@?1??registerReferences@?$PxSerializerDefaultAdapter@VConvexMesh@Gu@physx@@@physx@@UEBAXAEAVPxBase@3@AEAVPxSerializationContext@3@@Z@UEAAPEAXI@Z 000000018004ec80 f i NpSerializerAdapter.obj
 0001:0004dc80       ??_ERequiresCallback@?1??registerReferences@?$PxSerializerDefaultAdapter@VHeightField@Gu@physx@@@physx@@UEBAXAEAVPxBase@3@AEAVPxSerializationContext@3@@Z@UEAAPEAXI@Z 000000018004ec80 f i NpSerializerAdapter.obj
 0001:0004dc80       ??_ERequiresCallback@?1??registerReferences@?$PxSerializerDefaultAdapter@VNpAggregate@physx@@@physx@@UEBAXAEAVPxBase@3@AEAVPxSerializationContext@3@@Z@UEAAPEAXI@Z 000000018004ec80 f i NpSerializerAdapter.obj
 0001:0004dc80       ??_ERequiresCallback@?1??registerReferences@?$PxSerializerDefaultAdapter@VNpArticulation@physx@@@physx@@UEBAXAEAVPxBase@3@AEAVPxSerializationContext@3@@Z@UEAAPEAXI@Z 000000018004ec80 f i NpSerializerAdapter.obj
 0001:0004dc80       ??_ERequiresCallback@?1??registerReferences@?$PxSerializerDefaultAdapter@VNpArticulationJoint@physx@@@physx@@UEBAXAEAVPxBase@3@AEAVPxSerializationContext@3@@Z@UEAAPEAXI@Z 000000018004ec80 f i NpSerializerAdapter.obj
 0001:0004dc80       ??_ERequiresCallback@?1??registerReferences@?$PxSerializerDefaultAdapter@VNpArticulationJointReducedCoordinate@physx@@@physx@@UEBAXAEAVPxBase@3@AEAVPxSerializationContext@3@@Z@UEAAPEAXI@Z 000000018004ec80 f i NpSerializerAdapter.obj
 0001:0004dc80       ??_ERequiresCallback@?1??registerReferences@?$PxSerializerDefaultAdapter@VNpArticulationLink@physx@@@physx@@UEBAXAEAVPxBase@3@AEAVPxSerializationContext@3@@Z@UEAAPEAXI@Z 000000018004ec80 f i NpSerializerAdapter.obj
 0001:0004dc80       ??_ERequiresCallback@?1??registerReferences@?$PxSerializerDefaultAdapter@VNpArticulationReducedCoordinate@physx@@@physx@@UEBAXAEAVPxBase@3@AEAVPxSerializationContext@3@@Z@UEAAPEAXI@Z 000000018004ec80 f i NpSerializerAdapter.obj
 0001:0004dc80       ??_ERequiresCallback@?1??registerReferences@?$PxSerializerDefaultAdapter@VNpConstraint@physx@@@physx@@UEBAXAEAVPxBase@3@AEAVPxSerializationContext@3@@Z@UEAAPEAXI@Z 000000018004ec80 f i NpSerializerAdapter.obj
 0001:0004dc80       ??_ERequiresCallback@?1??registerReferences@?$PxSerializerDefaultAdapter@VNpRigidDynamic@physx@@@physx@@UEBAXAEAVPxBase@3@AEAVPxSerializationContext@3@@Z@UEAAPEAXI@Z 000000018004ec80 f i NpSerializerAdapter.obj
 0001:0004dc80       ??_ERequiresCallback@?1??registerReferences@?$PxSerializerDefaultAdapter@VNpRigidStatic@physx@@@physx@@UEBAXAEAVPxBase@3@AEAVPxSerializationContext@3@@Z@UEAAPEAXI@Z 000000018004ec80 f i NpSerializerAdapter.obj
 0001:0004dc80       ??_ERequiresCallback@?1??registerReferences@?$PxSerializerDefaultAdapter@VNpShape@physx@@@physx@@UEBAXAEAVPxBase@3@AEAVPxSerializationContext@3@@Z@UEAAPEAXI@Z 000000018004ec80 f i NpSerializerAdapter.obj
 0001:0004dc80       ??_ERequiresCallback@?1??registerReferences@?$PxSerializerDefaultAdapter@VPruningStructure@Sq@physx@@@physx@@UEBAXAEAVPxBase@3@AEAVPxSerializationContext@3@@Z@UEAAPEAXI@Z 000000018004ec80 f i NpSerializerAdapter.obj
 0001:0004dc80       ??_ERequiresCallback@?1??registerReferences@?$PxSerializerDefaultAdapter@VRTreeTriangleMesh@Gu@physx@@@physx@@UEBAXAEAVPxBase@3@AEAVPxSerializationContext@3@@Z@UEAAPEAXI@Z 000000018004ec80 f i NpSerializerAdapter.obj
 0001:0004dc80       ??_GBeginPropertyMessageGroup@pvdsdk@physx@@UEAAPEAXI@Z 000000018004ec80 f i PhysXPvdSDK_static_64:PxPvdDataStream.obj
 0001:0004dc80       ??_GCreateClass@pvdsdk@physx@@UEAAPEAXI@Z 000000018004ec80 f i PhysXPvdSDK_static_64:PxPvdDataStream.obj
 0001:0004dc80       ??_GDestroyInstance@pvdsdk@physx@@UEAAPEAXI@Z 000000018004ec80 f i PhysXPvdSDK_static_64:PxPvdDataStream.obj
 0001:0004dc80       ??_GNameHandleValue@pvdsdk@physx@@UEAAPEAXI@Z 000000018004ec80 f i PhysXPvdSDK_static_64:PxPvdDataStream.obj
 0001:0004dc80       ??_GRequiresCallback@?1??registerReferences@?$PxSerializerDefaultAdapter@VBV4TriangleMesh@Gu@physx@@@physx@@UEBAXAEAVPxBase@3@AEAVPxSerializationContext@3@@Z@UEAAPEAXI@Z 000000018004ec80 f i NpSerializerAdapter.obj
 0001:0004dc80       ??_GRequiresCallback@?1??registerReferences@?$PxSerializerDefaultAdapter@VConvexMesh@Gu@physx@@@physx@@UEBAXAEAVPxBase@3@AEAVPxSerializationContext@3@@Z@UEAAPEAXI@Z 000000018004ec80 f i NpSerializerAdapter.obj
 0001:0004dc80       ??_GRequiresCallback@?1??registerReferences@?$PxSerializerDefaultAdapter@VHeightField@Gu@physx@@@physx@@UEBAXAEAVPxBase@3@AEAVPxSerializationContext@3@@Z@UEAAPEAXI@Z 000000018004ec80 f i NpSerializerAdapter.obj
 0001:0004dc80       ??_GRequiresCallback@?1??registerReferences@?$PxSerializerDefaultAdapter@VNpAggregate@physx@@@physx@@UEBAXAEAVPxBase@3@AEAVPxSerializationContext@3@@Z@UEAAPEAXI@Z 000000018004ec80 f i NpSerializerAdapter.obj
 0001:0004dc80       ??_GRequiresCallback@?1??registerReferences@?$PxSerializerDefaultAdapter@VNpArticulation@physx@@@physx@@UEBAXAEAVPxBase@3@AEAVPxSerializationContext@3@@Z@UEAAPEAXI@Z 000000018004ec80 f i NpSerializerAdapter.obj
 0001:0004dc80       ??_GRequiresCallback@?1??registerReferences@?$PxSerializerDefaultAdapter@VNpArticulationJoint@physx@@@physx@@UEBAXAEAVPxBase@3@AEAVPxSerializationContext@3@@Z@UEAAPEAXI@Z 000000018004ec80 f i NpSerializerAdapter.obj
 0001:0004dc80       ??_GRequiresCallback@?1??registerReferences@?$PxSerializerDefaultAdapter@VNpArticulationJointReducedCoordinate@physx@@@physx@@UEBAXAEAVPxBase@3@AEAVPxSerializationContext@3@@Z@UEAAPEAXI@Z 000000018004ec80 f i NpSerializerAdapter.obj
 0001:0004dc80       ??_GRequiresCallback@?1??registerReferences@?$PxSerializerDefaultAdapter@VNpArticulationLink@physx@@@physx@@UEBAXAEAVPxBase@3@AEAVPxSerializationContext@3@@Z@UEAAPEAXI@Z 000000018004ec80 f i NpSerializerAdapter.obj
 0001:0004dc80       ??_GRequiresCallback@?1??registerReferences@?$PxSerializerDefaultAdapter@VNpArticulationReducedCoordinate@physx@@@physx@@UEBAXAEAVPxBase@3@AEAVPxSerializationContext@3@@Z@UEAAPEAXI@Z 000000018004ec80 f i NpSerializerAdapter.obj
 0001:0004dc80       ??_GRequiresCallback@?1??registerReferences@?$PxSerializerDefaultAdapter@VNpConstraint@physx@@@physx@@UEBAXAEAVPxBase@3@AEAVPxSerializationContext@3@@Z@UEAAPEAXI@Z 000000018004ec80 f i NpSerializerAdapter.obj
 0001:0004dc80       ??_GRequiresCallback@?1??registerReferences@?$PxSerializerDefaultAdapter@VNpRigidDynamic@physx@@@physx@@UEBAXAEAVPxBase@3@AEAVPxSerializationContext@3@@Z@UEAAPEAXI@Z 000000018004ec80 f i NpSerializerAdapter.obj
 0001:0004dc80       ??_GRequiresCallback@?1??registerReferences@?$PxSerializerDefaultAdapter@VNpRigidStatic@physx@@@physx@@UEBAXAEAVPxBase@3@AEAVPxSerializationContext@3@@Z@UEAAPEAXI@Z 000000018004ec80 f i NpSerializerAdapter.obj
 0001:0004dc80       ??_GRequiresCallback@?1??registerReferences@?$PxSerializerDefaultAdapter@VNpShape@physx@@@physx@@UEBAXAEAVPxBase@3@AEAVPxSerializationContext@3@@Z@UEAAPEAXI@Z 000000018004ec80 f i NpSerializerAdapter.obj
 0001:0004dc80       ??_GRequiresCallback@?1??registerReferences@?$PxSerializerDefaultAdapter@VPruningStructure@Sq@physx@@@physx@@UEBAXAEAVPxBase@3@AEAVPxSerializationContext@3@@Z@UEAAPEAXI@Z 000000018004ec80 f i NpSerializerAdapter.obj
 0001:0004dc80       ??_GRequiresCallback@?1??registerReferences@?$PxSerializerDefaultAdapter@VRTreeTriangleMesh@Gu@physx@@@physx@@UEBAXAEAVPxBase@3@AEAVPxSerializationContext@3@@Z@UEAAPEAXI@Z 000000018004ec80 f i NpSerializerAdapter.obj
 0001:0004dcb0       ?createObject@?$PxSerializerDefaultAdapter@VBV4TriangleMesh@Gu@physx@@@physx@@UEBAPEAVPxBase@2@AEAPEAEAEAVPxDeserializationContext@2@@Z 000000018004ecb0 f i NpSerializerAdapter.obj
 0001:0004dcc0       ?createObject@?$PxSerializerDefaultAdapter@VConvexMesh@Gu@physx@@@physx@@UEBAPEAVPxBase@2@AEAPEAEAEAVPxDeserializationContext@2@@Z 000000018004ecc0 f i NpSerializerAdapter.obj
 0001:0004dcd0       ?createObject@?$PxSerializerDefaultAdapter@VHeightField@Gu@physx@@@physx@@UEBAPEAVPxBase@2@AEAPEAEAEAVPxDeserializationContext@2@@Z 000000018004ecd0 f i NpSerializerAdapter.obj
 0001:0004dce0       ?createObject@?$PxSerializerDefaultAdapter@VNpAggregate@physx@@@physx@@UEBAPEAVPxBase@2@AEAPEAEAEAVPxDeserializationContext@2@@Z 000000018004ece0 f i NpSerializerAdapter.obj
 0001:0004dcf0       ?createObject@?$PxSerializerDefaultAdapter@VNpArticulation@physx@@@physx@@UEBAPEAVPxBase@2@AEAPEAEAEAVPxDeserializationContext@2@@Z 000000018004ecf0 f i NpSerializerAdapter.obj
 0001:0004dd00       ?createObject@?$PxSerializerDefaultAdapter@VNpArticulationJoint@physx@@@physx@@UEBAPEAVPxBase@2@AEAPEAEAEAVPxDeserializationContext@2@@Z 000000018004ed00 f i NpSerializerAdapter.obj
 0001:0004dd10       ?createObject@?$PxSerializerDefaultAdapter@VNpArticulationJointReducedCoordinate@physx@@@physx@@UEBAPEAVPxBase@2@AEAPEAEAEAVPxDeserializationContext@2@@Z 000000018004ed10 f i NpSerializerAdapter.obj
 0001:0004dd20       ?createObject@?$PxSerializerDefaultAdapter@VNpArticulationLink@physx@@@physx@@UEBAPEAVPxBase@2@AEAPEAEAEAVPxDeserializationContext@2@@Z 000000018004ed20 f i NpSerializerAdapter.obj
 0001:0004dd30       ?createObject@?$PxSerializerDefaultAdapter@VNpArticulationReducedCoordinate@physx@@@physx@@UEBAPEAVPxBase@2@AEAPEAEAEAVPxDeserializationContext@2@@Z 000000018004ed30 f i NpSerializerAdapter.obj
 0001:0004dd40       ?createObject@?$PxSerializerDefaultAdapter@VNpConstraint@physx@@@physx@@UEBAPEAVPxBase@2@AEAPEAEAEAVPxDeserializationContext@2@@Z 000000018004ed40 f i NpSerializerAdapter.obj
 0001:0004dd50       ?createObject@?$PxSerializerDefaultAdapter@VNpMaterial@physx@@@physx@@UEBAPEAVPxBase@2@AEAPEAEAEAVPxDeserializationContext@2@@Z 000000018004ed50 f i NpSerializerAdapter.obj
 0001:0004dd60       ?createObject@?$PxSerializerDefaultAdapter@VNpRigidDynamic@physx@@@physx@@UEBAPEAVPxBase@2@AEAPEAEAEAVPxDeserializationContext@2@@Z 000000018004ed60 f i NpSerializerAdapter.obj
 0001:0004dd70       ?createObject@?$PxSerializerDefaultAdapter@VNpRigidStatic@physx@@@physx@@UEBAPEAVPxBase@2@AEAPEAEAEAVPxDeserializationContext@2@@Z 000000018004ed70 f i NpSerializerAdapter.obj
 0001:0004dd80       ?createObject@?$PxSerializerDefaultAdapter@VNpShape@physx@@@physx@@UEBAPEAVPxBase@2@AEAPEAEAEAVPxDeserializationContext@2@@Z 000000018004ed80 f i NpSerializerAdapter.obj
 0001:0004dd90       ?createObject@?$PxSerializerDefaultAdapter@VPruningStructure@Sq@physx@@@physx@@UEBAPEAVPxBase@2@AEAPEAEAEAVPxDeserializationContext@2@@Z 000000018004ed90 f i NpSerializerAdapter.obj
 0001:0004dda0       ?createObject@?$PxSerializerDefaultAdapter@VRTreeTriangleMesh@Gu@physx@@@physx@@UEBAPEAVPxBase@2@AEAPEAEAEAVPxDeserializationContext@2@@Z 000000018004eda0 f i NpSerializerAdapter.obj
 0001:0004ddb0       ?exportData@?$PxSerializerDefaultAdapter@VBV4TriangleMesh@Gu@physx@@@physx@@UEBAXAEAVPxBase@2@AEAVPxSerializationContext@2@@Z 000000018004edb0 f i NpSerializerAdapter.obj
 0001:0004deb0       ?exportData@?$PxSerializerDefaultAdapter@VConvexMesh@Gu@physx@@@physx@@UEBAXAEAVPxBase@2@AEAVPxSerializationContext@2@@Z 000000018004eeb0 f i NpSerializerAdapter.obj
 0001:0004dfb0       ?exportData@?$PxSerializerDefaultAdapter@VHeightField@Gu@physx@@@physx@@UEBAXAEAVPxBase@2@AEAVPxSerializationContext@2@@Z 000000018004efb0 f i NpSerializerAdapter.obj
 0001:0004e090       ?exportData@?$PxSerializerDefaultAdapter@VNpAggregate@physx@@@physx@@UEBAXAEAVPxBase@2@AEAVPxSerializationContext@2@@Z 000000018004f090 f i NpSerializerAdapter.obj
 0001:0004e150       ?exportData@?$PxSerializerDefaultAdapter@VNpArticulation@physx@@@physx@@UEBAXAEAVPxBase@2@AEAVPxSerializationContext@2@@Z 000000018004f150 f i NpSerializerAdapter.obj
 0001:0004e150       ?exportData@?$PxSerializerDefaultAdapter@VNpConstraint@physx@@@physx@@UEBAXAEAVPxBase@2@AEAVPxSerializationContext@2@@Z 000000018004f150 f i NpSerializerAdapter.obj
 0001:0004e250       ?exportData@?$PxSerializerDefaultAdapter@VNpArticulationJoint@physx@@@physx@@UEBAXAEAVPxBase@2@AEAVPxSerializationContext@2@@Z 000000018004f250 f i NpSerializerAdapter.obj
 0001:0004e250       ?exportData@?$PxSerializerDefaultAdapter@VNpArticulationJointReducedCoordinate@physx@@@physx@@UEBAXAEAVPxBase@2@AEAVPxSerializationContext@2@@Z 000000018004f250 f i NpSerializerAdapter.obj
 0001:0004e360       ?exportData@?$PxSerializerDefaultAdapter@VNpArticulationLink@physx@@@physx@@UEBAXAEAVPxBase@2@AEAVPxSerializationContext@2@@Z 000000018004f360 f i NpSerializerAdapter.obj
 0001:0004e4c0       ?exportData@?$PxSerializerDefaultAdapter@VNpArticulationReducedCoordinate@physx@@@physx@@UEBAXAEAVPxBase@2@AEAVPxSerializationContext@2@@Z 000000018004f4c0 f i NpSerializerAdapter.obj
 0001:0004e5d0       ?exportData@?$PxSerializerDefaultAdapter@VNpMaterial@physx@@@physx@@UEBAXAEAVPxBase@2@AEAVPxSerializationContext@2@@Z 000000018004f5d0 f i NpSerializerAdapter.obj
 0001:0004e690       ?exportData@?$PxSerializerDefaultAdapter@VNpRigidDynamic@physx@@@physx@@UEBAXAEAVPxBase@2@AEAVPxSerializationContext@2@@Z 000000018004f690 f i NpSerializerAdapter.obj
 0001:0004e780       ?exportData@?$PxSerializerDefaultAdapter@VNpRigidStatic@physx@@@physx@@UEBAXAEAVPxBase@2@AEAVPxSerializationContext@2@@Z 000000018004f780 f i NpSerializerAdapter.obj
 0001:0004e8b0       ?exportData@?$PxSerializerDefaultAdapter@VNpShape@physx@@@physx@@UEBAXAEAVPxBase@2@AEAVPxSerializationContext@2@@Z 000000018004f8b0 f i NpSerializerAdapter.obj
 0001:0004e9b0       ?exportData@?$PxSerializerDefaultAdapter@VPruningStructure@Sq@physx@@@physx@@UEBAXAEAVPxBase@2@AEAVPxSerializationContext@2@@Z 000000018004f9b0 f i NpSerializerAdapter.obj
 0001:0004ea70       ?exportData@?$PxSerializerDefaultAdapter@VRTreeTriangleMesh@Gu@physx@@@physx@@UEBAXAEAVPxBase@2@AEAVPxSerializationContext@2@@Z 000000018004fa70 f i NpSerializerAdapter.obj
 0001:0004eb60       ?exportExtraData@?$PxSerializerDefaultAdapter@VBV4TriangleMesh@Gu@physx@@@physx@@UEBAXAEAVPxBase@2@AEAVPxSerializationContext@2@@Z 000000018004fb60 f i NpSerializerAdapter.obj
 0001:0004eb60       ?exportExtraData@?$PxSerializerDefaultAdapter@VRTreeTriangleMesh@Gu@physx@@@physx@@UEBAXAEAVPxBase@2@AEAVPxSerializationContext@2@@Z 000000018004fb60 f i NpSerializerAdapter.obj
 0001:0004eb70       ?exportExtraData@?$PxSerializerDefaultAdapter@VHeightField@Gu@physx@@@physx@@UEBAXAEAVPxBase@2@AEAVPxSerializationContext@2@@Z 000000018004fb70 f i NpSerializerAdapter.obj
 0001:0004eb70       ?requiresObjects@?$PxSerializerDefaultAdapter@VNpConstraint@physx@@@physx@@UEBAXAEAVPxBase@2@AEAVPxProcessPxBaseCallback@2@@Z 000000018004fb70 f i NpSerializerAdapter.obj
 0001:0004eb80       ?exportExtraData@?$PxSerializerDefaultAdapter@VNpArticulation@physx@@@physx@@UEBAXAEAVPxBase@2@AEAVPxSerializationContext@2@@Z 000000018004fb80 f i NpSerializerAdapter.obj
 0001:0004eb90       ?exportExtraData@?$PxSerializerDefaultAdapter@VNpArticulationLink@physx@@@physx@@UEBAXAEAVPxBase@2@AEAVPxSerializationContext@2@@Z 000000018004fb90 f i NpSerializerAdapter.obj
 0001:0004eba0       ?exportExtraData@?$PxSerializerDefaultAdapter@VNpArticulationReducedCoordinate@physx@@@physx@@UEBAXAEAVPxBase@2@AEAVPxSerializationContext@2@@Z 000000018004fba0 f i NpSerializerAdapter.obj
 0001:0004ebb0       ?exportExtraData@?$PxSerializerDefaultAdapter@VNpRigidDynamic@physx@@@physx@@UEBAXAEAVPxBase@2@AEAVPxSerializationContext@2@@Z 000000018004fbb0 f i NpSerializerAdapter.obj
 0001:0004ebc0       ?exportExtraData@?$PxSerializerDefaultAdapter@VNpRigidStatic@physx@@@physx@@UEBAXAEAVPxBase@2@AEAVPxSerializationContext@2@@Z 000000018004fbc0 f i NpSerializerAdapter.obj
 0001:0004ebd0       ?exportExtraData@?$PxSerializerDefaultAdapter@VNpShape@physx@@@physx@@UEBAXAEAVPxBase@2@AEAVPxSerializationContext@2@@Z 000000018004fbd0 f i NpSerializerAdapter.obj
 0001:0004ebd0       ?requiresObjects@?$PxSerializerDefaultAdapter@VNpArticulation@physx@@@physx@@UEBAXAEAVPxBase@2@AEAVPxProcessPxBaseCallback@2@@Z 000000018004fbd0 f i NpSerializerAdapter.obj
 0001:0004ebe0       ?exportExtraData@?$PxSerializerDefaultAdapter@VPruningStructure@Sq@physx@@@physx@@UEBAXAEAVPxBase@2@AEAVPxSerializationContext@2@@Z 000000018004fbe0 f i NpSerializerAdapter.obj
 0001:0004ebf0       ?getClassSize@?$PxSerializerDefaultAdapter@VBV4TriangleMesh@Gu@physx@@@physx@@UEBA_KXZ 000000018004fbf0 f i NpSerializerAdapter.obj
 0001:0004ec00       ?getClassSize@?$PxSerializerDefaultAdapter@VConvexMesh@Gu@physx@@@physx@@UEBA_KXZ 000000018004fc00 f i NpSerializerAdapter.obj
 0001:0004ec10       ?getClassSize@?$PxSerializerDefaultAdapter@VHeightField@Gu@physx@@@physx@@UEBA_KXZ 000000018004fc10 f i NpSerializerAdapter.obj
 0001:0004ec20       ?NpShapeGetScPtrOffset@physx@@YA_KXZ 000000018004fc20 f i NpShape.obj
 0001:0004ec20       ?getClassSize@?$PxSerializerDefaultAdapter@VNpAggregate@physx@@@physx@@UEBA_KXZ 000000018004fc20 f i NpSerializerAdapter.obj
 0001:0004ec20       ?getClassSize@?$PxSerializerDefaultAdapter@VNpMaterial@physx@@@physx@@UEBA_KXZ 000000018004fc20 f i NpSerializerAdapter.obj
 0001:0004ec30       ?getClassSize@?$PxSerializerDefaultAdapter@VNpArticulation@physx@@@physx@@UEBA_KXZ 000000018004fc30 f i NpSerializerAdapter.obj
 0001:0004ec30       ?getClassSize@?$PxSerializerDefaultAdapter@VNpConstraint@physx@@@physx@@UEBA_KXZ 000000018004fc30 f i NpSerializerAdapter.obj
 0001:0004ec40       ?getClassSize@?$PxSerializerDefaultAdapter@VNpArticulationJoint@physx@@@physx@@UEBA_KXZ 000000018004fc40 f i NpSerializerAdapter.obj
 0001:0004ec40       ?getClassSize@?$PxSerializerDefaultAdapter@VNpArticulationJointReducedCoordinate@physx@@@physx@@UEBA_KXZ 000000018004fc40 f i NpSerializerAdapter.obj
 0001:0004ec50       ?getClassSize@?$PxSerializerDefaultAdapter@VNpArticulationLink@physx@@@physx@@UEBA_KXZ 000000018004fc50 f i NpSerializerAdapter.obj
 0001:0004ec60       ?getClassSize@?$PxSerializerDefaultAdapter@VNpArticulationReducedCoordinate@physx@@@physx@@UEBA_KXZ 000000018004fc60 f i NpSerializerAdapter.obj
 0001:0004ec70       ?getClassSize@?$PxSerializerDefaultAdapter@VNpRigidDynamic@physx@@@physx@@UEBA_KXZ 000000018004fc70 f i NpSerializerAdapter.obj
 0001:0004ec80       ?getClassSize@?$PxSerializerDefaultAdapter@VNpRigidStatic@physx@@@physx@@UEBA_KXZ 000000018004fc80 f i NpSerializerAdapter.obj
 0001:0004ec90       ?getClassSize@?$PxSerializerDefaultAdapter@VNpShape@physx@@@physx@@UEBA_KXZ 000000018004fc90 f i NpSerializerAdapter.obj
 0001:0004eca0       ?getClassSize@?$PxSerializerDefaultAdapter@VPruningStructure@Sq@physx@@@physx@@UEBA_KXZ 000000018004fca0 f i NpSerializerAdapter.obj
 0001:0004ecb0       ?getClassSize@?$PxSerializerDefaultAdapter@VRTreeTriangleMesh@Gu@physx@@@physx@@UEBA_KXZ 000000018004fcb0 f i NpSerializerAdapter.obj
 0001:0004ecc0       ?process@RequiresCallback@?1??registerReferences@?$PxSerializerDefaultAdapter@VBV4TriangleMesh@Gu@physx@@@physx@@UEBAXAEAVPxBase@4@AEAVPxSerializationContext@4@@Z@UEAAX0@Z 000000018004fcc0 f i NpSerializerAdapter.obj
 0001:0004ecc0       ?process@RequiresCallback@?1??registerReferences@?$PxSerializerDefaultAdapter@VConvexMesh@Gu@physx@@@physx@@UEBAXAEAVPxBase@4@AEAVPxSerializationContext@4@@Z@UEAAX0@Z 000000018004fcc0 f i NpSerializerAdapter.obj
 0001:0004ecc0       ?process@RequiresCallback@?1??registerReferences@?$PxSerializerDefaultAdapter@VHeightField@Gu@physx@@@physx@@UEBAXAEAVPxBase@4@AEAVPxSerializationContext@4@@Z@UEAAX0@Z 000000018004fcc0 f i NpSerializerAdapter.obj
 0001:0004ecc0       ?process@RequiresCallback@?1??registerReferences@?$PxSerializerDefaultAdapter@VNpAggregate@physx@@@physx@@UEBAXAEAVPxBase@4@AEAVPxSerializationContext@4@@Z@UEAAX0@Z 000000018004fcc0 f i NpSerializerAdapter.obj
 0001:0004ecc0       ?process@RequiresCallback@?1??registerReferences@?$PxSerializerDefaultAdapter@VNpArticulation@physx@@@physx@@UEBAXAEAVPxBase@4@AEAVPxSerializationContext@4@@Z@UEAAX0@Z 000000018004fcc0 f i NpSerializerAdapter.obj
 0001:0004ecc0       ?process@RequiresCallback@?1??registerReferences@?$PxSerializerDefaultAdapter@VNpArticulationJoint@physx@@@physx@@UEBAXAEAVPxBase@4@AEAVPxSerializationContext@4@@Z@UEAAX0@Z 000000018004fcc0 f i NpSerializerAdapter.obj
 0001:0004ecc0       ?process@RequiresCallback@?1??registerReferences@?$PxSerializerDefaultAdapter@VNpArticulationJointReducedCoordinate@physx@@@physx@@UEBAXAEAVPxBase@4@AEAVPxSerializationContext@4@@Z@UEAAX0@Z 000000018004fcc0 f i NpSerializerAdapter.obj
 0001:0004ecc0       ?process@RequiresCallback@?1??registerReferences@?$PxSerializerDefaultAdapter@VNpArticulationLink@physx@@@physx@@UEBAXAEAVPxBase@4@AEAVPxSerializationContext@4@@Z@UEAAX0@Z 000000018004fcc0 f i NpSerializerAdapter.obj
 0001:0004ecc0       ?process@RequiresCallback@?1??registerReferences@?$PxSerializerDefaultAdapter@VNpArticulationReducedCoordinate@physx@@@physx@@UEBAXAEAVPxBase@4@AEAVPxSerializationContext@4@@Z@UEAAX0@Z 000000018004fcc0 f i NpSerializerAdapter.obj
 0001:0004ecc0       ?process@RequiresCallback@?1??registerReferences@?$PxSerializerDefaultAdapter@VNpConstraint@physx@@@physx@@UEBAXAEAVPxBase@4@AEAVPxSerializationContext@4@@Z@UEAAX0@Z 000000018004fcc0 f i NpSerializerAdapter.obj
 0001:0004ecc0       ?process@RequiresCallback@?1??registerReferences@?$PxSerializerDefaultAdapter@VNpRigidDynamic@physx@@@physx@@UEBAXAEAVPxBase@4@AEAVPxSerializationContext@4@@Z@UEAAX0@Z 000000018004fcc0 f i NpSerializerAdapter.obj
 0001:0004ecc0       ?process@RequiresCallback@?1??registerReferences@?$PxSerializerDefaultAdapter@VNpRigidStatic@physx@@@physx@@UEBAXAEAVPxBase@4@AEAVPxSerializationContext@4@@Z@UEAAX0@Z 000000018004fcc0 f i NpSerializerAdapter.obj
 0001:0004ecc0       ?process@RequiresCallback@?1??registerReferences@?$PxSerializerDefaultAdapter@VPruningStructure@Sq@physx@@@physx@@UEBAXAEAVPxBase@4@AEAVPxSerializationContext@4@@Z@UEAAX0@Z 000000018004fcc0 f i NpSerializerAdapter.obj
 0001:0004ecc0       ?process@RequiresCallback@?1??registerReferences@?$PxSerializerDefaultAdapter@VRTreeTriangleMesh@Gu@physx@@@physx@@UEBAXAEAVPxBase@4@AEAVPxSerializationContext@4@@Z@UEAAX0@Z 000000018004fcc0 f i NpSerializerAdapter.obj
 0001:0004ece0       ?process@RequiresCallback@?1??registerReferences@?$PxSerializerDefaultAdapter@VNpShape@physx@@@physx@@UEBAXAEAVPxBase@4@AEAVPxSerializationContext@4@@Z@UEAAX0@Z 000000018004fce0 f i NpSerializerAdapter.obj
 0001:0004ed20       ?registerReferences@?$PxSerializerDefaultAdapter@VBV4TriangleMesh@Gu@physx@@@physx@@UEBAXAEAVPxBase@2@AEAVPxSerializationContext@2@@Z 000000018004fd20 f i NpSerializerAdapter.obj
 0001:0004ed20       ?registerReferences@?$PxSerializerDefaultAdapter@VRTreeTriangleMesh@Gu@physx@@@physx@@UEBAXAEAVPxBase@2@AEAVPxSerializationContext@2@@Z 000000018004fd20 f i NpSerializerAdapter.obj
 0001:0004ed70       ?registerReferences@?$PxSerializerDefaultAdapter@VConvexMesh@Gu@physx@@@physx@@UEBAXAEAVPxBase@2@AEAVPxSerializationContext@2@@Z 000000018004fd70 f i NpSerializerAdapter.obj
 0001:0004edc0       ?registerReferences@?$PxSerializerDefaultAdapter@VHeightField@Gu@physx@@@physx@@UEBAXAEAVPxBase@2@AEAVPxSerializationContext@2@@Z 000000018004fdc0 f i NpSerializerAdapter.obj
 0001:0004ee10       ?registerReferences@?$PxSerializerDefaultAdapter@VNpAggregate@physx@@@physx@@UEBAXAEAVPxBase@2@AEAVPxSerializationContext@2@@Z 000000018004fe10 f i NpSerializerAdapter.obj
 0001:0004ee60       ?registerReferences@?$PxSerializerDefaultAdapter@VNpArticulation@physx@@@physx@@UEBAXAEAVPxBase@2@AEAVPxSerializationContext@2@@Z 000000018004fe60 f i NpSerializerAdapter.obj
 0001:0004eeb0       ?registerReferences@?$PxSerializerDefaultAdapter@VNpArticulationJoint@physx@@@physx@@UEBAXAEAVPxBase@2@AEAVPxSerializationContext@2@@Z 000000018004feb0 f i NpSerializerAdapter.obj
 0001:0004ef00       ?registerReferences@?$PxSerializerDefaultAdapter@VNpArticulationJointReducedCoordinate@physx@@@physx@@UEBAXAEAVPxBase@2@AEAVPxSerializationContext@2@@Z 000000018004ff00 f i NpSerializerAdapter.obj
 0001:0004ef50       ?registerReferences@?$PxSerializerDefaultAdapter@VNpArticulationLink@physx@@@physx@@UEBAXAEAVPxBase@2@AEAVPxSerializationContext@2@@Z 000000018004ff50 f i NpSerializerAdapter.obj
 0001:0004efa0       ?registerReferences@?$PxSerializerDefaultAdapter@VNpArticulationReducedCoordinate@physx@@@physx@@UEBAXAEAVPxBase@2@AEAVPxSerializationContext@2@@Z 000000018004ffa0 f i NpSerializerAdapter.obj
 0001:0004eff0       ?registerReferences@?$PxSerializerDefaultAdapter@VNpConstraint@physx@@@physx@@UEBAXAEAVPxBase@2@AEAVPxSerializationContext@2@@Z 000000018004fff0 f i NpSerializerAdapter.obj
 0001:0004f040       ?registerReferences@?$PxSerializerDefaultAdapter@VNpMaterial@physx@@@physx@@UEBAXAEAVPxBase@2@AEAVPxSerializationContext@2@@Z 0000000180050040 f i NpSerializerAdapter.obj
 0001:0004f090       ?registerReferences@?$PxSerializerDefaultAdapter@VNpRigidDynamic@physx@@@physx@@UEBAXAEAVPxBase@2@AEAVPxSerializationContext@2@@Z 0000000180050090 f i NpSerializerAdapter.obj
 0001:0004f0e0       ?registerReferences@?$PxSerializerDefaultAdapter@VNpRigidStatic@physx@@@physx@@UEBAXAEAVPxBase@2@AEAVPxSerializationContext@2@@Z 00000001800500e0 f i NpSerializerAdapter.obj
 0001:0004f130       ?registerReferences@?$PxSerializerDefaultAdapter@VNpShape@physx@@@physx@@UEBAXAEAVPxBase@2@AEAVPxSerializationContext@2@@Z 0000000180050130 f i NpSerializerAdapter.obj
 0001:0004f180       ?registerReferences@?$PxSerializerDefaultAdapter@VPruningStructure@Sq@physx@@@physx@@UEBAXAEAVPxBase@2@AEAVPxSerializationContext@2@@Z 0000000180050180 f i NpSerializerAdapter.obj
 0001:0004f1d0       ?requiresObjects@?$PxSerializerDefaultAdapter@VBV4TriangleMesh@Gu@physx@@@physx@@UEBAXAEAVPxBase@2@AEAVPxProcessPxBaseCallback@2@@Z 00000001800501d0 f i NpSerializerAdapter.obj
 0001:0004f1d0       ?requiresObjects@?$PxSerializerDefaultAdapter@VRTreeTriangleMesh@Gu@physx@@@physx@@UEBAXAEAVPxBase@2@AEAVPxProcessPxBaseCallback@2@@Z 00000001800501d0 f i NpSerializerAdapter.obj
 0001:0004f1e0       ?requiresObjects@?$PxSerializerDefaultAdapter@VHeightField@Gu@physx@@@physx@@UEBAXAEAVPxBase@2@AEAVPxProcessPxBaseCallback@2@@Z 00000001800501e0 f i NpSerializerAdapter.obj
 0001:0004f1e0       ?requiresObjects@?$PxSerializerDefaultAdapter@VNpMaterial@physx@@@physx@@UEBAXAEAVPxBase@2@AEAVPxProcessPxBaseCallback@2@@Z 00000001800501e0 f i NpSerializerAdapter.obj
 0001:0004f1f0       ?requiresObjects@?$PxSerializerDefaultAdapter@VNpArticulationJoint@physx@@@physx@@UEBAXAEAVPxBase@2@AEAVPxProcessPxBaseCallback@2@@Z 00000001800501f0 f i NpSerializerAdapter.obj
 0001:0004f200       ?requiresObjects@?$PxSerializerDefaultAdapter@VNpArticulationJointReducedCoordinate@physx@@@physx@@UEBAXAEAVPxBase@2@AEAVPxProcessPxBaseCallback@2@@Z 0000000180050200 f i NpSerializerAdapter.obj
 0001:0004f210       ?requiresObjects@?$PxSerializerDefaultAdapter@VNpArticulationLink@physx@@@physx@@UEBAXAEAVPxBase@2@AEAVPxProcessPxBaseCallback@2@@Z 0000000180050210 f i NpSerializerAdapter.obj
 0001:0004f220       ?requiresObjects@?$PxSerializerDefaultAdapter@VNpArticulationReducedCoordinate@physx@@@physx@@UEBAXAEAVPxBase@2@AEAVPxProcessPxBaseCallback@2@@Z 0000000180050220 f i NpSerializerAdapter.obj
 0001:0004f230       ?requiresObjects@?$PxSerializerDefaultAdapter@VNpRigidDynamic@physx@@@physx@@UEBAXAEAVPxBase@2@AEAVPxProcessPxBaseCallback@2@@Z 0000000180050230 f i NpSerializerAdapter.obj
 0001:0004f240       ?requiresObjects@?$PxSerializerDefaultAdapter@VNpRigidStatic@physx@@@physx@@UEBAXAEAVPxBase@2@AEAVPxProcessPxBaseCallback@2@@Z 0000000180050240 f i NpSerializerAdapter.obj
 0001:0004f250       ?requiresObjects@?$PxSerializerDefaultAdapter@VNpShape@physx@@@physx@@UEBAXAEAVPxBase@2@AEAVPxProcessPxBaseCallback@2@@Z 0000000180050250 f i NpSerializerAdapter.obj
 0001:0004f260       ?requiresObjects@?$PxSerializerDefaultAdapter@VPruningStructure@Sq@physx@@@physx@@UEBAXAEAVPxBase@2@AEAVPxProcessPxBaseCallback@2@@Z 0000000180050260 f i NpSerializerAdapter.obj
 0001:0004f270       PxRegisterPhysicsSerializers 0000000180050270 f   NpSerializerAdapter.obj
 0001:0004f810       PxUnregisterPhysicsSerializers 0000000180050810 f   NpSerializerAdapter.obj
 0001:0004fc00       ??0NpShape@physx@@QEAA@AEBVPxGeometry@1@V?$PxFlags@W4Enum@PxShapeFlag@physx@@E@1@PEBGG_N@Z 0000000180050c00 f   NpShape.obj
 0001:0004fd38       ??_ENpShape@physx@@WBI@EAAPEAXI@Z 0000000180050d38 f i NpShape.obj
 0001:0004fd50       ??_ENpShape@physx@@UEAAPEAXI@Z 0000000180050d50 f i NpShape.obj
 0001:0004fd50       ??_GNpShape@physx@@UEAAPEAXI@Z 0000000180050d50 f i NpShape.obj
 0001:0004fec0       ?NpShapeDecRefCount@physx@@YAXAEAVShape@Scb@1@@Z 0000000180050ec0 f   NpShape.obj
 0001:0004fef0       ?NpShapeGetScRigidObjectFromScbSLOW@physx@@YAPEAVRigidCore@Sc@1@AEBVShape@Scb@1@@Z 0000000180050ef0 f   NpShape.obj
 0001:0004ff60       ?NpShapeIncRefCount@physx@@YAXAEAVShape@Scb@1@@Z 0000000180050f60 f   NpShape.obj
 0001:0004ff70       ?checkMaterialSetup@NpShape@physx@@SA_NAEBVPxGeometry@2@PEBDPEBQEAVPxMaterial@2@G@Z 0000000180050f70 f   NpShape.obj
 0001:00050170       ?createObject@NpShape@physx@@SAPEAV12@AEAPEAEAEAVPxDeserializationContext@2@@Z 0000000180051170 f   NpShape.obj
 0001:00050250       ?exportExtraData@NpShape@physx@@UEAAXAEAVPxSerializationContext@2@@Z 0000000180051250 f   NpShape.obj
 0001:00050290       ?getActor@NpShape@physx@@UEBAPEAVPxRigidActor@2@XZ 0000000180051290 f   NpShape.obj
 0001:000502e0       ?getBoxGeometry@NpShape@physx@@UEBA_NAEAVPxBoxGeometry@2@@Z 00000001800512e0 f   NpShape.obj
 0001:00050370       ?getCapsuleGeometry@NpShape@physx@@UEBA_NAEAVPxCapsuleGeometry@2@@Z 0000000180051370 f   NpShape.obj
 0001:000503f0       ?getConcreteTypeName@PxShape@physx@@UEBAPEBDXZ 00000001800513f0 f i NpShape.obj
 0001:00050400       ?getContactOffset@NpShape@physx@@UEBAMXZ 0000000180051400 f   NpShape.obj
 0001:00050470       ?getConvexMeshGeometry@NpShape@physx@@UEBA_NAEAVPxConvexMeshGeometry@2@@Z 0000000180051470 f   NpShape.obj
 0001:00050530       ?getFlags@NpShape@physx@@UEBA?AV?$PxFlags@W4Enum@PxShapeFlag@physx@@E@2@XZ 0000000180051530 f   NpShape.obj
 0001:000505a0       ?getGeometry@NpShape@physx@@UEBA?AVPxGeometryHolder@2@XZ 00000001800515a0 f   NpShape.obj
 0001:000505e0       ?getGeometryType@NpShape@physx@@UEBA?AW4Enum@PxGeometryType@2@XZ 00000001800515e0 f   NpShape.obj
 0001:00050630       ?getHeightFieldGeometry@NpShape@physx@@UEBA_NAEAVPxHeightFieldGeometry@2@@Z 0000000180051630 f   NpShape.obj
 0001:000506e0       ?getLocalPose@NpShape@physx@@UEBA?AVPxTransform@2@XZ 00000001800516e0 f   NpShape.obj
 0001:00050770       ?getMaterial@Shape@Scb@physx@@QEBAPEAVPxMaterial@3@I@Z 0000000180051770 f i NpShape.obj
 0001:000507f0       ?getMaterialFromInternalFaceIndex@NpShape@physx@@UEBAPEAVPxMaterial@2@I@Z 00000001800517f0 f   NpShape.obj
 0001:00050970       ?getMaterials@NpShape@physx@@UEBAIPEAPEAVPxMaterial@2@II@Z 0000000180051970 f   NpShape.obj
 0001:000509f0       ?getMaterials@Shape@Scb@physx@@QEBAIPEAPEAVPxMaterial@3@II@Z 00000001800519f0 f i NpShape.obj
 0001:00050ac0       ?getMeshRefCountable@NpShape@physx@@AEAAPEAVRefCountable@Cm@2@XZ 0000000180051ac0 f   NpShape.obj
 0001:00050b50       ?getMinTorsionalPatchRadius@NpShape@physx@@UEBAMXZ 0000000180051b50 f   NpShape.obj
 0001:00050bc0       ?getName@NpShape@physx@@UEBAPEBDXZ 0000000180051bc0 f   NpShape.obj
 0001:00050c10       ?getNbMaterials@NpShape@physx@@UEBAGXZ 0000000180051c10 f   NpShape.obj
 0001:00050c90       ?getPlaneGeometry@NpShape@physx@@UEBA_NAEAVPxPlaneGeometry@2@@Z 0000000180051c90 f   NpShape.obj
 0001:00050d00       ?getQueryFilterData@NpShape@physx@@UEBA?AUPxFilterData@2@XZ 0000000180051d00 f   NpShape.obj
 0001:00050d70       ?getRestOffset@NpShape@physx@@UEBAMXZ 0000000180051d70 f   NpShape.obj
 0001:00050de0       ?getSimulationFilterData@NpShape@physx@@UEBA?AUPxFilterData@2@XZ 0000000180051de0 f   NpShape.obj
 0001:00050e60       ?getSphereGeometry@NpShape@physx@@UEBA_NAEAVPxSphereGeometry@2@@Z 0000000180051e60 f   NpShape.obj
 0001:00050ee0       ?getTorsionalPatchRadius@NpShape@physx@@UEBAMXZ 0000000180051ee0 f   NpShape.obj
 0001:00050f50       ?getTriangleMeshGeometry@NpShape@physx@@UEBA_NAEAVPxTriangleMeshGeometry@2@@Z 0000000180051f50 f   NpShape.obj
 0001:00051010       ?isExclusive@NpShape@physx@@UEBA_NXZ 0000000180052010 f   NpShape.obj
 0001:00051060       ?isKindOf@PxShape@physx@@MEBA_NPEBD@Z 0000000180052060 f i NpShape.obj
 0001:000510b0       ?onActorAttach@NpShape@physx@@QEAAXAEAVPxRigidActor@2@@Z 00000001800520b0 f   NpShape.obj
 0001:000510f0       ?onActorDetach@NpShape@physx@@QEAAXXZ 00000001800520f0 f   NpShape.obj
 0001:00051140       ?onRefCountZero@NpShape@physx@@UEAAXXZ 0000000180052140 f   NpShape.obj
 0001:00051170       ?preExportDataReset@NpShape@physx@@QEAAXXZ 0000000180052170 f   NpShape.obj
 0001:00051190       ?release@NpShape@physx@@UEAAXXZ 0000000180052190 f   NpShape.obj
 0001:00051250       ?requiresObjects@NpShape@physx@@UEAAXAEAVPxProcessPxBaseCallback@2@@Z 0000000180052250 f   NpShape.obj
 0001:00051380       ?resolveReferences@NpShape@physx@@QEAAXAEAVPxDeserializationContext@2@@Z 0000000180052380 f   NpShape.obj
 0001:000514e0       ?setContactOffset@NpShape@physx@@UEAAXM@Z 00000001800524e0 f   NpShape.obj
 0001:00051750       ?setFlag@NpShape@physx@@UEAAXW4Enum@PxShapeFlag@2@_N@Z 0000000180052750 f   NpShape.obj
 0001:000518a0       ?setFlags@NpShape@physx@@UEAAXV?$PxFlags@W4Enum@PxShapeFlag@physx@@E@2@@Z 00000001800528a0 f   NpShape.obj
 0001:000519b0       ?setFlagsInternal@NpShape@physx@@QEAAXV?$PxFlags@W4Enum@PxShapeFlag@physx@@E@2@@Z 00000001800529b0 f   NpShape.obj
 0001:00051cc0       ?setGeometry@NpShape@physx@@UEAAXAEBVPxGeometry@2@@Z 0000000180052cc0 f   NpShape.obj
 0001:000522e0       ?setLocalPose@NpShape@physx@@UEAAXAEBVPxTransform@2@@Z 00000001800532e0 f   NpShape.obj
 0001:00052610       ?setMaterials@NpShape@physx@@UEAAXPEBQEAVPxMaterial@2@G@Z 0000000180053610 f   NpShape.obj
 0001:00052930       ?setMinTorsionalPatchRadius@NpShape@physx@@UEAAXM@Z 0000000180053930 f   NpShape.obj
 0001:00052b10       ?setName@NpShape@physx@@UEAAXPEBD@Z 0000000180053b10 f   NpShape.obj
 0001:00052bf0       ?setQueryFilterData@NpShape@physx@@UEAAXAEBUPxFilterData@2@@Z 0000000180053bf0 f   NpShape.obj
 0001:00052ce0       ?setRestOffset@NpShape@physx@@UEAAXM@Z 0000000180053ce0 f   NpShape.obj
 0001:00052f40       ?setSimulationFilterData@NpShape@physx@@UEAAXAEBUPxFilterData@2@@Z 0000000180053f40 f   NpShape.obj
 0001:00053110       ?setTorsionalPatchRadius@NpShape@physx@@UEAAXM@Z 0000000180054110 f   NpShape.obj
 0001:000532f0       ?updateSQ@NpShape@physx@@AEAAXPEBD@Z 00000001800542f0 f   NpShape.obj
 0001:000533c0       ??0NpShapeManager@physx@@QEAA@W4PxEMPTY@1@@Z 00000001800543c0 f   NpShapeManager.obj
 0001:00053400       ??0NpShapeManager@physx@@QEAA@XZ 0000000180054400 f   NpShapeManager.obj
 0001:00053440       ??0PxMat44@physx@@QEAA@AEBVPxTransform@1@@Z 0000000180054440 f i NpShapeManager.obj
 0001:000535c0       ??1NpShapeManager@physx@@QEAA@XZ 00000001800545c0 f   NpShapeManager.obj
 0001:00053620       ?addBVHStructureShapes@NpShapeManager@physx@@QEAAXAEAVSceneQueryManager@Sq@2@AEBVPxRigidActor@2@PEBVBVHStructure@Gu@2@@Z 0000000180054620 f   NpShapeManager.obj
 0001:00053890       ?addPrunerShape@NpShapeManager@physx@@QEAAXAEAVSceneQueryManager@Sq@2@IAEBVNpShape@2@AEBVPxRigidActor@2@_NPEBVPxBounds3@2@3@Z 0000000180054890 f   NpShapeManager.obj
 0001:00053920       ?attachShape@NpShapeManager@physx@@QEAAXAEAVNpShape@2@AEAVPxRigidActor@2@@Z 0000000180054920 f   NpShapeManager.obj
 0001:000539f0       ?clearShapesOnRelease@NpShapeManager@physx@@QEAAXAEAVScene@Scb@2@AEAVPxRigidActor@2@@Z 00000001800549f0 f   NpShapeManager.obj
 0001:00053a90       ?detachAll@NpShapeManager@physx@@QEAAXPEAVNpScene@2@AEBVPxRigidActor@2@@Z 0000000180054a90 f   NpShapeManager.obj
 0001:00053c20       ?detachShape@NpShapeManager@physx@@QEAA_NAEAVNpShape@2@AEAVPxRigidActor@2@_N@Z 0000000180054c20 f   NpShapeManager.obj
 0001:00053d70       ?exportExtraData@NpShapeManager@physx@@QEAAXAEAVPxSerializationContext@2@@Z 0000000180054d70 f   NpShapeManager.obj
 0001:00053de0       ?findSceneQueryData@NpShapeManager@physx@@QEBA_KAEBVNpShape@2@@Z 0000000180054de0 f   NpShapeManager.obj
 0001:00053e20       ?findSceneQueryData@NpShapeManager@physx@@QEBA_KAEBVNpShape@2@AEAI@Z 0000000180054e20 f   NpShapeManager.obj
 0001:00053e70       ?getShapes@NpShapeManager@physx@@QEBAIPEAPEAVPxShape@2@II@Z 0000000180054e70 f   NpShapeManager.obj
 0001:00054140       ?getWorldBounds@NpShapeManager@physx@@QEBA?AVPxBounds3@2@AEBVPxRigidActor@2@@Z 0000000180055140 f   NpShapeManager.obj
 0001:000544a0       ?growAndPushBack@?$Array@URemovedShape@Scb@physx@@V?$InlineAllocator@$0EA@VNamedAllocator@shdfnd@physx@@@shdfnd@3@@shdfnd@physx@@IEAAAEAURemovedShape@Scb@3@AEBU453@@Z 00000001800554a0 f i NpShapeManager.obj
 0001:00054560       ?importExtraData@NpShapeManager@physx@@QEAAXAEAVPxDeserializationContext@2@@Z 0000000180055560 f   NpShapeManager.obj
 0001:00054590       ?markAllSceneQueryForUpdate@NpShapeManager@physx@@QEAAXAEAVSceneQueryManager@Sq@2@AEBVPxRigidActor@2@@Z 0000000180055590 f   NpShapeManager.obj
 0001:00054650       ?onShapeAttach@RigidObject@Scb@physx@@QEAAXAEAVShape@23@@Z 0000000180055650 f i NpShapeManager.obj
 0001:00054850       ?onShapeDetach@RigidObject@Scb@physx@@QEAAXAEAVShape@23@_N1@Z 0000000180055850 f i NpShapeManager.obj
 0001:00054b90       ?preExportDataReset@NpShapeManager@physx@@QEAAXXZ 0000000180055b90 f   NpShapeManager.obj
 0001:00054bb0       ?setupAllSceneQuery@NpShapeManager@physx@@QEAAXPEAVNpScene@2@AEBVPxRigidActor@2@_NPEBVPxBounds3@2@PEBVBVHStructure@Gu@2@@Z 0000000180055bb0 f   NpShapeManager.obj
 0001:00054db0       ?setupSceneQuery@NpShapeManager@physx@@IEAAXAEAVSceneQueryManager@Sq@2@AEBVPxRigidActor@2@I@Z 0000000180055db0 f   NpShapeManager.obj
 0001:00054e50       ?setupSceneQuery@NpShapeManager@physx@@QEAAXAEAVSceneQueryManager@Sq@2@AEBVPxRigidActor@2@AEBVNpShape@2@@Z 0000000180055e50 f   NpShapeManager.obj
 0001:00054ea0       ?teardownAllSceneQuery@NpShapeManager@physx@@QEAAXAEAVSceneQueryManager@Sq@2@AEBVPxRigidActor@2@@Z 0000000180055ea0 f   NpShapeManager.obj
 0001:00054fb0       ?teardownSceneQuery@NpShapeManager@physx@@QEAAXAEAVSceneQueryManager@Sq@2@AEBVNpShape@2@@Z 0000000180055fb0 f   NpShapeManager.obj
 0001:00055360       ?visualize@NpShapeManager@physx@@QEAAXAEAVRenderOutput@Cm@2@PEAVNpScene@2@AEBVPxRigidActor@2@@Z 0000000180056360 f   NpShapeManager.obj
 0001:00058220       ??0NpWriteCheck@physx@@QEAA@PEAVNpScene@1@PEBD_N@Z 0000000180059220 f   NpWriteCheck.obj
 0001:00058320       ??1NpWriteCheck@physx@@QEAA@XZ 0000000180059320 f   NpWriteCheck.obj
 0001:000583c0       ??$addPropertyMessageArg@E@PvdPropertyDefinitionHelper@pvdsdk@physx@@QEAAXI@Z 00000001800593c0 f i PvdMetaDataPvdBinding.obj
 0001:00058400       ??$addPropertyMessageArg@I@PvdPropertyDefinitionHelper@pvdsdk@physx@@QEAAXI@Z 0000000180059400 f i PvdMetaDataPvdBinding.obj
 0001:00058440       ??$addPropertyMessageArg@VPxTransform@physx@@@PvdPropertyDefinitionHelper@pvdsdk@physx@@QEAAXI@Z 0000000180059440 f i PvdMetaDataPvdBinding.obj
 0001:00058480       ??$addPropertyMessageArg@VPxVec3@physx@@@PvdPropertyDefinitionHelper@pvdsdk@physx@@QEAAXI@Z 0000000180059480 f i PvdMetaDataPvdBinding.obj
 0001:000584c0       ??$addPropertyMessageArg@_N@PvdPropertyDefinitionHelper@pvdsdk@physx@@QEAAXI@Z 00000001800594c0 f i PvdMetaDataPvdBinding.obj
 0001:000588d0       ??$createProperty@UPvdContact@Vd@physx@@I@PvdMetaDataStream@pvdsdk@physx@@QEAA?AW4Enum@PvdErrorType@12@PEBD0W43PropertyType@12@V?$DataRef@UNamedValue@pvdsdk@physx@@@12@@Z 00000001800598d0 f i PvdMetaDataPvdBinding.obj
 0001:00058940       ??$createProperty@UPvdContact@Vd@physx@@M@PvdMetaDataStream@pvdsdk@physx@@QEAA?AW4Enum@PvdErrorType@12@PEBD0W43PropertyType@12@V?$DataRef@UNamedValue@pvdsdk@physx@@@12@@Z 0000000180059940 f i PvdMetaDataPvdBinding.obj
 0001:000589b0       ??$createProperty@UPvdContact@Vd@physx@@UObjectRef@pvdsdk@3@@PvdMetaDataStream@pvdsdk@physx@@QEAA?AW4Enum@PvdErrorType@12@PEBD0W43PropertyType@12@V?$DataRef@UNamedValue@pvdsdk@physx@@@12@@Z 00000001800599b0 f i PvdMetaDataPvdBinding.obj
 0001:00058a20       ??$createProperty@UPvdContact@Vd@physx@@VPxVec3@3@@PvdMetaDataStream@pvdsdk@physx@@QEAA?AW4Enum@PvdErrorType@12@PEBD0W43PropertyType@12@V?$DataRef@UNamedValue@pvdsdk@physx@@@12@@Z 0000000180059a20 f i PvdMetaDataPvdBinding.obj
 0001:00058a90       ??$createProperty@UPvdHullPolygonData@Vd@physx@@G@PvdMetaDataStream@pvdsdk@physx@@QEAA?AW4Enum@PvdErrorType@12@PEBD0W43PropertyType@12@V?$DataRef@UNamedValue@pvdsdk@physx@@@12@@Z 0000000180059a90 f i PvdMetaDataPvdBinding.obj
 0001:00058b00       ??$createProperty@UPvdOverlap@Vd@physx@@I@PvdMetaDataStream@pvdsdk@physx@@QEAA?AW4Enum@PvdErrorType@12@PEBD0W43PropertyType@12@V?$DataRef@UNamedValue@pvdsdk@physx@@@12@@Z 0000000180059b00 f i PvdMetaDataPvdBinding.obj
 0001:00058b70       ??$createProperty@UPvdOverlap@Vd@physx@@PEBD@PvdMetaDataStream@pvdsdk@physx@@QEAA?AW4Enum@PvdErrorType@12@PEBD0W43PropertyType@12@V?$DataRef@UNamedValue@pvdsdk@physx@@@12@@Z 0000000180059b70 f i PvdMetaDataPvdBinding.obj
 0001:00058be0       ??$createProperty@UPvdOverlap@Vd@physx@@UPxFilterData@3@@PvdMetaDataStream@pvdsdk@physx@@QEAA?AW4Enum@PvdErrorType@12@PEBD0W43PropertyType@12@V?$DataRef@UNamedValue@pvdsdk@physx@@@12@@Z 0000000180059be0 f i PvdMetaDataPvdBinding.obj
 0001:00058c50       ??$createProperty@UPvdOverlap@Vd@physx@@VPxTransform@3@@PvdMetaDataStream@pvdsdk@physx@@QEAA?AW4Enum@PvdErrorType@12@PEBD0W43PropertyType@12@V?$DataRef@UNamedValue@pvdsdk@physx@@@12@@Z 0000000180059c50 f i PvdMetaDataPvdBinding.obj
 0001:00058cc0       ??$createProperty@UPvdRaycast@Vd@physx@@I@PvdMetaDataStream@pvdsdk@physx@@QEAA?AW4Enum@PvdErrorType@12@PEBD0W43PropertyType@12@V?$DataRef@UNamedValue@pvdsdk@physx@@@12@@Z 0000000180059cc0 f i PvdMetaDataPvdBinding.obj
 0001:00058d30       ??$createProperty@UPvdRaycast@Vd@physx@@M@PvdMetaDataStream@pvdsdk@physx@@QEAA?AW4Enum@PvdErrorType@12@PEBD0W43PropertyType@12@V?$DataRef@UNamedValue@pvdsdk@physx@@@12@@Z 0000000180059d30 f i PvdMetaDataPvdBinding.obj
 0001:00058da0       ??$createProperty@UPvdRaycast@Vd@physx@@PEBD@PvdMetaDataStream@pvdsdk@physx@@QEAA?AW4Enum@PvdErrorType@12@PEBD0W43PropertyType@12@V?$DataRef@UNamedValue@pvdsdk@physx@@@12@@Z 0000000180059da0 f i PvdMetaDataPvdBinding.obj
 0001:00058e10       ??$createProperty@UPvdRaycast@Vd@physx@@UPxFilterData@3@@PvdMetaDataStream@pvdsdk@physx@@QEAA?AW4Enum@PvdErrorType@12@PEBD0W43PropertyType@12@V?$DataRef@UNamedValue@pvdsdk@physx@@@12@@Z 0000000180059e10 f i PvdMetaDataPvdBinding.obj
 0001:00058e80       ??$createProperty@UPvdRaycast@Vd@physx@@VPxVec3@3@@PvdMetaDataStream@pvdsdk@physx@@QEAA?AW4Enum@PvdErrorType@12@PEBD0W43PropertyType@12@V?$DataRef@UNamedValue@pvdsdk@physx@@@12@@Z 0000000180059e80 f i PvdMetaDataPvdBinding.obj
 0001:00058ef0       ??$createProperty@UPvdSqHit@Vd@physx@@I@PvdMetaDataStream@pvdsdk@physx@@QEAA?AW4Enum@PvdErrorType@12@PEBD0W43PropertyType@12@V?$DataRef@UNamedValue@pvdsdk@physx@@@12@@Z 0000000180059ef0 f i PvdMetaDataPvdBinding.obj
 0001:00058f60       ??$createProperty@UPvdSqHit@Vd@physx@@M@PvdMetaDataStream@pvdsdk@physx@@QEAA?AW4Enum@PvdErrorType@12@PEBD0W43PropertyType@12@V?$DataRef@UNamedValue@pvdsdk@physx@@@12@@Z 0000000180059f60 f i PvdMetaDataPvdBinding.obj
 0001:00058fd0       ??$createProperty@UPvdSqHit@Vd@physx@@UObjectRef@pvdsdk@3@@PvdMetaDataStream@pvdsdk@physx@@QEAA?AW4Enum@PvdErrorType@12@PEBD0W43PropertyType@12@V?$DataRef@UNamedValue@pvdsdk@physx@@@12@@Z 0000000180059fd0 f i PvdMetaDataPvdBinding.obj
 0001:00059040       ??$createProperty@UPvdSqHit@Vd@physx@@VPxVec3@3@@PvdMetaDataStream@pvdsdk@physx@@QEAA?AW4Enum@PvdErrorType@12@PEBD0W43PropertyType@12@V?$DataRef@UNamedValue@pvdsdk@physx@@@12@@Z 000000018005a040 f i PvdMetaDataPvdBinding.obj
 0001:000590b0       ??$createProperty@UPvdSweep@Vd@physx@@I@PvdMetaDataStream@pvdsdk@physx@@QEAA?AW4Enum@PvdErrorType@12@PEBD0W43PropertyType@12@V?$DataRef@UNamedValue@pvdsdk@physx@@@12@@Z 000000018005a0b0 f i PvdMetaDataPvdBinding.obj
 0001:00059120       ??$createProperty@UPvdSweep@Vd@physx@@M@PvdMetaDataStream@pvdsdk@physx@@QEAA?AW4Enum@PvdErrorType@12@PEBD0W43PropertyType@12@V?$DataRef@UNamedValue@pvdsdk@physx@@@12@@Z 000000018005a120 f i PvdMetaDataPvdBinding.obj
 0001:00059190       ??$createProperty@UPvdSweep@Vd@physx@@PEBD@PvdMetaDataStream@pvdsdk@physx@@QEAA?AW4Enum@PvdErrorType@12@PEBD0W43PropertyType@12@V?$DataRef@UNamedValue@pvdsdk@physx@@@12@@Z 000000018005a190 f i PvdMetaDataPvdBinding.obj
 0001:00059200       ??$createProperty@UPvdSweep@Vd@physx@@VPxVec3@3@@PvdMetaDataStream@pvdsdk@physx@@QEAA?AW4Enum@PvdErrorType@12@PEBD0W43PropertyType@12@V?$DataRef@UNamedValue@pvdsdk@physx@@@12@@Z 000000018005a200 f i PvdMetaDataPvdBinding.obj
 0001:00059270       ??$createProperty@UPxHeightFieldSample@physx@@E@PvdMetaDataStream@pvdsdk@physx@@QEAA?AW4Enum@PvdErrorType@12@PEBD0W43PropertyType@12@V?$DataRef@UNamedValue@pvdsdk@physx@@@12@@Z 000000018005a270 f i PvdMetaDataPvdBinding.obj
 0001:000592e0       ??$createProperty@VPxAggregate@physx@@UObjectRef@pvdsdk@2@@PvdMetaDataStream@pvdsdk@physx@@QEAA?AW4Enum@PvdErrorType@12@PEBD0W43PropertyType@12@V?$DataRef@UNamedValue@pvdsdk@physx@@@12@@Z 000000018005a2e0 f i PvdMetaDataPvdBinding.obj
 0001:00059350       ??$createProperty@VPxArticulationBase@physx@@UObjectRef@pvdsdk@2@@PvdMetaDataStream@pvdsdk@physx@@QEAA?AW4Enum@PvdErrorType@12@PEBD0W43PropertyType@12@V?$DataRef@UNamedValue@pvdsdk@physx@@@12@@Z 000000018005a350 f i PvdMetaDataPvdBinding.obj
 0001:000593c0       ??$createProperty@VPxArticulationLink@physx@@UObjectRef@pvdsdk@2@@PvdMetaDataStream@pvdsdk@physx@@QEAA?AW4Enum@PvdErrorType@12@PEBD0W43PropertyType@12@V?$DataRef@UNamedValue@pvdsdk@physx@@@12@@Z 000000018005a3c0 f i PvdMetaDataPvdBinding.obj
 0001:00059430       ??$createProperty@VPxConvexMesh@physx@@VPxVec3@2@@PvdMetaDataStream@pvdsdk@physx@@QEAA?AW4Enum@PvdErrorType@12@PEBD0W43PropertyType@12@V?$DataRef@UNamedValue@pvdsdk@physx@@@12@@Z 000000018005a430 f i PvdMetaDataPvdBinding.obj
 0001:000594a0       ??$createProperty@VPxRigidActor@physx@@UObjectRef@pvdsdk@2@@PvdMetaDataStream@pvdsdk@physx@@QEAA?AW4Enum@PvdErrorType@12@PEBD0W43PropertyType@12@V?$DataRef@UNamedValue@pvdsdk@physx@@@12@@Z 000000018005a4a0 f i PvdMetaDataPvdBinding.obj
 0001:00059510       ??$createProperty@VPxScene@physx@@UObjectRef@pvdsdk@2@@PvdMetaDataStream@pvdsdk@physx@@QEAA?AW4Enum@PvdErrorType@12@PEBD0W43PropertyType@12@V?$DataRef@UNamedValue@pvdsdk@physx@@@12@@Z 000000018005a510 f i PvdMetaDataPvdBinding.obj
 0001:00059580       ??$createProperty@VPxScene@physx@@UPvdOverlap@Vd@2@@PvdMetaDataStream@pvdsdk@physx@@QEAA?AW4Enum@PvdErrorType@12@PEBD0W43PropertyType@12@V?$DataRef@UNamedValue@pvdsdk@physx@@@12@@Z 000000018005a580 f i PvdMetaDataPvdBinding.obj
 0001:000595f0       ??$createProperty@VPxScene@physx@@UPvdRaycast@Vd@2@@PvdMetaDataStream@pvdsdk@physx@@QEAA?AW4Enum@PvdErrorType@12@PEBD0W43PropertyType@12@V?$DataRef@UNamedValue@pvdsdk@physx@@@12@@Z 000000018005a5f0 f i PvdMetaDataPvdBinding.obj
 0001:00059660       ??$createProperty@VPxScene@physx@@UPvdSqHit@Vd@2@@PvdMetaDataStream@pvdsdk@physx@@QEAA?AW4Enum@PvdErrorType@12@PEBD0W43PropertyType@12@V?$DataRef@UNamedValue@pvdsdk@physx@@@12@@Z 000000018005a660 f i PvdMetaDataPvdBinding.obj
 0001:000596d0       ??$createProperty@VPxScene@physx@@UPvdSweep@Vd@2@@PvdMetaDataStream@pvdsdk@physx@@QEAA?AW4Enum@PvdErrorType@12@PEBD0W43PropertyType@12@V?$DataRef@UNamedValue@pvdsdk@physx@@@12@@Z 000000018005a6d0 f i PvdMetaDataPvdBinding.obj
 0001:00059740       ??$createProperty@VPxScene@physx@@UPxFilterData@2@@PvdMetaDataStream@pvdsdk@physx@@QEAA?AW4Enum@PvdErrorType@12@PEBD0W43PropertyType@12@V?$DataRef@UNamedValue@pvdsdk@physx@@@12@@Z 000000018005a740 f i PvdMetaDataPvdBinding.obj
 0001:000597b0       ??$createProperty@VPxScene@physx@@VPxTransform@2@@PvdMetaDataStream@pvdsdk@physx@@QEAA?AW4Enum@PvdErrorType@12@PEBD0W43PropertyType@12@V?$DataRef@UNamedValue@pvdsdk@physx@@@12@@Z 000000018005a7b0 f i PvdMetaDataPvdBinding.obj
 0001:00059820       ??$createProperty@VPxShape@physx@@UObjectRef@pvdsdk@2@@PvdMetaDataStream@pvdsdk@physx@@QEAA?AW4Enum@PvdErrorType@12@PEBD0W43PropertyType@12@V?$DataRef@UNamedValue@pvdsdk@physx@@@12@@Z 000000018005a820 f i PvdMetaDataPvdBinding.obj
 0001:00059890       ??$createProperty@VPxTriangleMesh@physx@@I@PvdMetaDataStream@pvdsdk@physx@@QEAA?AW4Enum@PvdErrorType@12@PEBD0W43PropertyType@12@V?$DataRef@UNamedValue@pvdsdk@physx@@@12@@Z 000000018005a890 f i PvdMetaDataPvdBinding.obj
 0001:0005a940       ??$visitAllProperties@VPxAggregate@physx@@U?$PvdPropertyFilter@UPvdClassInfoValueStructDefine@Vd@physx@@@Vd@2@@physx@@YAIU?$PvdPropertyFilter@UPvdClassInfoValueStructDefine@Vd@physx@@@Vd@0@@Z 000000018005b940 f i PvdMetaDataPvdBinding.obj
 0001:0005aaf0       ??$visitAllProperties@VPxArticulationLink@physx@@U?$PvdPropertyFilter@UPvdClassInfoValueStructDefine@Vd@physx@@@Vd@2@@physx@@YAIU?$PvdPropertyFilter@UPvdClassInfoValueStructDefine@Vd@physx@@@Vd@0@@Z 000000018005baf0 f i PvdMetaDataPvdBinding.obj
 0001:0005ad10       ??$visitAllProperties@VPxConvexMeshGeometry@physx@@U?$PvdPropertyFilter@UPvdClassInfoValueStructDefine@Vd@physx@@@Vd@2@@physx@@YAIU?$PvdPropertyFilter@UPvdClassInfoValueStructDefine@Vd@physx@@@Vd@0@@Z 000000018005bd10 f i PvdMetaDataPvdBinding.obj
 0001:0005aec0       ??$visitAllProperties@VPxTolerancesScale@physx@@U?$PvdPropertyFilter@UPvdClassInfoValueStructDefine@Vd@physx@@@Vd@2@@physx@@YAIU?$PvdPropertyFilter@UPvdClassInfoValueStructDefine@Vd@physx@@@Vd@0@@Z 000000018005bec0 f i PvdMetaDataPvdBinding.obj
 0001:0005b060       ??$visitAllProperties@VPxTriangleMeshGeometry@physx@@U?$PvdPropertyFilter@UPvdClassInfoValueStructDefine@Vd@physx@@@Vd@2@@physx@@YAIU?$PvdPropertyFilter@UPvdClassInfoValueStructDefine@Vd@physx@@@Vd@0@@Z 000000018005c060 f i PvdMetaDataPvdBinding.obj
 0001:0005b210       ??$visitInstanceProperties@U?$PvdPropertyFilter@UPvdClassInfoDefine@Vd@physx@@@Vd@physx@@@PxActorGeneratedInfo@physx@@QEBAIU?$PvdPropertyFilter@UPvdClassInfoDefine@Vd@physx@@@Vd@1@I@Z 000000018005c210 f i PvdMetaDataPvdBinding.obj
 0001:0005b410       ??$visitInstanceProperties@U?$PvdPropertyFilter@UPvdClassInfoDefine@Vd@physx@@@Vd@physx@@@PxArticulationBaseGeneratedInfo@physx@@QEBAIU?$PvdPropertyFilter@UPvdClassInfoDefine@Vd@physx@@@Vd@1@I@Z 000000018005c410 f i PvdMetaDataPvdBinding.obj
 0001:0005b710       ??$visitInstanceProperties@U?$PvdPropertyFilter@UPvdClassInfoDefine@Vd@physx@@@Vd@physx@@@PxConstraintGeneratedInfo@physx@@QEBAIU?$PvdPropertyFilter@UPvdClassInfoDefine@Vd@physx@@@Vd@1@I@Z 000000018005c710 f i PvdMetaDataPvdBinding.obj
 0001:0005bad0       ??$visitInstanceProperties@U?$PvdPropertyFilter@UPvdClassInfoDefine@Vd@physx@@@Vd@physx@@@PxConvexMeshGeometryGeneratedInfo@physx@@QEBAIU?$PvdPropertyFilter@UPvdClassInfoDefine@Vd@physx@@@Vd@1@I@Z 000000018005cad0 f i PvdMetaDataPvdBinding.obj
 0001:0005bcc0       ??$visitInstanceProperties@U?$PvdPropertyFilter@UPvdClassInfoDefine@Vd@physx@@@Vd@physx@@@PxHeightFieldDescGeneratedInfo@physx@@QEBAIU?$PvdPropertyFilter@UPvdClassInfoDefine@Vd@physx@@@Vd@1@I@Z 000000018005ccc0 f i PvdMetaDataPvdBinding.obj
 0001:0005bf90       ??$visitInstanceProperties@U?$PvdPropertyFilter@UPvdClassInfoDefine@Vd@physx@@@Vd@physx@@@PxHeightFieldGeometryGeneratedInfo@physx@@QEBAIU?$PvdPropertyFilter@UPvdClassInfoDefine@Vd@physx@@@Vd@1@I@Z 000000018005cf90 f i PvdMetaDataPvdBinding.obj
 0001:0005c1f0       ??$visitInstanceProperties@U?$PvdPropertyFilter@UPvdClassInfoDefine@Vd@physx@@@Vd@physx@@@PxMaterialGeneratedInfo@physx@@QEBAIU?$PvdPropertyFilter@UPvdClassInfoDefine@Vd@physx@@@Vd@1@I@Z 000000018005d1f0 f i PvdMetaDataPvdBinding.obj
 0001:0005c5c0       ??$visitInstanceProperties@U?$PvdPropertyFilter@UPvdClassInfoDefine@Vd@physx@@@Vd@physx@@@PxMeshScaleGeneratedInfo@physx@@QEBAIU?$PvdPropertyFilter@UPvdClassInfoDefine@Vd@physx@@@Vd@1@I@Z 000000018005d5c0 f i PvdMetaDataPvdBinding.obj
 0001:0005c6d0       ??$visitInstanceProperties@U?$PvdPropertyFilter@UPvdClassInfoDefine@Vd@physx@@@Vd@physx@@@PxRigidBodyGeneratedInfo@physx@@QEBAIU?$PvdPropertyFilter@UPvdClassInfoDefine@Vd@physx@@@Vd@1@I@Z 000000018005d6d0 f i PvdMetaDataPvdBinding.obj
 0001:0005ccc0       ??$visitInstanceProperties@U?$PvdPropertyFilter@UPvdClassInfoDefine@Vd@physx@@@Vd@physx@@@PxRigidDynamicGeneratedInfo@physx@@QEBAIU?$PvdPropertyFilter@UPvdClassInfoDefine@Vd@physx@@@Vd@1@I@Z 000000018005dcc0 f i PvdMetaDataPvdBinding.obj
 0001:0005d0c0       ??$visitInstanceProperties@U?$PvdPropertyFilter@UPvdClassInfoDefine@Vd@physx@@@Vd@physx@@@PxSceneDescGeneratedInfo@physx@@QEBAIU?$PvdPropertyFilter@UPvdClassInfoDefine@Vd@physx@@@Vd@1@I@Z 000000018005e0c0 f i PvdMetaDataPvdBinding.obj
 0001:0005deb0       ??$visitInstanceProperties@U?$PvdPropertyFilter@UPvdClassInfoDefine@Vd@physx@@@Vd@physx@@@PxSceneLimitsGeneratedInfo@physx@@QEBAIU?$PvdPropertyFilter@UPvdClassInfoDefine@Vd@physx@@@Vd@1@I@Z 000000018005eeb0 f i PvdMetaDataPvdBinding.obj
 0001:0005deb0       ??$visitInstanceProperties@U?$PvdPropertyFilter@UPvdClassInfoDefine@Vd@physx@@@Vd@physx@@@PxgDynamicsMemoryConfigGeneratedInfo@physx@@QEBAIU?$PvdPropertyFilter@UPvdClassInfoDefine@Vd@physx@@@Vd@1@I@Z 000000018005eeb0 f i PvdMetaDataPvdBinding.obj
 0001:0005e1d0       ??$visitInstanceProperties@U?$PvdPropertyFilter@UPvdClassInfoDefine@Vd@physx@@@Vd@physx@@@PxShapeGeneratedInfo@physx@@QEBAIU?$PvdPropertyFilter@UPvdClassInfoDefine@Vd@physx@@@Vd@1@I@Z 000000018005f1d0 f i PvdMetaDataPvdBinding.obj
 0001:0005e750       ??$visitInstanceProperties@U?$PvdPropertyFilter@UPvdClassInfoDefine@Vd@physx@@@Vd@physx@@@PxSimulationStatisticsGeneratedInfo@physx@@QEBAIU?$PvdPropertyFilter@UPvdClassInfoDefine@Vd@physx@@@Vd@1@I@Z 000000018005f750 f i PvdMetaDataPvdBinding.obj
 0001:0005f450       ??$visitInstanceProperties@U?$PvdPropertyFilter@UPvdClassInfoDefine@Vd@physx@@@Vd@physx@@@PxTriangleMeshGeometryGeneratedInfo@physx@@QEBAIU?$PvdPropertyFilter@UPvdClassInfoDefine@Vd@physx@@@Vd@1@I@Z 0000000180060450 f i PvdMetaDataPvdBinding.obj
 0001:0005f650       ??$visitInstanceProperties@U?$PvdPropertyFilter@UPvdClassInfoValueStructDefine@Vd@physx@@@Vd@physx@@@PxActorGeneratedInfo@physx@@QEBAIU?$PvdPropertyFilter@UPvdClassInfoValueStructDefine@Vd@physx@@@Vd@1@I@Z 0000000180060650 f i PvdMetaDataPvdBinding.obj
 0001:0005f800       ??$visitInstanceProperties@U?$PvdPropertyFilter@UPvdClassInfoValueStructDefine@Vd@physx@@@Vd@physx@@@PxArticulationBaseGeneratedInfo@physx@@QEBAIU?$PvdPropertyFilter@UPvdClassInfoValueStructDefine@Vd@physx@@@Vd@1@I@Z 0000000180060800 f i PvdMetaDataPvdBinding.obj
 0001:0005fb00       ??$visitInstanceProperties@U?$PvdPropertyFilter@UPvdClassInfoValueStructDefine@Vd@physx@@@Vd@physx@@@PxConstraintGeneratedInfo@physx@@QEBAIU?$PvdPropertyFilter@UPvdClassInfoValueStructDefine@Vd@physx@@@Vd@1@I@Z 0000000180060b00 f i PvdMetaDataPvdBinding.obj
 0001:0005fe70       ??$visitInstanceProperties@U?$PvdPropertyFilter@UPvdClassInfoValueStructDefine@Vd@physx@@@Vd@physx@@@PxHeightFieldDescGeneratedInfo@physx@@QEBAIU?$PvdPropertyFilter@UPvdClassInfoValueStructDefine@Vd@physx@@@Vd@1@I@Z 0000000180060e70 f i PvdMetaDataPvdBinding.obj
 0001:000600c0       ??$visitInstanceProperties@U?$PvdPropertyFilter@UPvdClassInfoValueStructDefine@Vd@physx@@@Vd@physx@@@PxHeightFieldGeometryGeneratedInfo@physx@@QEBAIU?$PvdPropertyFilter@UPvdClassInfoValueStructDefine@Vd@physx@@@Vd@1@I@Z 00000001800610c0 f i PvdMetaDataPvdBinding.obj
 0001:000602c0       ??$visitInstanceProperties@U?$PvdPropertyFilter@UPvdClassInfoValueStructDefine@Vd@physx@@@Vd@physx@@@PxMaterialGeneratedInfo@physx@@QEBAIU?$PvdPropertyFilter@UPvdClassInfoValueStructDefine@Vd@physx@@@Vd@1@I@Z 00000001800612c0 f i PvdMetaDataPvdBinding.obj
 0001:00060600       ??$visitInstanceProperties@U?$PvdPropertyFilter@UPvdClassInfoValueStructDefine@Vd@physx@@@Vd@physx@@@PxMeshScaleGeneratedInfo@physx@@QEBAIU?$PvdPropertyFilter@UPvdClassInfoValueStructDefine@Vd@physx@@@Vd@1@I@Z 0000000180061600 f i PvdMetaDataPvdBinding.obj
 0001:00060710       ??$visitInstanceProperties@U?$PvdPropertyFilter@UPvdClassInfoValueStructDefine@Vd@physx@@@Vd@physx@@@PxRigidActorGeneratedInfo@physx@@QEBAIU?$PvdPropertyFilter@UPvdClassInfoValueStructDefine@Vd@physx@@@Vd@1@I@Z 0000000180061710 f i PvdMetaDataPvdBinding.obj
 0001:000607a0       ??$visitInstanceProperties@U?$PvdPropertyFilter@UPvdClassInfoValueStructDefine@Vd@physx@@@Vd@physx@@@PxRigidBodyGeneratedInfo@physx@@QEBAIU?$PvdPropertyFilter@UPvdClassInfoValueStructDefine@Vd@physx@@@Vd@1@I@Z 00000001800617a0 f i PvdMetaDataPvdBinding.obj
 0001:00060d50       ??$visitInstanceProperties@U?$PvdPropertyFilter@UPvdClassInfoValueStructDefine@Vd@physx@@@Vd@physx@@@PxRigidDynamicGeneratedInfo@physx@@QEBAIU?$PvdPropertyFilter@UPvdClassInfoValueStructDefine@Vd@physx@@@Vd@1@I@Z 0000000180061d50 f i PvdMetaDataPvdBinding.obj
 0001:000610f0       ??$visitInstanceProperties@U?$PvdPropertyFilter@UPvdClassInfoValueStructDefine@Vd@physx@@@Vd@physx@@@PxSceneDescGeneratedInfo@physx@@QEBAIU?$PvdPropertyFilter@UPvdClassInfoValueStructDefine@Vd@physx@@@Vd@1@I@Z 00000001800620f0 f i PvdMetaDataPvdBinding.obj
 0001:00061c80       ??$visitInstanceProperties@U?$PvdPropertyFilter@UPvdClassInfoValueStructDefine@Vd@physx@@@Vd@physx@@@PxSceneLimitsGeneratedInfo@physx@@QEBAIU?$PvdPropertyFilter@UPvdClassInfoValueStructDefine@Vd@physx@@@Vd@1@I@Z 0000000180062c80 f i PvdMetaDataPvdBinding.obj
 0001:00061c80       ??$visitInstanceProperties@U?$PvdPropertyFilter@UPvdClassInfoValueStructDefine@Vd@physx@@@Vd@physx@@@PxgDynamicsMemoryConfigGeneratedInfo@physx@@QEBAIU?$PvdPropertyFilter@UPvdClassInfoValueStructDefine@Vd@physx@@@Vd@1@I@Z 0000000180062c80 f i PvdMetaDataPvdBinding.obj
 0001:00061fa0       ??$visitInstanceProperties@U?$PvdPropertyFilter@UPvdClassInfoValueStructDefine@Vd@physx@@@Vd@physx@@@PxShapeGeneratedInfo@physx@@QEBAIU?$PvdPropertyFilter@UPvdClassInfoValueStructDefine@Vd@physx@@@Vd@1@I@Z 0000000180062fa0 f i PvdMetaDataPvdBinding.obj
 0001:00062480       ??$visitInstanceProperties@U?$PvdPropertyFilter@UPvdClassInfoValueStructDefine@Vd@physx@@@Vd@physx@@@PxSimulationStatisticsGeneratedInfo@physx@@QEBAIU?$PvdPropertyFilter@UPvdClassInfoValueStructDefine@Vd@physx@@@Vd@1@I@Z 0000000180063480 f i PvdMetaDataPvdBinding.obj
 0001:000631b0       ??0?$ScopedPropertyValueSender@UPvdOverlap@Vd@physx@@$0CA@U123@U?$NullConverter@UPvdOverlap@Vd@physx@@@23@@Vd@physx@@QEAA@AEAVPvdDataStream@pvdsdk@2@PEBXPEBD@Z 00000001800641b0 f i PvdMetaDataPvdBinding.obj
 0001:000633d0       ??0?$ScopedPropertyValueSender@UPvdRaycast@Vd@physx@@$0CA@U123@U?$NullConverter@UPvdRaycast@Vd@physx@@@23@@Vd@physx@@QEAA@AEAVPvdDataStream@pvdsdk@2@PEBXPEBD@Z 00000001800643d0 f i PvdMetaDataPvdBinding.obj
 0001:000635f0       ??0?$ScopedPropertyValueSender@UPvdSqHit@Vd@physx@@$0CA@U123@U?$NullConverter@UPvdSqHit@Vd@physx@@@23@@Vd@physx@@QEAA@AEAVPvdDataStream@pvdsdk@2@PEBXPEBD@Z 00000001800645f0 f i PvdMetaDataPvdBinding.obj
 0001:00063820       ??0?$ScopedPropertyValueSender@UPxFilterData@physx@@$0CA@U12@U?$NullConverter@UPxFilterData@physx@@@Vd@2@@Vd@physx@@QEAA@AEAVPvdDataStream@pvdsdk@2@PEBXPEBD@Z 0000000180064820 f i PvdMetaDataPvdBinding.obj
 0001:00063a20       ??0PvdMetaDataBinding@Vd@physx@@QEAA@XZ 0000000180064a20 f   PvdMetaDataPvdBinding.obj
 0001:00063bf0       ??1PvdMetaDataBinding@Vd@physx@@QEAA@XZ 0000000180064bf0 f   PvdMetaDataPvdBinding.obj
 0001:00063de0       ??_EChangeOjectRefCmd@Vd@physx@@UEAAPEAXI@Z 0000000180064de0 f i PvdMetaDataPvdBinding.obj
 0001:00063de0       ??_GChangeOjectRefCmd@Vd@physx@@UEAAPEAXI@Z 0000000180064de0 f i PvdMetaDataPvdBinding.obj
 0001:00063e10       ??_EPvdCommand@PvdInstanceDataStream@pvdsdk@physx@@UEAAPEAXI@Z 0000000180064e10 f i PvdMetaDataPvdBinding.obj
 0001:00063e10       ??_GPvdCommand@PvdInstanceDataStream@pvdsdk@physx@@UEAAPEAXI@Z 0000000180064e10 f i PvdMetaDataPvdBinding.obj
 0001:00063e40       ?allocate@?$Array@PEAVPxShape@physx@@V?$InlineAllocator@$0CI@VNamedAllocator@shdfnd@physx@@@shdfnd@2@@shdfnd@physx@@IEAAPEAPEAVPxShape@3@I@Z 0000000180064e40 f i PvdMetaDataPvdBinding.obj
 0001:00063ec0       ?append@?$ScopedPropertyValueSender@UPvdSqHit@Vd@physx@@$0CA@U123@U?$NullConverter@UPvdSqHit@Vd@physx@@@23@@Vd@physx@@QEAAXAEBUPvdSqHit@23@@Z 0000000180064ec0 f i PvdMetaDataPvdBinding.obj
 0001:00063f80       ?attachAggregateActor@PvdMetaDataBinding@Vd@physx@@QEAAXAEAVPvdDataStream@pvdsdk@3@AEBVPxAggregate@3@AEBVPxActor@3@@Z 0000000180064f80 f   PvdMetaDataPvdBinding.obj
 0001:00063fa0       ?canRun@ChangeOjectRefCmd@Vd@physx@@UEAA_NAEAVPvdInstanceDataStream@pvdsdk@3@@Z 0000000180064fa0 f i PvdMetaDataPvdBinding.obj
 0001:000640c0       ?createInstance@PvdMetaDataBinding@Vd@physx@@QEAAXAEAVPvdDataStream@pvdsdk@3@AEBVPxAggregate@3@AEBVPxScene@3@@Z 00000001800650c0 f   PvdMetaDataPvdBinding.obj
 0001:000641d0       ?createInstance@PvdMetaDataBinding@Vd@physx@@QEAAXAEAVPvdDataStream@pvdsdk@3@AEBVPxArticulationBase@3@AEBVPxScene@3@AEBVPxPhysics@3@PEAVPsPvd@53@@Z 00000001800651d0 f   PvdMetaDataPvdBinding.obj
 0001:00064710       ?createInstance@PvdMetaDataBinding@Vd@physx@@QEAAXAEAVPvdDataStream@pvdsdk@3@AEBVPxConvexMesh@3@AEBVPxPhysics@3@@Z 0000000180065710 f   PvdMetaDataPvdBinding.obj
 0001:00064a00       ?createInstance@PvdMetaDataBinding@Vd@physx@@QEAAXAEAVPvdDataStream@pvdsdk@3@AEBVPxHeightField@3@AEBVPxPhysics@3@@Z 0000000180065a00 f   PvdMetaDataPvdBinding.obj
 0001:00064ad0       ?createInstance@PvdMetaDataBinding@Vd@physx@@QEAAXAEAVPvdDataStream@pvdsdk@3@AEBVPxMaterial@3@AEBVPxPhysics@3@@Z 0000000180065ad0 f   PvdMetaDataPvdBinding.obj
 0001:00064bf0       ?createInstance@PvdMetaDataBinding@Vd@physx@@QEAAXAEAVPvdDataStream@pvdsdk@3@AEBVPxRigidDynamic@3@AEBVPxScene@3@AEBVPxPhysics@3@PEAVPsPvd@53@@Z 0000000180065bf0 f   PvdMetaDataPvdBinding.obj
 0001:00064cf0       ?createInstance@PvdMetaDataBinding@Vd@physx@@QEAAXAEAVPvdDataStream@pvdsdk@3@AEBVPxRigidStatic@3@AEBVPxScene@3@AEBVPxPhysics@3@PEAVPsPvd@53@@Z 0000000180065cf0 f   PvdMetaDataPvdBinding.obj
 0001:00064df0       ?createInstance@PvdMetaDataBinding@Vd@physx@@QEAAXAEAVPvdDataStream@pvdsdk@3@AEBVPxShape@3@AEBVPxRigidActor@3@AEBVPxPhysics@3@PEAVPsPvd@53@@Z 0000000180065df0 f   PvdMetaDataPvdBinding.obj
 0001:00065230       ?createInstance@PvdMetaDataBinding@Vd@physx@@QEAAXAEAVPvdDataStream@pvdsdk@3@AEBVPxTriangleMesh@3@AEBVPxPhysics@3@@Z 0000000180066230 f   PvdMetaDataPvdBinding.obj
 0001:000654c0       ?defineNameValueDefs@PvdClassInfoDefine@Vd@physx@@QEAAXPEBUPxU32ToName@3@@Z 00000001800664c0 f i PvdMetaDataPvdBinding.obj
 0001:00065510       ?destroyInstance@PvdMetaDataBinding@Vd@physx@@QEAAXAEAVPvdDataStream@pvdsdk@3@AEBVPxAggregate@3@AEBVPxScene@3@@Z 0000000180066510 f   PvdMetaDataPvdBinding.obj
 0001:00065550       ?destroyInstance@PvdMetaDataBinding@Vd@physx@@QEAAXAEAVPvdDataStream@pvdsdk@3@AEBVPxArticulationBase@3@AEBVPxScene@3@@Z 0000000180066550 f   PvdMetaDataPvdBinding.obj
 0001:00065590       ?destroyInstance@PvdMetaDataBinding@Vd@physx@@QEAAXAEAVPvdDataStream@pvdsdk@3@AEBVPxArticulationLink@3@@Z 0000000180066590 f   PvdMetaDataPvdBinding.obj
 0001:000655f0       ?destroyInstance@PvdMetaDataBinding@Vd@physx@@QEAAXAEAVPvdDataStream@pvdsdk@3@AEBVPxConvexMesh@3@AEBVPxPhysics@3@@Z 00000001800665f0 f   PvdMetaDataPvdBinding.obj
 0001:00065630       ?destroyInstance@PvdMetaDataBinding@Vd@physx@@QEAAXAEAVPvdDataStream@pvdsdk@3@AEBVPxHeightField@3@AEBVPxPhysics@3@@Z 0000000180066630 f   PvdMetaDataPvdBinding.obj
 0001:00065670       ?destroyInstance@PvdMetaDataBinding@Vd@physx@@QEAAXAEAVPvdDataStream@pvdsdk@3@AEBVPxMaterial@3@AEBVPxPhysics@3@@Z 0000000180066670 f   PvdMetaDataPvdBinding.obj
 0001:000656b0       ?destroyInstance@PvdMetaDataBinding@Vd@physx@@QEAAXAEAVPvdDataStream@pvdsdk@3@AEBVPxRigidDynamic@3@AEBVPxScene@3@@Z 00000001800666b0 f   PvdMetaDataPvdBinding.obj
 0001:00065700       ?destroyInstance@PvdMetaDataBinding@Vd@physx@@QEAAXAEAVPvdDataStream@pvdsdk@3@AEBVPxRigidStatic@3@AEBVPxScene@3@@Z 0000000180066700 f   PvdMetaDataPvdBinding.obj
 0001:00065750       ?destroyInstance@PvdMetaDataBinding@Vd@physx@@QEAAXAEAVPvdDataStream@pvdsdk@3@AEBVPxShape@3@AEBVPxRigidActor@3@@Z 0000000180066750 f   PvdMetaDataPvdBinding.obj
 0001:00065ab0       ?destroyInstance@PvdMetaDataBinding@Vd@physx@@QEAAXAEAVPvdDataStream@pvdsdk@3@AEBVPxTriangleMesh@3@AEBVPxPhysics@3@@Z 0000000180066ab0 f   PvdMetaDataPvdBinding.obj
 0001:00065af0       ?detachAggregateActor@PvdMetaDataBinding@Vd@physx@@QEAAXAEAVPvdDataStream@pvdsdk@3@AEBVPxAggregate@3@AEBVPxActor@3@@Z 0000000180066af0 f   PvdMetaDataPvdBinding.obj
 0001:00065b10       ?erase@?$HashSetBase@PEAVPxActor@physx@@U?$Hash@PEAVPxActor@physx@@@shdfnd@2@VNonTrackingAllocator@42@$0A@@internal@shdfnd@physx@@QEAA_NAEBQEAVPxActor@4@@Z 0000000180066b10 f i PvdMetaDataPvdBinding.obj
 0001:00065be0       ?find@?$HashMapBase@PEBVPxShape@physx@@PEAV?$HashSet@PEBVPxRigidActor@physx@@U?$Hash@PEBVPxRigidActor@physx@@@shdfnd@2@VNonTrackingAllocator@42@@shdfnd@2@U?$Hash@PEBVPxShape@physx@@@42@VNonTrackingAllocator@42@@internal@shdfnd@physx@@QEBAPEBV?$Pair@QEBVPxShape@physx@@PEAV?$HashSet@PEBVPxRigidActor@physx@@U?$Hash@PEBVPxRigidActor@physx@@@shdfnd@2@VNonTrackingAllocator@42@@shdfnd@2@@34@AEBQEBVPxShape@4@@Z 0000000180066be0 f i PvdMetaDataPvdBinding.obj
 0001:00065c80       ?originShift@PvdMetaDataBinding@Vd@physx@@QEAAXAEAVPvdDataStream@pvdsdk@3@PEBVPxScene@3@VPxVec3@3@@Z 0000000180066c80 f   PvdMetaDataPvdBinding.obj
 0001:00065cd0       ?recreate@?$Array@PEAVPxShape@physx@@V?$InlineAllocator@$0CI@VNamedAllocator@shdfnd@physx@@@shdfnd@2@@shdfnd@physx@@IEAAXI@Z 0000000180066cd0 f i PvdMetaDataPvdBinding.obj
 0001:00065d50       ?registerSDKProperties@PvdMetaDataBinding@Vd@physx@@QEAAXAEAVPvdDataStream@pvdsdk@3@@Z 0000000180066d50 f   PvdMetaDataPvdBinding.obj
 0001:0006a460       ?releaseAndRecreateGeometry@PvdMetaDataBinding@Vd@physx@@QEAAXAEAVPvdDataStream@pvdsdk@3@AEBVPxShape@3@AEAVPxPhysics@3@PEAVPsPvd@53@@Z 000000018006b460 f   PvdMetaDataPvdBinding.obj
 0001:0006a6e0       ?resize@?$Array@DVNamedAllocator@shdfnd@physx@@@shdfnd@physx@@QEAAXIAEBD@Z 000000018006b6e0 f i LowLevelDynamics_static_64:DyArticulation.obj
 0001:0006a6e0       ?resize@?$Array@EVNamedAllocator@shdfnd@physx@@@shdfnd@physx@@QEAAXIAEBE@Z 000000018006b6e0 f i PvdMetaDataPvdBinding.obj
 0001:0006a7a0       ?resize@?$Array@PEAVPxShape@physx@@V?$InlineAllocator@$0CI@VNamedAllocator@shdfnd@physx@@@shdfnd@2@@shdfnd@physx@@QEAAXIAEBQEAVPxShape@3@@Z 000000018006b7a0 f i PvdMetaDataPvdBinding.obj
 0001:0006a860       ?run@ChangeOjectRefCmd@Vd@physx@@UEAAXAEAVPvdInstanceDataStream@pvdsdk@3@@Z 000000018006b860 f i PvdMetaDataPvdBinding.obj
 0001:0006a8e0       ?sendAllProperties@PvdMetaDataBinding@Vd@physx@@QEAAXAEAVPvdDataStream@pvdsdk@3@AEBVPxAggregate@3@@Z 000000018006b8e0 f   PvdMetaDataPvdBinding.obj
 0001:0006a950       ?sendAllProperties@PvdMetaDataBinding@Vd@physx@@QEAAXAEAVPvdDataStream@pvdsdk@3@AEBVPxArticulationBase@3@@Z 000000018006b950 f   PvdMetaDataPvdBinding.obj
 0001:0006a9d0       ?sendAllProperties@PvdMetaDataBinding@Vd@physx@@QEAAXAEAVPvdDataStream@pvdsdk@3@AEBVPxArticulationJointBase@3@@Z 000000018006b9d0 f   PvdMetaDataPvdBinding.obj
 0001:0006aa50       ?sendAllProperties@PvdMetaDataBinding@Vd@physx@@QEAAXAEAVPvdDataStream@pvdsdk@3@AEBVPxArticulationLink@3@@Z 000000018006ba50 f   PvdMetaDataPvdBinding.obj
 0001:0006aad0       ?sendAllProperties@PvdMetaDataBinding@Vd@physx@@QEAAXAEAVPvdDataStream@pvdsdk@3@AEBVPxHeightField@3@@Z 000000018006bad0 f   PvdMetaDataPvdBinding.obj
 0001:0006ac40       ?sendAllProperties@PvdMetaDataBinding@Vd@physx@@QEAAXAEAVPvdDataStream@pvdsdk@3@AEBVPxMaterial@3@@Z 000000018006bc40 f   PvdMetaDataPvdBinding.obj
 0001:0006acb0       ?sendAllProperties@PvdMetaDataBinding@Vd@physx@@QEAAXAEAVPvdDataStream@pvdsdk@3@AEBVPxPhysics@3@@Z 000000018006bcb0 f   PvdMetaDataPvdBinding.obj
 0001:0006ae40       ?sendAllProperties@PvdMetaDataBinding@Vd@physx@@QEAAXAEAVPvdDataStream@pvdsdk@3@AEBVPxRigidDynamic@3@@Z 000000018006be40 f   PvdMetaDataPvdBinding.obj
 0001:0006aec0       ?sendAllProperties@PvdMetaDataBinding@Vd@physx@@QEAAXAEAVPvdDataStream@pvdsdk@3@AEBVPxRigidStatic@3@@Z 000000018006bec0 f   PvdMetaDataPvdBinding.obj
 0001:0006af40       ?sendAllProperties@PvdMetaDataBinding@Vd@physx@@QEAAXAEAVPvdDataStream@pvdsdk@3@AEBVPxScene@3@@Z 000000018006bf40 f   PvdMetaDataPvdBinding.obj
 0001:0006b2e0       ?sendAllProperties@PvdMetaDataBinding@Vd@physx@@QEAAXAEAVPvdDataStream@pvdsdk@3@AEBVPxShape@3@@Z 000000018006c2e0 f   PvdMetaDataPvdBinding.obj
 0001:0006b360       ?sendBeginFrame@PvdMetaDataBinding@Vd@physx@@QEAAXAEAVPvdDataStream@pvdsdk@3@PEBVPxScene@3@M@Z 000000018006c360 f   PvdMetaDataPvdBinding.obj
 0001:0006b440       ?sendContacts@PvdMetaDataBinding@Vd@physx@@QEAAXAEAVPvdDataStream@pvdsdk@3@AEBVPxScene@3@@Z 000000018006c440 f   PvdMetaDataPvdBinding.obj
 0001:0006b4a0       ?sendContacts@PvdMetaDataBinding@Vd@physx@@QEAAXAEAVPvdDataStream@pvdsdk@3@AEBVPxScene@3@AEAV?$Array@UContact@Sc@physx@@VNamedAllocator@shdfnd@3@@shdfnd@3@@Z 000000018006c4a0 f   PvdMetaDataPvdBinding.obj
 0001:0006b650       ?sendEndFrame@PvdMetaDataBinding@Vd@physx@@QEAAXAEAVPvdDataStream@pvdsdk@3@PEBVPxScene@3@@Z 000000018006c650 f   PvdMetaDataPvdBinding.obj
 0001:0006b8b0       ?sendSceneQueries@PvdMetaDataBinding@Vd@physx@@QEAAXAEAVPvdDataStream@pvdsdk@3@AEBVPxScene@3@PEAVPsPvd@53@@Z 000000018006c8b0 f   PvdMetaDataPvdBinding.obj
 0001:0006c730       ?sendStats@PvdMetaDataBinding@Vd@physx@@QEAAXAEAVPvdDataStream@pvdsdk@3@PEBVPxScene@3@@Z 000000018006d730 f   PvdMetaDataPvdBinding.obj
 0001:0006d190       ?updateDynamicActorsAndArticulations@PvdMetaDataBinding@Vd@physx@@QEAAXAEAVPvdDataStream@pvdsdk@3@PEBVPxScene@3@PEAVPvdVisualizer@23@@Z 000000018006e190 f   PvdMetaDataPvdBinding.obj
 0001:0006d430       ?updateMaterials@PvdMetaDataBinding@Vd@physx@@QEAAXAEAVPvdDataStream@pvdsdk@3@AEBVPxShape@3@PEAVPsPvd@53@@Z 000000018006e430 f   PvdMetaDataPvdBinding.obj
 0001:0006d4c0       ??0PvdPhysicsClient@Vd@physx@@QEAA@PEAVPsPvd@pvdsdk@2@@Z 000000018006e4c0 f   PvdPhysicsClient.obj
 0001:0006d50c       ??_EPvdPhysicsClient@Vd@physx@@W7EAAPEAXI@Z 000000018006e50c f i PvdPhysicsClient.obj
 0001:0006d518       ??_EPvdPhysicsClient@Vd@physx@@WBA@EAAPEAXI@Z 000000018006e518 f i PvdPhysicsClient.obj
 0001:0006d530       ??_EPvdClient@pvdsdk@physx@@MEAAPEAXI@Z 000000018006e530 f i PvdPhysicsClient.obj
 0001:0006d530       ??_GPvdClient@pvdsdk@physx@@MEAAPEAXI@Z 000000018006e530 f i PvdPhysicsClient.obj
 0001:0006d560       ??_EPvdPhysicsClient@Vd@physx@@UEAAPEAXI@Z 000000018006e560 f i PvdPhysicsClient.obj
 0001:0006d560       ??_GPvdPhysicsClient@Vd@physx@@UEAAPEAXI@Z 000000018006e560 f i PvdPhysicsClient.obj
 0001:0006d610       ?destroyPvdInstance@PvdPhysicsClient@Vd@physx@@QEAAXPEBVPxPhysics@3@@Z 000000018006e610 f   PvdPhysicsClient.obj
 0001:0006d630       ?isConnected@PvdPhysicsClient@Vd@physx@@UEBA_NXZ 000000018006e630 f   PvdPhysicsClient.obj
 0001:0006d640       ?onGuMeshFactoryBufferRelease@PvdPhysicsClient@Vd@physx@@UEAAXPEBVPxBase@3@G@Z 000000018006e640 f   PvdPhysicsClient.obj
 0001:0006d710       ?onPvdConnected@PvdPhysicsClient@Vd@physx@@UEAAXXZ 000000018006e710 f   PvdPhysicsClient.obj
 0001:0006d750       ?onPvdDisconnected@PvdPhysicsClient@Vd@physx@@UEAAXXZ 000000018006e750 f   PvdPhysicsClient.obj
 0001:0006d780       ?reportError@PvdPhysicsClient@Vd@physx@@UEAAXW4Enum@PxErrorCode@3@PEBD1H@Z 000000018006e780 f   PvdPhysicsClient.obj
 0001:0006d7a0       ?sendEntireSDK@PvdPhysicsClient@Vd@physx@@QEAAXXZ 000000018006e7a0 f   PvdPhysicsClient.obj
 0001:0006db80       ?addActor@Aggregate@Scb@physx@@QEAAXAEAVActor@23@@Z 000000018006eb80 f   ScbAggregate.obj
 0001:0006dd40       ?removeActor@Aggregate@Scb@physx@@QEAAXAEAVActor@23@_N@Z 000000018006ed40 f   ScbAggregate.obj
 0001:0006df60       ?destroy@Base@Scb@physx@@QEAAXXZ 000000018006ef60 f   ScbBase.obj
 0001:0006df90       ?getBinaryMetaData@Actor@Scb@physx@@SAXAEAVPxOutputStream@3@@Z 000000018006ef90 f   ScbMetaData.obj
 0001:0006e030       ?getBinaryMetaData@Aggregate@Scb@physx@@SAXAEAVPxOutputStream@3@@Z 000000018006f030 f   ScbMetaData.obj
 0001:0006e1d0       ?getBinaryMetaData@Articulation@Scb@physx@@SAXAEAVPxOutputStream@3@@Z 000000018006f1d0 f   ScbMetaData.obj
 0001:0006e370       ?getBinaryMetaData@ArticulationJoint@Scb@physx@@SAXAEAVPxOutputStream@3@@Z 000000018006f370 f   ScbMetaData.obj
 0001:0006e450       ?getBinaryMetaData@Base@Scb@physx@@SAXAEAVPxOutputStream@3@@Z 000000018006f450 f   ScbMetaData.obj
 0001:0006e5b0       ?getBinaryMetaData@Body@Scb@physx@@SAXAEAVPxOutputStream@3@@Z 000000018006f5b0 f   ScbMetaData.obj
 0001:0006e800       ?getBinaryMetaData@Constraint@Scb@physx@@SAXAEAVPxOutputStream@3@@Z 000000018006f800 f   ScbMetaData.obj
 0001:0006e9a0       ?getBinaryMetaData@RigidObject@Scb@physx@@SAXAEAVPxOutputStream@3@@Z 000000018006f9a0 f   ScbMetaData.obj
 0001:0006ea40       ?getBinaryMetaData@RigidStatic@Scb@physx@@SAXAEAVPxOutputStream@3@@Z 000000018006fa40 f   ScbMetaData.obj
 0001:0006eb20       ?getBinaryMetaData@Shape@Scb@physx@@SAXAEAVPxOutputStream@3@@Z 000000018006fb20 f   ScbMetaData.obj
 0001:0006ec00       ??$add@VBody@Scb@physx@@@Scene@Scb@physx@@AEAAXAEAVBody@12@AEAVObjectTracker@12@PEAVPxBounds3@2@PEBVBVHStructure@Gu@2@@Z 000000018006fc00 f i ScbScene.obj
 0001:0006f090       ??$add@VRigidStatic@Scb@physx@@@Scene@Scb@physx@@AEAAXAEAVRigidStatic@12@AEAVObjectTracker@12@PEAVPxBounds3@2@PEBVBVHStructure@Gu@2@@Z 0000000180070090 f i ScbScene.obj
 0001:0006f510       ??$addRigidNoSim@$00VBody@Scb@physx@@@Scene@Scb@physx@@AEAAXAEAVBody@12@AEAVObjectTracker@12@PEBVBVHStructure@Gu@2@@Z 0000000180070510 f i ScbScene.obj
 0001:0006f980       ??$addRigidNoSim@$0A@VRigidStatic@Scb@physx@@@Scene@Scb@physx@@AEAAXAEAVRigidStatic@12@AEAVObjectTracker@12@PEBVBVHStructure@Gu@2@@Z 0000000180070980 f i ScbScene.obj
 0001:0006fde0       ??$processRemoves@VBody@Scb@physx@@$00$00@Scene@Scb@physx@@AEAAXAEAVObjectTracker@12@@Z 0000000180070de0 f i ScbScene.obj
 0001:000703b0       ??$processRemoves@VRigidStatic@Scb@physx@@$0A@$00@Scene@Scb@physx@@AEAAXAEAVObjectTracker@12@@Z 00000001800713b0 f i ScbScene.obj
 0001:00070950       ??$processShapeRemoves@VBody@Scb@physx@@@Scene@Scb@physx@@AEAAXAEAVObjectTracker@12@@Z 0000000180071950 f i ScbScene.obj
 0001:00070950       ??$processShapeRemoves@VRigidStatic@Scb@physx@@@Scene@Scb@physx@@AEAAXAEAVObjectTracker@12@@Z 0000000180071950 f i ScbScene.obj
 0001:00070b70       ??$processSimUpdates@VArticulation@Scb@physx@@VArticulationCore@Sc@3@@Scene@Scb@physx@@AEAAXPEBQEAVArticulationCore@Sc@2@I@Z 0000000180071b70 f i ScbScene.obj
 0001:00070e00       ??$processSimUpdates@VConstraint@Scb@physx@@VConstraintCore@Sc@3@@Scene@Scb@physx@@AEAAXPEBQEAVConstraintCore@Sc@2@I@Z 0000000180071e00 f i ScbScene.obj
 0001:00071050       ??$processUserUpdates@VArticulation@Scb@physx@@@Scene@Scb@physx@@AEAAXAEAVObjectTracker@12@@Z 0000000180072050 f i ScbScene.obj
 0001:00071330       ??$processUserUpdates@VArticulationJoint@Scb@physx@@@Scene@Scb@physx@@AEAAXAEAVObjectTracker@12@@Z 0000000180072330 f i ScbScene.obj
 0001:000715c0       ??$processUserUpdates@VBody@Scb@physx@@@Scene@Scb@physx@@AEAAXAEAVObjectTracker@12@@Z 00000001800725c0 f i ScbScene.obj
 0001:00071b70       ??$processUserUpdates@VConstraint@Scb@physx@@@Scene@Scb@physx@@AEAAXAEAVObjectTracker@12@@Z 0000000180072b70 f i ScbScene.obj
 0001:00071e50       ??$processUserUpdates@VRigidStatic@Scb@physx@@@Scene@Scb@physx@@AEAAXAEAVObjectTracker@12@@Z 0000000180072e50 f i ScbScene.obj
 0001:00072570       ??$remove@VBody@Scb@physx@@@Scene@Scb@physx@@AEAAXAEAVBody@12@AEAVObjectTracker@12@_N@Z 0000000180073570 f i ScbScene.obj
 0001:00072a20       ??$remove@VRigidStatic@Scb@physx@@@Scene@Scb@physx@@AEAAXAEAVRigidStatic@12@AEAVObjectTracker@12@_N@Z 0000000180073a20 f i ScbScene.obj
 0001:00072ec0       ??$removeRigidNoSim@$00VBody@Scb@physx@@@Scene@Scb@physx@@AEAAXAEAVBody@12@AEAVObjectTracker@12@@Z 0000000180073ec0 f i ScbScene.obj
 0001:00073320       ??$removeRigidNoSim@$0A@VRigidStatic@Scb@physx@@@Scene@Scb@physx@@AEAAXAEAVRigidStatic@12@AEAVObjectTracker@12@@Z 0000000180074320 f i ScbScene.obj
 0001:00073780       ??0BodyBuffer@Scb@physx@@QEAA@XZ 0000000180074780 f i ScbScene.obj
 0001:000737e0       ??0RigidObjectBuffer@Scb@physx@@QEAA@XZ 00000001800747e0 f i ScbScene.obj
 0001:00073a00       ??0Scene@Scb@physx@@QEAA@AEBVPxSceneDesc@2@_K@Z 0000000180074a00 f   ScbScene.obj
 0001:00073ec0       ?addActor@Scene@Scb@physx@@QEAAXAEAVBody@23@_NPEAVPxBounds3@3@PEBVBVHStructure@Gu@3@@Z 0000000180074ec0 f   ScbScene.obj
 0001:00074230       ?addActor@Scene@Scb@physx@@QEAAXAEAVRigidStatic@23@_NPEAVPxBounds3@3@PEBVBVHStructure@Gu@3@@Z 0000000180075230 f   ScbScene.obj
 0001:000744f0       ?addAggregate@Scene@Scb@physx@@QEAAXAEAVAggregate@23@@Z 00000001800754f0 f   ScbScene.obj
 0001:00074560       ?addArticulation@Scene@Scb@physx@@QEAAXAEAVArticulation@23@@Z 0000000180075560 f   ScbScene.obj
 0001:00074610       ?addArticulationJoint@Scene@Scb@physx@@QEAAXAEAVArticulationJoint@23@@Z 0000000180075610 f   ScbScene.obj
 0001:000746d0       ?addBroadPhaseRegion@Scene@Scb@physx@@QEAAIAEBUPxBroadPhaseRegion@3@_N@Z 00000001800756d0 f   ScbScene.obj
 0001:00074720       ?addConstraint@Scene@Scb@physx@@QEAAXAEAVConstraint@23@@Z 0000000180075720 f   ScbScene.obj
 0001:00074810       ?addMaterial@Scene@Scb@physx@@QEAAXAEBVMaterialCore@Sc@3@@Z 0000000180075810 f   ScbScene.obj
 0001:00074940       ?allocateNotThreadSafe@FlushPool@Cm@physx@@QEAAPEAXII@Z 0000000180075940 f i ScbScene.obj
 0001:00074a60       ?clear@ObjectTracker@Scb@physx@@QEAAXXZ 0000000180075a60 f   ScbScene.obj
 0001:00074b60       ?clearNotThreadSafe@FlushPool@Cm@physx@@QEAAXI@Z 0000000180075b60 f i ScbScene.obj
 0001:00074be0       ?createInstance@?$PvdFns@VArticulation@Scb@physx@@@@SAXAEAVScene@Scb@physx@@AEAVScbScenePvdClient@Vd@4@PEAVArticulation@34@@Z 0000000180075be0 f i ScbScene.obj
 0001:00074c80       ?createInstance@?$PvdFns@VArticulationJoint@Scb@physx@@@@SAXAEAVScene@Scb@physx@@AEAVScbScenePvdClient@Vd@4@PEAVArticulationJoint@34@@Z 0000000180075c80 f i ScbScene.obj
 0001:00074d20       ?createInstance@?$PvdFns@VBody@Scb@physx@@@@SAXAEAVScene@Scb@physx@@AEAVScbScenePvdClient@Vd@4@PEAVBody@34@@Z 0000000180075d20 f i ScbScene.obj
 0001:00074dc0       ?createInstance@?$PvdFns@VConstraint@Scb@physx@@@@SAXAEAVScene@Scb@physx@@AEAVScbScenePvdClient@Vd@4@PEAVConstraint@34@@Z 0000000180075dc0 f i ScbScene.obj
 0001:00074e60       ?createInstance@?$PvdFns@VRigidStatic@Scb@physx@@@@SAXAEAVScene@Scb@physx@@AEAVScbScenePvdClient@Vd@4@PEAVRigidStatic@34@@Z 0000000180075e60 f i ScbScene.obj
 0001:00074f00       ?getBroadPhaseCaps@Scene@Scb@physx@@QEBA_NAEAUPxBroadPhaseCaps@3@@Z 0000000180075f00 f   ScbScene.obj
 0001:00074f10       ?getBroadPhaseRegions@Scene@Scb@physx@@QEBAIPEAUPxBroadPhaseRegionInfo@3@II@Z 0000000180075f10 f   ScbScene.obj
 0001:00074f20       ?getBroadPhaseType@Scene@Scb@physx@@QEBA?AW4Enum@PxBroadPhaseType@3@XZ 0000000180075f20 f   ScbScene.obj
 0001:00074f30       ?getNbBroadPhaseRegions@Scene@Scb@physx@@QEBAIXZ 0000000180075f30 f   ScbScene.obj
 0001:00074f40       ?getPxScene@Scene@Scb@physx@@QEAAPEAVPxScene@3@XZ 0000000180075f40 f   ScbScene.obj
 0001:00074f50       ?getStream@Scene@Scb@physx@@QEAAPEAEW4Enum@ScbType@3@@Z 0000000180075f50 f   ScbScene.obj
 0001:000750f0       ?processPendingRemove@Scene@Scb@physx@@QEAAXXZ 00000001800760f0 f   ScbScene.obj
 0001:00075720       ?recreate@?$Array@PEAVShape@Scb@physx@@V?$InlineAllocator@$0CA@VNamedAllocator@shdfnd@physx@@@shdfnd@3@@shdfnd@physx@@IEAAXI@Z 0000000180076720 f i ScbScene.obj
 0001:000757a0       ?recreate@?$Array@URemovedShape@Scb@physx@@V?$InlineAllocator@$0EA@VNamedAllocator@shdfnd@physx@@@shdfnd@3@@shdfnd@physx@@IEAAXI@Z 00000001800767a0 f i ScbScene.obj
 0001:00075830       ?release@Scene@Scb@physx@@QEAAXXZ 0000000180076830 f   ScbScene.obj
 0001:00075890       ?releaseInstance@?$PvdFns@VArticulation@Scb@physx@@@@SAXAEAVScene@Scb@physx@@AEAVScbScenePvdClient@Vd@4@PEAVArticulation@34@@Z 0000000180076890 f i ScbScene.obj
 0001:00075930       ?releaseInstance@?$PvdFns@VArticulationJoint@Scb@physx@@@@SAXAEAVScene@Scb@physx@@AEAVScbScenePvdClient@Vd@4@PEAVArticulationJoint@34@@Z 0000000180076930 f i ScbScene.obj
 0001:000759d0       ?releaseInstance@?$PvdFns@VBody@Scb@physx@@@@SAXAEAVScene@Scb@physx@@AEAVScbScenePvdClient@Vd@4@PEAVBody@34@@Z 00000001800769d0 f i ScbScene.obj
 0001:000759d0       ?releaseInstance@?$PvdFns@VRigidStatic@Scb@physx@@@@SAXAEAVScene@Scb@physx@@AEAVScbScenePvdClient@Vd@4@PEAVRigidStatic@34@@Z 00000001800769d0 f i ScbScene.obj
 0001:00075a70       ?remove@ObjectTracker@Scb@physx@@QEAAXAEAVBase@23@@Z 0000000180076a70 f   ScbScene.obj
 0001:00075a90       ?removeActor@Scene@Scb@physx@@QEAAXAEAVBody@23@_N1@Z 0000000180076a90 f   ScbScene.obj
 0001:00075e50       ?removeActor@Scene@Scb@physx@@QEAAXAEAVRigidStatic@23@_N1@Z 0000000180076e50 f   ScbScene.obj
 0001:00076110       ?removeAggregate@Scene@Scb@physx@@QEAAXAEAVAggregate@23@@Z 0000000180077110 f   ScbScene.obj
 0001:00076170       ?removeArticulation@Scene@Scb@physx@@QEAAXAEAVArticulation@23@@Z 0000000180077170 f   ScbScene.obj
 0001:00076210       ?removeArticulationJoint@Scene@Scb@physx@@QEAAXAEAVArticulationJoint@23@@Z 0000000180077210 f   ScbScene.obj
 0001:000762a0       ?removeBroadPhaseRegion@Scene@Scb@physx@@QEAA_NI@Z 00000001800772a0 f   ScbScene.obj
 0001:000762f0       ?removeConstraint@Scene@Scb@physx@@QEAAXAEAVConstraint@23@@Z 00000001800772f0 f   ScbScene.obj
 0001:00076400       ?removeMaterial@Scene@Scb@physx@@QEAAXAEBVMaterialCore@Sc@3@@Z 0000000180077400 f   ScbScene.obj
 0001:00076540       ?resize@?$Array@PEAVShape@Scb@physx@@V?$InlineAllocator@$0CA@VNamedAllocator@shdfnd@physx@@@shdfnd@3@@shdfnd@physx@@QEAAXIAEBQEAVShape@Scb@3@@Z 0000000180077540 f i ScbScene.obj
 0001:00076600       ?resize@?$Array@URemovedShape@Scb@physx@@V?$InlineAllocator@$0EA@VNamedAllocator@shdfnd@physx@@@shdfnd@3@@shdfnd@physx@@QEAAXIAEBURemovedShape@Scb@3@@Z 0000000180077600 f i ScbScene.obj
 0001:00076680       ?resize@PxsMaterialManager@physx@@QEAAXI@Z 0000000180077680 f i ScbScene.obj
 0001:00076990       ?scheduleForInsert@ObjectTracker@Scb@physx@@QEAAXAEAVBase@23@@Z 0000000180077990 f   ScbScene.obj
 0001:00076a10       ?scheduleForRemove@ObjectTracker@Scb@physx@@QEAAXAEAVBase@23@@Z 0000000180077a10 f   ScbScene.obj
 0001:00076a80       ?scheduleForUpdate@ObjectTracker@Scb@physx@@QEAAXAEAVBase@23@@Z 0000000180077a80 f   ScbScene.obj
 0001:00076ad0       ?scheduleForUpdate@Scene@Scb@physx@@QEAAXAEAVBase@23@@Z 0000000180077ad0 f   ScbScene.obj
 0001:00076b70       ?shiftOrigin@Scene@Scb@physx@@QEAAXAEBVPxVec3@3@@Z 0000000180077b70 f   ScbScene.obj
 0001:00076c80       ?switchRigidFromNoSim@Scene@Scb@physx@@QEAAXAEAVRigidObject@23@_N@Z 0000000180077c80 f   ScbScene.obj
 0001:00076d80       ?switchRigidToNoSim@Scene@Scb@physx@@QEAAXAEAVRigidObject@23@_N@Z 0000000180077d80 f   ScbScene.obj
 0001:00076f70       ?syncCollisionWriteThroughState@Body@Scb@physx@@QEAAXXZ 0000000180077f70 f i ScbScene.obj
 0001:00077220       ?syncEntireScene@Scene@Scb@physx@@QEAAXXZ 0000000180078220 f   ScbScene.obj
 0001:000777e0       ?syncState@Aggregate@Scb@physx@@QEAAXAEAVScene@23@@Z 00000001800787e0 f i ScbScene.obj
 0001:000779e0       ?syncState@Articulation@Scb@physx@@QEAAXXZ 00000001800789e0 f i ScbScene.obj
 0001:00077b10       ?syncState@ArticulationJoint@Scb@physx@@QEAAXXZ 0000000180078b10 f i ScbScene.obj
 0001:00077e50       ?syncState@Body@Scb@physx@@QEAAXXZ 0000000180078e50 f i ScbScene.obj
 0001:000785a0       ?syncState@Constraint@Scb@physx@@QEAAXXZ 00000001800795a0 f i ScbScene.obj
 0001:000786c0       ?syncState@RigidObject@Scb@physx@@QEAAXXZ 00000001800796c0 f i ScbScene.obj
 0001:00078950       ?syncState@Scene@Scb@physx@@AEAAXXZ 0000000180079950 f   ScbScene.obj
 0001:00078bf0       ?syncWriteThroughProperties@Scene@Scb@physx@@QEAAXXZ 0000000180079bf0 f   ScbScene.obj
 0001:00078ee0       ?updateInstance@?$PvdFns@VArticulation@Scb@physx@@@@SAXAEAVScene@Scb@physx@@AEAVScbScenePvdClient@Vd@4@PEAVArticulation@34@@Z 0000000180079ee0 f i ScbScene.obj
 0001:00078fa0       ?updateInstance@?$PvdFns@VBody@Scb@physx@@@@SAXAEAVScene@Scb@physx@@AEAVScbScenePvdClient@Vd@4@PEAVBody@34@@Z 0000000180079fa0 f i ScbScene.obj
 0001:00079060       ?updateInstance@?$PvdFns@VConstraint@Scb@physx@@@@SAXAEAVScene@Scb@physx@@AEAVScbScenePvdClient@Vd@4@PEAVConstraint@34@@Z 000000018007a060 f i ScbScene.obj
 0001:00079120       ?updateLowLevelMaterial@Scene@Scb@physx@@QEAAXPEAPEAVNpMaterial@3@@Z 000000018007a120 f   ScbScene.obj
 0001:000792e0       ?updateMaterial@Scene@Scb@physx@@QEAAXAEBVMaterialCore@Sc@3@@Z 000000018007a2e0 f   ScbScene.obj
 0001:00079410       ??0ScbScenePvdClient@Vd@physx@@QEAA@AEAVScene@Scb@2@@Z 000000018007a410 f   ScbScenePvdClient.obj
 0001:00079480       ??1ScbScenePvdClient@Vd@physx@@UEAA@XZ 000000018007a480 f   ScbScenePvdClient.obj
 0001:000794f4       ??_EScbScenePvdClient@Vd@physx@@W7EAAPEAXI@Z 000000018007a4f4 f i ScbScenePvdClient.obj
 0001:00079500       ??_EScbScenePvdClient@Vd@physx@@WBA@EAAPEAXI@Z 000000018007a500 f i ScbScenePvdClient.obj
 0001:00079540       ??_EPxPvdSceneClient@physx@@MEAAPEAXI@Z 000000018007a540 f i ScbScenePvdClient.obj
 0001:00079540       ??_GPxPvdSceneClient@physx@@MEAAPEAXI@Z 000000018007a540 f i ScbScenePvdClient.obj
 0001:00079570       ??_EScbScenePvdClient@Vd@physx@@UEAAPEAXI@Z 000000018007a570 f i ScbScenePvdClient.obj
 0001:00079570       ??_GScbScenePvdClient@Vd@physx@@UEAAPEAXI@Z 000000018007a570 f i ScbScenePvdClient.obj
 0001:000796a0       ?addBodyAndShapesToPvd@ScbScenePvdClient@Vd@physx@@QEAAXAEAVBody@Scb@3@@Z 000000018007a6a0 f   ScbScenePvdClient.obj
 0001:00079940       ?addStaticAndShapesToPvd@ScbScenePvdClient@Vd@physx@@QEAAXAEAVRigidStatic@Scb@3@@Z 000000018007a940 f   ScbScenePvdClient.obj
 0001:00079b10       ?attachAggregateActor@ScbScenePvdClient@Vd@physx@@QEAAXPEBVAggregate@Scb@3@PEAVActor@53@@Z 000000018007ab10 f   ScbScenePvdClient.obj
 0001:00079ba0       ?createPvdInstance@ScbScenePvdClient@Vd@physx@@QEAAXPEBVAggregate@Scb@3@@Z 000000018007aba0 f   ScbScenePvdClient.obj
 0001:00079c90       ?createPvdInstance@ScbScenePvdClient@Vd@physx@@QEAAXPEBVArticulation@Scb@3@@Z 000000018007ac90 f   ScbScenePvdClient.obj
 0001:00079d10       ?createPvdInstance@ScbScenePvdClient@Vd@physx@@QEAAXPEBVBody@Scb@3@@Z 000000018007ad10 f   ScbScenePvdClient.obj
 0001:00079de0       ?createPvdInstance@ScbScenePvdClient@Vd@physx@@QEAAXPEBVConstraint@Scb@3@@Z 000000018007ade0 f   ScbScenePvdClient.obj
 0001:00079e30       ?createPvdInstance@ScbScenePvdClient@Vd@physx@@QEAAXPEBVMaterialCore@Sc@3@@Z 000000018007ae30 f   ScbScenePvdClient.obj
 0001:00079ea0       ?createPvdInstance@ScbScenePvdClient@Vd@physx@@QEAAXPEBVRigidStatic@Scb@3@@Z 000000018007aea0 f   ScbScenePvdClient.obj
 0001:00079f20       ?createPvdInstance@ScbScenePvdClient@Vd@physx@@QEAAXPEBVShape@Scb@3@AEAVPxActor@3@@Z 000000018007af20 f   ScbScenePvdClient.obj
 0001:0007a020       ?detachAggregateActor@ScbScenePvdClient@Vd@physx@@QEAAXPEBVAggregate@Scb@3@PEAVActor@53@@Z 000000018007b020 f   ScbScenePvdClient.obj
 0001:0007a0b0       ?drawLines@ScbScenePvdClient@Vd@physx@@UEAAXPEBUPvdDebugLine@pvdsdk@3@I@Z 000000018007b0b0 f   ScbScenePvdClient.obj
 0001:0007a0d0       ?drawPoints@ScbScenePvdClient@Vd@physx@@UEAAXPEBUPvdDebugPoint@pvdsdk@3@I@Z 000000018007b0d0 f   ScbScenePvdClient.obj
 0001:0007a0f0       ?drawText@ScbScenePvdClient@Vd@physx@@UEAAXAEBUPvdDebugText@pvdsdk@3@@Z 000000018007b0f0 f   ScbScenePvdClient.obj
 0001:0007a110       ?drawTriangles@ScbScenePvdClient@Vd@physx@@UEAAXPEBUPvdDebugTriangle@pvdsdk@3@I@Z 000000018007b110 f   ScbScenePvdClient.obj
 0001:0007a130       ?frameEnd@ScbScenePvdClient@Vd@physx@@QEAAXXZ 000000018007b130 f   ScbScenePvdClient.obj
 0001:0007a340       ?frameStart@ScbScenePvdClient@Vd@physx@@QEAAXM@Z 000000018007b340 f   ScbScenePvdClient.obj
 0001:0007a420       ?getClientInternal@ScbScenePvdClient@Vd@physx@@UEAAPEAVPvdClient@pvdsdk@3@XZ 000000018007b420 f i ScbScenePvdClient.obj
 0001:0007a430       ?getScenePvdFlags@ScbScenePvdClient@Vd@physx@@UEBA?AV?$PxFlags@W4Enum@PxPvdSceneFlag@physx@@E@3@XZ 000000018007b430 f i ScbScenePvdClient.obj
 0001:0007a440       ?growAndPushBack@?$Array@UContact@Sc@physx@@VNamedAllocator@shdfnd@3@@shdfnd@physx@@IEAAAEAUContact@Sc@3@AEBU453@@Z 000000018007b440 f i ScbScenePvdClient.obj
 0001:0007a800       ?isConnected@ScbScenePvdClient@Vd@physx@@UEBA_NXZ 000000018007b800 f i ScbScenePvdClient.obj
 0001:0007a810       ?onPvdConnected@ScbScenePvdClient@Vd@physx@@UEAAXXZ 000000018007b810 f   ScbScenePvdClient.obj
 0001:0007a930       ?onPvdDisconnected@ScbScenePvdClient@Vd@physx@@UEAAXXZ 000000018007b930 f   ScbScenePvdClient.obj
 0001:0007a990       ?originShift@ScbScenePvdClient@Vd@physx@@QEAAXVPxVec3@3@@Z 000000018007b990 f   ScbScenePvdClient.obj
 0001:0007a9e0       ?releaseAndRecreateGeometry@ScbScenePvdClient@Vd@physx@@QEAAXPEBVShape@Scb@3@@Z 000000018007b9e0 f   ScbScenePvdClient.obj
 0001:0007aa40       ?releasePvdInstance@ScbScenePvdClient@Vd@physx@@QEAAXPEBVAggregate@Scb@3@@Z 000000018007ba40 f   ScbScenePvdClient.obj
 0001:0007ab30       ?releasePvdInstance@ScbScenePvdClient@Vd@physx@@QEAAXPEBVArticulation@Scb@3@@Z 000000018007bb30 f   ScbScenePvdClient.obj
 0001:0007ab90       ?releasePvdInstance@ScbScenePvdClient@Vd@physx@@QEAAXPEBVConstraint@Scb@3@@Z 000000018007bb90 f   ScbScenePvdClient.obj
 0001:0007ac10       ?releasePvdInstance@ScbScenePvdClient@Vd@physx@@QEAAXPEBVMaterialCore@Sc@3@@Z 000000018007bc10 f   ScbScenePvdClient.obj
 0001:0007ac80       ?releasePvdInstance@ScbScenePvdClient@Vd@physx@@QEAAXPEBVPxActor@3@@Z 000000018007bc80 f   ScbScenePvdClient.obj
 0001:0007ad30       ?releasePvdInstance@ScbScenePvdClient@Vd@physx@@QEAAXPEBVRigidObject@Scb@3@@Z 000000018007bd30 f   ScbScenePvdClient.obj
 0001:0007ad70       ?releasePvdInstance@ScbScenePvdClient@Vd@physx@@QEAAXPEBVShape@Scb@3@AEAVPxActor@3@@Z 000000018007bd70 f   ScbScenePvdClient.obj
 0001:0007af50       ?releasePvdInstance@ScbScenePvdClient@Vd@physx@@QEAAXXZ 000000018007bf50 f   ScbScenePvdClient.obj
 0001:0007afc0       ?sendEntireScene@ScbScenePvdClient@Vd@physx@@AEAAXXZ 000000018007bfc0 f   ScbScenePvdClient.obj
 0001:0007b440       ?setScenePvdFlag@ScbScenePvdClient@Vd@physx@@UEAAXW4Enum@PxPvdSceneFlag@3@_N@Z 000000018007c440 f   ScbScenePvdClient.obj
 0001:0007b450       ?setScenePvdFlags@ScbScenePvdClient@Vd@physx@@UEAAXV?$PxFlags@W4Enum@PxPvdSceneFlag@physx@@E@3@@Z 000000018007c450 f i ScbScenePvdClient.obj
 0001:0007b460       ?updateCamera@ScbScenePvdClient@Vd@physx@@UEAAXPEBDAEBVPxVec3@3@11@Z 000000018007c460 f   ScbScenePvdClient.obj
 0001:0007b480       ?updateConstraint@ScbScenePvdClient@Vd@physx@@AEAAXAEBVConstraintCore@Sc@3@I@Z 000000018007c480 f   ScbScenePvdClient.obj
 0001:0007b4f0       ?updateContacts@ScbScenePvdClient@Vd@physx@@QEAAXXZ 000000018007c4f0 f   ScbScenePvdClient.obj
 0001:0007b7b0       ?updateJoints@ScbScenePvdClient@Vd@physx@@QEAAXXZ 000000018007c7b0 f   ScbScenePvdClient.obj
 0001:0007bbc0       ?updateKinematicTarget@ScbScenePvdClient@Vd@physx@@QEAAXPEBVBody@Scb@3@AEBVPxTransform@3@@Z 000000018007cbc0 f   ScbScenePvdClient.obj
 0001:0007bc50       ?updateMaterials@ScbScenePvdClient@Vd@physx@@QEAAXPEBVShape@Scb@3@@Z 000000018007cc50 f   ScbScenePvdClient.obj
 0001:0007bca0       ?updatePvdProperties@ScbScenePvdClient@Vd@physx@@QEAAXPEBVActor@Scb@3@@Z 000000018007cca0 f   ScbScenePvdClient.obj
 0001:0007bd90       ?updatePvdProperties@ScbScenePvdClient@Vd@physx@@QEAAXPEBVAggregate@Scb@3@@Z 000000018007cd90 f   ScbScenePvdClient.obj
 0001:0007bde0       ?updatePvdProperties@ScbScenePvdClient@Vd@physx@@QEAAXPEBVArticulation@Scb@3@@Z 000000018007cde0 f   ScbScenePvdClient.obj
 0001:0007be30       ?updatePvdProperties@ScbScenePvdClient@Vd@physx@@QEAAXPEBVArticulationJoint@Scb@3@@Z 000000018007ce30 f   ScbScenePvdClient.obj
 0001:0007be80       ?updatePvdProperties@ScbScenePvdClient@Vd@physx@@QEAAXPEBVBody@Scb@3@@Z 000000018007ce80 f   ScbScenePvdClient.obj
 0001:0007bef0       ?updatePvdProperties@ScbScenePvdClient@Vd@physx@@QEAAXPEBVConstraint@Scb@3@@Z 000000018007cef0 f   ScbScenePvdClient.obj
 0001:0007bf40       ?updatePvdProperties@ScbScenePvdClient@Vd@physx@@QEAAXPEBVMaterialCore@Sc@3@@Z 000000018007cf40 f   ScbScenePvdClient.obj
 0001:0007bf90       ?updatePvdProperties@ScbScenePvdClient@Vd@physx@@QEAAXPEBVRigidStatic@Scb@3@@Z 000000018007cf90 f   ScbScenePvdClient.obj
 0001:0007bfe0       ?updatePvdProperties@ScbScenePvdClient@Vd@physx@@QEAAXPEBVShape@Scb@3@@Z 000000018007cfe0 f   ScbScenePvdClient.obj
 0001:0007c030       ?updatePvdProperties@ScbScenePvdClient@Vd@physx@@QEAAXXZ 000000018007d030 f   ScbScenePvdClient.obj
 0001:0007c060       ?updateSceneQueries@ScbScenePvdClient@Vd@physx@@QEAAXXZ 000000018007d060 f   ScbScenePvdClient.obj
 0001:0007c0c0       ?visualize@ScbScenePvdClient@Vd@physx@@QEAAXAEBVPxRenderBuffer@3@@Z 000000018007d0c0 f   ScbScenePvdClient.obj
 0001:0007c1d0       ?visualize@ScbScenePvdClient@Vd@physx@@UEAAXAEAVPxArticulationLink@3@@Z 000000018007d1d0 f   ScbScenePvdClient.obj
 0001:0007c320       ?setMaterialsHelper@Shape@Scb@physx@@AEAA_NPEBQEAVPxMaterial@3@G@Z 000000018007d320 f   ScbShape.obj
 0001:0007c490       ?syncState@Shape@Scb@physx@@QEAAXXZ 000000018007d490 f   ScbShape.obj
 0001:0007e7d0       ?addBody@ArticulationV@Dy@physx@@UEAAXXZ 000000018007f7d0 f i NpImmediateMode.obj
 0001:0007eac0       ?growAndPushBack@?$Array@VSpatialVector@Cm@physx@@VNamedAllocator@shdfnd@3@@shdfnd@physx@@IEAAAEAVSpatialVector@Cm@3@AEBV453@@Z 000000018007fac0 f i NpImmediateMode.obj
 0001:0007f200       ?recreate@?$Array@UArticulationLink@Dy@physx@@VNamedAllocator@shdfnd@3@@shdfnd@physx@@IEAAXI@Z 0000000180080200 f i NpImmediateMode.obj
 0001:0007f2d0       ?removeBody@ArticulationV@Dy@physx@@UEAAXXZ 00000001800802d0 f i NpImmediateMode.obj
 0001:0007f2e0       PxAddArticulationLink      00000001800802e0 f   NpImmediateMode.obj
 0001:0007f340       PxApplyArticulationCache   0000000180080340 f   NpImmediateMode.obj
 0001:0007f360       PxBatchConstraints         0000000180080360 f   NpImmediateMode.obj
 0001:0007f3f0       PxBatchConstraintsTGS      00000001800803f0 f   NpImmediateMode.obj
 0001:0007f480       PxComputeUnconstrainedVelocities 0000000180080480 f   NpImmediateMode.obj
 0001:0007f560       PxComputeUnconstrainedVelocitiesTGS 0000000180080560 f   NpImmediateMode.obj
 0001:0007f650       PxConstructSolverBodies    0000000180080650 f   NpImmediateMode.obj
 0001:0007f910       PxConstructSolverBodiesTGS 0000000180080910 f   NpImmediateMode.obj
 0001:0007fc20       PxConstructStaticSolverBody 0000000180080c20 f   NpImmediateMode.obj
 0001:0007fc90       PxConstructStaticSolverBodyTGS 0000000180080c90 f   NpImmediateMode.obj
 0001:0007fd10       PxCopyInternalStateToArticulationCache 0000000180080d10 f   NpImmediateMode.obj
 0001:0007fd30       PxCreateArticulationCache  0000000180080d30 f   NpImmediateMode.obj
 0001:00080060       PxCreateContactConstraints 0000000180081060 f   NpImmediateMode.obj
 0001:000802e0       PxCreateContactConstraintsTGS 00000001800812e0 f   NpImmediateMode.obj
 0001:00080560       PxCreateFeatherstoneArticulation 0000000180081560 f   NpImmediateMode.obj
 0001:000805d0       PxCreateJointConstraints   00000001800815d0 f   NpImmediateMode.obj
 0001:00080770       PxCreateJointConstraintsTGS 0000000180081770 f   NpImmediateMode.obj
 0001:00080990       PxCreateJointConstraintsWithImmediateShaders 0000000180081990 f   NpImmediateMode.obj
 0001:000809a0       PxCreateJointConstraintsWithImmediateShadersTGS 00000001800819a0 f   NpImmediateMode.obj
 0001:000809b0       PxCreateJointConstraintsWithShaders 00000001800819b0 f   NpImmediateMode.obj
 0001:000809c0       PxCreateJointConstraintsWithShadersTGS 00000001800819c0 f   NpImmediateMode.obj
 0001:000809d0       PxGenerateContacts         00000001800819d0 f   NpImmediateMode.obj
 0001:00081050       PxGetAllLinkData           0000000180082050 f   NpImmediateMode.obj
 0001:000813a0       PxGetJointData             00000001800823a0 f   NpImmediateMode.obj
 0001:00081760       PxGetLinkArticulation      0000000180082760 f   NpImmediateMode.obj
 0001:00081770       PxGetLinkData              0000000180082770 f   NpImmediateMode.obj
 0001:00081820       PxGetLinkIndex             0000000180082820 f   NpImmediateMode.obj
 0001:00081830       PxGetMutableLinkData       0000000180082830 f   NpImmediateMode.obj
 0001:000818c0       PxIntegrateSolverBodies    00000001800828c0 f   NpImmediateMode.obj
 0001:00081e90       PxIntegrateSolverBodiesTGS 0000000180082e90 f   NpImmediateMode.obj
 0001:00082110       PxRegisterImmediateArticulations 0000000180083110 f   NpImmediateMode.obj
 0001:00082130       PxReleaseArticulation      0000000180083130 f   NpImmediateMode.obj
 0001:00082170       PxReleaseArticulationCache 0000000180083170 f   NpImmediateMode.obj
 0001:00082240       PxSetJointData             0000000180083240 f   NpImmediateMode.obj
 0001:000825d0       PxSetMutableLinkData       00000001800835d0 f   NpImmediateMode.obj
 0001:00082660       PxSolveConstraints         0000000180083660 f   NpImmediateMode.obj
 0001:00082c00       PxSolveConstraintsTGS      0000000180083c00 f   NpImmediateMode.obj
 0001:00083120       PxUpdateArticulationBodies 0000000180084120 f   NpImmediateMode.obj
 0001:00083130       PxUpdateArticulationBodiesTGS 0000000180084130 f   NpImmediateMode.obj
 0001:00083140       ??0PhysXIndicator@physx@@QEAA@_N@Z 0000000180084140 f   PhysXIndicatorWindows.obj
 0001:000832e0       ??1PhysXIndicator@physx@@QEAA@XZ 00000001800842e0 f   PhysXIndicatorWindows.obj
 0001:00083330       ?setIsGpu@PhysXIndicator@physx@@QEAAX_N@Z 0000000180084330 f   PhysXIndicatorWindows.obj
 0001:00083370       __local_stdio_printf_options 0000000180084370 f i PhysXIndicatorWindows.obj
 0001:00083380       sprintf                    0000000180084380 f i PhysXIndicatorWindows.obj
 0001:000833e0       PxCreateCudaClientContextManager 00000001800843e0 f   PxGpu.obj
 0001:00083430       PxCreateCudaContextManager 0000000180084430 f   PxGpu.obj
 0001:000834a0       PxGetSuggestedCudaDeviceOrdinal 00000001800844a0 f   PxGpu.obj
 0001:000834e0       ?PxLoadPhysxGPUModule@physx@@YAXPEBD@Z 00000001800844e0 f   PxPhysXGpuModuleLoader.obj
 0001:00083640       PxSetPhysXGpuLoadHook      0000000180084640 f   PxPhysXGpuModuleLoader.obj
 0001:00083660       ?physxDelayHook@@YAP6A_JXZIPEAUDelayLoadInfo@@@Z 0000000180084660 f   NpWindowsDelayLoadHook.obj
 0001:00083740       PxSetPhysXDelayLoadHook    0000000180084740 f   NpWindowsDelayLoadHook.obj
 0001:00083a00       ?PxvRegisterHeightFields@physx@@YAXXZ 0000000180084a00 f   LowLevel_static_64:PxcContactMethodImpl.obj
 0001:00083a80       ??0PxcNpContext@physx@@QEAA@XZ 0000000180084a80 f i LowLevel_static_64:PxsContext.obj
 0001:00083d20       ??0PxsContext@physx@@QEAA@AEBVPxSceneDesc@1@PEAVPxTaskManager@1@AEAVFlushPool@Cm@1@PEAVPxCudaContextManager@1@_K@Z 0000000180084d20 f   LowLevel_static_64:PxsContext.obj
 0001:00084130       ??1?$PoolBase@UAABBTreeIndices@Sq@physx@@VNamedAllocator@shdfnd@3@@shdfnd@physx@@QEAA@XZ 0000000180085130 f i SceneQuery_static_64:SqIncrementalAABBTree.obj
 0001:00084130       ??1?$PoolBase@UConstraintGroupNode@Sc@physx@@VNamedAllocator@shdfnd@3@@shdfnd@physx@@QEAA@XZ 0000000180085130 f i SimulationController_static_64:ScScene.obj
 0001:00084130       ??1?$PoolBase@UIncrementalAABBTreeNodePair@Sq@physx@@VNamedAllocator@shdfnd@3@@shdfnd@physx@@QEAA@XZ 0000000180085130 f i SceneQuery_static_64:SqIncrementalAABBTree.obj
 0001:00084130       ??1?$PoolBase@USimStateData@Sc@physx@@VNamedAllocator@shdfnd@3@@shdfnd@physx@@QEAA@XZ 0000000180085130 f i SimulationController_static_64:ScScene.obj
 0001:00084130       ??1?$PoolBase@VActorPair@Sc@physx@@VNamedAllocator@shdfnd@3@@shdfnd@physx@@QEAA@XZ 0000000180085130 f i SimulationController_static_64:ScNPhaseCore.obj
 0001:00084130       ??1?$PoolBase@VActorPairContactReportData@Sc@physx@@VNamedAllocator@shdfnd@3@@shdfnd@physx@@QEAA@XZ 0000000180085130 f i SimulationController_static_64:ScNPhaseCore.obj
 0001:00084130       ??1?$PoolBase@VActorPairReport@Sc@physx@@VNamedAllocator@shdfnd@3@@shdfnd@physx@@QEAA@XZ 0000000180085130 f i SimulationController_static_64:ScNPhaseCore.obj
 0001:00084130       ??1?$PoolBase@VLargePersistentContactManifold@Gu@physx@@VNamedAllocator@shdfnd@3@@shdfnd@physx@@QEAA@XZ 0000000180085130 f i LowLevel_static_64:PxsContext.obj
 0001:00084130       ??1?$PoolBase@VSpherePersistentContactManifold@Gu@physx@@VNamedAllocator@shdfnd@3@@shdfnd@physx@@QEAA@XZ 0000000180085130 f i LowLevel_static_64:PxsContext.obj
 0001:000842d0       ??1?$PxcThreadCoherentCache@VPxcNpThreadContext@physx@@UPxcNpContext@2@@physx@@QEAA@XZ 00000001800852d0 f i LowLevel_static_64:PxsContext.obj
 0001:00084360       ??1PxcScratchAllocator@physx@@QEAA@XZ 0000000180085360 f i LowLevel_static_64:PxsContext.obj
 0001:000843d0       ??1PxsContext@physx@@QEAA@XZ 00000001800853d0 f   LowLevel_static_64:PxsContext.obj
 0001:000845f0       ?beginUpdate@PxsContext@physx@@QEAAXXZ 00000001800855f0 f   LowLevel_static_64:PxsContext.obj
 0001:00084610       ?createCache@PxsContext@physx@@QEAAXAEAUCache@Gu@2@PEAVPxsContactManager@2@EE@Z 0000000180085610 f   LowLevel_static_64:PxsContext.obj
 0001:00084910       ?createContactManager@PxsContext@physx@@QEAAPEAVPxsContactManager@2@PEAV32@_N@Z 0000000180085910 f   LowLevel_static_64:PxsContext.obj
 0001:00084ac0       ?createTransformCache@PxsContext@physx@@QEAAXAEAVVirtualAllocatorCallback@shdfnd@2@@Z 0000000180085ac0 f   LowLevel_static_64:PxsContext.obj
 0001:00084b40       ?destroy@?$PoolList@VPxsContactManager@physx@@VPxsContext@2@@Cm@physx@@QEAAXXZ 0000000180085b40 f i LowLevel_static_64:PxsContext.obj
 0001:00084c20       ?destroyCache@PxsContext@physx@@QEAAXAEAUCache@Gu@2@@Z 0000000180085c20 f   LowLevel_static_64:PxsContext.obj
 0001:00084c80       ?destroyContactManager@PxsContext@physx@@QEAAXPEAVPxsContactManager@2@@Z 0000000180085c80 f   LowLevel_static_64:PxsContext.obj
 0001:00084db0       ?extend@?$BitMapBase@VNonTrackingAllocator@shdfnd@physx@@@Cm@physx@@IEAAXI@Z 0000000180085db0 f i LowLevel_static_64:PxsContext.obj
 0001:00084db0       ?resize@?$BitMapBase@VNonTrackingAllocator@shdfnd@physx@@@Cm@physx@@QEAAXI_N@Z 0000000180085db0 f i LowLevel_static_64:PxcNpThreadContext.obj
 0001:00084e90       ?extend@?$PoolList@VPxsContactManager@physx@@VPxsContext@2@@Cm@physx@@QEAA_NXZ 0000000180085e90 f i LowLevel_static_64:PxsContext.obj
 0001:00084ff0       ?fetchUpdateContactManager@PxsContext@physx@@QEAAXXZ 0000000180085ff0 f   LowLevel_static_64:PxsContext.obj
 0001:00085020       ?fillManagerPatchChangedEvents@PxsContext@physx@@QEAA_NPEAPEAVPxsContactManager@2@AEAI01@Z 0000000180086020 f   LowLevel_static_64:PxsContext.obj
 0001:00085180       ?fillManagerTouchEvents@PxsContext@physx@@QEAA_NPEAUPxvContactManagerTouchEvent@2@AEAH0101@Z 0000000180086180 f   LowLevel_static_64:PxsContext.obj
 0001:000852f0       ?getManagerTouchEventCount@PxsContext@physx@@QEBA_NPEAH00@Z 00000001800862f0 f   LowLevel_static_64:PxsContext.obj
 0001:00085320       ?getVisualizationParameter@PxsContext@physx@@QEBAMW4Enum@PxVisualizationParameter@2@@Z 0000000180086320 f   LowLevel_static_64:PxsContext.obj
 0001:00085330       ?mergeCMDiscreteUpdateResults@PxsContext@physx@@AEAAXPEAVPxBaseTask@2@@Z 0000000180086330 f   LowLevel_static_64:PxsContext.obj
 0001:00085800       ?resetThreadContexts@PxsContext@physx@@QEAAXXZ 0000000180086800 f   LowLevel_static_64:PxsContext.obj
 0001:00085880       ?secondPassUpdateContactManager@PxsContext@physx@@QEAAXMPEAVPxBaseTask@2@@Z 0000000180086880 f   LowLevel_static_64:PxsContext.obj
 0001:00085890       ?setContactDistance@PxsContext@physx@@QEAAXPEAV?$Array@MVVirtualAllocator@shdfnd@physx@@@shdfnd@2@@Z 0000000180086890 f   LowLevel_static_64:PxsContext.obj
 0001:000858a0       ?setScratchBlock@PxsContext@physx@@QEAAXPEAXI@Z 00000001800868a0 f   LowLevel_static_64:PxsContext.obj
 0001:00085900       ?setVisualizationParameter@PxsContext@physx@@QEAAXW4Enum@PxVisualizationParameter@2@M@Z 0000000180086900 f   LowLevel_static_64:PxsContext.obj
 0001:00085910       ?shiftOrigin@PxsContext@physx@@QEAAXAEBVPxVec3@2@@Z 0000000180086910 f   LowLevel_static_64:PxsContext.obj
 0001:00085a60       ?swapStreams@PxsContext@physx@@QEAAXXZ 0000000180086a60 f   LowLevel_static_64:PxsContext.obj
 0001:00085a70       ?updateContactManager@PxsContext@physx@@QEAAXM_N0PEAVPxBaseTask@2@1@Z 0000000180086a70 f   LowLevel_static_64:PxsContext.obj
 0001:00085a80       ??0PxcNpMemBlockPool@physx@@QEAA@AEAVPxcScratchAllocator@1@@Z 0000000180086a80 f   LowLevel_static_64:PxcNpMemBlockPool.obj
 0001:00085d10       ??1PxcNpMemBlockPool@physx@@QEAA@XZ 0000000180086d10 f   LowLevel_static_64:PxcNpMemBlockPool.obj
 0001:00086010       ?acquire@PxcNpMemBlockPool@physx@@AEAAPEAUPxcNpMemBlock@2@AEAV?$Array@PEAUPxcNpMemBlock@physx@@VNamedAllocator@shdfnd@2@@shdfnd@2@PEAI1_N@Z 0000000180087010 f   LowLevel_static_64:PxcNpMemBlockPool.obj
 0001:00086230       ?acquireConstraintBlock@PxcNpMemBlockPool@physx@@QEAAPEAUPxcNpMemBlock@2@AEAV?$Array@PEAUPxcNpMemBlock@physx@@VNamedAllocator@shdfnd@2@@shdfnd@2@@Z 0000000180087230 f   LowLevel_static_64:PxcNpMemBlockPool.obj
 0001:00086260       ?acquireConstraintMemory@PxcNpMemBlockPool@physx@@QEAAXXZ 0000000180087260 f   LowLevel_static_64:PxcNpMemBlockPool.obj
 0001:00086350       ?acquireContactBlock@PxcNpMemBlockPool@physx@@QEAAPEAUPxcNpMemBlock@2@XZ 0000000180087350 f   LowLevel_static_64:PxcNpMemBlockPool.obj
 0001:00086380       ?acquireExceptionalConstraintMemory@PxcNpMemBlockPool@physx@@QEAAPEAEI@Z 0000000180087380 f   LowLevel_static_64:PxcNpMemBlockPool.obj
 0001:00086430       ?acquireFrictionBlock@PxcNpMemBlockPool@physx@@QEAAPEAUPxcNpMemBlock@2@XZ 0000000180087430 f   LowLevel_static_64:PxcNpMemBlockPool.obj
 0001:00086460       ?acquireNpCacheBlock@PxcNpMemBlockPool@physx@@QEAAPEAUPxcNpMemBlock@2@XZ 0000000180087460 f   LowLevel_static_64:PxcNpMemBlockPool.obj
 0001:00086490       ?getPeakConstraintBlockCount@PxcNpMemBlockPool@physx@@QEBAIXZ 0000000180087490 f   LowLevel_static_64:PxcNpMemBlockPool.obj
 0001:000864a0       ?getUsedBlockCount@PxcNpMemBlockPool@physx@@QEBAIXZ 00000001800874a0 f   LowLevel_static_64:PxcNpMemBlockPool.obj
 0001:000864b0       ?growAndPushBack@?$Array@PEAPEAVInteraction@Sc@physx@@VNamedAllocator@shdfnd@3@@shdfnd@physx@@IEAAAEAPEAPEAVInteraction@Sc@3@AEBQEAPEAV453@@Z 00000001800874b0 f i LowLevel_static_64:PxsSimpleIslandManager.obj
 0001:000864b0       ?growAndPushBack@?$Array@PEAPEAXVNamedAllocator@shdfnd@physx@@@shdfnd@physx@@IEAAAEAPEAPEAXAEBQEAPEAX@Z 00000001800874b0 f i LowLevel_static_64:PxsSimpleIslandManager.obj
 0001:000864b0       ?growAndPushBack@?$Array@PEAUAllocationPage@BlockBasedAllocator@Dy@physx@@VNamedAllocator@shdfnd@4@@shdfnd@physx@@IEAAAEAPEAUAllocationPage@BlockBasedAllocator@Dy@3@AEBQEAU4563@@Z 00000001800874b0 f i LowLevelDynamics_static_64:DyFeatherstoneInverseDynamic.obj
 0001:000864b0       ?growAndPushBack@?$Array@PEAUEdge@IG@physx@@VNamedAllocator@shdfnd@3@@shdfnd@physx@@IEAAAEAPEAUEdge@IG@3@AEBQEAU453@@Z 00000001800874b0 f i LowLevel_static_64:PxsIslandSim.obj
 0001:000864b0       ?growAndPushBack@?$Array@PEAUEdgeInstance@IG@physx@@VNamedAllocator@shdfnd@3@@shdfnd@physx@@IEAAAEAPEAUEdgeInstance@IG@3@AEBQEAU453@@Z 00000001800874b0 f i LowLevel_static_64:PxsIslandSim.obj
 0001:000864b0       ?growAndPushBack@?$Array@PEAUPartitionEdge@physx@@VNamedAllocator@shdfnd@2@@shdfnd@physx@@IEAAAEAPEAUPartitionEdge@3@AEBQEAU43@@Z 00000001800874b0 f i LowLevel_static_64:PxsSimpleIslandManager.obj
 0001:000864b0       ?growAndPushBack@?$Array@PEAUPxcNpMemBlock@physx@@VNamedAllocator@shdfnd@2@@shdfnd@physx@@IEAAAEAPEAUPxcNpMemBlock@3@AEBQEAU43@@Z 00000001800874b0 f i LowLevel_static_64:PxcNpMemBlockPool.obj
 0001:000864b0       ?growAndPushBack@?$Array@PEAUPxsCCDPair@physx@@VNamedAllocator@shdfnd@2@@shdfnd@physx@@IEAAAEAPEAUPxsCCDPair@3@AEBQEAU43@@Z 00000001800874b0 f i LowLevel_static_64:PxsCCD.obj
 0001:000864b0       ?growAndPushBack@?$Array@PEAVAABBTreeBuildNode@Gu@physx@@VNamedAllocator@shdfnd@3@@shdfnd@physx@@IEAAAEAPEAVAABBTreeBuildNode@Gu@3@AEBQEAV453@@Z 00000001800874b0 f i SceneQuery_static_64:SqAABBTree.obj
 0001:000864b0       ?growAndPushBack@?$Array@PEAVActorPairReport@Sc@physx@@VNamedAllocator@shdfnd@3@@shdfnd@physx@@IEAAAEAPEAVActorPairReport@Sc@3@AEBQEAV453@@Z 00000001800874b0 f i SimulationController_static_64:ScShapeInteraction.obj
 0001:000864b0       ?growAndPushBack@?$Array@PEAVAggregate@Bp@physx@@VNamedAllocator@shdfnd@3@@shdfnd@physx@@IEAAAEAPEAVAggregate@Bp@3@AEBQEAV453@@Z 00000001800874b0 f i LowLevelAABB_static_64:BpAABBManager.obj
 0001:000864b0       ?growAndPushBack@?$Array@PEAVArticulationJointSim@Sc@physx@@VNamedAllocator@shdfnd@3@@shdfnd@physx@@IEAAAEAPEAVArticulationJointSim@Sc@3@AEBQEAV453@@Z 00000001800874b0 f i SimulationController_static_64:ScArticulationSim.obj
 0001:000864b0       ?growAndPushBack@?$Array@PEAVBodyCore@Sc@physx@@VNamedAllocator@shdfnd@3@@shdfnd@physx@@IEAAAEAPEAVBodyCore@Sc@3@AEBQEAV453@@Z 00000001800874b0 f i SimulationController_static_64:ScScene.obj
 0001:000864b0       ?growAndPushBack@?$Array@PEAVBodySim@Sc@physx@@VNamedAllocator@shdfnd@3@@shdfnd@physx@@IEAAAEAPEAVBodySim@Sc@3@AEBQEAV453@@Z 00000001800874b0 f i SimulationController_static_64:ScArticulationSim.obj
 0001:000864b0       ?growAndPushBack@?$Array@PEAVClient@Sc@physx@@VNamedAllocator@shdfnd@3@@shdfnd@physx@@IEAAAEAPEAVClient@Sc@3@AEBQEAV453@@Z 00000001800874b0 f i SimulationController_static_64:ScScene.obj
 0001:000864b0       ?growAndPushBack@?$Array@PEAVConstraintCore@Sc@physx@@VNamedAllocator@shdfnd@3@@shdfnd@physx@@IEAAAEAPEAVConstraintCore@Sc@3@AEBQEAV453@@Z 00000001800874b0 f i SimulationController_static_64:ScScene.obj
 0001:000864b0       ?growAndPushBack@?$Array@PEAVElementSimInteraction@Sc@physx@@VNamedAllocator@shdfnd@3@@shdfnd@physx@@IEAAAEAPEAVElementSimInteraction@Sc@3@AEBQEAV453@@Z 00000001800874b0 f i SimulationController_static_64:ScNPhaseCore.obj
 0001:000864b0       ?growAndPushBack@?$Array@PEAVIncrementalAABBTreeNode@Sq@physx@@VNamedAllocator@shdfnd@3@@shdfnd@physx@@IEAAAEAPEAVIncrementalAABBTreeNode@Sq@3@AEBQEAV453@@Z 00000001800874b0 f i SceneQuery_static_64:SqIncrementalAABBTree.obj
 0001:000864b0       ?growAndPushBack@?$Array@PEAVInteraction@Sc@physx@@VNamedAllocator@shdfnd@3@@shdfnd@physx@@IEAAAEAPEAVInteraction@Sc@3@AEBQEAV453@@Z 00000001800874b0 f i SimulationController_static_64:ScScene.obj
 0001:000864b0       ?growAndPushBack@?$Array@PEAVNodeIndex@IG@physx@@VNamedAllocator@shdfnd@3@@shdfnd@physx@@IEAAAEAPEAVNodeIndex@IG@3@AEBQEAV453@@Z 00000001800874b0 f i LowLevel_static_64:PxsSimpleIslandManager.obj
 0001:000864b0       ?growAndPushBack@?$Array@PEAVProcessAggPairsBase@Bp@physx@@VNamedAllocator@shdfnd@3@@shdfnd@physx@@IEAAAEAPEAVProcessAggPairsBase@Bp@3@AEBQEAV453@@Z 00000001800874b0 f i LowLevelAABB_static_64:BpAABBManager.obj
 0001:000864b0       ?growAndPushBack@?$Array@PEAVPxsContactManager@physx@@VNamedAllocator@shdfnd@2@@shdfnd@physx@@IEAAAEAPEAVPxsContactManager@3@AEBQEAV43@@Z 00000001800874b0 f i LowLevel_static_64:PxsNphaseImplementationContext.obj
 0001:000864b0       ?growAndPushBack@?$Array@PEAVPxsRigidBody@physx@@VNamedAllocator@shdfnd@2@@shdfnd@physx@@IEAAAEAPEAVPxsRigidBody@3@AEBQEAV43@@Z 00000001800874b0 f i LowLevel_static_64:PxsCCD.obj
 0001:000864b0       ?growAndPushBack@?$Array@PEAVShapeInteraction@Sc@physx@@VNamedAllocator@shdfnd@3@@shdfnd@physx@@IEAAAEAPEAVShapeInteraction@Sc@3@AEBQEAV453@@Z 00000001800874b0 f i SimulationController_static_64:ScNPhaseCore.obj
 0001:000864b0       ?growAndPushBack@?$Array@PEAVShapeSim@Sc@physx@@VNamedAllocator@shdfnd@3@@shdfnd@physx@@IEAAAEAPEAVShapeSim@Sc@3@AEBQEAV453@@Z 00000001800874b0 f i SimulationController_static_64:ScSqBoundsManager.obj
 0001:000864b0       ?growAndPushBack@?$Array@PEAVVirtualAllocatorCallback@shdfnd@physx@@VNamedAllocator@23@@shdfnd@physx@@IEAAAEAPEAVVirtualAllocatorCallback@23@AEBQEAV423@@Z 00000001800874b0 f i LowLevel_static_64:PxsDefaultMemoryManager.obj
 0001:000864b0       ?growAndPushBack@?$Array@PEBVPxRigidBody@physx@@VNamedAllocator@shdfnd@2@@shdfnd@physx@@IEAAAEAPEBVPxRigidBody@3@AEBQEBV43@@Z 00000001800874b0 f i SimulationController_static_64:ScScene.obj
 0001:000864b0       ?growAndPushBack@?$Array@UAggPair@Bp@physx@@VNamedAllocator@shdfnd@3@@shdfnd@physx@@IEAAAEAUAggPair@Bp@3@AEBU453@@Z 00000001800874b0 f i LowLevelAABB_static_64:BpAABBManager.obj
 0001:000864b0       ?growAndPushBack@?$Array@UBroadPhasePair@Bp@physx@@VNamedAllocator@shdfnd@3@@shdfnd@physx@@IEAAAEAUBroadPhasePair@Bp@3@AEBU453@@Z 00000001800874b0 f i LowLevelAABB_static_64:BpBroadPhaseMBP.obj
 0001:000864b0       ?growAndPushBack@?$Array@UNewTreeFixup@AABBPruner@Sq@physx@@VNamedAllocator@shdfnd@4@@shdfnd@physx@@IEAAAEAUNewTreeFixup@AABBPruner@Sq@3@AEBU4563@@Z 00000001800874b0 f i SceneQuery_static_64:SqAABBPruner.obj
 0001:000864b0       ?growAndPushBack@?$Array@UPxTaskDepTableRow@physx@@VNamedAllocator@shdfnd@2@@shdfnd@physx@@IEAAAEAUPxTaskDepTableRow@3@AEBU43@@Z 00000001800874b0 f i PhysXTask_static_64:TaskManager.obj
 0001:000865a0       ?init@PxcNpMemBlockPool@physx@@QEAAXII@Z 00000001800875a0 f   LowLevel_static_64:PxcNpMemBlockPool.obj
 0001:00086720       ?recreate@?$Array@PEAPEAVInteraction@Sc@physx@@VNamedAllocator@shdfnd@3@@shdfnd@physx@@IEAAXI@Z 0000000180087720 f i LowLevel_static_64:PxsSimpleIslandManager.obj
 0001:00086720       ?recreate@?$Array@PEAPEAXVNamedAllocator@shdfnd@physx@@@shdfnd@physx@@IEAAXI@Z 0000000180087720 f i LowLevel_static_64:PxsSimpleIslandManager.obj
 0001:00086720       ?recreate@?$Array@PEAUEdge@IG@physx@@VNamedAllocator@shdfnd@3@@shdfnd@physx@@IEAAXI@Z 0000000180087720 f i LowLevel_static_64:PxsSimpleIslandManager.obj
 0001:00086720       ?recreate@?$Array@PEAUEdgeInstance@IG@physx@@VNamedAllocator@shdfnd@3@@shdfnd@physx@@IEAAXI@Z 0000000180087720 f i LowLevel_static_64:PxsSimpleIslandManager.obj
 0001:00086720       ?recreate@?$Array@PEAUPartitionEdge@physx@@VNamedAllocator@shdfnd@2@@shdfnd@physx@@IEAAXI@Z 0000000180087720 f i LowLevel_static_64:PxsSimpleIslandManager.obj
 0001:00086720       ?recreate@?$Array@PEAUPxcNpMemBlock@physx@@VNamedAllocator@shdfnd@2@@shdfnd@physx@@IEAAXI@Z 0000000180087720 f i LowLevel_static_64:PxcNpMemBlockPool.obj
 0001:00086720       ?recreate@?$Array@PEAUPxsBodyCore@physx@@VNamedAllocator@shdfnd@2@@shdfnd@physx@@IEAAXI@Z 0000000180087720 f i LowLevelDynamics_static_64:DyTGSDynamics.obj
 0001:00086720       ?recreate@?$Array@PEAUPxsCCDBody@physx@@VNamedAllocator@shdfnd@2@@shdfnd@physx@@IEAAXI@Z 0000000180087720 f i LowLevel_static_64:PxsCCD.obj
 0001:00086720       ?recreate@?$Array@PEAUPxsCCDPair@physx@@VNamedAllocator@shdfnd@2@@shdfnd@physx@@IEAAXI@Z 0000000180087720 f i LowLevel_static_64:PxsCCD.obj
 0001:00086720       ?recreate@?$Array@PEAVActorPairReport@Sc@physx@@VNamedAllocator@shdfnd@3@@shdfnd@physx@@IEAAXI@Z 0000000180087720 f i SimulationController_static_64:ScNPhaseCore.obj
 0001:00086720       ?recreate@?$Array@PEAVAggregate@Bp@physx@@VNamedAllocator@shdfnd@3@@shdfnd@physx@@IEAAXI@Z 0000000180087720 f i LowLevelAABB_static_64:BpAABBManager.obj
 0001:00086720       ?recreate@?$Array@PEAVArticulationJointSim@Sc@physx@@VNamedAllocator@shdfnd@3@@shdfnd@physx@@IEAAXI@Z 0000000180087720 f i SimulationController_static_64:ScArticulationSim.obj
 0001:00086720       ?recreate@?$Array@PEAVArticulationV@Dy@physx@@VNamedAllocator@shdfnd@3@@shdfnd@physx@@IEAAXI@Z 0000000180087720 f i LowLevelDynamics_static_64:DyTGSDynamics.obj
 0001:00086720       ?recreate@?$Array@PEAVBodyCore@Sc@physx@@VNamedAllocator@shdfnd@3@@shdfnd@physx@@IEAAXI@Z 0000000180087720 f i SimulationController_static_64:ScScene.obj
 0001:00086720       ?recreate@?$Array@PEAVBodySim@Sc@physx@@VNamedAllocator@shdfnd@3@@shdfnd@physx@@IEAAXI@Z 0000000180087720 f i SimulationController_static_64:ScArticulationSim.obj
 0001:00086720       ?recreate@?$Array@PEAVClient@Sc@physx@@VNamedAllocator@shdfnd@3@@shdfnd@physx@@IEAAXI@Z 0000000180087720 f i SimulationController_static_64:ScScene.obj
 0001:00086720       ?recreate@?$Array@PEAVConstraintCore@Sc@physx@@VNamedAllocator@shdfnd@3@@shdfnd@physx@@IEAAXI@Z 0000000180087720 f i SimulationController_static_64:ScScene.obj
 0001:00086720       ?recreate@?$Array@PEAVElementInteractionMarker@Sc@physx@@VNamedAllocator@shdfnd@3@@shdfnd@physx@@IEAAXI@Z 0000000180087720 f i SimulationController_static_64:ScScene.obj
 0001:00086720       ?recreate@?$Array@PEAVIncrementalAABBTreeNode@Sq@physx@@VNamedAllocator@shdfnd@3@@shdfnd@physx@@IEAAXI@Z 0000000180087720 f i SceneQuery_static_64:SqCompoundPruner.obj
 0001:00086720       ?recreate@?$Array@PEAVInteraction@Sc@physx@@VNamedAllocator@shdfnd@3@@shdfnd@physx@@IEAAXI@Z 0000000180087720 f i SimulationController_static_64:ScScene.obj
 0001:00086720       ?recreate@?$Array@PEAVNodeIndex@IG@physx@@VNamedAllocator@shdfnd@3@@shdfnd@physx@@IEAAXI@Z 0000000180087720 f i LowLevel_static_64:PxsSimpleIslandManager.obj
 0001:00086720       ?recreate@?$Array@PEAVPxsContactManager@physx@@VNamedAllocator@shdfnd@2@@shdfnd@physx@@IEAAXI@Z 0000000180087720 f i SimulationController_static_64:ScScene.obj
 0001:00086720       ?recreate@?$Array@PEAVPxsRigidBody@physx@@VNamedAllocator@shdfnd@2@@shdfnd@physx@@IEAAXI@Z 0000000180087720 f i LowLevelDynamics_static_64:DyTGSDynamics.obj
 0001:00086720       ?recreate@?$Array@PEAVShapeInteraction@Sc@physx@@VNamedAllocator@shdfnd@3@@shdfnd@physx@@IEAAXI@Z 0000000180087720 f i SimulationController_static_64:ScScene.obj
 0001:00086720       ?recreate@?$Array@PEBUPxsCCDBody@physx@@VNamedAllocator@shdfnd@2@@shdfnd@physx@@IEAAXI@Z 0000000180087720 f i LowLevel_static_64:PxsCCD.obj
 0001:00086720       ?recreate@?$Array@PEBUPxsIndexedContactManager@physx@@VNamedAllocator@shdfnd@2@@shdfnd@physx@@IEAAXI@Z 0000000180087720 f i LowLevelDynamics_static_64:DyDynamics.obj
 0001:00086720       ?recreate@?$Array@PEBVPxRigidBody@physx@@VNamedAllocator@shdfnd@2@@shdfnd@physx@@IEAAXI@Z 0000000180087720 f i SimulationController_static_64:ScScene.obj
 0001:00086720       ?recreate@?$Array@UBroadPhasePair@Bp@physx@@VNamedAllocator@shdfnd@3@@shdfnd@physx@@IEAAXI@Z 0000000180087720 f i LowLevelAABB_static_64:BpBroadPhaseMBP.obj
 0001:00086720       ?recreate@?$Array@UPxConstraintBatchHeader@physx@@VNamedAllocator@shdfnd@2@@shdfnd@physx@@IEAAXI@Z 0000000180087720 f i LowLevelDynamics_static_64:DyTGSDynamics.obj
 0001:000867d0       ?release@PxcNpMemBlockPool@physx@@AEAAXAEAV?$Array@PEAUPxcNpMemBlock@physx@@VNamedAllocator@shdfnd@2@@shdfnd@2@PEAI@Z 00000001800877d0 f   LowLevel_static_64:PxcNpMemBlockPool.obj
 0001:00086880       ?releaseConstraintBlocks@PxcNpMemBlockPool@physx@@QEAAXAEAV?$Array@PEAUPxcNpMemBlock@physx@@VNamedAllocator@shdfnd@2@@shdfnd@2@@Z 0000000180087880 f   LowLevel_static_64:PxcNpMemBlockPool.obj
 0001:00086970       ?releaseConstraintMemory@PxcNpMemBlockPool@physx@@QEAAXXZ 0000000180087970 f   LowLevel_static_64:PxcNpMemBlockPool.obj
 0001:00086b70       ?releaseContacts@PxcNpMemBlockPool@physx@@QEAAXXZ 0000000180087b70 f   LowLevel_static_64:PxcNpMemBlockPool.obj
 0001:00086bc0       ?releaseUnusedBlocks@PxcNpMemBlockPool@physx@@QEAAXXZ 0000000180087bc0 f   LowLevel_static_64:PxcNpMemBlockPool.obj
 0001:00086c40       ?resize@?$Array@PEAPEAVInteraction@Sc@physx@@VNamedAllocator@shdfnd@3@@shdfnd@physx@@QEAAXIAEBQEAPEAVInteraction@Sc@3@@Z 0000000180087c40 f i LowLevel_static_64:PxsSimpleIslandManager.obj
 0001:00086c40       ?resize@?$Array@PEAPEAXVNamedAllocator@shdfnd@physx@@@shdfnd@physx@@QEAAXIAEBQEAPEAX@Z 0000000180087c40 f i LowLevel_static_64:PxsSimpleIslandManager.obj
 0001:00086c40       ?resize@?$Array@PEAUEdge@IG@physx@@VNamedAllocator@shdfnd@3@@shdfnd@physx@@QEAAXIAEBQEAUEdge@IG@3@@Z 0000000180087c40 f i LowLevel_static_64:PxsSimpleIslandManager.obj
 0001:00086c40       ?resize@?$Array@PEAUEdgeInstance@IG@physx@@VNamedAllocator@shdfnd@3@@shdfnd@physx@@QEAAXIAEBQEAUEdgeInstance@IG@3@@Z 0000000180087c40 f i LowLevel_static_64:PxsSimpleIslandManager.obj
 0001:00086c40       ?resize@?$Array@PEAUPartitionEdge@physx@@VNamedAllocator@shdfnd@2@@shdfnd@physx@@QEAAXIAEBQEAUPartitionEdge@3@@Z 0000000180087c40 f i LowLevel_static_64:PxsSimpleIslandManager.obj
 0001:00086c40       ?resize@?$Array@PEAUPxcNpMemBlock@physx@@VNamedAllocator@shdfnd@2@@shdfnd@physx@@QEAAXIAEBQEAUPxcNpMemBlock@3@@Z 0000000180087c40 f i LowLevel_static_64:PxcNpMemBlockPool.obj
 0001:00086c40       ?resize@?$Array@PEAVActorPairReport@Sc@physx@@VNamedAllocator@shdfnd@3@@shdfnd@physx@@QEAAXIAEBQEAVActorPairReport@Sc@3@@Z 0000000180087c40 f i SimulationController_static_64:ScNPhaseCore.obj
 0001:00086c40       ?resize@?$Array@PEAVAggregate@Bp@physx@@VNamedAllocator@shdfnd@3@@shdfnd@physx@@QEAAXIAEBQEAVAggregate@Bp@3@@Z 0000000180087c40 f i LowLevelAABB_static_64:BpAABBManager.obj
 0001:00086c40       ?resize@?$Array@PEAVConstraintCore@Sc@physx@@VNamedAllocator@shdfnd@3@@shdfnd@physx@@QEAAXIAEBQEAVConstraintCore@Sc@3@@Z 0000000180087c40 f i SimulationController_static_64:ScScene.obj
 0001:00086c40       ?resize@?$Array@PEAVIncrementalAABBTreeNode@Sq@physx@@VNamedAllocator@shdfnd@3@@shdfnd@physx@@QEAAXIAEBQEAVIncrementalAABBTreeNode@Sq@3@@Z 0000000180087c40 f i SceneQuery_static_64:SqCompoundPruner.obj
 0001:00086c40       ?resize@?$Array@PEAVNodeIndex@IG@physx@@VNamedAllocator@shdfnd@3@@shdfnd@physx@@QEAAXIAEBQEAVNodeIndex@IG@3@@Z 0000000180087c40 f i LowLevel_static_64:PxsSimpleIslandManager.obj
 0001:00086c40       ?resize@?$Array@UBroadPhasePair@Bp@physx@@VNamedAllocator@shdfnd@3@@shdfnd@physx@@QEAAXIAEBUBroadPhasePair@Bp@3@@Z 0000000180087c40 f i LowLevelAABB_static_64:BpBroadPhaseMBP.obj
 0001:00086d00       ?setBlockCount@PxcNpMemBlockPool@physx@@QEAAXI@Z 0000000180087d00 f   LowLevel_static_64:PxcNpMemBlockPool.obj
 0001:00086dd0       ?swapFrictionStreams@PxcNpMemBlockPool@physx@@QEAAXXZ 0000000180087dd0 f   LowLevel_static_64:PxcNpMemBlockPool.obj
 0001:00086e20       ?swapNpCacheStreams@PxcNpMemBlockPool@physx@@QEAAXXZ 0000000180087e20 f   LowLevel_static_64:PxcNpMemBlockPool.obj
 0001:00086e70       ??0PxcNpThreadContext@physx@@QEAA@PEAUPxcNpContext@1@@Z 0000000180087e70 f   LowLevel_static_64:PxcNpThreadContext.obj
 0001:00087000       ??1PxcNpThreadContext@physx@@QEAA@XZ 0000000180088000 f   LowLevel_static_64:PxcNpThreadContext.obj
 0001:000870b0       ?clearStats@PxcNpThreadContext@physx@@QEAAXXZ 00000001800880b0 f   LowLevel_static_64:PxcNpThreadContext.obj
 0001:000870e0       ?reset@PxcNpThreadContext@physx@@QEAAXI@Z 00000001800880e0 f   LowLevel_static_64:PxcNpThreadContext.obj
 0001:00087190       ??0PxsContactManager@physx@@QEAA@PEAVPxsContext@1@I@Z 0000000180088190 f   LowLevel_static_64:PxsContactManager.obj
 0001:000871c0       ?resetFrictionCachedState@PxsContactManager@physx@@QEAAXXZ 00000001800881c0 f   LowLevel_static_64:PxsContactManager.obj
 0001:000871d0       ?setCCD@PxsContactManager@physx@@QEAAX_N@Z 00000001800881d0 f   LowLevel_static_64:PxsContactManager.obj
 0001:000871f0       ??0PxcNpCacheStreamPair@physx@@QEAA@AEAVPxcNpMemBlockPool@1@@Z 00000001800881f0 f   LowLevel_static_64:PxcNpCacheStreamPair.obj
 0001:00087200       ?reserve@PxcNpCacheStreamPair@physx@@QEAAPEAEI@Z 0000000180088200 f   LowLevel_static_64:PxcNpCacheStreamPair.obj
 0001:00087290       ?reset@PxcNpCacheStreamPair@physx@@QEAAXXZ 0000000180088290 f   LowLevel_static_64:PxcNpCacheStreamPair.obj
 0001:000872a0       ??0Articulation@Dy@physx@@QEAA@PEAX@Z 00000001800882a0 f   LowLevelDynamics_static_64:DyArticulation.obj
 0001:000874e0       ??1Articulation@Dy@physx@@UEAA@XZ 00000001800884e0 f   LowLevelDynamics_static_64:DyArticulation.obj
 0001:000876a0       ??_EArticulation@Dy@physx@@UEAAPEAXI@Z 00000001800886a0 f i LowLevelDynamics_static_64:DyArticulation.obj
 0001:000876a0       ??_GArticulation@Dy@physx@@UEAAPEAXI@Z 00000001800886a0 f i LowLevelDynamics_static_64:DyArticulation.obj
 0001:000876e0       ??_EArticulationV@Dy@physx@@UEAAPEAXI@Z 00000001800886e0 f i LowLevelDynamics_static_64:DyArticulation.obj
 0001:000876e0       ??_GArticulationV@Dy@physx@@UEAAPEAXI@Z 00000001800886e0 f i LowLevelDynamics_static_64:DyArticulation.obj
 0001:00087760       ?PxcFsApplyJointDrives@Dy@physx@@YAXAEAUFsData@12@PEBT__m128@@@Z 0000000180088760 f   LowLevelDynamics_static_64:DyArticulation.obj
 0001:00087c60       ?PxcFsComputeJointLoadsSimd@Dy@physx@@YAXAEBUFsData@12@PEIBUFsInertia@12@PEIAUMat33V@aos@shdfnd@2@PEIBMIIUPxcFsScratchAllocator@12@@Z 0000000180088c60 f   LowLevelDynamics_static_64:DyArticulation.obj
 0001:00089cc0       ?PxcFsPropagateDrivenInertiaSimd@Dy@physx@@YAXAEAUFsData@12@PEBUFsInertia@12@PEBMPEBUMat33V@aos@shdfnd@2@UPxcFsScratchAllocator@12@@Z 000000018008acc0 f   LowLevelDynamics_static_64:DyArticulation.obj
 0001:0008acb0       ?PxcLtbFactor@Dy@physx@@YAXAEAUFsData@12@@Z 000000018008bcb0 f   LowLevelDynamics_static_64:DyArticulation.obj
 0001:0008bcc0       ?PxcLtbSolve@Dy@physx@@YAXAEBUFsData@12@PEAT__m128@@PEAUSpatialVectorV@Cm@2@@Z 000000018008ccc0 f   LowLevelDynamics_static_64:DyArticulation.obj
 0001:0008c280       ?PxvRegisterArticulations@Dy@physx@@YAXXZ 000000018008d280 f   LowLevelDynamics_static_64:DyArticulation.obj
 0001:0008c310       ?applyImpulses@Articulation@Dy@physx@@SAXAEBUFsData@23@PEAUSpatialVectorV@Cm@3@1@Z 000000018008d310 f   LowLevelDynamics_static_64:DyArticulation.obj
 0001:0008c810       ?applyImpulses@PxvArticulationDriveCache@Dy@physx@@SAXAEBUFsData@23@PEAUSpatialVectorV@Cm@3@1@Z 000000018008d810 f   LowLevelDynamics_static_64:DyArticulation.obj
 0001:0008c820       ?computeJointDrives@Articulation@Dy@physx@@AEAAXAEAUFsData@23@PEAT__m128@@PEBUArticulationLink@23@PEBVPxTransform@3@PEBUArticulationJointTransforms@23@PEBUMat33V@aos@shdfnd@3@M@Z 000000018008d820 f   LowLevelDynamics_static_64:DyArticulation.obj
 0001:0008ce30       ?computeSIS@ArticulationFnsSimdBase@Dy@physx@@SA?AUMat33V@aos@shdfnd@3@AEBUFsInertia@23@QEBUSpatialVectorV@Cm@3@QEAU893@@Z 000000018008de30 f i LowLevelDynamics_static_64:DyArticulation.obj
 0001:0008d350       ?computeUnconstrainedVelocities@Articulation@Dy@physx@@SAIAEBUArticulationSolverDesc@23@MAEAVPxConstraintAllocator@3@PEAUPxSolverConstraintDesc@3@AEAIAEBVPxVec3@3@_KPEAUSpatialVectorF@Cm@3@6@Z 000000018008e350 f   LowLevelDynamics_static_64:DyArticulation.obj
 0001:0008d4c0       ?computeUnconstrainedVelocitiesInternal@Articulation@Dy@physx@@AEAAXAEBUArticulationSolverDesc@23@MAEBVPxVec3@3@_KPEIAUFsInertia@23@PEIAUArticulationJointTransforms@23@AEAUPxcFsScratchAllocator@23@@Z 000000018008e4c0 f   LowLevelDynamics_static_64:DyArticulation.obj
 0001:0008e3d0       ?computeUnconstrainedVelocitiesTGS@Articulation@Dy@physx@@SAXAEBUArticulationSolverDesc@23@MAEBVPxVec3@3@_KPEAUSpatialVectorF@Cm@3@3@Z 000000018008f3d0 f   LowLevelDynamics_static_64:DyArticulation.obj
 0001:0008e430       ?deltaMotionToMotionVelocity@Articulation@Dy@physx@@SAXAEBUArticulationSolverDesc@23@M@Z 000000018008f430 f   LowLevelDynamics_static_64:DyArticulation.obj
 0001:0008e4b0       ?fillIndexedManager@Articulation@Dy@physx@@UEAAXIAEA_KAEAE@Z 000000018008f4b0 f   LowLevelDynamics_static_64:DyArticulation.obj
 0001:0008e4c0       ?getCurrentTransform@Articulation@Dy@physx@@UEBAAEBVPxTransform@3@I@Z 000000018008f4c0 f i LowLevelDynamics_static_64:DyArticulation.obj
 0001:0008e4d0       ?getDataSizes@Articulation@Dy@physx@@UEAAXIAEAI00@Z 000000018008f4d0 f   LowLevelDynamics_static_64:DyArticulation.obj
 0001:0008e500       ?getDeltaQ@Articulation@Dy@physx@@UEBAAEBVPxQuat@3@I@Z 000000018008f500 f i LowLevelDynamics_static_64:DyArticulation.obj
 0001:0008e510       ?getImpulseResponse@Articulation@Dy@physx@@UEBAXIPEAUSpatialVectorF@Cm@3@AEBVSpatialVector@53@AEAV653@@Z 000000018008f510 f   LowLevelDynamics_static_64:DyArticulation.obj
 0001:0008e510       ?getImpulseResponse@Articulation@Dy@physx@@UEBAXIPEAUSpatialVectorV@Cm@3@AEBU453@AEAU453@@Z 000000018008f510 f   LowLevelDynamics_static_64:DyArticulation.obj
 0001:0008e530       ?getImpulseResponse@PxvArticulationDriveCache@Dy@physx@@SAXAEBUFsData@23@IAEBUSpatialVectorV@Cm@3@AEAU563@@Z 000000018008f530 f   LowLevelDynamics_static_64:DyArticulation.obj
 0001:0008e540       ?getImpulseSelfResponse@Articulation@Dy@physx@@UEBAXIIPEAUSpatialVectorF@Cm@3@AEBVSpatialVector@53@1AEAV653@2@Z 000000018008f540 f   LowLevelDynamics_static_64:DyArticulation.obj
 0001:0008e580       ?getLinkCount@PxvArticulationDriveCache@Dy@physx@@SAIAEBUFsData@23@@Z 000000018008f580 f   LowLevelDynamics_static_64:DyArticulation.obj
 0001:0008e590       ?getLinkMaxPenBias@Articulation@Dy@physx@@UEBAMI@Z 000000018008f590 f   LowLevelDynamics_static_64:DyArticulation.obj
 0001:0008e5c0       ?getLinkMotionVector@Articulation@Dy@physx@@UEBA?AUSpatialVectorV@Cm@3@I@Z 000000018008f5c0 f   LowLevelDynamics_static_64:DyArticulation.obj
 0001:0008e5f0       ?getLinkVelocity@Articulation@Dy@physx@@UEBA?AUSpatialVectorV@Cm@3@I@Z 000000018008f5f0 f   LowLevelDynamics_static_64:DyArticulation.obj
 0001:0008e620       ?getMotionAcceleration@Articulation@Dy@physx@@UEBA?AVSpatialVector@Cm@3@I@Z 000000018008f620 f   LowLevelDynamics_static_64:DyArticulation.obj
 0001:0008e640       ?getMotionVelocity@Articulation@Dy@physx@@UEBA?AVSpatialVector@Cm@3@I@Z 000000018008f640 f   LowLevelDynamics_static_64:DyArticulation.obj
 0001:0008e6a0       ?initialize@PxvArticulationDriveCache@Dy@physx@@SAXAEAUFsData@23@GPEBUArticulationLink@23@MIPEADI@Z 000000018008f6a0 f   LowLevelDynamics_static_64:DyArticulation.obj
 0001:0008e8e0       ?onUpdateSolverDesc@Articulation@Dy@physx@@UEAAXXZ 000000018008f8e0 f i LowLevelDynamics_static_64:DyArticulation.obj
 0001:0008e930       ?prepareDataBlock@Articulation@Dy@physx@@SAXAEAUFsData@23@PEBUArticulationLink@23@GPEAVPxTransform@3@PEAVPxQuat@3@PEAUFsInertia@23@PEAUArticulationJointTransforms@23@I@Z 000000018008f930 f   LowLevelDynamics_static_64:DyArticulation.obj
 0001:0008f070       ?prepareFsData@Articulation@Dy@physx@@SAXAEAUFsData@23@PEBUArticulationLink@23@@Z 0000000180090070 f   LowLevelDynamics_static_64:DyArticulation.obj
 0001:0008f220       ?prepareLtbMatrix@Articulation@Dy@physx@@AEAAXAEAUFsData@23@PEBUFsInertia@23@PEBVPxTransform@3@PEBUArticulationJointTransforms@23@M@Z 0000000180090220 f   LowLevelDynamics_static_64:DyArticulation.obj
 0001:0008f6b0       ?pxcFsApplyImpulse@Articulation@Dy@physx@@UEAAXIT__m128@@0PEAUSpatialVectorF@Cm@3@1@Z 00000001800906b0 f   LowLevelDynamics_static_64:DyArticulation.obj
 0001:0008f820       ?pxcFsApplyImpulses@Articulation@Dy@physx@@UEAAXIAEBT__m128@@0I00PEAUSpatialVectorF@Cm@3@1@Z 0000000180090820 f   LowLevelDynamics_static_64:DyArticulation.obj
 0001:0008f8d0       ?pxcFsGetVelocities@Articulation@Dy@physx@@UEAAXIIAEAUSpatialVectorV@Cm@3@0@Z 00000001800908d0 f   LowLevelDynamics_static_64:DyArticulation.obj
 0001:0008f940       ?pxcFsGetVelocity@Articulation@Dy@physx@@UEAA?AUSpatialVectorV@Cm@3@I@Z 0000000180090940 f   LowLevelDynamics_static_64:DyArticulation.obj
 0001:0008fe90       ?pxcFsGetVelocityTGS@Articulation@Dy@physx@@UEAA?AUSpatialVectorV@Cm@3@I@Z 0000000180090e90 f i LowLevelDynamics_static_64:DyArticulation.obj
 0001:0008feb0       ?recordDeltaMotion@Articulation@Dy@physx@@SAXAEBUArticulationSolverDesc@23@MPEAUSpatialVectorF@Cm@3@M@Z 0000000180090eb0 f   LowLevelDynamics_static_64:DyArticulation.obj
 0001:000901a0       ?recreate@?$Array@UMat33V@aos@shdfnd@physx@@VNamedAllocator@34@@shdfnd@physx@@IEAAXI@Z 00000001800911a0 f i LowLevelDynamics_static_64:DyArticulation.obj
 0001:00090270       ?recreate@?$Array@USpatialVectorV@Cm@physx@@VNamedAllocator@shdfnd@3@@shdfnd@physx@@IEAAXI@Z 0000000180091270 f i LowLevelDynamics_static_64:DyArticulation.obj
 0001:00090330       ?recreate@?$Array@VPxQuat@physx@@VNamedAllocator@shdfnd@2@@shdfnd@physx@@IEAAXI@Z 0000000180091330 f i LowLevelDynamics_static_64:DyArticulation.obj
 0001:000904a0       ?recreate@?$Array@VPxTransform@physx@@VNamedAllocator@shdfnd@2@@shdfnd@physx@@IEAAXI@Z 00000001800914a0 f i LowLevelDynamics_static_64:DyArticulation.obj
 0001:00090690       ?resize@?$Array@UMat33V@aos@shdfnd@physx@@VNamedAllocator@34@@shdfnd@physx@@QEAAXIAEBUMat33V@aos@23@@Z 0000000180091690 f i LowLevelDynamics_static_64:DyArticulation.obj
 0001:00090720       ?resize@?$Array@USpatialVectorV@Cm@physx@@VNamedAllocator@shdfnd@3@@shdfnd@physx@@QEAAXIAEBUSpatialVectorV@Cm@3@@Z 0000000180091720 f i LowLevelDynamics_static_64:DyArticulation.obj
 0001:00090790       ?resize@?$Array@VPxQuat@physx@@VNamedAllocator@shdfnd@2@@shdfnd@physx@@QEAAXIAEBVPxQuat@3@@Z 0000000180091790 f i LowLevelDynamics_static_64:DyArticulation.obj
 0001:000908b0       ?resize@?$Array@VPxTransform@physx@@VNamedAllocator@shdfnd@2@@shdfnd@physx@@QEAAXIAEBVPxTransform@3@@Z 00000001800918b0 f i LowLevelDynamics_static_64:DyArticulation.obj
 0001:00090a30       ?resize@Articulation@Dy@physx@@UEAA_NI@Z 0000000180091a30 f   LowLevelDynamics_static_64:DyArticulation.obj
 0001:00090c70       ?resize@ArticulationV@Dy@physx@@UEAA_NI@Z 0000000180091c70 f   LowLevelDynamics_static_64:DyArticulation.obj
 0001:00090ca0       ?saveVelocity@Articulation@Dy@physx@@SAXAEBUArticulationSolverDesc@23@PEAUSpatialVectorF@Cm@3@@Z 0000000180091ca0 f   LowLevelDynamics_static_64:DyArticulation.obj
 0001:00090e20       ?saveVelocityTGS@Articulation@Dy@physx@@SAXAEBUArticulationSolverDesc@23@M@Z 0000000180091e20 f   LowLevelDynamics_static_64:DyArticulation.obj
 0001:00090fd0       ?setInertia@Articulation@Dy@physx@@SAXAEAUFsInertia@23@AEBUPxsBodyCore@3@AEBVPxTransform@3@@Z 0000000180091fd0 f   LowLevelDynamics_static_64:DyArticulation.obj
 0001:00091390       ?setJointTransforms@Articulation@Dy@physx@@SAXAEAUArticulationJointTransforms@23@AEBVPxTransform@3@1AEBUArticulationJointCore@23@@Z 0000000180092390 f   LowLevelDynamics_static_64:DyArticulation.obj
 0001:000918d0       ?updateBodies@Articulation@Dy@physx@@SAXAEBUArticulationSolverDesc@23@M@Z 00000001800928d0 f   LowLevelDynamics_static_64:DyArticulation.obj
 0001:00092ab0       ??$median3@UPxSolverConstraintDesc@physx@@$$CBUArticulationStaticConstraintSortPredicate@Dy@2@@internal@shdfnd@physx@@YAXPEAUPxSolverConstraintDesc@2@HHAEBUArticulationStaticConstraintSortPredicate@Dy@2@@Z 0000000180093ab0 f i LowLevelDynamics_static_64:DyFeatherstoneArticulation.obj
 0001:00092c60       ??$sort@UPxSolverConstraintDesc@physx@@UArticulationStaticConstraintSortPredicate@Dy@2@VNamedAllocator@shdfnd@2@@shdfnd@physx@@YAXPEAUPxSolverConstraintDesc@1@IAEBUArticulationStaticConstraintSortPredicate@Dy@1@AEBVNamedAllocator@01@I@Z 0000000180093c60 f i LowLevelDynamics_static_64:DyFeatherstoneArticulation.obj
 0001:00093130       ??0ArticulationData@Dy@physx@@QEAA@XZ 0000000180094130 f i LowLevelDynamics_static_64:DyFeatherstoneArticulation.obj
 0001:000936f0       ??0FeatherstoneArticulation@Dy@physx@@QEAA@PEAX@Z 00000001800946f0 f   LowLevelDynamics_static_64:DyFeatherstoneArticulation.obj
 0001:00093800       ??1ArticulationData@Dy@physx@@QEAA@XZ 0000000180094800 f   LowLevelDynamics_static_64:DyFeatherstoneArticulation.obj
 0001:00093da0       ??1FeatherstoneArticulation@Dy@physx@@UEAA@XZ 0000000180094da0 f   LowLevelDynamics_static_64:DyFeatherstoneArticulation.obj
 0001:00093e70       ??_EBlockAllocator@Dy@physx@@UEAAPEAXI@Z 0000000180094e70 f i LowLevelDynamics_static_64:DyFeatherstoneArticulation.obj
 0001:00093e70       ??_GBlockAllocator@Dy@physx@@UEAAPEAXI@Z 0000000180094e70 f i LowLevelDynamics_static_64:DyFeatherstoneArticulation.obj
 0001:00093ea0       ??_EFeatherstoneArticulation@Dy@physx@@UEAAPEAXI@Z 0000000180094ea0 f i LowLevelDynamics_static_64:DyFeatherstoneArticulation.obj
 0001:00093ea0       ??_GFeatherstoneArticulation@Dy@physx@@UEAAPEAXI@Z 0000000180094ea0 f i LowLevelDynamics_static_64:DyFeatherstoneArticulation.obj
 0001:00093f90       ??_EPxConstraintAllocator@physx@@UEAAPEAXI@Z 0000000180094f90 f i LowLevelDynamics_static_64:DyFeatherstoneArticulation.obj
 0001:00093f90       ??_EPxsSimulationControllerCallback@physx@@UEAAPEAXI@Z 0000000180094f90 f i SimulationController_static_64:ScScene.obj
 0001:00093f90       ??_GPxConstraintAllocator@physx@@UEAAPEAXI@Z 0000000180094f90 f i LowLevelDynamics_static_64:DyFeatherstoneArticulation.obj
 0001:00093f90       ??_GPxsSimulationControllerCallback@physx@@UEAAPEAXI@Z 0000000180094f90 f i SimulationController_static_64:ScScene.obj
 0001:00093fc0       ?PxcFsFlushVelocity@Dy@physx@@YAXAEAVFeatherstoneArticulation@12@PEAUSpatialVectorF@Cm@2@@Z 0000000180094fc0 f   LowLevelDynamics_static_64:DyFeatherstoneArticulation.obj
 0001:00094760       ?PxvRegisterArticulationsReducedCoordinate@Dy@physx@@YAXXZ 0000000180095760 f   LowLevelDynamics_static_64:DyFeatherstoneArticulation.obj
 0001:000947f0       ?allocateScratchSpatialData@FeatherstoneArticulation@Dy@physx@@QEAAPEAEPEAVPxcScratchAllocator@3@IAEAUScratchData@23@_N@Z 00000001800957f0 f   LowLevelDynamics_static_64:DyFeatherstoneArticulation.obj
 0001:00094910       ?applyCache@FeatherstoneArticulation@Dy@physx@@UEAA_NAEAVPxArticulationCache@3@V?$PxFlags@W4Enum@PxArticulationCache@physx@@E@3@@Z 0000000180095910 f   LowLevelDynamics_static_64:DyFeatherstoneArticulation.obj
 0001:00094970       ?computeArticJacobianAxes@Dy@physx@@YAXQEAVPxVec3@2@AEBVPxQuat@2@1@Z 0000000180095970 f i LowLevelDynamics_static_64:DyFeatherstoneArticulation.obj
 0001:00094bd0       ?computeC@FeatherstoneArticulation@Dy@physx@@IEAAXAEAVArticulationData@23@AEAUScratchData@23@@Z 0000000180095bd0 f   LowLevelDynamics_static_64:DyFeatherstoneArticulation.obj
 0001:00094fc0       ?computeD@FeatherstoneArticulation@Dy@physx@@IEAAXAEAVArticulationData@23@AEAUScratchData@23@PEAUSpatialVectorF@Cm@3@2@Z 0000000180095fc0 f   LowLevelDynamics_static_64:DyFeatherstoneArticulation.obj
 0001:00095820       ?computeDofs@FeatherstoneArticulation@Dy@physx@@IEAAXXZ 0000000180096820 f   LowLevelDynamics_static_64:DyFeatherstoneArticulation.obj
 0001:000959a0       ?computeLinkVelocities@FeatherstoneArticulation@Dy@physx@@IEAAXAEAVArticulationData@23@AEAUScratchData@23@@Z 00000001800969a0 f   LowLevelDynamics_static_64:DyFeatherstoneArticulation.obj
 0001:00095e10       ?computeLinkVelocities@FeatherstoneArticulation@Dy@physx@@QEAAXAEAVArticulationData@23@@Z 0000000180096e10 f   LowLevelDynamics_static_64:DyFeatherstoneArticulation.obj
 0001:000965c0       ?computeRelativeTransformC2B@FeatherstoneArticulation@Dy@physx@@IEAAXAEAVArticulationData@23@@Z 00000001800975c0 f   LowLevelDynamics_static_64:DyFeatherstoneArticulation.obj
 0001:000967b0       ?computeRelativeTransformC2P@FeatherstoneArticulation@Dy@physx@@IEAAXAEAVArticulationData@23@@Z 00000001800977b0 f   LowLevelDynamics_static_64:DyFeatherstoneArticulation.obj
 0001:00096ec0       ?computeSpatialInertia@FeatherstoneArticulation@Dy@physx@@IEAAXAEAVArticulationData@23@@Z 0000000180097ec0 f   LowLevelDynamics_static_64:DyFeatherstoneArticulation.obj
 0001:00097280       ?computeZ@FeatherstoneArticulation@Dy@physx@@IEAAXAEAVArticulationData@23@AEBVPxVec3@3@AEAUScratchData@23@@Z 0000000180098280 f   LowLevelDynamics_static_64:DyFeatherstoneArticulation.obj
 0001:00097680       ?concludeInternalConstraints@FeatherstoneArticulation@Dy@physx@@MEAAX_N@Z 0000000180098680 f   LowLevelDynamics_static_64:DyFeatherstoneArticulation.obj
 0001:00097700       ?copy@?$Array@UArticulationInternalLockedAxis@Dy@physx@@VNamedAllocator@shdfnd@3@@shdfnd@physx@@KAXPEAUArticulationInternalLockedAxis@Dy@3@0PEBU453@@Z 0000000180098700 f i LowLevelDynamics_static_64:DyFeatherstoneArticulation.obj
 0001:00097a70       ?copyInternalStateToCache@FeatherstoneArticulation@Dy@physx@@UEAAXAEAVPxArticulationCache@3@V?$PxFlags@W4Enum@PxArticulationCache@physx@@E@3@@Z 0000000180098a70 f   LowLevelDynamics_static_64:DyFeatherstoneArticulation.obj
 0001:000981d0       ?copyJointData@FeatherstoneArticulation@Dy@physx@@IEAAXAEAVArticulationData@23@PEAMPEBM@Z 00000001800991d0 f   LowLevelDynamics_static_64:DyFeatherstoneArticulation.obj
 0001:000981f0       ?deltaMotionToMotionVelocity@FeatherstoneArticulation@Dy@physx@@SAXAEBUArticulationSolverDesc@23@M@Z 00000001800991f0 f   LowLevelDynamics_static_64:DyFeatherstoneArticulation.obj
 0001:00098690       ?exp@shdfnd@physx@@YA?AVPxQuat@2@AEBVPxVec3@2@@Z 0000000180099690 f i LowLevelDynamics_static_64:DyFeatherstoneArticulation.obj
 0001:00098780       ?fillIndexedManager@FeatherstoneArticulation@Dy@physx@@UEAAXIAEA_KAEAE@Z 0000000180099780 f   LowLevelDynamics_static_64:DyFeatherstoneArticulation.obj
 0001:000987b0       ?findInputPatches@BlockAllocator@Dy@physx@@UEAAPEAEPEAE@Z 00000001800997b0 f i LowLevelDynamics_static_64:DyFeatherstoneArticulation.obj
 0001:000987c0       ?getCurrentTransform@FeatherstoneArticulation@Dy@physx@@UEBAAEBVPxTransform@3@I@Z 00000001800997c0 f   LowLevelDynamics_static_64:DyFeatherstoneArticulation.obj
 0001:000987d0       ?getDataSizes@FeatherstoneArticulation@Dy@physx@@UEAAXIAEAI00@Z 00000001800997d0 f   LowLevelDynamics_static_64:DyFeatherstoneArticulation.obj
 0001:000987e0       ?getDeltaQ@FeatherstoneArticulation@Dy@physx@@UEBAAEBVPxQuat@3@I@Z 00000001800997e0 f   LowLevelDynamics_static_64:DyFeatherstoneArticulation.obj
 0001:000987f0       ?getDeltaVWithDeltaJV@FeatherstoneArticulation@Dy@physx@@KA?AUSpatialVectorF@Cm@3@_NIAEBVArticulationData@23@PEAU453@PEAM@Z 00000001800997f0 f   LowLevelDynamics_static_64:DyFeatherstoneArticulation.obj
 0001:00098de0       ?getDenseJacobian@FeatherstoneArticulation@Dy@physx@@UEAAXAEAVPxArticulationCache@3@AEAI1@Z 0000000180099de0 f   LowLevelDynamics_static_64:DyFeatherstoneArticulation.obj
 0001:00099620       ?getDof@FeatherstoneArticulation@Dy@physx@@UEAAII@Z 000000018009a620 f   LowLevelDynamics_static_64:DyFeatherstoneArticulation.obj
 0001:00099640       ?getDofs@FeatherstoneArticulation@Dy@physx@@UEAAIXZ 000000018009a640 f   LowLevelDynamics_static_64:DyFeatherstoneArticulation.obj
 0001:00099670       ?getImpulseResponse@FeatherstoneArticulation@Dy@physx@@UEBAXIPEAUSpatialVectorF@Cm@3@AEBVSpatialVector@53@AEAV653@@Z 000000018009a670 f   LowLevelDynamics_static_64:DyFeatherstoneArticulation.obj
 0001:000997f0       ?getImpulseResponse@FeatherstoneArticulation@Dy@physx@@UEBAXIPEAUSpatialVectorV@Cm@3@AEBU453@AEAU453@@Z 000000018009a7f0 f   LowLevelDynamics_static_64:DyFeatherstoneArticulation.obj
 0001:00099960       ?getImpulseResponseSlow@FeatherstoneArticulation@Dy@physx@@SAXPEAUArticulationLink@23@AEBVArticulationData@23@IAEBVSpatialVector@Cm@3@AEAV673@I23PEAUSpatialVectorF@73@@Z 000000018009a960 f   LowLevelDynamics_static_64:DyFeatherstoneArticulation.obj
 0001:0009a2d0       ?getImpulseResponseWithJ@FeatherstoneArticulation@Dy@physx@@KA?AUSpatialVectorF@Cm@3@I_NAEBVArticulationData@23@PEAU453@AEBU453@PEAM@Z 000000018009b2d0 f   LowLevelDynamics_static_64:DyFeatherstoneArticulation.obj
 0001:0009a480       ?getImpulseSelfResponse@FeatherstoneArticulation@Dy@physx@@SAXPEAUArticulationLink@23@_NPEAUSpatialVectorF@Cm@3@AEBVArticulationData@23@IAEBUSpatialVectorV@63@AEAU863@I45@Z 000000018009b480 f   LowLevelDynamics_static_64:DyFeatherstoneArticulation.obj
 0001:0009a850       ?getImpulseSelfResponse@FeatherstoneArticulation@Dy@physx@@UEBAXIIPEAUSpatialVectorF@Cm@3@AEBVSpatialVector@53@1AEAV653@2@Z 000000018009b850 f   LowLevelDynamics_static_64:DyFeatherstoneArticulation.obj
 0001:0009a8c0       ?getLinkData@ArticulationData@Dy@physx@@QEBAAEAVArticulationLinkData@23@I@Z 000000018009b8c0 f   LowLevelDynamics_static_64:DyFeatherstoneArticulation.obj
 0001:0009a8e0       ?getLinkMaxPenBias@FeatherstoneArticulation@Dy@physx@@UEBAMI@Z 000000018009b8e0 f   LowLevelDynamics_static_64:DyFeatherstoneArticulation.obj
 0001:0009a900       ?getLinkMotionVector@FeatherstoneArticulation@Dy@physx@@UEBA?AUSpatialVectorV@Cm@3@I@Z 000000018009b900 f   LowLevelDynamics_static_64:DyFeatherstoneArticulation.obj
 0001:0009a940       ?getLinkVelocity@FeatherstoneArticulation@Dy@physx@@UEBA?AUSpatialVectorV@Cm@3@I@Z 000000018009b940 f   LowLevelDynamics_static_64:DyFeatherstoneArticulation.obj
 0001:0009a970       ?getMotionAcceleration@FeatherstoneArticulation@Dy@physx@@UEBA?AVSpatialVector@Cm@3@I@Z 000000018009b970 f   LowLevelDynamics_static_64:DyFeatherstoneArticulation.obj
 0001:0009a990       ?getMotionVelocity@FeatherstoneArticulation@Dy@physx@@UEBA?AVSpatialVector@Cm@3@I@Z 000000018009b990 f   LowLevelDynamics_static_64:DyFeatherstoneArticulation.obj
 0001:0009a9e0       ?getZ@FeatherstoneArticulation@Dy@physx@@KAXIAEBVArticulationData@23@PEAUSpatialVectorF@Cm@3@AEBU563@@Z 000000018009b9e0 f   LowLevelDynamics_static_64:DyFeatherstoneArticulation.obj
 0001:0009ab50       ?growAndPushBack@?$Array@UPxSolverConstraintDesc@physx@@VNamedAllocator@shdfnd@2@@shdfnd@physx@@IEAAAEAUPxSolverConstraintDesc@3@AEBU43@@Z 000000018009bb50 f i LowLevelDynamics_static_64:DyFeatherstoneArticulation.obj
 0001:0009ac70       ?jcalc@FeatherstoneArticulation@Dy@physx@@IEAAXAEAVArticulationData@23@_N@Z 000000018009bc70 f   LowLevelDynamics_static_64:DyFeatherstoneArticulation.obj
 0001:0009b060       ?onUpdateSolverDesc@FeatherstoneArticulation@Dy@physx@@UEAAXXZ 000000018009c060 f   LowLevelDynamics_static_64:DyFeatherstoneArticulation.obj
 0001:0009b0c0       ?prepareStaticConstraints@FeatherstoneArticulation@Dy@physx@@UEAAXMMAEAVPxsContactManagerOutputIterator@3@AEAVThreadContext@23@MMMMMPEAUPxSolverBodyData@3@AEAVPxsConstraintBlockManager@3@PEAUConstraintWriteback@23@@Z 000000018009c0c0 f   LowLevelDynamics_static_64:DyFeatherstoneArticulation.obj
 0001:0009b840       ?prepareStaticConstraintsTGS@FeatherstoneArticulation@Dy@physx@@UEAAXMMMMAEAVPxsContactManagerOutputIterator@3@AEAVThreadContext@23@MMMPEAUPxTGSSolverBodyData@3@PEAUPxTGSSolverBodyTxInertia@3@AEAVPxsConstraintBlockManager@3@PEAUConstraintWriteback@23@IM@Z 000000018009c840 f   LowLevelDynamics_static_64:DyFeatherstoneArticulation.obj
 0001:0009c090       ?propagateImpulseW@FeatherstoneArticulation@Dy@physx@@SA?AUSpatialVectorF@Cm@3@AEBUIsInvD@23@AEBVPxVec3@3@AEBUSpatialSubspaceMatrix@23@AEBU453@@Z 000000018009d090 f   LowLevelDynamics_static_64:DyFeatherstoneArticulation.obj
 0001:0009c790       ?propagateTransform@FeatherstoneArticulation@Dy@physx@@QEAA?AVPxTransform@3@IPEAUArticulationLink@23@AEAVArticulationJointCoreData@23@PEAUSpatialVectorF@Cm@3@MAEBV43@3PEAM44AEBUSpatialSubspaceMatrix@23@5@Z 000000018009d790 f   LowLevelDynamics_static_64:DyFeatherstoneArticulation.obj
 0001:0009d630       ?propagateVelocityTestImpulseW@FeatherstoneArticulation@Dy@physx@@SA?AUSpatialVectorF@Cm@3@AEBVPxVec3@3@AEBUSpatialMatrix@23@AEBUInvStIs@23@AEBUSpatialSubspaceMatrix@23@AEBU453@4@Z 000000018009e630 f   LowLevelDynamics_static_64:DyFeatherstoneArticulation.obj
 0001:0009ddf0       ?propagateVelocityW@FeatherstoneArticulation@Dy@physx@@SA?AUSpatialVectorF@Cm@3@AEBVPxVec3@3@AEBUSpatialMatrix@23@AEBUInvStIs@23@AEBUSpatialSubspaceMatrix@23@AEBU453@PEAM4@Z 000000018009edf0 f   LowLevelDynamics_static_64:DyFeatherstoneArticulation.obj
 0001:0009e620       ?pxcFsApplyImpulse@FeatherstoneArticulation@Dy@physx@@UEAAXIT__m128@@0PEAUSpatialVectorF@Cm@3@1@Z 000000018009f620 f   LowLevelDynamics_static_64:DyFeatherstoneArticulation.obj
 0001:0009e830       ?pxcFsApplyImpulses@FeatherstoneArticulation@Dy@physx@@UEAAXIAEBT__m128@@0I00PEAUSpatialVectorF@Cm@3@1@Z 000000018009f830 f   LowLevelDynamics_static_64:DyFeatherstoneArticulation.obj
 0001:0009eec0       ?pxcFsApplyImpulses@FeatherstoneArticulation@Dy@physx@@UEAAXPEAUSpatialVectorF@Cm@3@@Z 000000018009fec0 f   LowLevelDynamics_static_64:DyFeatherstoneArticulation.obj
 0001:0009f0d0       ?pxcFsGetVelocities@FeatherstoneArticulation@Dy@physx@@UEAAXIIAEAUSpatialVectorV@Cm@3@0@Z 00000001800a00d0 f   LowLevelDynamics_static_64:DyFeatherstoneArticulation.obj
 0001:0009fac0       ?pxcFsGetVelocity@FeatherstoneArticulation@Dy@physx@@UEAA?AUSpatialVectorV@Cm@3@I@Z 00000001800a0ac0 f   LowLevelDynamics_static_64:DyFeatherstoneArticulation.obj
 0001:000a0070       ?pxcFsGetVelocityTGS@FeatherstoneArticulation@Dy@physx@@UEAA?AUSpatialVectorV@Cm@3@I@Z 00000001800a1070 f   LowLevelDynamics_static_64:DyFeatherstoneArticulation.obj
 0001:000a0090       ?recordDeltaMotion@FeatherstoneArticulation@Dy@physx@@SAXAEBUArticulationSolverDesc@23@MPEAUSpatialVectorF@Cm@3@M@Z 00000001800a1090 f   LowLevelDynamics_static_64:DyFeatherstoneArticulation.obj
 0001:000a0740       ?recreate@?$Array@IVNamedAllocator@shdfnd@physx@@@shdfnd@physx@@IEAAXI@Z 00000001800a1740 f i LowLevelDynamics_static_64:DyFeatherstoneArticulation.obj
 0001:000a0740       ?recreate@?$Array@VNodeIndex@IG@physx@@VNamedAllocator@shdfnd@3@@shdfnd@physx@@IEAAXI@Z 00000001800a1740 f i LowLevel_static_64:PxsIslandSim.obj
 0001:000a07f0       ?recreate@?$Array@MVNamedAllocator@shdfnd@physx@@@shdfnd@physx@@IEAAXI@Z 00000001800a17f0 f i LowLevelDynamics_static_64:DyFeatherstoneArticulation.obj
 0001:000a08e0       ?recreate@?$Array@UArticulationInternalConstraint@Dy@physx@@VNamedAllocator@shdfnd@3@@shdfnd@physx@@IEAAXI@Z 00000001800a18e0 f i LowLevelDynamics_static_64:DyFeatherstoneArticulation.obj
 0001:000a0ac0       ?recreate@?$Array@UArticulationInternalLockedAxis@Dy@physx@@VNamedAllocator@shdfnd@3@@shdfnd@physx@@IEAAXI@Z 00000001800a1ac0 f i LowLevelDynamics_static_64:DyFeatherstoneArticulation.obj
 0001:000a0b60       ?recreate@?$Array@UInvStIs@Dy@physx@@VNamedAllocator@shdfnd@3@@shdfnd@physx@@IEAAXI@Z 00000001800a1b60 f i LowLevelDynamics_static_64:DyFeatherstoneArticulation.obj
 0001:000a0c30       ?recreate@?$Array@UIsInvD@Dy@physx@@VNamedAllocator@shdfnd@3@@shdfnd@physx@@IEAAXI@Z 00000001800a1c30 f i LowLevelDynamics_static_64:DyFeatherstoneArticulation.obj
 0001:000a0da0       ?recreate@?$Array@USpatialImpulseResponseMatrix@Dy@physx@@VNamedAllocator@shdfnd@3@@shdfnd@physx@@IEAAXI@Z 00000001800a1da0 f i LowLevelDynamics_static_64:DyFeatherstoneArticulation.obj
 0001:000a0fb0       ?recreate@?$Array@USpatialMatrix@Dy@physx@@VNamedAllocator@shdfnd@3@@shdfnd@physx@@IEAAXI@Z 00000001800a1fb0 f i LowLevelDynamics_static_64:DyFeatherstoneArticulation.obj
 0001:000a1150       ?recreate@?$Array@USpatialSubspaceMatrix@Dy@physx@@VNamedAllocator@shdfnd@3@@shdfnd@physx@@IEAAXI@Z 00000001800a2150 f i LowLevelDynamics_static_64:DyFeatherstoneArticulation.obj
 0001:000a1290       ?recreate@?$Array@USpatialVectorF@Cm@physx@@VNamedAllocator@shdfnd@3@@shdfnd@physx@@IEAAXI@Z 00000001800a2290 f i LowLevelDynamics_static_64:DyFeatherstoneArticulation.obj
 0001:000a14b0       ?resize@?$Array@USpatialSubspaceMatrix@Dy@physx@@VNamedAllocator@shdfnd@3@@shdfnd@physx@@QEAAXIAEBUSpatialSubspaceMatrix@Dy@3@@Z 00000001800a24b0 f i LowLevelDynamics_static_64:DyFeatherstoneArticulation.obj
 0001:000a1590       ?resize@FeatherstoneArticulation@Dy@physx@@UEAA_NI@Z 00000001800a2590 f   LowLevelDynamics_static_64:DyFeatherstoneArticulation.obj
 0001:000a1630       ?resizeJointData@ArticulationData@Dy@physx@@QEAAXI@Z 00000001800a2630 f   LowLevelDynamics_static_64:DyFeatherstoneArticulation.obj
 0001:000a1760       ?resizeLinkData@ArticulationData@Dy@physx@@QEAAXI@Z 00000001800a2760 f   LowLevelDynamics_static_64:DyFeatherstoneArticulation.obj
 0001:000a1c30       ?saveVelocity@FeatherstoneArticulation@Dy@physx@@SAXAEBUArticulationSolverDesc@23@PEAUSpatialVectorF@Cm@3@@Z 00000001800a2c30 f   LowLevelDynamics_static_64:DyFeatherstoneArticulation.obj
 0001:000a1cb0       ?setJointPose@ArticulationJointCore@Dy@physx@@QEAAXAEAVArticulationJointCoreData@23@AEAUSpatialSubspaceMatrix@23@_NAEAVPxQuat@3@@Z 00000001800a2cb0 f   LowLevelDynamics_static_64:DyFeatherstoneArticulation.obj
 0001:000a2400       ?setupInternalConstraints@FeatherstoneArticulation@Dy@physx@@QEAAXPEAUArticulationLink@23@I_NAEAVArticulationData@23@PEAUSpatialVectorF@Cm@3@MMMM_N@Z 00000001800a3400 f   LowLevelDynamics_static_64:DyFeatherstoneArticulation.obj
 0001:000a2600       ?setupInternalConstraintsRecursive@FeatherstoneArticulation@Dy@physx@@QEAAXPEAUArticulationLink@23@I_NAEAVArticulationData@23@PEAUSpatialVectorF@Cm@3@MMMMM1IM@Z 00000001800a3600 f   LowLevelDynamics_static_64:DyFeatherstoneArticulation.obj
 0001:000a3c70       ?setupSolverConstraints@FeatherstoneArticulation@Dy@physx@@QEAAIPEAUArticulationLink@23@I_NAEAVArticulationData@23@PEAUSpatialVectorF@Cm@3@AEAI@Z 00000001800a4c70 f   LowLevelDynamics_static_64:DyFeatherstoneArticulation.obj
 0001:000a3ce0       ?setupSolverConstraintsTGS@FeatherstoneArticulation@Dy@physx@@SAIAEBUArticulationSolverDesc@23@AEAVPxcConstraintBlockStream@3@PEAUPxSolverConstraintDesc@3@MMMAEAIAEAVPxsConstraintBlockManager@3@PEAUSpatialVectorF@Cm@3@@Z 00000001800a4ce0 f   LowLevelDynamics_static_64:DyFeatherstoneArticulation.obj
 0001:000a3d70       ?solveInternalConstraintRecursive@FeatherstoneArticulation@Dy@physx@@IEAA?AUSpatialVectorF@Cm@3@MMPEAU453@0_N1MIAEBU453@AEAI3@Z 00000001800a4d70 f   LowLevelDynamics_static_64:DyFeatherstoneArticulation.obj
 0001:000a51e0       ?solveInternalConstraints@FeatherstoneArticulation@Dy@physx@@MEAAXMMPEAUSpatialVectorF@Cm@3@0_N1M@Z 00000001800a61e0 f   LowLevelDynamics_static_64:DyFeatherstoneArticulation.obj
 0001:000a5e90       ?solveStaticConstraint@Dy@physx@@YAXAEBUPxSolverConstraintDesc@2@AEAUSpatialVectorF@Cm@2@11AEBU452@AEBVPxQuat@2@_NMM@Z 00000001800a6e90 f   LowLevelDynamics_static_64:DyFeatherstoneArticulation.obj
 0001:000a62c0       ?storeStaticConstraint@FeatherstoneArticulation@Dy@physx@@UEAA_NAEBUPxSolverConstraintDesc@3@@Z 00000001800a72c0 f   LowLevelDynamics_static_64:DyFeatherstoneArticulation.obj
 0001:000a6320       ?teleportLinks@FeatherstoneArticulation@Dy@physx@@QEAAXAEAVArticulationData@23@@Z 00000001800a7320 f   LowLevelDynamics_static_64:DyFeatherstoneArticulation.obj
 0001:000a73f0       ?teleportRootLink@FeatherstoneArticulation@Dy@physx@@UEAAXXZ 00000001800a83f0 f   LowLevelDynamics_static_64:DyFeatherstoneArticulation.obj
 0001:000a81b0       ?translateInertia@FeatherstoneArticulation@Dy@physx@@KAXAEBVPxMat33@3@AEAUSpatialMatrix@23@@Z 00000001800a91b0 f   LowLevelDynamics_static_64:DyFeatherstoneArticulation.obj
 0001:000a86c0       ?writebackInternalConstraints@FeatherstoneArticulation@Dy@physx@@MEAAX_N@Z 00000001800a96c0 f   LowLevelDynamics_static_64:DyFeatherstoneArticulation.obj
 0001:000a8770       ?copyToSolverBodyData@Dy@physx@@YAXAEBVPxVec3@2@0M0AEBVPxTransform@2@MMIMAEAUPxSolverBodyData@2@I@Z 00000001800a9770 f   LowLevelDynamics_static_64:DyRigidBodyToSolverBody.obj
 0001:000a8b90       ?createFinalizeSolverContacts@Dy@physx@@YA_NAEAUPxSolverContactDesc@2@AEAUPxsContactManagerOutput@2@AEAVThreadContext@12@MMMMMAEAVPxConstraintAllocator@2@PEAUSpatialVectorF@Cm@2@@Z 00000001800a9b90 f   LowLevelDynamics_static_64:DyContactPrep.obj
 0001:000a8f90       ?createFinalizeSolverContacts@Dy@physx@@YA_NAEAUPxSolverContactDesc@2@AEAUCorrelationBuffer@12@MMMMMAEAVPxConstraintAllocator@2@PEAUSpatialVectorF@Cm@2@@Z 00000001800a9f90 f   LowLevelDynamics_static_64:DyContactPrep.obj
 0001:000a9ce0       ?getContactManagerConstraintDesc@Dy@physx@@YAIAEBUPxsContactManagerOutput@2@AEBVPxsContactManager@2@AEAUPxSolverConstraintDesc@2@@Z 00000001800aace0 f   LowLevelDynamics_static_64:DyContactPrep.obj
 0001:000aa040       ?setupExtSolverContact@Dy@physx@@YA?AT__m128@@AEBVSolverExtBody@12@0AEBT3@111111111111AEBUContactPoint@Gu@2@AEAUSolverContactPointExt@12@1PEAUSpatialVectorF@Cm@2@AEBUSpatialVectorV@92@5@Z 00000001800ab040 f   LowLevelDynamics_static_64:DyContactPrep.obj
 0001:000ab580       ?createFinalizeSolverContacts4@Dy@physx@@YA?AW4Enum@SolverConstraintPrepState@12@PEAPEAUPxsContactManagerOutput@2@AEAVThreadContext@12@PEAUPxSolverContactDesc@2@MMMMMAEAVPxConstraintAllocator@2@@Z 00000001800ac580 f   LowLevelDynamics_static_64:DyContactPrep4.obj
 0001:000aba50       ?computeBlockStreamByteSizes4@Dy@physx@@YAXPEAUPxSolverContactDesc@2@AEAIPEAIAEBUCorrelationBuffer@12@@Z 00000001800aca50 f   LowLevelDynamics_static_64:DyContactPrep4.obj
 0001:000abde0       ?createFinalizeSolverContacts4@Dy@physx@@YA?AW4Enum@SolverConstraintPrepState@12@AEAUCorrelationBuffer@12@PEAUPxSolverContactDesc@2@MMMMMAEAVPxConstraintAllocator@2@@Z 00000001800acde0 f   LowLevelDynamics_static_64:DyContactPrep4.obj
 0001:000ac740       ?getFrictionPatches@Dy@physx@@YA_NAEAUCorrelationBuffer@12@PEBEIAEBVPxTransform@2@2M@Z 00000001800ad740 f i LowLevelDynamics_static_64:DyContactPrep4.obj
 0001:000b0300       ?setupSolverConstraint4@Dy@physx@@YA?AW4Enum@SolverConstraintPrepState@12@PEIAUPxSolverConstraintPrepDesc@2@MMAEAIAEAVPxConstraintAllocator@2@I@Z 00000001800b1300 f   LowLevelDynamics_static_64:DyConstraintSetupBlock.obj
 0001:000b1380       ?setupSolverConstraint4@Dy@physx@@YA?AW4Enum@SolverConstraintPrepState@12@PEIAUSolverConstraintShaderPrepDesc@12@PEIAUPxSolverConstraintPrepDesc@2@MMAEAIAEAVPxConstraintAllocator@2@@Z 00000001800b2380 f   LowLevelDynamics_static_64:DyConstraintSetupBlock.obj
 0001:000b1560       ?SetupSolverConstraint@Dy@physx@@YAIAEAUSolverConstraintShaderPrepDesc@12@AEAUPxSolverConstraintPrepDesc@2@AEAVPxConstraintAllocator@2@MMPEAUSpatialVectorF@Cm@2@@Z 00000001800b2560 f   LowLevelDynamics_static_64:DyConstraintSetup.obj
 0001:000b2a90       ?preprocessRows@Dy@physx@@YAXPEAPEAUPx1DConstraint@2@PEAU32@PEAVPxVec4@2@2IAEBVPxMat33@2@3MMAEBUPxConstraintInvMassScale@2@_N55@Z 00000001800b3a90 f   LowLevelDynamics_static_64:DyConstraintSetup.obj
 0001:000b3140       ?setupSolverConstraint@ConstraintHelper@Dy@physx@@SAIAEAUPxSolverConstraintPrepDesc@3@AEAVPxConstraintAllocator@3@MMPEAUSpatialVectorF@Cm@3@@Z 00000001800b4140 f   LowLevelDynamics_static_64:DyConstraintSetup.obj
 0001:000b3be0       ??_ESolverCore@Dy@physx@@UEAAPEAXI@Z 00000001800b4be0 f i LowLevelDynamics_static_64:DySolverControl.obj
 0001:000b3be0       ??_ESolverCoreGeneralPF@Dy@physx@@UEAAPEAXI@Z 00000001800b4be0 f i LowLevelDynamics_static_64:DySolverControlPF.obj
 0001:000b3be0       ??_GSolverCore@Dy@physx@@UEAAPEAXI@Z 00000001800b4be0 f i LowLevelDynamics_static_64:DySolverControl.obj
 0001:000b3be0       ??_GSolverCoreGeneralPF@Dy@physx@@UEAAPEAXI@Z 00000001800b4be0 f i LowLevelDynamics_static_64:DySolverControlPF.obj
 0001:000b3c10       ??_ESolverCoreGeneral@Dy@physx@@UEAAPEAXI@Z 00000001800b4c10 f i LowLevelDynamics_static_64:DySolverControl.obj
 0001:000b3c10       ??_GSolverCoreGeneral@Dy@physx@@UEAAPEAXI@Z 00000001800b4c10 f i LowLevelDynamics_static_64:DySolverControl.obj
 0001:000b3c40       ?SolverCoreRegisterArticulationFns@Dy@physx@@YAXXZ 00000001800b4c40 f   LowLevelDynamics_static_64:DySolverControl.obj
 0001:000b3ca0       ?create@SolverCoreGeneral@Dy@physx@@SAPEAV123@_N@Z 00000001800b4ca0 f   LowLevelDynamics_static_64:DySolverControl.obj
 0001:000b3d10       ?destroyV@SolverCoreGeneral@Dy@physx@@UEAAXXZ 00000001800b4d10 f   LowLevelDynamics_static_64:DySolverControl.obj
 0001:000b3d10       ?destroyV@SolverCoreGeneralPF@Dy@physx@@UEAAXXZ 00000001800b4d10 f   LowLevelDynamics_static_64:DySolverControlPF.obj
 0001:000b3d40       ?getSolveBlockTable@Dy@physx@@YAPEAP6AXPEBUPxSolverConstraintDesc@2@IAEAUSolverContext@12@@ZXZ 00000001800b4d40 f   LowLevelDynamics_static_64:DySolverControl.obj
 0001:000b3d50       ?getSolveWritebackBlockTable@Dy@physx@@YAPEAP6AXPEBUPxSolverConstraintDesc@2@IAEAUSolverContext@12@@ZXZ 00000001800b4d50 f   LowLevelDynamics_static_64:DySolverControl.obj
 0001:000b3d60       ?getSolverConcludeBlockTable@Dy@physx@@YAPEAP6AXPEBUPxSolverConstraintDesc@2@IAEAUSolverContext@12@@ZXZ 00000001800b4d60 f   LowLevelDynamics_static_64:DySolverControl.obj
 0001:000b3d70       ?solveVBlock@Dy@physx@@YAXPEAVSolverCore@12@AEAUSolverIslandParams@12@@Z 00000001800b4d70 f   LowLevelDynamics_static_64:DySolverControl.obj
 0001:000b3d80       ?solveVParallelAndWriteBack@SolverCoreGeneral@Dy@physx@@UEBAHAEAUSolverIslandParams@23@PEAUSpatialVectorF@Cm@3@1@Z 00000001800b4d80 f   LowLevelDynamics_static_64:DySolverControl.obj
 0001:000b52d0       ?solveV_Blocks@SolverCoreGeneral@Dy@physx@@UEBAXAEAUSolverIslandParams@23@@Z 00000001800b62d0 f   LowLevelDynamics_static_64:DySolverControl.obj
 0001:000b5eb0       ?writeBackV@SolverCoreGeneral@Dy@physx@@UEBAXPEIBUPxSolverConstraintDesc@3@IPEAUPxConstraintBatchHeader@3@IPEIAUThresholdStreamElement@23@IAEAIPEAUPxSolverBodyData@3@QEAP6AXPEBU43@IAEAUSolverContext@23@@Z@Z 00000001800b6eb0 f   LowLevelDynamics_static_64:DySolverControl.obj
 0001:000b5eb0       ?writeBackV@SolverCoreGeneralPF@Dy@physx@@UEBAXPEIBUPxSolverConstraintDesc@3@IPEAUPxConstraintBatchHeader@3@IPEIAUThresholdStreamElement@23@IAEAIPEAUPxSolverBodyData@3@QEAP6AXPEBU43@IAEAUSolverContext@23@@Z@Z 00000001800b6eb0 f   LowLevelDynamics_static_64:DySolverControlPF.obj
 0001:000b5f70       ?SetupSolverConstraintStep@Dy@physx@@YAIAEAUSolverConstraintShaderPrepDesc@12@AEAUPxTGSSolverConstraintPrepDesc@2@AEAVPxConstraintAllocator@2@MMMMM@Z 00000001800b6f70 f   LowLevelDynamics_static_64:DyTGSContactPrep.obj
 0001:000b61f0       ?conclude1DStep@Dy@physx@@YAXAEBUPxSolverConstraintDesc@2@@Z 00000001800b71f0 f   LowLevelDynamics_static_64:DyTGSContactPrep.obj
 0001:000b6240       ?createFinalizeSolverContactsStep@Dy@physx@@YA_NAEAUPxTGSSolverContactDesc@2@AEAUCorrelationBuffer@12@MMMMMAEAVPxConstraintAllocator@2@@Z 00000001800b7240 f   LowLevelDynamics_static_64:DyTGSContactPrep.obj
 0001:000b7020       ?createFinalizeSolverContactsStep@Dy@physx@@YA_NAEAUPxTGSSolverContactDesc@2@AEAUPxsContactManagerOutput@2@AEAVThreadContext@12@MMMMMAEAVPxConstraintAllocator@2@@Z 00000001800b8020 f   LowLevelDynamics_static_64:DyTGSContactPrep.obj
 0001:000b7450       ?createHardLimitTGS@ArticulationHelper@Dy@physx@@SAXAEBUFsData@23@PEBUArticulationLink@23@IAEAUSolverConstraint1DExtStep@23@AEBVPxVec3@3@MM@Z 00000001800b8450 f   LowLevelDynamics_static_64:DyTGSContactPrep.obj
 0001:000b76c0       ?createTangentialSpringTGS@ArticulationHelper@Dy@physx@@SAXAEBUFsData@23@PEBUArticulationLink@23@IAEAUSolverConstraint1DExtStep@23@AEBVPxVec3@3@MMM@Z 00000001800b86c0 f   LowLevelDynamics_static_64:DyTGSContactPrep.obj
 0001:000b7980       ?ellipseClamp@shdfnd@physx@@YA?AVPxVec3@2@AEBV32@0@Z 00000001800b8980 f i LowLevelDynamics_static_64:DyTGSContactPrep.obj
 0001:000b7bd0       ?getImpulseResponse@Dy@physx@@YAMAEBVSolverExtBodyStep@12@AEBVSpatialVector@Cm@2@AEAV452@MM012MM_N@Z 00000001800b8bd0 f   LowLevelDynamics_static_64:DyTGSContactPrep.obj
 0001:000b80c0       ?getLimit@ConeLimitHelper@Cm@physx@@QEBA_NAEBVPxQuat@3@AEAVPxVec3@3@AEAM@Z 00000001800b90c0 f i LowLevelDynamics_static_64:DyTGSContactPrep.obj
 0001:000b84f0       ?projectVelocity@SolverExtBodyStep@Dy@physx@@QEBAMAEBVPxVec3@3@0@Z 00000001800b94f0 f   LowLevelDynamics_static_64:DyTGSContactPrep.obj
 0001:000b8bb0       ?setSolverConstantsStep@Dy@physx@@YAXAEAM000000AEBUPx1DConstraint@2@MMMMMMMMMM@Z 00000001800b9bb0 f   LowLevelDynamics_static_64:DyTGSContactPrep.obj
 0001:000b92e0       ?setupFinalizeExtSolverContactsStep@Dy@physx@@YAXPEBUContactPoint@Gu@2@AEBUCorrelationBuffer@12@AEBVPxTransform@2@2PEAEAEBVSolverExtBodyStep@12@4MMMMMMMM3MMM@Z 00000001800ba2e0 f   LowLevelDynamics_static_64:DyTGSContactPrep.obj
 0001:000bc360       ?setupSolverConstraintStep@Dy@physx@@YAIAEBUPxTGSSolverConstraintPrepDesc@2@AEAVPxConstraintAllocator@2@MMMMM@Z 00000001800bd360 f   LowLevelDynamics_static_64:DyTGSContactPrep.obj
 0001:000bd210       ?setupSolverConstraintsTGS@Articulation@Dy@physx@@SAIAEBUArticulationSolverDesc@23@AEAVPxcConstraintBlockStream@3@PEAUPxSolverConstraintDesc@3@MMMAEAIAEAVPxsConstraintBlockManager@3@PEAUSpatialVectorF@Cm@3@@Z 00000001800be210 f   LowLevelDynamics_static_64:DyTGSContactPrep.obj
 0001:000bdb50       ?solve1DBlock@Dy@physx@@YAXAEBUPxConstraintBatchHeader@2@PEBUPxSolverConstraintDesc@2@QEBUPxTGSSolverBodyTxInertia@2@MMAEAUSolverContext@12@@Z 00000001800beb50 f   LowLevelDynamics_static_64:DyTGSContactPrep.obj
 0001:000bdbc0       ?solve1DStep@Dy@physx@@YAXAEBUPxSolverConstraintDesc@2@QEBUPxTGSSolverBodyTxInertia@2@M@Z 00000001800bebc0 f   LowLevelDynamics_static_64:DyTGSContactPrep.obj
 0001:000be6c0       ?solveConclude1DBlock@Dy@physx@@YAXAEBUPxConstraintBatchHeader@2@PEBUPxSolverConstraintDesc@2@QEBUPxTGSSolverBodyTxInertia@2@MAEAUSolverContext@12@@Z 00000001800bf6c0 f   LowLevelDynamics_static_64:DyTGSContactPrep.obj
 0001:000be7a0       ?solveConclude1DBlockExt@Dy@physx@@YAXAEBUPxConstraintBatchHeader@2@PEBUPxSolverConstraintDesc@2@QEBUPxTGSSolverBodyTxInertia@2@MAEAUSolverContext@12@@Z 00000001800bf7a0 f   LowLevelDynamics_static_64:DyTGSContactPrep.obj
 0001:000be890       ?solveConcludeContactBlock@Dy@physx@@YAXAEBUPxConstraintBatchHeader@2@PEBUPxSolverConstraintDesc@2@QEBUPxTGSSolverBodyTxInertia@2@MAEAUSolverContext@12@@Z 00000001800bf890 f   LowLevelDynamics_static_64:DyTGSContactPrep.obj
 0001:000be920       ?solveConcludeContactExtBlock@Dy@physx@@YAXAEBUPxConstraintBatchHeader@2@PEBUPxSolverConstraintDesc@2@QEBUPxTGSSolverBodyTxInertia@2@MAEAUSolverContext@12@@Z 00000001800bf920 f   LowLevelDynamics_static_64:DyTGSContactPrep.obj
 0001:000be9b0       ?solveContact@Dy@physx@@YAXAEBUPxSolverConstraintDesc@2@_NMM@Z 00000001800bf9b0 f   LowLevelDynamics_static_64:DyTGSContactPrep.obj
 0001:000bf0f0       ?solveContactBlock@Dy@physx@@YAXAEBUPxConstraintBatchHeader@2@PEBUPxSolverConstraintDesc@2@QEBUPxTGSSolverBodyTxInertia@2@MMAEAUSolverContext@12@@Z 00000001800c00f0 f   LowLevelDynamics_static_64:DyTGSContactPrep.obj
 0001:000bf170       ?solveExt1D@Dy@physx@@YAXAEBUPxSolverConstraintDesc@2@AEAT__m128@@111AEBT4@22222M1111@Z 00000001800c0170 f   LowLevelDynamics_static_64:DyTGSContactPrep.obj
 0001:000bf690       ?solveExt1DBlock@Dy@physx@@YAXAEBUPxConstraintBatchHeader@2@PEBUPxSolverConstraintDesc@2@QEBUPxTGSSolverBodyTxInertia@2@MMAEAUSolverContext@12@@Z 00000001800c0690 f   LowLevelDynamics_static_64:DyTGSContactPrep.obj
 0001:000bf720       ?solveExt1DStep@Dy@physx@@YAXAEBUPxSolverConstraintDesc@2@MAEAUSolverContext@12@QEBUPxTGSSolverBodyTxInertia@2@@Z 00000001800c0720 f   LowLevelDynamics_static_64:DyTGSContactPrep.obj
 0001:000bfb90       ?solveExtContactBlock@Dy@physx@@YAXAEBUPxConstraintBatchHeader@2@PEBUPxSolverConstraintDesc@2@QEBUPxTGSSolverBodyTxInertia@2@MMAEAUSolverContext@12@@Z 00000001800c0b90 f   LowLevelDynamics_static_64:DyTGSContactPrep.obj
 0001:000bfc20       ?solveExtContactStep@Dy@physx@@YAXAEBUPxSolverConstraintDesc@2@AEAT__m128@@11111111111_NMM@Z 00000001800c0c20 f   LowLevelDynamics_static_64:DyTGSContactPrep.obj
 0001:000c0360       ?solveExtContactStep@Dy@physx@@YAXAEBUPxSolverConstraintDesc@2@_NMMAEAUSolverContext@12@@Z 00000001800c1360 f   LowLevelDynamics_static_64:DyTGSContactPrep.obj
 0001:000c0730       ?writeBack1D@Dy@physx@@YAXAEBUPxConstraintBatchHeader@2@PEBUPxSolverConstraintDesc@2@PEAUSolverContext@12@@Z 00000001800c1730 f   LowLevelDynamics_static_64:DyTGSContactPrep.obj
 0001:000c0790       ?writeBack1D@Dy@physx@@YAXAEBUPxSolverConstraintDesc@2@@Z 00000001800c1790 f   LowLevelDynamics_static_64:DyTGSContactPrep.obj
 0001:000c0cf0       ?writeBackContact@Dy@physx@@YAXAEBUPxConstraintBatchHeader@2@PEBUPxSolverConstraintDesc@2@PEAUSolverContext@12@@Z 00000001800c1cf0 f   LowLevelDynamics_static_64:DyTGSContactPrep.obj
 0001:000c0d50       ?writeBackContact@Dy@physx@@YAXAEBUPxSolverConstraintDesc@2@PEAUSolverContext@12@@Z 00000001800c1d50 f   LowLevelDynamics_static_64:DyTGSContactPrep.obj
 0001:000c0e60       ?computeBlockStreamByteSizes4@Dy@physx@@YAXPEAUPxTGSSolverContactDesc@2@AEAIPEAIAEBUCorrelationBuffer@12@@Z 00000001800c1e60 f   LowLevelDynamics_static_64:DyTGSContactPrepBlock.obj
 0001:000c1170       ?createFinalizeSolverContacts4Step@Dy@physx@@YA?AW4Enum@SolverConstraintPrepState@12@AEAUCorrelationBuffer@12@PEAUPxTGSSolverContactDesc@2@MMMMMMAEAVPxConstraintAllocator@2@@Z 00000001800c2170 f   LowLevelDynamics_static_64:DyTGSContactPrepBlock.obj
 0001:000c1ae0       ?createFinalizeSolverContacts4Step@Dy@physx@@YA?AW4Enum@SolverConstraintPrepState@12@PEAPEAUPxsContactManagerOutput@2@AEAVThreadContext@12@PEAUPxTGSSolverContactDesc@2@MMMMMMAEAVPxConstraintAllocator@2@@Z 00000001800c2ae0 f   LowLevelDynamics_static_64:DyTGSContactPrepBlock.obj
 0001:000c5430       ?setupSolverConstraintStep4@Dy@physx@@YA?AW4Enum@SolverConstraintPrepState@12@PEIAUPxTGSSolverConstraintPrepDesc@2@MMMMAEAIAEAVPxConstraintAllocator@2@IM@Z 00000001800c6430 f   LowLevelDynamics_static_64:DyTGSContactPrepBlock.obj
 0001:000c6e80       ?setupSolverConstraintStep4@Dy@physx@@YA?AW4Enum@SolverConstraintPrepState@12@PEIAUSolverConstraintShaderPrepDesc@12@PEIAUPxTGSSolverConstraintPrepDesc@2@MMMMAEAIAEAVPxConstraintAllocator@2@M@Z 00000001800c7e80 f   LowLevelDynamics_static_64:DyTGSContactPrepBlock.obj
 0001:000c70b0       ?solve1D4@Dy@physx@@YAXAEBUPxConstraintBatchHeader@2@PEIBUPxSolverConstraintDesc@2@QEBUPxTGSSolverBodyTxInertia@2@MMAEAUSolverContext@12@@Z 00000001800c80b0 f   LowLevelDynamics_static_64:DyTGSContactPrepBlock.obj
 0001:000c70d0       ?solve1DStep4@Dy@physx@@YAXPEIBUPxSolverConstraintDesc@2@QEBUPxTGSSolverBodyTxInertia@2@M@Z 00000001800c80d0 f   LowLevelDynamics_static_64:DyTGSContactPrepBlock.obj
 0001:000c8850       ?solveConclude1D4@Dy@physx@@YAXAEBUPxConstraintBatchHeader@2@PEBUPxSolverConstraintDesc@2@QEBUPxTGSSolverBodyTxInertia@2@MAEAUSolverContext@12@@Z 00000001800c9850 f   LowLevelDynamics_static_64:DyTGSContactPrepBlock.obj
