 PhysXCooking_64

 Timestamp is 63f4921f (Tue Feb 21 10:42:55 2023)

 Preferred load address is 0000000180000000

 Start         Length     Name                   Class
 0001:00000000 000003c0H .text$di                CODE
 0001:000003c0 000287f0H .text$mn                CODE
 0001:00028bb0 00000036H .text$mn$00             CODE
 0001:00028be6 00000092H .text$x                 CODE
 0002:00000000 00000180H .idata$5                DATA
 0002:00000180 00000038H .00cfg                  DATA
 0002:000001b8 00000008H .CRT$XCA                DATA
 0002:000001c0 000001e0H .CRT$XCU                DATA
 0002:000003a0 00000008H .CRT$XCZ                DATA
 0002:000003a8 00000008H .CRT$XIA                DATA
 0002:000003b0 00000008H .CRT$XIZ                DATA
 0002:000003b8 00000008H .CRT$XPA                DATA
 0002:000003c0 00000008H .CRT$XPZ                DATA
 0002:000003c8 00000008H .CRT$XTA                DATA
 0002:000003d0 00000010H .CRT$XTZ                DATA
 0002:000003d8 00000000H .gehcont$y              DATA
 0002:000003d8 00000000H .gfids$y                DATA
 0002:000003e0 00001fa0H .rdata                  DATA
 0002:00002380 00000000H .rdata$CastGuardVftablesA DATA
 0002:00002380 00000000H .rdata$CastGuardVftablesC DATA
 0002:00002380 00000074H .rdata$r                DATA
 0002:000023f4 000000a4H .rdata$voltmd           DATA
 0002:00002498 000003b8H .rdata$zzzdbg           DATA
 0002:00002850 00000008H .rtc$IAA                DATA
 0002:00002858 00000008H .rtc$IZZ                DATA
 0002:00002860 00000008H .rtc$TAA                DATA
 0002:00002868 00000008H .rtc$TZZ                DATA
 0002:00002870 00002c08H .xdata                  DATA
 0002:00005478 00000040H .didat$2                DATA
 0002:000054b8 00000020H .didat$3                DATA
 0002:000054d8 000001b0H .didat$4                DATA
 0002:00005688 00000a50H .didat$6                DATA
 0002:000060d8 000001b8H .didat$7                DATA
 0002:00006290 00001d34H .edata                  DATA
 0002:00007fc4 00000078H .idata$2                DATA
 0002:0000803c 00000014H .idata$3                DATA
 0002:00008050 00000180H .idata$4                DATA
 0002:000081d0 000003d4H .idata$6                DATA
 0003:00000000 00000068H .data                   DATA
 0003:00000068 00000308H .data$r                 DATA
 0003:00000370 00000020H .data$rs                DATA
 0003:00000390 000001b0H .didat$5                DATA
 0003:00000540 00000490H .bss                    DATA
 0004:00000000 00001d34H .pdata                  DATA
 0005:00000000 00002208H _RDATA                  DATA
 0006:00000000 000000a0H .rsrc$01                DATA
 0006:000000a0 000004b0H .rsrc$02                DATA

  Address         Publics by Value              Rva+Base               Lib:Object

 0000:00000000       __AbsoluteZero             0000000000000000     <absolute>
 0000:00000000       ___safe_se_handler_count   0000000000000000     <absolute>
 0000:00000000       ___safe_se_handler_table   0000000000000000     <absolute>
 0000:00000000       __arm64x_extra_rfe_table   0000000000000000     <absolute>
 0000:00000000       __arm64x_extra_rfe_table_size 0000000000000000     <absolute>
 0000:00000000       __arm64x_native_entrypoint 0000000000000000     <absolute>
 0000:00000000       __arm64x_redirection_metadata 0000000000000000     <absolute>
 0000:00000000       __arm64x_redirection_metadata_count 0000000000000000     <absolute>
 0000:00000000       __dynamic_value_reloc_table 0000000000000000     <absolute>
 0000:00000000       __enclave_config           0000000000000000     <absolute>
 0000:00000000       __guard_check_icall_a64n_fptr 0000000000000000     <absolute>
 0000:00000000       __guard_eh_cont_count      0000000000000000     <absolute>
 0000:00000000       __guard_eh_cont_table      0000000000000000     <absolute>
 0000:00000000       __guard_fids_count         0000000000000000     <absolute>
 0000:00000000       __guard_fids_table         0000000000000000     <absolute>
 0000:00000000       __guard_iat_count          0000000000000000     <absolute>
 0000:00000000       __guard_iat_table          0000000000000000     <absolute>
 0000:00000000       __guard_longjmp_count      0000000000000000     <absolute>
 0000:00000000       __guard_longjmp_table      0000000000000000     <absolute>
 0000:00000000       __hybrid_auxiliary_iat     0000000000000000     <absolute>
 0000:00000000       __hybrid_auxiliary_iat_copy 0000000000000000     <absolute>
 0000:00000000       __hybrid_code_map          0000000000000000     <absolute>
 0000:00000000       __hybrid_code_map_count    0000000000000000     <absolute>
 0000:00000000       __x64_code_ranges_to_entry_points 0000000000000000     <absolute>
 0000:00000000       __x64_code_ranges_to_entry_points_count 0000000000000000     <absolute>
 0000:00000100       __guard_flags              0000000000000100     <absolute>
 0000:00000000       __ImageBase                0000000180000000     <linker-defined>
 0001:000003c0       ??$?_UV?$ReflectionAllocator@VAdjTriangle@physx@@@shdfnd@physx@@@UserAllocated@shdfnd@physx@@SAPEAX_KV?$ReflectionAllocator@VAdjTriangle@physx@@@12@PEBDH@Z 00000001800013c0 f i Adjacencies.obj
 0001:00000460       ??0AdjacenciesBuilder@physx@@QEAA@XZ 0000000180001460 f   Adjacencies.obj
 0001:00000470       ??0AABBTreeBuildNode@Gu@physx@@QEAA@XZ 0000000180001470 f i BVHStructureBuilder.obj
 0001:00000470       ??0Allocator@shdfnd@physx@@QEAA@PEBD@Z 0000000180001470 f i Adjacencies.obj
 0001:00000470       ??0BigConvexData@physx@@QEAA@W4PxEMPTY@1@@Z 0000000180001470 f i BigConvexDataBuilder.obj
 0001:00000470       ??0Box@Gu@physx@@QEAA@XZ   0000000180001470 f i ConvexHullUtils.obj
 0001:00000470       ??0HeightFieldData@Gu@physx@@QEAA@W4PxEMPTY@2@@Z 0000000180001470 f i Cooking.obj
 0001:00000470       ??4Allocator@shdfnd@physx@@QEAAAEAV012@$$QEAV012@@Z 0000000180001470 f i Adjacencies.obj
 0001:00000470       ??4Allocator@shdfnd@physx@@QEAAAEAV012@AEBV012@@Z 0000000180001470 f i Adjacencies.obj
 0001:00000470       ??4MutexImpl@shdfnd@physx@@QEAAAEAV012@AEBV012@@Z 0000000180001470 f i Adjacencies.obj
 0001:00000470       ??4PxFoundation@physx@@QEAAAEAV01@AEBV01@@Z 0000000180001470 f i Adjacencies.obj
 0001:00000470       ?getAABB@AABBTreeBuildNode@Gu@physx@@QEBAAEBVPxBounds3@3@XZ 0000000180001470 f i BVHStructureBuilder.obj
 0001:00000470       ?getPaddedBounds@HeightFieldData@Gu@physx@@QEBAAEBVCenterExtentsPadded@23@XZ 0000000180001470 f i Cooking.obj
 0001:00000480       ??0PxFoundation@physx@@QEAA@AEBV01@@Z 0000000180001480 f i Adjacencies.obj
 0001:00000480       ??0PxFoundation@physx@@QEAA@XZ 0000000180001480 f i Adjacencies.obj
 0001:00000490       ??1Adjacencies@physx@@QEAA@XZ 0000000180001490 f   Adjacencies.obj
 0001:00000500       ??1AdjacenciesBuilder@physx@@QEAA@XZ 0000000180001500 f   Adjacencies.obj
 0001:00000510       ??1PxFoundation@physx@@MEAA@XZ 0000000180001510 f i Adjacencies.obj
 0001:00000520       ??_EPxFoundation@physx@@MEAAPEAXI@Z 0000000180001520 f i Adjacencies.obj
 0001:000005b0       ??1AABBTreeBuildNode@Gu@physx@@QEAA@XZ 00000001800015b0 f i BVHStructureBuilder.obj
 0001:000005b0       ??1BigConvexDataBuilder@physx@@QEAA@XZ 00000001800015b0 f i BigConvexDataBuilder.obj
 0001:000005b0       ??1Box@Gu@physx@@QEAA@XZ   00000001800015b0 f i ConvexHullUtils.obj
 0001:000005b0       ??1HeightFieldData@Gu@physx@@QEAA@XZ 00000001800015b0 f i Cooking.obj
 0001:000005b0       ??_FAllocator@shdfnd@physx@@QEAAXXZ 00000001800015b0 f i Adjacencies.obj
 0001:000005b0       ?onMeshIndexFormatChange@TriangleMeshBuilder@physx@@UEAAXXZ 00000001800015b0 f i TriangleMeshBuilder.obj
 0001:000005b0       _guard_check_icall_nop     00000001800015b0 f i MSVCRT:guard_support.obj
 0001:000005c0       ??_FNamedAllocator@shdfnd@physx@@QEAAXXZ 00000001800015c0 f i Adjacencies.obj
 0001:000006d0       ?ComputeNbBoundaryEdges@Adjacencies@physx@@QEBAIXZ 00000001800016d0 f   Adjacencies.obj
 0001:000009b0       ?GetNbHits@RadixSort@Cm@physx@@QEBAIXZ 00000001800019b0 f i Adjacencies.obj
 0001:000009c0       ?GetNbTotalCalls@RadixSort@Cm@physx@@QEBAIXZ 00000001800019c0 f i Adjacencies.obj
 0001:000009d0       ?GetRanks@RadixSort@Cm@physx@@QEBAPEBIXZ 00000001800019d0 f i Adjacencies.obj
 0001:000009d0       ?getErrorCallback@Foundation@shdfnd@physx@@UEAAAEAVPxErrorCallback@3@XZ 00000001800019d0 f i Adjacencies.obj
 0001:000009e0       ?GetRecyclable@RadixSort@Cm@physx@@QEBAPEAIXZ 00000001800019e0 f i Adjacencies.obj
 0001:000009e0       ?GetValencies@BigConvexData@physx@@QEBAPEBUValency@Gu@2@XZ 00000001800019e0 f i BigConvexDataBuilder.obj
 0001:000009e0       ?getPos@AABBTreeBuildNode@Gu@physx@@QEBAPEBV123@XZ 00000001800019e0 f i BVHStructureBuilder.obj
 0001:000009f0       ?Init@AdjacenciesBuilder@physx@@QEAA_NAEBUADJACENCIESCREATE@2@@Z 00000001800019f0 f   Adjacencies.obj
 0001:00000f30       ?getAllocator@Foundation@shdfnd@physx@@QEAAAEAVPxAllocatorCallback@3@XZ 0000000180001f30 f i Adjacencies.obj
 0001:00000f40       ?getAllocatorCallback@Foundation@shdfnd@physx@@UEAAAEAVPxAllocatorCallback@3@XZ 0000000180001f40 f i Adjacencies.obj
 0001:00000f50       ?getErrorLevel@Foundation@shdfnd@physx@@UEBA?AW4Enum@PxErrorCode@3@XZ 0000000180001f50 f i Adjacencies.obj
 0001:00000f60       ?getInternalErrorCallback@Foundation@shdfnd@physx@@QEAAAEAVPxErrorCallback@3@XZ 0000000180001f60 f i Adjacencies.obj
 0001:00000f70       ?getNamedAllocMap@Foundation@shdfnd@physx@@QEAAAEAV?$HashMap@PEBVNamedAllocator@shdfnd@physx@@PEBDU?$Hash@PEBVNamedAllocator@shdfnd@physx@@@23@VNonTrackingAllocator@23@@23@XZ 0000000180001f70 f i Adjacencies.obj
 0001:00000f80       ?getNamedAllocMutex@Foundation@shdfnd@physx@@QEAAAEAV?$MutexT@VAllocator@shdfnd@physx@@@23@XZ 0000000180001f80 f i Adjacencies.obj
 0001:00000f90       ?getReportAllocationNames@Foundation@shdfnd@physx@@UEBA_NXZ 0000000180001f90 f i Adjacencies.obj
 0001:00000fa0       ?getTempAllocFreeTable@Foundation@shdfnd@physx@@QEAAAEAV?$Array@PEATTempAllocatorChunk@shdfnd@physx@@VAllocator@23@@23@XZ 0000000180001fa0 f i Adjacencies.obj
 0001:00000fb0       ?getTempAllocMutex@Foundation@shdfnd@physx@@QEAAAEAV?$MutexT@VAllocator@shdfnd@physx@@@23@XZ 0000000180001fb0 f i Adjacencies.obj
 0001:00000fc0       ?invalidateRanks@RadixSort@Cm@physx@@QEAAXXZ 0000000180001fc0 f i Adjacencies.obj
 0001:00000fd0       ?setErrorLevel@Foundation@shdfnd@physx@@UEAAXW4Enum@PxErrorCode@3@@Z 0000000180001fd0 f i Adjacencies.obj
 0001:00000fe0       ?setReportAllocationNames@Foundation@shdfnd@physx@@UEAAX_N@Z 0000000180001fe0 f i Adjacencies.obj
 0001:00000ff0       ??0DebugText@Cm@physx@@QEAA@$$QEAU012@@Z 0000000180001ff0 f i Cooking.obj
 0001:00000ff0       ??0DebugText@Cm@physx@@QEAA@AEBU012@@Z 0000000180001ff0 f i Cooking.obj
 0001:000010d0       ??0HeightFieldData@Gu@physx@@QEAA@$$QEAU012@@Z 00000001800020d0 f i Cooking.obj
 0001:000010d0       ??0HeightFieldData@Gu@physx@@QEAA@AEBU012@@Z 00000001800020d0 f i Cooking.obj
 0001:000010d0       ??4HeightFieldData@Gu@physx@@QEAAAEAU012@$$QEAU012@@Z 00000001800020d0 f i Cooking.obj
 0001:000010d0       ??4HeightFieldData@Gu@physx@@QEAAAEAU012@AEBU012@@Z 00000001800020d0 f i Cooking.obj
 0001:00001130       ??0HeightFieldData@Gu@physx@@QEAA@XZ 0000000180002130 f i Cooking.obj
 0001:00001140       ??0RenderOutput@Cm@physx@@QEAA@AEAVRenderBuffer@12@@Z 0000000180002140 f i Cooking.obj
 0001:00001190       ??0RenderOutput@Cm@physx@@QEAA@AEBV012@@Z 0000000180002190 f i Cooking.obj
 0001:00001230       ??1PxConvexMesh@physx@@MEAA@XZ 0000000180002230 f i Cooking.obj
 0001:00001230       ??1PxHeightField@physx@@MEAA@XZ 0000000180002230 f i Cooking.obj
 0001:00001240       ??4DebugText@Cm@physx@@QEAAAEAU012@$$QEAU012@@Z 0000000180002240 f i Cooking.obj
 0001:00001240       ??4DebugText@Cm@physx@@QEAAAEAU012@AEBU012@@Z 0000000180002240 f i Cooking.obj
 0001:00001370       ??4FPUGuard@shdfnd@physx@@QEAAAEAV012@AEBV012@@Z 0000000180002370 f i Cooking.obj
 0001:00001390       ??_ECooking@physx@@UEAAPEAXI@Z 0000000180002390 f i Cooking.obj
 0001:00001390       ??_GCooking@physx@@UEAAPEAXI@Z 0000000180002390 f i Cooking.obj
 0001:000013e0       ??_EPxBase@physx@@MEAAPEAXI@Z 00000001800023e0 f i Cooking.obj
 0001:000013e0       ??_GPxBase@physx@@MEAAPEAXI@Z 00000001800023e0 f i Cooking.obj
 0001:00001410       ??_EPxCooking@physx@@MEAAPEAXI@Z 0000000180002410 f i Cooking.obj
 0001:00001410       ??_GPxCooking@physx@@MEAAPEAXI@Z 0000000180002410 f i Cooking.obj
 0001:00001440       ?computeHullPolygons@Cooking@physx@@UEBA_NAEBVPxSimpleTriangleMesh@2@AEAVPxAllocatorCallback@2@AEAIAEAPEAVPxVec3@2@2AEAPEAI2AEAPEAUPxHullPolygon@2@@Z 0000000180002440 f   Cooking.obj
 0001:00001620       ?cookBVHStructure@Cooking@physx@@UEBA_NAEBVPxBVHStructureDesc@2@AEAVPxOutputStream@2@@Z 0000000180002620 f   Cooking.obj
 0001:00001700       ?cookConvexMesh@Cooking@physx@@UEBA_NAEBVPxConvexMeshDesc@2@AEAVPxOutputStream@2@PEAW4Enum@PxConvexMeshCookingResult@2@@Z 0000000180002700 f   Cooking.obj
 0001:000018e0       ?cookConvexMeshInternal@Cooking@physx@@AEBA_NAEBVPxConvexMeshDesc@2@AEAVConvexMeshBuilder@2@PEAVConvexHullLib@2@PEAW4Enum@PxConvexMeshCookingResult@2@@Z 00000001800028e0 f   Cooking.obj
 0001:00001b50       ?cookHeightField@Cooking@physx@@UEBA_NAEBVPxHeightFieldDesc@2@AEAVPxOutputStream@2@@Z 0000000180002b50 f   Cooking.obj
 0001:00001c50       ?cookTriangleMesh@Cooking@physx@@UEBA_NAEBVPxTriangleMeshDesc@2@AEAVPxOutputStream@2@PEAW4Enum@PxTriangleMeshCookingResult@2@@Z 0000000180002c50 f   Cooking.obj
 0001:00001d90       ?copy@?$Array@UPxDebugLine@physx@@VNamedAllocator@shdfnd@2@@shdfnd@physx@@KAXPEAUPxDebugLine@3@0PEBU43@@Z 0000000180002d90 f i Cooking.obj
 0001:00001f40       ?createBVHStructure@Cooking@physx@@UEBAPEAVPxBVHStructure@2@AEBVPxBVHStructureDesc@2@AEAVPxPhysicsInsertionCallback@2@@Z 0000000180002f40 f   Cooking.obj
 0001:00002020       ?createConvexMesh@Cooking@physx@@UEBAPEAVPxConvexMesh@2@AEBVPxConvexMeshDesc@2@AEAVPxPhysicsInsertionCallback@2@PEAW4Enum@PxConvexMeshCookingResult@2@@Z 0000000180003020 f   Cooking.obj
 0001:00002220       ?createHeightField@Cooking@physx@@UEBAPEAVPxHeightField@2@AEBVPxHeightFieldDesc@2@AEAVPxPhysicsInsertionCallback@2@@Z 0000000180003220 f   Cooking.obj
 0001:000023e0       ?createTriangleMesh@Cooking@physx@@UEBAPEAVPxTriangleMesh@2@AEBVPxTriangleMeshDesc@2@AEAVPxPhysicsInsertionCallback@2@PEAW4Enum@PxTriangleMeshCookingResult@2@@Z 00000001800033e0 f   Cooking.obj
 0001:00002530       ?getConcreteTypeName@PxConvexMesh@physx@@UEBAPEBDXZ 0000000180003530 f i Cooking.obj
 0001:00002540       ?getConcreteTypeName@PxHeightField@physx@@UEBAPEBDXZ 0000000180003540 f i Cooking.obj
 0001:00002550       ?getConvexEdgeThreshold@HeightField@Gu@physx@@UEBAMXZ 0000000180003550 f i Cooking.obj
 0001:00002560       ?getFlags@HeightField@Gu@physx@@UEBA?AV?$PxFlags@W4Enum@PxHeightFieldFlag@physx@@G@3@XZ 0000000180003560 f i Cooking.obj
 0001:00002570       ?getFormat@HeightField@Gu@physx@@UEBA?AW4Enum@PxHeightFieldFormat@3@XZ 0000000180003570 f i Cooking.obj
 0001:00002580       ?getHeight@HeightField@Gu@physx@@UEBAMMM@Z 0000000180003580 f i Cooking.obj
 0001:000025c0       ?getHeightInternal2@HeightField@Gu@physx@@QEBAMIMM@Z 00000001800035c0 f i Cooking.obj
 0001:00002730       ?getIndexBuffer@ConvexMesh@Gu@physx@@UEBAPEBEXZ 0000000180003730 f i Cooking.obj
 0001:00002770       ?getNbColumns@HeightField@Gu@physx@@UEBAIXZ 0000000180003770 f i Cooking.obj
 0001:00002780       ?getNbPolygons@ConvexMesh@Gu@physx@@UEBAIXZ 0000000180003780 f i Cooking.obj
 0001:00002790       ?getNbRows@HeightField@Gu@physx@@UEBAIXZ 0000000180003790 f i Cooking.obj
 0001:000027a0       ?getNbVertices@ConvexMesh@Gu@physx@@UEBAIXZ 00000001800037a0 f i Cooking.obj
 0001:000027b0       ?getDenormalizeScale@QuantizerImpl@@UEBAAEBVPxVec3@physx@@XZ 00000001800037b0 f   Quantizer.obj
 0001:000027b0       ?getParams@Cooking@physx@@UEBAAEBUPxCookingParams@2@XZ 00000001800037b0 f   Cooking.obj
 0001:000027c0       ?getSample@HeightField@Gu@physx@@UEBAAEBUPxHeightFieldSample@3@II@Z 00000001800037c0 f i Cooking.obj
 0001:000027d0       ?getSampleStride@HeightField@Gu@physx@@UEBAIXZ 00000001800037d0 f i Cooking.obj
 0001:000027e0       ?getTimestamp@HeightField@Gu@physx@@UEBAIXZ 00000001800037e0 f i Cooking.obj
 0001:000027f0       ?getTriangleMaterialIndex@HeightField@Gu@physx@@UEBAGI@Z 00000001800037f0 f i Cooking.obj
 0001:00002820       ?getTriangleNormal@HeightField@Gu@physx@@UEBA?AVPxVec3@3@I@Z 0000000180003820 f i Cooking.obj
 0001:00002840       ?getTriangleNormalInternal@HeightField@Gu@physx@@QEBA?AVPxVec3@3@I@Z 0000000180003840 f i Cooking.obj
 0001:00002990       ?getVertices@ConvexMesh@Gu@physx@@UEBAPEBVPxVec3@3@XZ 0000000180003990 f i Cooking.obj
 0001:000029b0       ?isKindOf@PxBase@physx@@MEBA_NPEBD@Z 00000001800039b0 f i Cooking.obj
 0001:000029e0       ?isKindOf@PxConvexMesh@physx@@MEBA_NPEBD@Z 00000001800039e0 f i Cooking.obj
 0001:00002a30       ?isKindOf@PxHeightField@physx@@MEBA_NPEBD@Z 0000000180003a30 f i Cooking.obj
 0001:00002a80       ?isReleasable@PxBase@physx@@UEBA_NXZ 0000000180003a80 f i Cooking.obj
 0001:00002a90       ?outputSegment@RenderOutput@Cm@physx@@QEAAXAEBVPxVec3@3@0@Z 0000000180003a90 f i Cooking.obj
 0001:00002b50       ?platformMismatch@Cooking@physx@@UEBA_NXZ 0000000180003b50 f   Cooking.obj
 0001:00002b60       ?preExportDataReset@ConvexMesh@Gu@physx@@QEAAXXZ 0000000180003b60 f i Cooking.obj
 0001:00002b60       ?preExportDataReset@HeightField@Gu@physx@@QEAAXXZ 0000000180003b60 f i Cooking.obj
 0001:00002b70       ?recreate@?$Array@UPxDebugLine@physx@@VNamedAllocator@shdfnd@2@@shdfnd@physx@@IEAAXI@Z 0000000180003b70 f i Cooking.obj
 0001:00002c10       ?release@Cooking@physx@@UEAAXXZ 0000000180003c10 f   Cooking.obj
 0001:00002c30       ?reserveSegments@RenderOutput@Cm@physx@@QEAAPEAUPxDebugLine@3@I@Z 0000000180003c30 f i Cooking.obj
 0001:00002c90       ?setParams@Cooking@physx@@UEAAXAEBUPxCookingParams@2@@Z 0000000180003c90 f   Cooking.obj
 0001:00002cf0       ?validateConvexMesh@Cooking@physx@@UEBA_NAEBVPxConvexMeshDesc@2@@Z 0000000180003cf0 f   Cooking.obj
 0001:00002d50       ?validateTriangleMesh@Cooking@physx@@UEBA_NAEBVPxTriangleMeshDesc@2@@Z 0000000180003d50 f   Cooking.obj
 0001:00002e60       PxCreateCooking            0000000180003e60 f   Cooking.obj
 0001:00002f50       ??0ReducedVertexCloud@physx@@QEAA@PEBVPxVec3@1@I@Z 0000000180003f50 f   CookingUtils.obj
 0001:00002f70       ??1ReducedVertexCloud@physx@@QEAA@XZ 0000000180003f70 f   CookingUtils.obj
 0001:00002f80       ?Clean@ReducedVertexCloud@physx@@QEAAAEAV12@XZ 0000000180003f80 f   CookingUtils.obj
 0001:00002ff0       ?Reduce@ReducedVertexCloud@physx@@QEAA_NPEAUREDUCEDCLOUD@2@@Z 0000000180003ff0 f   CookingUtils.obj
 0001:00003300       ??$?_UI@@YAPEAX_KV?$ReflectionAllocator@I@shdfnd@physx@@PEBDH@Z 0000000180004300 f i EdgeList.obj
 0001:000033a0       ??0EdgeListBuilder@Gu@physx@@QEAA@XZ 00000001800043a0 f   EdgeList.obj
 0001:000033c0       ??1EdgeList@Gu@physx@@QEAA@XZ 00000001800043c0 f   EdgeList.obj
 0001:00003460       ??1EdgeListBuilder@Gu@physx@@QEAA@XZ 0000000180004460 f   EdgeList.obj
 0001:00003470       ?computeActiveEdges@EdgeListBuilder@Gu@physx@@AEAA_NIPEBIPEBGPEBVPxVec3@3@M@Z 0000000180004470 f   EdgeList.obj
 0001:00004ac0       ?createEdgesToFaces@EdgeListBuilder@Gu@physx@@AEAA_NIPEBIPEBG@Z 0000000180005ac0 f   EdgeList.obj
 0001:00004d20       ?createFacesToEdges@EdgeListBuilder@Gu@physx@@AEAA_NIPEBIPEBG@Z 0000000180005d20 f   EdgeList.obj
 0001:00005150       ?init@EdgeListBuilder@Gu@physx@@QEAA_NAEBUEDGELISTCREATE@23@@Z 0000000180006150 f   EdgeList.obj
 0001:00005270       ??0MeshCleaner@physx@@QEAA@IPEBVPxVec3@1@IPEBIM@Z 0000000180006270 f   MeshCleaner.obj
 0001:00005c10       ??1MeshCleaner@physx@@QEAA@XZ 0000000180006c10 f   MeshCleaner.obj
 0001:00005ca0       ??$kmeans_cluster@VPxVec3@physx@@M@@YAIPEBVPxVec3@physx@@IIPEAV01@PEAIMM@Z 0000000180006ca0 f i Quantizer.obj
 0001:00006620       ??_EQuantizer@physx@@MEAAPEAXI@Z 0000000180007620 f i Quantizer.obj
 0001:00006620       ??_GQuantizer@physx@@MEAAPEAXI@Z 0000000180007620 f i Quantizer.obj
 0001:00006650       ??_EQuantizerImpl@@EEAAPEAXI@Z 0000000180007650 f i Quantizer.obj
 0001:00006650       ??_GQuantizerImpl@@EEAAPEAXI@Z 0000000180007650 f i Quantizer.obj
 0001:00006720       ?createQuantizer@physx@@YAPEAVQuantizer@1@XZ 0000000180007720 f   Quantizer.obj
 0001:00006840       ?getDenormalizeCenter@QuantizerImpl@@UEBAAEBVPxVec3@physx@@XZ 0000000180007840 f i Quantizer.obj
 0001:00006850       ?growAndPushBack@?$Array@VPxVec3@physx@@VNamedAllocator@shdfnd@2@@shdfnd@physx@@IEAAAEAVPxVec3@3@AEBV43@@Z 0000000180007850 f i Quantizer.obj
 0001:00006a00       ?kmeansQuantize3D@QuantizerImpl@@UEAAPEBVPxVec3@physx@@IPEBV23@I_NIAEAI@Z 0000000180007a00 f i Quantizer.obj
 0001:00006c70       ?normalizeInput@QuantizerImpl@@AEAAXIPEBVPxVec3@physx@@I@Z 0000000180007c70 f i Quantizer.obj
 0001:000070c0       ?release@QuantizerImpl@@UEAAXXZ 00000001800080c0 f i Quantizer.obj
 0001:000070e0       ??$copy@VNamedAllocator@shdfnd@physx@@@?$Array@USlab@NodeAllocator@Gu@physx@@VNamedAllocator@shdfnd@4@@shdfnd@physx@@IEAAXAEBV012@@Z 00000001800080e0 f i BVHStructureBuilder.obj
 0001:00007160       ??0AABBTreeBuildNode@Gu@physx@@QEAA@AEBV012@@Z 0000000180008160 f i BVHStructureBuilder.obj
 0001:00007160       ??4AABBTreeBuildNode@Gu@physx@@QEAAAEAV012@AEBV012@@Z 0000000180008160 f i BVHStructureBuilder.obj
 0001:000071a0       ??0AABBTreeBuildParams@Gu@physx@@QEAA@IIPEBVPxBounds3@2@@Z 00000001800081a0 f i BVHStructureBuilder.obj
 0001:000071c0       ??0BVHStructureBuilder@physx@@QEAA@XZ 00000001800081c0 f   BVHStructureBuilder.obj
 0001:000071e0       ??0BuildStats@Gu@physx@@QEAA@XZ 00000001800081e0 f i BVHStructureBuilder.obj
 0001:000071f0       ??0NodeAllocator@Gu@physx@@QEAA@AEBV012@@Z 00000001800081f0 f i BVHStructureBuilder.obj
 0001:00007260       ??1AABBTreeBuildParams@Gu@physx@@QEAA@XZ 0000000180008260 f i BVHStructureBuilder.obj
 0001:00007260       ?reset@AABBTreeBuildParams@Gu@physx@@QEAAXXZ 0000000180008260 f i BVHStructureBuilder.obj
 0001:000072c0       ??1BVHStructureBuilder@physx@@QEAA@XZ 00000001800082c0 f   BVHStructureBuilder.obj
 0001:00007340       ??4AABBTreeBuildParams@Gu@physx@@QEAAAEAV012@AEBV012@@Z 0000000180008340 f i BVHStructureBuilder.obj
 0001:00007360       ??4BuildStats@Gu@physx@@QEAAAEAU012@$$QEAU012@@Z 0000000180008360 f i BVHStructureBuilder.obj
 0001:00007370       ??4BuildStats@Gu@physx@@QEAAAEAU012@AEBU012@@Z 0000000180008370 f i BVHStructureBuilder.obj
 0001:00007380       ??4NodeAllocator@Gu@physx@@QEAAAEAV012@AEBV012@@Z 0000000180008380 f i BVHStructureBuilder.obj
 0001:00007430       ??_FAABBTreeBuildParams@Gu@physx@@QEAAXXZ 0000000180008430 f i BVHStructureBuilder.obj
 0001:00007450       ??_V@YAXPEAX_K@Z           0000000180008450 f i MSVCRT:delete_array_size.obj
 0001:00007450       ?__global_delete@@YAXPEAX_K@Z 0000000180008450 f i BVHStructureBuilder.obj
 0001:00007460       ?allocate@?$Array@USlab@NodeAllocator@Gu@physx@@VNamedAllocator@shdfnd@4@@shdfnd@physx@@IEAAPEAUSlab@NodeAllocator@Gu@3@I@Z 0000000180008460 f i BVHStructureBuilder.obj
 0001:000074c0       ?flatten@@YAXAEBVNodeAllocator@Gu@physx@@PEAUBVHNode@23@@Z 00000001800084c0 f   BVHStructureBuilder.obj
 0001:00007690       ?getCount@BuildStats@Gu@physx@@QEBAIXZ 0000000180008690 f i BVHStructureBuilder.obj
 0001:000076a0       ?getNbPrimitives@AABBTreeBuildNode@Gu@physx@@QEBAIXZ 00000001800086a0 f i BVHStructureBuilder.obj
 0001:000076a0       ?getNbRuntimePrimitives@AABBTreeBuildNode@Gu@physx@@QEBAIXZ 00000001800086a0 f i BVHStructureBuilder.obj
 0001:000076b0       ?getNeg@AABBTreeBuildNode@Gu@physx@@QEBAPEBV123@XZ 00000001800086b0 f i BVHStructureBuilder.obj
 0001:000076d0       ?getPrimitives@AABBTreeBuildNode@Gu@physx@@QEAAPEAIPEAI@Z 00000001800086d0 f i BVHStructureBuilder.obj
 0001:000076d0       ?getPrimitives@AABBTreeBuildNode@Gu@physx@@QEBAPEBIPEBI@Z 00000001800086d0 f i BVHStructureBuilder.obj
 0001:000076e0       ?increaseCount@BuildStats@Gu@physx@@QEAAXI@Z 00000001800086e0 f i BVHStructureBuilder.obj
 0001:000076f0       ?isLeaf@AABBTreeBuildNode@Gu@physx@@QEBA_NXZ 00000001800086f0 f i BVHStructureBuilder.obj
 0001:00007700       ?loadFromDesc@BVHStructureBuilder@physx@@QEAA_NAEBVPxBVHStructureDesc@2@@Z 0000000180008700 f   BVHStructureBuilder.obj
 0001:00007a10       ?moveData@BVHStructureBuilder@physx@@QEAAXAEAUBVHStructureData@Gu@2@@Z 0000000180008a10 f   BVHStructureBuilder.obj
 0001:00007a50       ?recreate@?$Array@USlab@NodeAllocator@Gu@physx@@VNamedAllocator@shdfnd@4@@shdfnd@physx@@IEAAXI@Z 0000000180008a50 f i BVHStructureBuilder.obj
 0001:00007b00       ?reset@BuildStats@Gu@physx@@QEAAXXZ 0000000180008b00 f i BVHStructureBuilder.obj
 0001:00007b10       ?save@BVHStructureBuilder@physx@@QEBA_NAEAVPxOutputStream@2@_N@Z 0000000180008b10 f   BVHStructureBuilder.obj
 0001:00007c90       ?setCount@BuildStats@Gu@physx@@QEAAXI@Z 0000000180008c90 f i BVHStructureBuilder.obj
 0001:00007ca0       ?setNbRunTimePrimitives@AABBTreeBuildNode@Gu@physx@@QEAAXI@Z 0000000180008ca0 f i BVHStructureBuilder.obj
 0001:00007cb0       ?saveHeightField@physx@@YA_NAEBVHeightField@Gu@1@AEAVPxOutputStream@1@_N@Z 0000000180008cb0 f   HeightFieldCooking.obj
 0001:00007ef0       ??$quickSelectFirstK@UBoundsLTE@physx@@@quickSelect@physx@@YAXPEIAIIIIAEBUBoundsLTE@1@@Z 0000000180008ef0 f i RTreeCooking.obj
 0001:000080d0       ??$smallSort@I$$CBUSortBoundsPredicate@physx@@@internal@shdfnd@physx@@YAXPEAIHHAEBUSortBoundsPredicate@2@@Z 00000001800090d0 f i RTreeCooking.obj
 0001:00008370       ??$sort@IU?$Less@I@shdfnd@physx@@VNamedAllocator@23@@shdfnd@physx@@YAXPEAIIAEBU?$Less@I@01@AEBVNamedAllocator@01@I@Z 0000000180009370 f i RTreeCooking.obj
 0001:00008730       ??$sort@IUSortBoundsPredicate@physx@@VNamedAllocator@shdfnd@2@@shdfnd@physx@@YAXPEAIIAEBUSortBoundsPredicate@1@AEBVNamedAllocator@01@I@Z 0000000180009730 f i RTreeCooking.obj
 0001:00008b80       ??0?$InlineArray@UInterval@physx@@$0EAA@VNamedAllocator@shdfnd@2@@shdfnd@physx@@QEAA@AEBVNamedAllocator@12@@Z 0000000180009b80 f i RTreeCooking.obj
 0001:00008c50       ?allocate@?$Array@UInterval@physx@@V?$InlineAllocator@$0CAAA@VNamedAllocator@shdfnd@physx@@@shdfnd@2@@shdfnd@physx@@IEAAPEAUInterval@3@I@Z 0000000180009c50 f i RTreeCooking.obj
 0001:00009ab0       ?buildFromTriangles@RTreeCooker@physx@@SAXAEAURTree@Gu@2@PEBVPxVec3@2@IPEBGPEBIIAEAV?$Array@IVNamedAllocator@shdfnd@physx@@@shdfnd@2@PEAURemapCallback@12@MW4Enum@PxMeshCookingHint@2@@Z 000000018000aab0 f   RTreeCooking.obj
 0001:00009d60       ?copy@?$Array@URTreeNodeNQ@physx@@VNamedAllocator@shdfnd@2@@shdfnd@physx@@KAXPEAURTreeNodeNQ@3@0PEBU43@@Z 000000018000ad60 f i RTreeCooking.obj
 0001:00009f20       ?copy@?$Array@VPxVec3@physx@@VNamedAllocator@shdfnd@2@@shdfnd@physx@@KAXPEAVPxVec3@3@0PEBV43@@Z 000000018000af20 f i RTreeCooking.obj
 0001:00009ff0       ?growAndPushBack@?$Array@IVNamedAllocator@shdfnd@physx@@@shdfnd@physx@@IEAAAEAIAEBI@Z 000000018000aff0 f i RTreeCooking.obj
 0001:00009ff0       ?growAndPushBack@?$Array@VHalfEdge@ConvexHull@physx@@VNamedAllocator@shdfnd@3@@shdfnd@physx@@IEAAAEAVHalfEdge@ConvexHull@3@AEBV453@@Z 000000018000aff0 f i ConvexHullUtils.obj
 0001:0000a0e0       ?growAndPushBack@?$Array@UInterval@physx@@V?$InlineAllocator@$0CAAA@VNamedAllocator@shdfnd@physx@@@shdfnd@2@@shdfnd@physx@@IEAAAEAUInterval@3@AEBU43@@Z 000000018000b0e0 f i RTreeCooking.obj
 0001:0000a1c0       ?growAndPushBack@?$Array@UPxBounds3V@physx@@VNamedAllocator@shdfnd@2@@shdfnd@physx@@IEAAAEAUPxBounds3V@3@AEBU43@@Z 000000018000b1c0 f i RTreeCooking.obj
 0001:0000a2d0       ?growAndPushBack@?$Array@URTreeNodeNQ@physx@@VNamedAllocator@shdfnd@2@@shdfnd@physx@@IEAAAEAURTreeNodeNQ@3@AEBU43@@Z 000000018000b2d0 f i RTreeCooking.obj
 0001:0000a3e0       ?growAndPushBack@?$Array@URTreeNodeQ@Gu@physx@@VNamedAllocator@shdfnd@3@@shdfnd@physx@@IEAAAEAURTreeNodeQ@Gu@3@AEBU453@@Z 000000018000b3e0 f i RTreeCooking.obj
 0001:0000a500       ?recreate@?$Array@IVNamedAllocator@shdfnd@physx@@@shdfnd@physx@@IEAAXI@Z 000000018000b500 f i RTreeCooking.obj
 0001:0000a500       ?recreate@?$Array@VHalfEdge@ConvexHull@physx@@VNamedAllocator@shdfnd@3@@shdfnd@physx@@IEAAXI@Z 000000018000b500 f i ConvexHullUtils.obj
 0001:0000a5b0       ?recreate@?$Array@UPxBounds3V@physx@@VNamedAllocator@shdfnd@2@@shdfnd@physx@@IEAAXI@Z 000000018000b5b0 f i RTreeCooking.obj
 0001:0000a670       ?recreate@?$Array@URTreeNodeNQ@physx@@VNamedAllocator@shdfnd@2@@shdfnd@physx@@IEAAXI@Z 000000018000b670 f i RTreeCooking.obj
 0001:0000a710       ?recreate@?$Array@URTreeNodeQ@Gu@physx@@VNamedAllocator@shdfnd@3@@shdfnd@physx@@IEAAXI@Z 000000018000b710 f i RTreeCooking.obj
 0001:0000a7d0       ?recreate@?$Array@VPxVec3@physx@@VNamedAllocator@shdfnd@2@@shdfnd@physx@@IEAAXI@Z 000000018000b7d0 f i RTreeCooking.obj
 0001:0000a870       ?resize@?$Array@IVNamedAllocator@shdfnd@physx@@@shdfnd@physx@@QEAAXIAEBI@Z 000000018000b870 f i RTreeCooking.obj
 0001:0000a930       ?resizeUninitialized@?$Array@URTreeNodeNQ@physx@@VNamedAllocator@shdfnd@2@@shdfnd@physx@@QEAAXI@Z 000000018000b930 f i RTreeCooking.obj
 0001:0000a970       ?sort4@SubSortQuick@physx@@QEAAXPEIAIIAEAV?$Array@URTreeNodeNQ@physx@@VNamedAllocator@shdfnd@2@@shdfnd@2@AEAIAEAUPxBounds3V@2@I@Z 000000018000b970 f i RTreeCooking.obj
 0001:0000ad00       ?sort4@SubSortSAH@physx@@QEAAXPEAIIAEAV?$Array@URTreeNodeNQ@physx@@VNamedAllocator@shdfnd@2@@shdfnd@2@AEAIIPEAURTreeNodeNQ@2@@Z 000000018000bd00 f i RTreeCooking.obj
 0001:0000b5b0       ?split@SubSortSAH@physx@@QEAAIPEAII@Z 000000018000c5b0 f i RTreeCooking.obj
 0001:0000c040       ?computeLocalBounds@MeshBulider@physx@@IEAAXAEAVMeshDataBase@Gu@2@@Z 000000018000d040 f   MeshBuilder.obj
 0001:0000c0d0       ??$?_UG@@YAPEAX_KV?$ReflectionAllocator@G@shdfnd@physx@@PEBDH@Z 000000018000d0d0 f i TriangleMeshBuilder.obj
 0001:0000c170       ??$sort@UEdgeTriLookup@physx@@U?$Less@UEdgeTriLookup@physx@@@shdfnd@2@VNamedAllocator@42@@shdfnd@physx@@YAXPEAUEdgeTriLookup@1@IAEBU?$Less@UEdgeTriLookup@physx@@@01@AEBVNamedAllocator@01@I@Z 000000018000d170 f i TriangleMeshBuilder.obj
 0001:0000c650       ??0BV4TriangleMeshBuilder@physx@@QEAA@AEBUPxCookingParams@1@@Z 000000018000d650 f   TriangleMeshBuilder.obj
 0001:0000c720       ??0RTreeTriangleMeshBuilder@physx@@QEAA@AEBUPxCookingParams@1@@Z 000000018000d720 f   TriangleMeshBuilder.obj
 0001:0000c7e0       ??1BV4TriangleMeshBuilder@physx@@UEAA@XZ 000000018000d7e0 f   TriangleMeshBuilder.obj
 0001:0000c840       ??1MeshDataBase@Gu@physx@@UEAA@XZ 000000018000d840 f i TriangleMeshBuilder.obj
 0001:0000c920       ??1RTreeTriangleData@Gu@physx@@UEAA@XZ 000000018000d920 f i TriangleMeshBuilder.obj
 0001:0000c990       ??1RTreeTriangleMeshBuilder@physx@@UEAA@XZ 000000018000d990 f   TriangleMeshBuilder.obj
 0001:0000c9c0       ??1TriangleMeshBuilder@physx@@UEAA@XZ 000000018000d9c0 f   TriangleMeshBuilder.obj
 0001:0000ca20       ??1TriangleMeshData@Gu@physx@@UEAA@XZ 000000018000da20 f i TriangleMeshBuilder.obj
 0001:0000caf0       ??_EBV4TriangleData@Gu@physx@@UEAAPEAXI@Z 000000018000daf0 f i TriangleMeshBuilder.obj
 0001:0000caf0       ??_GBV4TriangleData@Gu@physx@@UEAAPEAXI@Z 000000018000daf0 f i TriangleMeshBuilder.obj
 0001:0000cb70       ??_EBV4TriangleMeshBuilder@physx@@UEAAPEAXI@Z 000000018000db70 f i TriangleMeshBuilder.obj
 0001:0000cb70       ??_GBV4TriangleMeshBuilder@physx@@UEAAPEAXI@Z 000000018000db70 f i TriangleMeshBuilder.obj
 0001:0000cbf0       ??_EMeshDataBase@Gu@physx@@UEAAPEAXI@Z 000000018000dbf0 f i TriangleMeshBuilder.obj
 0001:0000cbf0       ??_GMeshDataBase@Gu@physx@@UEAAPEAXI@Z 000000018000dbf0 f i TriangleMeshBuilder.obj
 0001:0000cc50       ??_ERTreeCookerRemap@physx@@UEAAPEAXI@Z 000000018000dc50 f i TriangleMeshBuilder.obj
 0001:0000cc50       ??_GRTreeCookerRemap@physx@@UEAAPEAXI@Z 000000018000dc50 f i TriangleMeshBuilder.obj
 0001:0000cc80       ??_ERTreeTriangleData@Gu@physx@@UEAAPEAXI@Z 000000018000dc80 f i TriangleMeshBuilder.obj
 0001:0000cc80       ??_GRTreeTriangleData@Gu@physx@@UEAAPEAXI@Z 000000018000dc80 f i TriangleMeshBuilder.obj
 0001:0000cce0       ??_ERTreeTriangleMeshBuilder@physx@@UEAAPEAXI@Z 000000018000dce0 f i TriangleMeshBuilder.obj
 0001:0000cce0       ??_GRTreeTriangleMeshBuilder@physx@@UEAAPEAXI@Z 000000018000dce0 f i TriangleMeshBuilder.obj
 0001:0000cd30       ??_ERemapCallback@RTreeCooker@physx@@UEAAPEAXI@Z 000000018000dd30 f i TriangleMeshBuilder.obj
 0001:0000cd30       ??_GRemapCallback@RTreeCooker@physx@@UEAAPEAXI@Z 000000018000dd30 f i TriangleMeshBuilder.obj
 0001:0000cd60       ??_ETriangleMeshBuilder@physx@@UEAAPEAXI@Z 000000018000dd60 f i TriangleMeshBuilder.obj
 0001:0000cd60       ??_GTriangleMeshBuilder@physx@@UEAAPEAXI@Z 000000018000dd60 f i TriangleMeshBuilder.obj
 0001:0000cda0       ??_ETriangleMeshData@Gu@physx@@UEAAPEAXI@Z 000000018000dda0 f i TriangleMeshBuilder.obj
 0001:0000cda0       ??_GTriangleMeshData@Gu@physx@@UEAAPEAXI@Z 000000018000dda0 f i TriangleMeshBuilder.obj
 0001:0000ce00       ?allocateTriangles@TriangleMeshData@Gu@physx@@QEAAPEAXI_NI@Z 000000018000de00 f i TriangleMeshBuilder.obj
 0001:0000ced0       ?allocateVertices@MeshDataBase@Gu@physx@@QEAAPEAVPxVec3@3@I@Z 000000018000ded0 f i TriangleMeshBuilder.obj
 0001:0000d3d0       ?checkMeshIndicesSize@TriangleMeshBuilder@physx@@QEAAXXZ 000000018000e3d0 f   TriangleMeshBuilder.obj
 0001:0000d4e0       ?cleanMesh@TriangleMeshBuilder@physx@@QEAA_N_NPEAW4Enum@PxTriangleMeshCookingResult@2@@Z 000000018000e4e0 f   TriangleMeshBuilder.obj
 0001:0000d9b0       ?createGRBMidPhaseAndData@TriangleMeshBuilder@physx@@QEAAXI@Z 000000018000e9b0 f   TriangleMeshBuilder.obj
 0001:0000dd30       ?createMidPhaseStructure@BV4TriangleMeshBuilder@physx@@UEAAXXZ 000000018000ed30 f   TriangleMeshBuilder.obj
 0001:0000dff0       ?createMidPhaseStructure@RTreeTriangleMeshBuilder@physx@@UEAAXXZ 000000018000eff0 f   TriangleMeshBuilder.obj
 0001:0000e110       ?createSharedEdgeData@TriangleMeshBuilder@physx@@QEAAX_N0@Z 000000018000f110 f   TriangleMeshBuilder.obj
 0001:0000e770       ?getMidphaseID@BV4TriangleMeshBuilder@physx@@UEBA?AW4Enum@PxMeshMidPhase@2@XZ 000000018000f770 f i TriangleMeshBuilder.obj
 0001:0000e770       _get_startup_argv_mode     000000018000f770 f i MSVCRT:argv_mode.obj
 0001:0000e780       ?getMidphaseID@RTreeTriangleMeshBuilder@physx@@UEBA?AW4Enum@PxMeshMidPhase@2@XZ 000000018000f780 f i TriangleMeshBuilder.obj
 0001:0000e780       __scrt_stub_for_is_c_termination_complete 000000018000f780 f i MSVCRT:ucrt_stubs.obj
 0001:0000e780       _is_c_termination_complete 000000018000f780 f i MSVCRT:ucrt_stubs.obj
 0001:0000e790       ?importMesh@TriangleMeshBuilder@physx@@IEAA_NAEBVPxTriangleMeshDesc@2@AEBUPxCookingParams@2@PEAW4Enum@PxTriangleMeshCookingResult@2@_N@Z 000000018000f790 f   TriangleMeshBuilder.obj
 0001:0000eb40       ?loadFromDesc@TriangleMeshBuilder@physx@@QEAA_NAEBVPxTriangleMeshDesc@2@PEAW4Enum@PxTriangleMeshCookingResult@2@_N@Z 000000018000fb40 f   TriangleMeshBuilder.obj
 0001:0000ef10       ?onMeshIndexFormatChange@BV4TriangleMeshBuilder@physx@@UEAAXXZ 000000018000ff10 f   TriangleMeshBuilder.obj
 0001:0000ef50       ?remap@RTreeCookerRemap@physx@@UEAAXPEAIII@Z 000000018000ff50 f i TriangleMeshBuilder.obj
 0001:0000ef70       ?remapTopology@TriangleMeshBuilder@physx@@QEAAXPEBI@Z 000000018000ff70 f   TriangleMeshBuilder.obj
 0001:0000f260       ?save@TriangleMeshBuilder@physx@@QEBA_NAEAVPxOutputStream@2@_NAEBUPxCookingParams@2@@Z 0000000180010260 f   TriangleMeshBuilder.obj
 0001:0000f830       ?saveMidPhaseStructure@BV4TriangleMeshBuilder@physx@@UEBAXAEAVPxOutputStream@2@_N@Z 0000000180010830 f   TriangleMeshBuilder.obj
 0001:0000f9d0       ?saveMidPhaseStructure@RTreeTriangleMeshBuilder@physx@@UEBAXAEAVPxOutputStream@2@_N@Z 00000001800109d0 f   TriangleMeshBuilder.obj
 0001:0000fc10       ??0BigConvexDataBuilder@physx@@QEAA@PEBUConvexHullData@Gu@1@PEAVBigConvexData@1@PEBVPxVec3@1@@Z 0000000180010c10 f   BigConvexDataBuilder.obj
 0001:0000fc20       ??4BigConvexData@physx@@QEAAAEAV01@AEBV01@@Z 0000000180010c20 f i BigConvexDataBuilder.obj
 0001:0000fc40       ?GetAdjacentVerts@BigConvexData@physx@@QEBAPEBEXZ 0000000180010c40 f i BigConvexDataBuilder.obj
 0001:0000fc50       ?GetNbNeighbors@BigConvexData@physx@@QEBAGI@Z 0000000180010c50 f i BigConvexDataBuilder.obj
 0001:0000fc50       ?GetValency@BigConvexData@physx@@QEBAGI@Z 0000000180010c50 f i BigConvexDataBuilder.obj
 0001:0000fc60       ?GetNbSamples@BigConvexData@physx@@QEBAIXZ 0000000180010c60 f i BigConvexDataBuilder.obj
 0001:0000fc70       ?GetNbVerts@BigConvexData@physx@@QEBAIXZ 0000000180010c70 f i BigConvexDataBuilder.obj
 0001:0000fc80       ?GetNeighbors@BigConvexData@physx@@QEBAPEBEI@Z 0000000180010c80 f i BigConvexDataBuilder.obj
 0001:0000fc90       ?GetOffset@BigConvexData@physx@@QEBAGI@Z 0000000180010c90 f i BigConvexDataBuilder.obj
 0001:0000fca0       ?GetSubdiv@BigConvexData@physx@@QEBAIXZ 0000000180010ca0 f i BigConvexDataBuilder.obj
 0001:0000fcb0       ?computeValencies@BigConvexDataBuilder@physx@@QEAA_NAEBVConvexHullBuilder@2@@Z 0000000180010cb0 f   BigConvexDataBuilder.obj
 0001:000100c0       ?precompute@BigConvexDataBuilder@physx@@QEAA_NI@Z 00000001800110c0 f   BigConvexDataBuilder.obj
 0001:00010cf0       ?save@BigConvexDataBuilder@physx@@QEBA_NAEAVPxOutputStream@2@_N@Z 0000000180011cf0 f   BigConvexDataBuilder.obj
 0001:00010dd0       ?saveValencies@BigConvexDataBuilder@physx@@QEBA_NAEAVPxOutputStream@2@_N@Z 0000000180011dd0 f   BigConvexDataBuilder.obj
 0001:00010f70       ??$?_UE@@YAPEAX_KV?$ReflectionAllocator@E@shdfnd@physx@@PEBDH@Z 0000000180011f70 f i ConvexHullBuilder.obj
 0001:00011010       ??0ConvexHullBuilder@physx@@QEAA@PEAUConvexHullData@Gu@1@_N@Z 0000000180012010 f   ConvexHullBuilder.obj
 0001:00011040       ??1ConvexHullBuilder@physx@@QEAA@XZ 0000000180012040 f   ConvexHullBuilder.obj
 0001:00011140       ?calculateVertexMapTable@ConvexHullBuilder@physx@@QEAA_NI_N@Z 0000000180012140 f   ConvexHullBuilder.obj
 0001:00011350       ?checkHullPolygons@ConvexHullBuilder@physx@@QEBA_NXZ 0000000180012350 f   ConvexHullBuilder.obj
 0001:00011930       ?computeGeomCenter@ConvexHullBuilder@physx@@IEBA_NAEAVPxVec3@2@IPEAUHullTriangleData@2@@Z 0000000180012930 f   ConvexHullBuilder.obj
 0001:00011bf0       ?copy@ConvexHullBuilder@physx@@QEAA_NAEAUConvexHullData@Gu@2@AEAI@Z 0000000180012bf0 f   ConvexHullBuilder.obj
 0001:00011e60       ?createEdgeList@ConvexHullBuilder@physx@@QEAA_N_NI@Z 0000000180012e60 f   ConvexHullBuilder.obj
 0001:000126b0       ?init@ConvexHullBuilder@physx@@QEAA_NIPEBVPxVec3@2@PEBIIIPEBUPxHullPolygon@2@_NPEAVConvexHullLib@2@@Z 00000001800136b0 f   ConvexHullBuilder.obj
 0001:00013010       ?save@ConvexHullBuilder@physx@@QEBA_NAEAVPxOutputStream@2@_N@Z 0000000180014010 f   ConvexHullBuilder.obj
 0001:00013330       ??1ConvexHullLib@physx@@UEAA@XZ 0000000180014330 f   ConvexHullLib.obj
 0001:00013390       ??_EConvexHullLib@physx@@UEAAPEAXI@Z 0000000180014390 f i ConvexHullLib.obj
 0001:00013390       ??_GConvexHullLib@physx@@UEAAPEAXI@Z 0000000180014390 f i ConvexHullLib.obj
 0001:000138f0       ?cleanupVertices@ConvexHullLib@physx@@IEAA_NIPEBVPxVec3@2@IAEAIPEAV32@AEAV32@3@Z 00000001800148f0 f   ConvexHullLib.obj
 0001:00013d80       ?shiftAndcleanupVertices@ConvexHullLib@physx@@IEAA_NIPEBVPxVec3@2@IAEAIPEAV32@AEAV32@3@Z 0000000180014d80 f   ConvexHullLib.obj
 0001:00014260       ?shiftConvexMeshDesc@ConvexHullLib@physx@@IEAAXAEAVPxConvexMeshDesc@2@@Z 0000000180015260 f   ConvexHullLib.obj
 0001:00014320       ?swapLargestFace@ConvexHullLib@physx@@IEAAXAEAVPxConvexMeshDesc@2@@Z 0000000180015320 f   ConvexHullLib.obj
 0001:00014510       ??0Box@Gu@physx@@QEAA@AEBV012@@Z 0000000180015510 f i ConvexHullUtils.obj
 0001:00014510       ??4Box@Gu@physx@@QEAAAEBV012@AEBV012@@Z 0000000180015510 f i ConvexHullUtils.obj
 0001:00014570       ??0Box@Gu@physx@@QEAA@AEBVPxVec3@2@0AEBVPxMat33@2@@Z 0000000180015570 f i ConvexHullUtils.obj
 0001:000145e0       ??0ConvexHull@physx@@QEAA@AEBVPxVec3@1@AEBVPxTransform@1@AEBV?$Array@VPxPlane@physx@@VNamedAllocator@shdfnd@2@@shdfnd@1@@Z 00000001800155e0 f   ConvexHullUtils.obj
 0001:00015900       ??0PxQuat@physx@@QEAA@AEBVPxMat33@1@@Z 0000000180016900 f i ConvexHullUtils.obj
 0001:00015b00       ?assertIntact@ConvexHull@physx@@QEBA_NM@Z 0000000180016b00 f   ConvexHullUtils.obj
 0001:00015e20       ?computeAABBExtent@Box@Gu@physx@@QEBA?AVPxVec3@3@XZ 0000000180016e20 f i ConvexHullUtils.obj
 0001:00015ee0       ?computeBoxPoints@Box@Gu@physx@@QEBAXPEIAVPxVec3@3@@Z 0000000180016ee0 f i ConvexHullUtils.obj
 0001:00015f20       ?computeOBBFromConvex@physx@@YA_NAEBVPxConvexMeshDesc@1@AEAVPxVec3@1@AEAVPxTransform@1@@Z 0000000180016f20 f   ConvexHullUtils.obj
 0001:00016610       ?computeOBBSIMD@local@@YAXIPEBT__m128@@AEAT2@AEBT2@1@Z 0000000180017610 f   ConvexHullUtils.obj
 0001:000169f0       ?convexHullCrop@physx@@YAPEAVConvexHull@1@AEBV21@AEBVPxPlane@1@M@Z 00000001800179f0 f   ConvexHullUtils.obj
 0001:000178d0       ?copy@?$Array@VPxPlane@physx@@VNamedAllocator@shdfnd@2@@shdfnd@physx@@KAXPEAVPxPlane@3@0PEBV43@@Z 00000001800188d0 f i ConvexHullUtils.obj
 0001:000179d0       ?findCandidatePlane@ConvexHull@physx@@QEBAHMM@Z 00000001800189d0 f   ConvexHullUtils.obj
 0001:00017e20       ?getInverse@PxMat33@physx@@QEBA?BV12@XZ 0000000180018e20 f i ConvexHullUtils.obj
 0001:00018070       ?getTransform@Box@Gu@physx@@QEBA?AVPxTransform@3@XZ 0000000180019070 f i ConvexHullUtils.obj
 0001:000180d0       ?growAndPushBack@?$Array@VPxPlane@physx@@VNamedAllocator@shdfnd@2@@shdfnd@physx@@IEAAAEAVPxPlane@3@AEBV43@@Z 00000001800190d0 f i ConvexHullUtils.obj
 0001:000181c0       ?isValid@Box@Gu@physx@@QEBA_NXZ 00000001800191c0 f i ConvexHullUtils.obj
 0001:000181e0       ?maxNumVertsPerFace@ConvexHull@physx@@QEBAIXZ 00000001800191e0 f   ConvexHullUtils.obj
 0001:00018250       ?recreate@?$Array@VPxPlane@physx@@VNamedAllocator@shdfnd@2@@shdfnd@physx@@IEAAXI@Z 0000000180019250 f i ConvexHullUtils.obj
 0001:000182f0       ?resize@?$Array@VHalfEdge@ConvexHull@physx@@VNamedAllocator@shdfnd@3@@shdfnd@physx@@QEAAXIAEBVHalfEdge@ConvexHull@3@@Z 00000001800192f0 f i ConvexHullUtils.obj
 0001:000183b0       ?resize@?$Array@VPxPlane@physx@@VNamedAllocator@shdfnd@2@@shdfnd@physx@@QEAAXIAEBVPxPlane@3@@Z 00000001800193b0 f i ConvexHullUtils.obj
 0001:000184d0       ?resize@?$Array@VPxVec3@physx@@VNamedAllocator@shdfnd@2@@shdfnd@physx@@QEAAXIAEBVPxVec3@3@@Z 00000001800194d0 f i ConvexHullUtils.obj
 0001:000185c0       ?rotate@Box@Gu@physx@@QEBA?AVPxVec3@3@AEBV43@@Z 00000001800195c0 f i ConvexHullUtils.obj
 0001:00018650       ?rotateInv@Box@Gu@physx@@QEBA?AVPxVec3@3@AEBV43@@Z 0000000180019650 f i ConvexHullUtils.obj
 0001:000186e0       ?setAxes@Box@Gu@physx@@QEAAXAEBVPxVec3@3@00@Z 00000001800196e0 f i ConvexHullUtils.obj
 0001:00018720       ?setEmpty@Box@Gu@physx@@QEAAXXZ 0000000180019720 f i ConvexHullUtils.obj
 0001:00018760       ?transform@Box@Gu@physx@@QEBA?AVPxVec3@3@AEBV43@@Z 0000000180019760 f i ConvexHullUtils.obj
 0001:00018800       ??0ConvexMeshBuilder@physx@@QEAA@_N@Z 0000000180019800 f   ConvexMeshBuilder.obj
 0001:00018860       ??1ConvexMeshBuilder@physx@@QEAA@XZ 0000000180019860 f   ConvexMeshBuilder.obj
 0001:00018cb0       ?build@ConvexMeshBuilder@physx@@QEAA_NAEBVPxConvexMeshDesc@2@I_NPEAVConvexHullLib@2@@Z 0000000180019cb0 f   ConvexMeshBuilder.obj
 0001:00018fe0       ?computeHullPolygons@ConvexMeshBuilder@physx@@QEAA_NAEBIPEBVPxVec3@2@0PEBIAEAVPxAllocatorCallback@2@AEAIAEAPEAV32@4AEAPEAI4AEAPEAUPxHullPolygon@2@@Z 0000000180019fe0 f   ConvexMeshBuilder.obj
 0001:00019200       ?computeMassInfo@ConvexMeshBuilder@physx@@QEAAX_N@Z 000000018001a200 f   ConvexMeshBuilder.obj
 0001:000195d0       ?copy@ConvexMeshBuilder@physx@@QEAA_NAEAUConvexHullInitData@Gu@2@@Z 000000018001a5d0 f   ConvexMeshBuilder.obj
 0001:000196f0       ?isFinite@PxVec3@physx@@QEBA_NXZ 000000018001a6f0 f i ConvexMeshBuilder.obj
 0001:00019750       ?loadConvexHull@ConvexMeshBuilder@physx@@QEAA_NAEBVPxConvexMeshDesc@2@PEAVConvexHullLib@2@@Z 000000018001a750 f   ConvexMeshBuilder.obj
 0001:000199c0       ?save@ConvexMeshBuilder@physx@@QEBA_NAEAVPxOutputStream@2@_N@Z 000000018001a9c0 f   ConvexMeshBuilder.obj
 0001:00019bd0       ??$copy@VNamedAllocator@shdfnd@physx@@@?$Array@VPair@@VNamedAllocator@shdfnd@physx@@@shdfnd@physx@@IEAAXAEBV012@@Z 000000018001abd0 f i ConvexPolygonsBuilder.obj
 0001:00019c50       ??0ConvexPolygonsBuilder@physx@@QEAA@PEAUConvexHullData@Gu@1@_N@Z 000000018001ac50 f   ConvexPolygonsBuilder.obj
 0001:00019c70       ??1ConvexPolygonsBuilder@physx@@QEAA@XZ 000000018001ac70 f   ConvexPolygonsBuilder.obj
 0001:0001a4c0       ?allocate@?$Array@VPair@@VNamedAllocator@shdfnd@physx@@@shdfnd@physx@@IEAAPEAVPair@@I@Z 000000018001b4c0 f i ConvexPolygonsBuilder.obj
 0001:0001acc0       ?computeHullPolygons@ConvexPolygonsBuilder@physx@@QEAA_NAEBIPEBVPxVec3@2@0PEBI@Z 000000018001bcc0 f   ConvexPolygonsBuilder.obj
 0001:0001bfb0       ?createPolygonData@ConvexPolygonsBuilder@physx@@AEAA_NXZ 000000018001cfb0 f   ConvexPolygonsBuilder.obj
 0001:0001c990       ?createTrianglesFromPolygons@ConvexPolygonsBuilder@physx@@AEAA_NXZ 000000018001d990 f   ConvexPolygonsBuilder.obj
 0001:0001e070       ?growAndPushBack@?$Array@VPair@@VNamedAllocator@shdfnd@physx@@@shdfnd@physx@@IEAAAEAVPair@@AEBV4@@Z 000000018001f070 f i ConvexPolygonsBuilder.obj
 0001:0001e170       ??0QuickHull@local@@QEAA@AEBUPxCookingParams@physx@@AEBVPxConvexMeshDesc@3@@Z 000000018001f170 f   QuickHullConvexHullLib.obj
 0001:0001e360       ??0QuickHullConvexHullLib@physx@@QEAA@AEBVPxConvexMeshDesc@1@AEBUPxCookingParams@1@@Z 000000018001f360 f   QuickHullConvexHullLib.obj
 0001:0001e450       ??1?$MemBlock@UQuickHullFace@local@@$00@local@@QEAA@XZ 000000018001f450 f i QuickHullConvexHullLib.obj
 0001:0001e450       ??1?$MemBlock@UQuickHullHalfEdge@local@@$0A@@local@@QEAA@XZ 000000018001f450 f i QuickHullConvexHullLib.obj
 0001:0001e4e0       ??_GConvexHull@physx@@QEAAPEAXI@Z 000000018001f4e0 f i QuickHullConvexHullLib.obj
 0001:0001e5b0       ??_GQuickHull@local@@QEAAPEAXI@Z 000000018001f5b0 f i QuickHullConvexHullLib.obj
 0001:0001e750       ??_EQuickHullConvexHullLib@physx@@UEAAPEAXI@Z 000000018001f750 f i QuickHullConvexHullLib.obj
 0001:0001e750       ??_GQuickHullConvexHullLib@physx@@UEAAPEAXI@Z 000000018001f750 f i QuickHullConvexHullLib.obj
 0001:0001e840       ?addPointToHull@QuickHull@local@@IEAA_NPEBUQuickHullVertex@2@AEAUQuickHullFace@2@AEA_N@Z 000000018001f840 f   QuickHullConvexHullLib.obj
 0001:0001eb10       ?addSimplex@QuickHull@local@@IEAAXPEAUQuickHullVertex@2@_N@Z 000000018001fb10 f   QuickHullConvexHullLib.obj
 0001:0001efe0       ?buildHull@QuickHull@local@@QEAA?AW4Enum@QuickHullResult@2@XZ 000000018001ffe0 f   QuickHullConvexHullLib.obj
 0001:0001f1f0       ?calculateHorizon@QuickHull@local@@IEAAXAEBVPxVec3@physx@@PEAUQuickHullHalfEdge@2@AEAUQuickHullFace@2@AEAV?$Array@PEAUQuickHullHalfEdge@local@@VNamedAllocator@shdfnd@physx@@@shdfnd@4@AEAV?$Array@PEAUQuickHullFace@local@@VNamedAllocator@shdfnd@physx@@@84@@Z 00000001800201f0 f   QuickHullConvexHullLib.obj
 0001:0001f3a0       ?canMergeFaces@QuickHull@local@@IEAA_NAEBUQuickHullHalfEdge@2@@Z 00000001800203a0 f   QuickHullConvexHullLib.obj
 0001:0001fbd0       ?cleanupForSimplex@QuickHullConvexHullLib@physx@@IEAA_NPEAVPxVec3@2@IPEAUQuickHullVertex@local@@1AEAM2@Z 0000000180020bd0 f   QuickHullConvexHullLib.obj
 0001:000207f0       ?computeMinMaxVerts@QuickHull@local@@IEAAXXZ 00000001800217f0 f   QuickHullConvexHullLib.obj
 0001:00020bc0       ?connectHalfEdges@QuickHullFace@local@@AEAAPEAU12@PEAUQuickHullHalfEdge@2@0@Z 0000000180021bc0 f   QuickHullConvexHullLib.obj
 0001:00020f30       ?copy@?$Array@UExpandPoint@local@@VNamedAllocator@shdfnd@physx@@@shdfnd@physx@@KAXPEAUExpandPoint@local@@0PEBU45@@Z 0000000180021f30 f i QuickHullConvexHullLib.obj
 0001:00020fe0       ?createConvexHull@QuickHullConvexHullLib@physx@@UEAA?AW4Enum@PxConvexMeshCookingResult@2@XZ 0000000180021fe0 f   QuickHullConvexHullLib.obj
 0001:000213d0       ?createEdgeList@QuickHullConvexHullLib@physx@@UEAA_NIPEBEPEAPEAEPEAPEAG2@Z 00000001800223d0 f   QuickHullConvexHullLib.obj
 0001:00021620       ?createTriangle@QuickHull@local@@IEAAPEAUQuickHullFace@2@AEBUQuickHullVertex@2@00@Z 0000000180022620 f   QuickHullConvexHullLib.obj
 0001:00021a00       ?doAdjacentMerge@QuickHull@local@@IEAA_NAEAUQuickHullFace@2@_NAEA_N@Z 0000000180022a00 f   QuickHullConvexHullLib.obj
 0001:00021d50       ?expandHull@QuickHullConvexHullLib@physx@@IEAA?AW4Enum@PxConvexMeshCookingResult@2@XZ 0000000180022d50 f   QuickHullConvexHullLib.obj
 0001:000225b0       ?expandHullOBB@QuickHullConvexHullLib@physx@@IEAA?AW4Enum@PxConvexMeshCookingResult@2@XZ 00000001800235b0 f   QuickHullConvexHullLib.obj
 0001:000229d0       ?fillConvexMeshDesc@QuickHullConvexHullLib@physx@@UEAAXAEAVPxConvexMeshDesc@2@@Z 00000001800239d0 f   QuickHullConvexHullLib.obj
 0001:00022a20       ?fillConvexMeshDescFromCroppedHull@QuickHullConvexHullLib@physx@@IEAAXAEAVPxConvexMeshDesc@2@@Z 0000000180023a20 f   QuickHullConvexHullLib.obj
 0001:00022c10       ?fillConvexMeshDescFromQuickHull@QuickHullConvexHullLib@physx@@IEAAXAEAVPxConvexMeshDesc@2@@Z 0000000180023c10 f   QuickHullConvexHullLib.obj
 0001:00022f80       ?findSimplex@QuickHull@local@@IEAA_NXZ 0000000180023f80 f   QuickHullConvexHullLib.obj
 0001:00023c30       ?getFreeItem@?$MemBlock@UQuickHullFace@local@@$00@local@@QEAAPEAUQuickHullFace@2@XZ 0000000180024c30 f i QuickHullConvexHullLib.obj
 0001:00023d60       ?getFreeItem@?$MemBlock@UQuickHullHalfEdge@local@@$0A@@local@@QEAAPEAUQuickHullHalfEdge@2@XZ 0000000180024d60 f i QuickHullConvexHullLib.obj
 0001:00023e40       ?growAndPushBack@?$Array@PEAUQuickHullFace@local@@VNamedAllocator@shdfnd@physx@@@shdfnd@physx@@IEAAAEAPEAUQuickHullFace@local@@AEBQEAU45@@Z 0000000180024e40 f i QuickHullConvexHullLib.obj
 0001:00023e40       ?growAndPushBack@?$Array@PEAUQuickHullHalfEdge@local@@VNamedAllocator@shdfnd@physx@@@shdfnd@physx@@IEAAAEAPEAUQuickHullHalfEdge@local@@AEBQEAU45@@Z 0000000180024e40 f i QuickHullConvexHullLib.obj
 0001:00023e40       ?growAndPushBack@?$Array@PEAUQuickHullVertex@local@@VNamedAllocator@shdfnd@physx@@@shdfnd@physx@@IEAAAEAPEAUQuickHullVertex@local@@AEBQEAU45@@Z 0000000180024e40 f i QuickHullConvexHullLib.obj
 0001:00023f30       ?growAndPushBack@?$Array@UExpandPoint@local@@VNamedAllocator@shdfnd@physx@@@shdfnd@physx@@IEAAAEAUExpandPoint@local@@AEBU45@@Z 0000000180024f30 f i QuickHullConvexHullLib.obj
 0001:00024070       ?init@?$MemBlock@UQuickHullFace@local@@$00@local@@QEAAXI@Z 0000000180025070 f i QuickHullConvexHullLib.obj
 0001:00024150       ?init@?$MemBlock@UQuickHullHalfEdge@local@@$0A@@local@@QEAAXI@Z 0000000180025150 f i QuickHullConvexHullLib.obj
 0001:000241f0       ?mergeAdjacentFace@QuickHullFace@local@@QEAA_NPEAUQuickHullHalfEdge@2@AEAV?$Array@PEAUQuickHullFace@local@@VNamedAllocator@shdfnd@physx@@@shdfnd@physx@@@Z 00000001800251f0 f   QuickHullConvexHullLib.obj
 0001:00024640       ?nextPointToAdd@QuickHull@local@@IEAAPEAUQuickHullVertex@2@AEAPEAUQuickHullFace@2@@Z 0000000180025640 f   QuickHullConvexHullLib.obj
 0001:000247c0       ?parseInputVertices@QuickHull@local@@QEAAXPEBVPxVec3@physx@@I@Z 00000001800257c0 f   QuickHullConvexHullLib.obj
 0001:00024940       ?postMergeHull@QuickHull@local@@IEAAXXZ 0000000180025940 f   QuickHullConvexHullLib.obj
 0001:00024bb0       ?preallocate@QuickHull@local@@QEAAXI@Z 0000000180025bb0 f   QuickHullConvexHullLib.obj
 0001:00024cf0       ?recreate@?$Array@PEAUQuickHullFace@local@@VNamedAllocator@shdfnd@physx@@@shdfnd@physx@@IEAAXI@Z 0000000180025cf0 f i QuickHullConvexHullLib.obj
 0001:00024cf0       ?recreate@?$Array@PEAUQuickHullHalfEdge@local@@VNamedAllocator@shdfnd@physx@@@shdfnd@physx@@IEAAXI@Z 0000000180025cf0 f i QuickHullConvexHullLib.obj
 0001:00024cf0       ?recreate@?$Array@PEAUQuickHullVertex@local@@VNamedAllocator@shdfnd@physx@@@shdfnd@physx@@IEAAXI@Z 0000000180025cf0 f i QuickHullConvexHullLib.obj
 0001:00024da0       ?recreate@?$Array@UExpandPoint@local@@VNamedAllocator@shdfnd@physx@@@shdfnd@physx@@IEAAXI@Z 0000000180025da0 f i QuickHullConvexHullLib.obj
 0001:00024e40       ?resolveUnclaimedPoints@QuickHull@local@@IEAAXAEBV?$Array@PEAUQuickHullFace@local@@VNamedAllocator@shdfnd@physx@@@shdfnd@physx@@@Z 0000000180025e40 f   QuickHullConvexHullLib.obj
 0001:00025b40       ?computeVolumeIntegralsEberly@physx@@YA_NAEBVPxConvexMeshDesc@1@MAEAUPxIntegrals@1@AEBVPxVec3@1@@Z 0000000180026b40 f   VolumeIntegration.obj
 0001:00025b80       ?computeVolumeIntegralsEberlySIMD@physx@@YA_NAEBVPxConvexMeshDesc@1@MAEAUPxIntegrals@1@AEBVPxVec3@1@@Z 0000000180026b80 f   VolumeIntegration.obj
 0001:000261d0       ?cookingDelayHook@@YAP6A_JXZIPEAUDelayLoadInfo@@@Z 00000001800271d0 f   WindowsCookingDelayLoadHook.obj
 0001:000262b0       PxSetPhysXCookingDelayLoadHook 00000001800272b0 f   WindowsCookingDelayLoadHook.obj
 0001:000262b8       __imp_load_??0RadixSortBuffered@Cm@physx@@QEAA@XZ 00000001800272b8 f   PhysXCommon_64:PhysXCommon_64.dll
 0001:000262c4       ??0RadixSortBuffered@Cm@physx@@QEAA@XZ 00000001800272c4 f   PhysXCommon_64:PhysXCommon_64.dll
 0001:000262ca       __tailMerge_physxcommon_64_dll 00000001800272ca     PhysXCommon_64:PhysXCommon_64.dll
 0001:00026343       __imp_load_??1RadixSortBuffered@Cm@physx@@UEAA@XZ 0000000180027343 f   PhysXCommon_64:PhysXCommon_64.dll
 0001:0002634f       ??1RadixSortBuffered@Cm@physx@@UEAA@XZ 000000018002734f f   PhysXCommon_64:PhysXCommon_64.dll
 0001:00026355       __imp_load_?Sort@RadixSortBuffered@Cm@physx@@QEAAAEAV123@PEBIIW4RadixHint@23@@Z 0000000180027355 f   PhysXCommon_64:PhysXCommon_64.dll
 0001:00026361       ?Sort@RadixSortBuffered@Cm@physx@@QEAAAEAV123@PEBIIW4RadixHint@23@@Z 0000000180027361 f   PhysXCommon_64:PhysXCommon_64.dll
 0001:00026367       __imp_load_??0HeightField@Gu@physx@@QEAA@PEAVGuMeshFactory@2@@Z 0000000180027367 f   PhysXCommon_64:PhysXCommon_64.dll
 0001:00026373       ??0HeightField@Gu@physx@@QEAA@PEAVGuMeshFactory@2@@Z 0000000180027373 f   PhysXCommon_64:PhysXCommon_64.dll
 0001:00026379       __imp_load_?loadFromDesc@HeightField@Gu@physx@@QEAA_NAEBVPxHeightFieldDesc@3@@Z 0000000180027379 f   PhysXCommon_64:PhysXCommon_64.dll
 0001:00026385       ?loadFromDesc@HeightField@Gu@physx@@QEAA_NAEBVPxHeightFieldDesc@3@@Z 0000000180027385 f   PhysXCommon_64:PhysXCommon_64.dll
 0001:0002638b       __imp_load_?computeCellCoordinates@HeightField@Gu@physx@@QEBAIMMAEAM0@Z 000000018002738b f   PhysXCommon_64:PhysXCommon_64.dll
 0001:00026397       ?computeCellCoordinates@HeightField@Gu@physx@@QEBAIMMAEAM0@Z 0000000180027397 f   PhysXCommon_64:PhysXCommon_64.dll
 0001:0002639d       __imp_load_?releaseMemory@HeightField@Gu@physx@@QEAAXXZ 000000018002739d f   PhysXCommon_64:PhysXCommon_64.dll
 0001:000263a9       ?releaseMemory@HeightField@Gu@physx@@QEAAXXZ 00000001800273a9 f   PhysXCommon_64:PhysXCommon_64.dll
 0001:000263af       __imp_load_??1HeightField@Gu@physx@@UEAA@XZ 00000001800273af f   PhysXCommon_64:PhysXCommon_64.dll
 0001:000263bb       ??1HeightField@Gu@physx@@UEAA@XZ 00000001800273bb f   PhysXCommon_64:PhysXCommon_64.dll
 0001:000263c1       __imp_load_??0NodeAllocator@Gu@physx@@QEAA@XZ 00000001800273c1 f   PhysXCommon_64:PhysXCommon_64.dll
 0001:000263cd       ??0NodeAllocator@Gu@physx@@QEAA@XZ 00000001800273cd f   PhysXCommon_64:PhysXCommon_64.dll
 0001:000263d3       __imp_load_??1NodeAllocator@Gu@physx@@QEAA@XZ 00000001800273d3 f   PhysXCommon_64:PhysXCommon_64.dll
 0001:000263df       ??1NodeAllocator@Gu@physx@@QEAA@XZ 00000001800273df f   PhysXCommon_64:PhysXCommon_64.dll
 0001:000263e5       __imp_load_?release@NodeAllocator@Gu@physx@@QEAAXXZ 00000001800273e5 f   PhysXCommon_64:PhysXCommon_64.dll
 0001:000263f1       ?release@NodeAllocator@Gu@physx@@QEAAXXZ 00000001800273f1 f   PhysXCommon_64:PhysXCommon_64.dll
 0001:000263f7       __imp_load_?buildAABBTree@Gu@physx@@YA_NAEAVAABBTreeBuildParams@12@AEAVNodeAllocator@12@AEAUBuildStats@12@AEAPEAI@Z 00000001800273f7 f   PhysXCommon_64:PhysXCommon_64.dll
 0001:00026403       ?buildAABBTree@Gu@physx@@YA_NAEAVAABBTreeBuildParams@12@AEAVNodeAllocator@12@AEAUBuildStats@12@AEAPEAI@Z 0000000180027403 f   PhysXCommon_64:PhysXCommon_64.dll
 0001:00026409       __imp_load_?writeDword@physx@@YAXI_NAEAVPxOutputStream@1@@Z 0000000180027409 f   PhysXCommon_64:PhysXCommon_64.dll
 0001:00026415       ?writeDword@physx@@YAXI_NAEAVPxOutputStream@1@@Z 0000000180027415 f   PhysXCommon_64:PhysXCommon_64.dll
 0001:0002641b       __imp_load_?writeFloatBuffer@physx@@YAXPEBMI_NAEAVPxOutputStream@1@@Z 000000018002741b f   PhysXCommon_64:PhysXCommon_64.dll
 0001:00026427       ?writeFloatBuffer@physx@@YAXPEBMI_NAEAVPxOutputStream@1@@Z 0000000180027427 f   PhysXCommon_64:PhysXCommon_64.dll
 0001:0002642d       __imp_load_?writeHeader@physx@@YA_NCCCCI_NAEAVPxOutputStream@1@@Z 000000018002742d f   PhysXCommon_64:PhysXCommon_64.dll
 0001:00026439       ?writeHeader@physx@@YA_NCCCCI_NAEAVPxOutputStream@1@@Z 0000000180027439 f   PhysXCommon_64:PhysXCommon_64.dll
 0001:0002643f       __imp_load_?writeWord@physx@@YAXG_NAEAVPxOutputStream@1@@Z 000000018002743f f   PhysXCommon_64:PhysXCommon_64.dll
 0001:0002644b       ?writeWord@physx@@YAXG_NAEAVPxOutputStream@1@@Z 000000018002744b f   PhysXCommon_64:PhysXCommon_64.dll
 0001:00026451       __imp_load_?writeFloat@physx@@YAXM_NAEAVPxOutputStream@1@@Z 0000000180027451 f   PhysXCommon_64:PhysXCommon_64.dll
 0001:0002645d       ?writeFloat@physx@@YAXM_NAEAVPxOutputStream@1@@Z 000000018002745d f   PhysXCommon_64:PhysXCommon_64.dll
 0001:00026463       __imp_load_?computeBoundsAroundVertices@Gu@physx@@YAXAEAVPxBounds3@2@IPEIBVPxVec3@2@@Z 0000000180027463 f   PhysXCommon_64:PhysXCommon_64.dll
 0001:0002646f       ?computeBoundsAroundVertices@Gu@physx@@YAXAEAVPxBounds3@2@IPEIBVPxVec3@2@@Z 000000018002746f f   PhysXCommon_64:PhysXCommon_64.dll
 0001:00026475       __imp_load_??0SourceMesh@Gu@physx@@QEAA@XZ 0000000180027475 f   PhysXCommon_64:PhysXCommon_64.dll
 0001:00026481       ??0SourceMesh@Gu@physx@@QEAA@XZ 0000000180027481 f   PhysXCommon_64:PhysXCommon_64.dll
 0001:00026487       __imp_load_??1SourceMesh@Gu@physx@@QEAA@XZ 0000000180027487 f   PhysXCommon_64:PhysXCommon_64.dll
 0001:00026493       ??1SourceMesh@Gu@physx@@QEAA@XZ 0000000180027493 f   PhysXCommon_64:PhysXCommon_64.dll
 0001:00026499       __imp_load_??0BV4Tree@Gu@physx@@QEAA@XZ 0000000180027499 f   PhysXCommon_64:PhysXCommon_64.dll
 0001:000264a5       ??0BV4Tree@Gu@physx@@QEAA@XZ 00000001800274a5 f   PhysXCommon_64:PhysXCommon_64.dll
 0001:000264ab       __imp_load_??1BV4Tree@Gu@physx@@QEAA@XZ 00000001800274ab f   PhysXCommon_64:PhysXCommon_64.dll
 0001:000264b7       ??1BV4Tree@Gu@physx@@QEAA@XZ 00000001800274b7 f   PhysXCommon_64:PhysXCommon_64.dll
 0001:000264bd       __imp_load_??0BV32Tree@Gu@physx@@QEAA@XZ 00000001800274bd f   PhysXCommon_64:PhysXCommon_64.dll
 0001:000264c9       ??0BV32Tree@Gu@physx@@QEAA@XZ 00000001800274c9 f   PhysXCommon_64:PhysXCommon_64.dll
 0001:000264cf       __imp_load_??1BV32Tree@Gu@physx@@QEAA@XZ 00000001800274cf f   PhysXCommon_64:PhysXCommon_64.dll
 0001:000264db       ??1BV32Tree@Gu@physx@@QEAA@XZ 00000001800274db f   PhysXCommon_64:PhysXCommon_64.dll
 0001:000264e1       __imp_load_?writeWordBuffer@physx@@YAXPEBGI_NAEAVPxOutputStream@1@@Z 00000001800274e1 f   PhysXCommon_64:PhysXCommon_64.dll
 0001:000264ed       ?writeWordBuffer@physx@@YAXPEBGI_NAEAVPxOutputStream@1@@Z 00000001800274ed f   PhysXCommon_64:PhysXCommon_64.dll
 0001:000264f3       __imp_load_?computeMaxIndex@physx@@YAIPEBII@Z 00000001800274f3 f   PhysXCommon_64:PhysXCommon_64.dll
 0001:000264ff       ?computeMaxIndex@physx@@YAIPEBII@Z 00000001800274ff f   PhysXCommon_64:PhysXCommon_64.dll
 0001:00026505       __imp_load_?storeIndices@physx@@YAXIIPEBIAEAVPxOutputStream@1@_N@Z 0000000180027505 f   PhysXCommon_64:PhysXCommon_64.dll
 0001:00026511       ?storeIndices@physx@@YAXIIPEBIAEAVPxOutputStream@1@_N@Z 0000000180027511 f   PhysXCommon_64:PhysXCommon_64.dll
 0001:00026517       __imp_load_?BuildBV4Ex@Gu@physx@@YA_NAEAVBV4Tree@12@AEAVSourceMesh@12@MI@Z 0000000180027517 f   PhysXCommon_64:PhysXCommon_64.dll
 0001:00026523       ?BuildBV4Ex@Gu@physx@@YA_NAEAVBV4Tree@12@AEAVSourceMesh@12@MI@Z 0000000180027523 f   PhysXCommon_64:PhysXCommon_64.dll
 0001:00026529       __imp_load_?BuildBV32Ex@Gu@physx@@YA_NAEAVBV32Tree@12@AEAVSourceMesh@12@MI@Z 0000000180027529 f   PhysXCommon_64:PhysXCommon_64.dll
 0001:00026535       ?BuildBV32Ex@Gu@physx@@YA_NAEAVBV32Tree@12@AEAVSourceMesh@12@MI@Z 0000000180027535 f   PhysXCommon_64:PhysXCommon_64.dll
 0001:0002653b       __imp_load_?computeMaxIndex@physx@@YAGPEBGI@Z 000000018002753b f   PhysXCommon_64:PhysXCommon_64.dll
 0001:00026547       ?computeMaxIndex@physx@@YAGPEBGI@Z 0000000180027547 f   PhysXCommon_64:PhysXCommon_64.dll
 0001:0002654d       __imp_load_?WriteHeader@Gu@physx@@YA_NEEEEI_NAEAVPxOutputStream@2@@Z 000000018002754d f   PhysXCommon_64:PhysXCommon_64.dll
 0001:00026559       ?WriteHeader@Gu@physx@@YA_NEEEEI_NAEAVPxOutputStream@2@@Z 0000000180027559 f   PhysXCommon_64:PhysXCommon_64.dll
 0001:0002655f       __imp_load_?StoreIndices@Gu@physx@@YAXGIPEBGAEAVPxOutputStream@2@_N@Z 000000018002755f f   PhysXCommon_64:PhysXCommon_64.dll
 0001:0002656b       ?StoreIndices@Gu@physx@@YAXGIPEBGAEAVPxOutputStream@2@_N@Z 000000018002756b f   PhysXCommon_64:PhysXCommon_64.dll
 0001:00026571       __imp_load_?CreateOffsets@BigConvexData@physx@@IEAAXXZ 0000000180027571 f   PhysXCommon_64:PhysXCommon_64.dll
 0001:0002657d       ?CreateOffsets@BigConvexData@physx@@IEAAXXZ 000000018002757d f   PhysXCommon_64:PhysXCommon_64.dll
 0001:00026583       __imp_load_?computeOBBPoints@Gu@physx@@YAXPEIAVPxVec3@2@AEBV32@1111@Z 0000000180027583 f   PhysXCommon_64:PhysXCommon_64.dll
 0001:0002658f       ?computeOBBPoints@Gu@physx@@YAXPEIAVPxVec3@2@AEBV32@1111@Z 000000018002758f f   PhysXCommon_64:PhysXCommon_64.dll
 0001:00026595       __imp_load_??0BigConvexData@physx@@QEAA@XZ 0000000180027595 f   PhysXCommon_64:PhysXCommon_64.dll
 0001:000265a1       ??0BigConvexData@physx@@QEAA@XZ 00000001800275a1 f   PhysXCommon_64:PhysXCommon_64.dll
 0001:000265a7       __imp_load_??1BigConvexData@physx@@QEAA@XZ 00000001800275a7 f   PhysXCommon_64:PhysXCommon_64.dll
 0001:000265b3       ??1BigConvexData@physx@@QEAA@XZ 00000001800275b3 f   PhysXCommon_64:PhysXCommon_64.dll
 0001:000265b9       __imp_load_PxGetFoundation 00000001800275b9 f   PhysXFoundation_64:PhysXFoundation_64.dll
 0001:000265c5       PxGetFoundation            00000001800275c5 f   PhysXFoundation_64:PhysXFoundation_64.dll
 0001:000265cb       __tailMerge_physxfoundation_64_dll 00000001800275cb     PhysXFoundation_64:PhysXFoundation_64.dll
 0001:00026644       __imp_load_?getAllocator@shdfnd@physx@@YAAEAVPxAllocatorCallback@2@XZ 0000000180027644 f   PhysXFoundation_64:PhysXFoundation_64.dll
 0001:00026650       ?getAllocator@shdfnd@physx@@YAAEAVPxAllocatorCallback@2@XZ 0000000180027650 f   PhysXFoundation_64:PhysXFoundation_64.dll
 0001:00026656       __imp_load_??0NamedAllocator@shdfnd@physx@@QEAA@PEBD@Z 0000000180027656 f   PhysXFoundation_64:PhysXFoundation_64.dll
 0001:00026662       ??0NamedAllocator@shdfnd@physx@@QEAA@PEBD@Z 0000000180027662 f   PhysXFoundation_64:PhysXFoundation_64.dll
 0001:00026668       __imp_load_?getInstance@Foundation@shdfnd@physx@@SAAEAV123@XZ 0000000180027668 f   PhysXFoundation_64:PhysXFoundation_64.dll
 0001:00026674       ?getInstance@Foundation@shdfnd@physx@@SAAEAV123@XZ 0000000180027674 f   PhysXFoundation_64:PhysXFoundation_64.dll
 0001:0002667a       __imp_load_?error@Foundation@shdfnd@physx@@QEAAXW4Enum@PxErrorCode@3@PEBDH1ZZ 000000018002767a f   PhysXFoundation_64:PhysXFoundation_64.dll
 0001:00026686       ?error@Foundation@shdfnd@physx@@QEAAXW4Enum@PxErrorCode@3@PEBDH1ZZ 0000000180027686 f   PhysXFoundation_64:PhysXFoundation_64.dll
 0001:0002668c       __imp_load_?allocate@NamedAllocator@shdfnd@physx@@QEAAPEAX_KPEBDH@Z 000000018002768c f   PhysXFoundation_64:PhysXFoundation_64.dll
 0001:00026698       ?allocate@NamedAllocator@shdfnd@physx@@QEAAPEAX_KPEBDH@Z 0000000180027698 f   PhysXFoundation_64:PhysXFoundation_64.dll
 0001:0002669e       __imp_load_?deallocate@NamedAllocator@shdfnd@physx@@QEAAXPEAX@Z 000000018002769e f   PhysXFoundation_64:PhysXFoundation_64.dll
 0001:000266aa       ?deallocate@NamedAllocator@shdfnd@physx@@QEAAXPEAX@Z 00000001800276aa f   PhysXFoundation_64:PhysXFoundation_64.dll
 0001:000266b0       __imp_load_?incRefCount@Foundation@shdfnd@physx@@SAXXZ 00000001800276b0 f   PhysXFoundation_64:PhysXFoundation_64.dll
 0001:000266bc       ?incRefCount@Foundation@shdfnd@physx@@SAXXZ 00000001800276bc f   PhysXFoundation_64:PhysXFoundation_64.dll
 0001:000266c2       __imp_load_?decRefCount@Foundation@shdfnd@physx@@SAXXZ 00000001800276c2 f   PhysXFoundation_64:PhysXFoundation_64.dll
 0001:000266ce       ?decRefCount@Foundation@shdfnd@physx@@SAXXZ 00000001800276ce f   PhysXFoundation_64:PhysXFoundation_64.dll
 0001:000266d4       __imp_load_??0FPUGuard@shdfnd@physx@@QEAA@XZ 00000001800276d4 f   PhysXFoundation_64:PhysXFoundation_64.dll
 0001:000266e0       ??0FPUGuard@shdfnd@physx@@QEAA@XZ 00000001800276e0 f   PhysXFoundation_64:PhysXFoundation_64.dll
 0001:000266e6       __imp_load_??1FPUGuard@shdfnd@physx@@QEAA@XZ 00000001800276e6 f   PhysXFoundation_64:PhysXFoundation_64.dll
 0001:000266f2       ??1FPUGuard@shdfnd@physx@@QEAA@XZ 00000001800276f2 f   PhysXFoundation_64:PhysXFoundation_64.dll
 0001:000266f8       __imp_load_??1NamedAllocator@shdfnd@physx@@QEAA@XZ 00000001800276f8 f   PhysXFoundation_64:PhysXFoundation_64.dll
 0001:00026704       ??1NamedAllocator@shdfnd@physx@@QEAA@XZ 0000000180027704 f   PhysXFoundation_64:PhysXFoundation_64.dll
 0001:0002670a       __imp_load_??0NamedAllocator@shdfnd@physx@@QEAA@AEBV012@@Z 000000018002770a f   PhysXFoundation_64:PhysXFoundation_64.dll
 0001:00026716       ??0NamedAllocator@shdfnd@physx@@QEAA@AEBV012@@Z 0000000180027716 f   PhysXFoundation_64:PhysXFoundation_64.dll
 0001:0002671c       __imp_load_?allocate@TempAllocator@shdfnd@physx@@QEAAPEAX_KPEBDH@Z 000000018002771c f   PhysXFoundation_64:PhysXFoundation_64.dll
 0001:00026728       ?allocate@TempAllocator@shdfnd@physx@@QEAAPEAX_KPEBDH@Z 0000000180027728 f   PhysXFoundation_64:PhysXFoundation_64.dll
 0001:0002672e       __imp_load_?deallocate@TempAllocator@shdfnd@physx@@QEAAXPEAX@Z 000000018002772e f   PhysXFoundation_64:PhysXFoundation_64.dll
 0001:0002673a       ?deallocate@TempAllocator@shdfnd@physx@@QEAAXPEAX@Z 000000018002773a f   PhysXFoundation_64:PhysXFoundation_64.dll
 0001:00026740       __imp_load_?PxDiagonalize@physx@@YA?AVPxVec3@1@AEBVPxMat33@1@AEAVPxQuat@1@@Z 0000000180027740 f   PhysXFoundation_64:PhysXFoundation_64.dll
 0001:0002674c       ?PxDiagonalize@physx@@YA?AVPxVec3@1@AEBVPxMat33@1@AEAVPxQuat@1@@Z 000000018002774c f   PhysXFoundation_64:PhysXFoundation_64.dll
 0001:00026754       ?DloadAcquireSectionWriteAccess@@YAXXZ 0000000180027754 f i Delayimp:delayhlp.obj
 0001:00026800       ?DloadGetSRWLockFunctionPointers@@YAEXZ 0000000180027800 f i Delayimp:delayhlp.obj
 0001:000268a0       ?DloadMakePermanentImageCommit@@YAXPEAX_K@Z 00000001800278a0 f i Delayimp:delayhlp.obj
 0001:00026938       ?DloadObtainSection@@YAPEAXPEAK0@Z 0000000180027938 f i Delayimp:delayhlp.obj
 0001:000269d4       ?DloadProtectSection@@YAXKPEAK@Z 00000001800279d4 f i Delayimp:delayhlp.obj
 0001:00026a64       ?DloadReleaseSectionWriteAccess@@YAXXZ 0000000180027a64 f i Delayimp:delayhlp.obj
 0001:00026af8       __delayLoadHelper2         0000000180027af8 f   Delayimp:delayhlp.obj
 0001:00026dd0       ??3@YAXPEAX_K@Z            0000000180027dd0 f   MSVCRT:delete_scalar_size.obj
 0001:00026dd0       ??_V@YAXPEAX@Z             0000000180027dd0 f   MSVCRT:delete_array.obj
 0001:00026dd8       ??_Etype_info@@UEAAPEAXI@Z 0000000180027dd8 f i MSVCRT:std_type_info_static.obj
 0001:00026dd8       ??_Gtype_info@@UEAAPEAXI@Z 0000000180027dd8 f i MSVCRT:std_type_info_static.obj
 0001:00026e04       ?__scrt_initialize_type_info@@YAXXZ 0000000180027e04 f   MSVCRT:tncleanup.obj
 0001:00026e14       ?__scrt_uninitialize_type_info@@YAXXZ 0000000180027e14 f   MSVCRT:tncleanup.obj
 0001:00026e30       __chkstk                   0000000180027e30 f   MSVCRT:chkstk.obj
 0001:00026e30       _alloca_probe              0000000180027e30 f   MSVCRT:chkstk.obj
 0001:00026e80       ??3@YAXPEAX@Z              0000000180027e80 f   MSVCRT:delete_scalar.obj
 0001:00026e90       __vdecl_sinf4              0000000180027e90 f   MSVCRT:svml_ssinf4_dispatch.obj
 0001:00026eb0       __libm_sse2_sincosf_       0000000180027eb0 f   MSVCRT:svml_ssinf4_dispatch.obj
 0001:00026ef3       __libm_sse2_sincosf4_      0000000180027ef3 f   MSVCRT:svml_ssinf4_dispatch.obj
 0001:00027220       _DllMainCRTStartup         0000000180028220 f   MSVCRT:dll_dllmain.obj
 0001:00027260       __isa_available_init       0000000180028260 f   MSVCRT:cpu_disp.obj
 0001:00027410       __sse2_sinf4@@16           0000000180028410 f   MSVCRT:svml_ssinf4_sse2.obj
 0001:00027d50       __sse4_sinf4@@16           0000000180028d50 f   MSVCRT:svml_ssinf4_sse4.obj
 0001:000284c4       __security_init_cookie     00000001800294c4 f   MSVCRT:gs_support.obj
 0001:00028570       DllMain                    0000000180029570 f   MSVCRT:dll_dllmain_stub.obj
 0001:00028594       __local_stdio_printf_options 0000000180029594 f i MSVCRT:default_local_stdio_options.obj
 0001:0002859c       __local_stdio_scanf_options 000000018002959c f i MSVCRT:default_local_stdio_options.obj
 0001:000285a4       __scrt_initialize_default_local_stdio_options 00000001800295a4 f   MSVCRT:default_local_stdio_options.obj
 0001:000285c0       __scrt_acquire_startup_lock 00000001800295c0 f   MSVCRT:utility.obj
 0001:000285fc       __scrt_dllmain_after_initialize_c 00000001800295fc f   MSVCRT:utility.obj
 0001:00028630       __scrt_dllmain_before_initialize_c 0000000180029630 f   MSVCRT:utility.obj
 0001:00028648       __scrt_dllmain_crt_thread_attach 0000000180029648 f   MSVCRT:utility.obj
 0001:00028670       __scrt_dllmain_crt_thread_detach 0000000180029670 f   MSVCRT:utility.obj
 0001:00028688       __scrt_dllmain_exception_filter 0000000180029688 f   MSVCRT:utility.obj
 0001:000286e8       __scrt_dllmain_uninitialize_c 00000001800296e8 f   MSVCRT:utility.obj
 0001:00028718       __scrt_dllmain_uninitialize_critical 0000000180029718 f   MSVCRT:utility.obj
 0001:0002872c       __scrt_initialize_crt      000000018002972c f   MSVCRT:utility.obj
 0001:00028778       __scrt_initialize_onexit_tables 0000000180029778 f   MSVCRT:utility.obj
 0001:00028804       __scrt_is_nonwritable_in_current_image 0000000180029804 f   MSVCRT:utility.obj
 0001:0002889c       __scrt_release_startup_lock 000000018002989c f   MSVCRT:utility.obj
 0001:000288c0       __scrt_uninitialize_crt    00000001800298c0 f   MSVCRT:utility.obj
 0001:000288ec       __scrt_get_dyn_tls_init_callback 00000001800298ec f   MSVCRT:dyn_tls_init.obj
 0001:000288f4       __crt_debugger_hook        00000001800298f4 f   MSVCRT:utility_desktop.obj
 0001:000288fc       __scrt_fastfail            00000001800298fc f   MSVCRT:utility_desktop.obj
 0001:00028a48       _RTC_Initialize            0000000180029a48 f   MSVCRT:initsect.obj
 0001:00028a84       _RTC_Terminate             0000000180029a84 f   MSVCRT:initsect.obj
 0001:00028ac0       __common_ssin_cout_rare    0000000180029ac0 f   MSVCRT:svml_s_sin_cout.obj
 0001:00028b30       __scrt_is_ucrt_dll_in_use  0000000180029b30 f   MSVCRT:ucrt_detection.obj
 0001:00028b3c       _purecall                  0000000180029b3c f   vcruntime:VCRUNTIME140.dll
 0001:00028b42       __std_type_info_name       0000000180029b42 f   vcruntime:VCRUNTIME140.dll
 0001:00028b48       memset                     0000000180029b48 f   vcruntime:VCRUNTIME140.dll
 0001:00028b4e       memcpy                     0000000180029b4e f   vcruntime:VCRUNTIME140.dll
 0001:00028b54       strstr                     0000000180029b54 f   vcruntime:VCRUNTIME140.dll
 0001:00028b5a       __std_type_info_destroy_list 0000000180029b5a f   vcruntime:VCRUNTIME140.dll
 0001:00028b60       __C_specific_handler       0000000180029b60 f   vcruntime:VCRUNTIME140.dll
 0001:00028b66       strcmp                     0000000180029b66 f   ucrt:api-ms-win-crt-string-l1-1-0.dll
 0001:00028b6c       atan2f                     0000000180029b6c f   ucrt:api-ms-win-crt-math-l1-1-0.dll
 0001:00028b72       free                       0000000180029b72 f   ucrt:api-ms-win-crt-heap-l1-1-0.dll
 0001:00028b78       _initterm                  0000000180029b78 f   ucrt:api-ms-win-crt-runtime-l1-1-0.dll
 0001:00028b7e       _initterm_e                0000000180029b7e f   ucrt:api-ms-win-crt-runtime-l1-1-0.dll
 0001:00028b84       _seh_filter_dll            0000000180029b84 f   ucrt:api-ms-win-crt-runtime-l1-1-0.dll
 0001:00028b8a       _configure_narrow_argv     0000000180029b8a f   ucrt:api-ms-win-crt-runtime-l1-1-0.dll
 0001:00028b90       _initialize_narrow_environment 0000000180029b90 f   ucrt:api-ms-win-crt-runtime-l1-1-0.dll
 0001:00028b96       _initialize_onexit_table   0000000180029b96 f   ucrt:api-ms-win-crt-runtime-l1-1-0.dll
 0001:00028b9c       _execute_onexit_table      0000000180029b9c f   ucrt:api-ms-win-crt-runtime-l1-1-0.dll
 0001:00028ba2       _cexit                     0000000180029ba2 f   ucrt:api-ms-win-crt-runtime-l1-1-0.dll
 0001:00028ba8       __acrt_initialize          0000000180029ba8 f   MSVCRT:ucrt_stubs.obj
 0001:00028ba8       __acrt_thread_attach       0000000180029ba8 f   MSVCRT:ucrt_stubs.obj
 0001:00028ba8       __acrt_thread_detach       0000000180029ba8 f   MSVCRT:ucrt_stubs.obj
 0001:00028ba8       __acrt_uninitialize        0000000180029ba8 f   MSVCRT:ucrt_stubs.obj
 0001:00028ba8       __acrt_uninitialize_critical 0000000180029ba8 f   MSVCRT:ucrt_stubs.obj
 0001:00028ba8       __scrt_stub_for_acrt_initialize 0000000180029ba8 f   MSVCRT:ucrt_stubs.obj
 0001:00028ba8       __scrt_stub_for_acrt_thread_attach 0000000180029ba8 f   MSVCRT:ucrt_stubs.obj
 0001:00028ba8       __scrt_stub_for_acrt_thread_detach 0000000180029ba8 f   MSVCRT:ucrt_stubs.obj
 0001:00028ba8       __scrt_stub_for_acrt_uninitialize 0000000180029ba8 f   MSVCRT:ucrt_stubs.obj
 0001:00028ba8       __scrt_stub_for_acrt_uninitialize_critical 0000000180029ba8 f   MSVCRT:ucrt_stubs.obj
 0001:00028ba8       __vcrt_initialize          0000000180029ba8 f   MSVCRT:ucrt_stubs.obj
 0001:00028ba8       __vcrt_thread_attach       0000000180029ba8 f   MSVCRT:ucrt_stubs.obj
 0001:00028ba8       __vcrt_thread_detach       0000000180029ba8 f   MSVCRT:ucrt_stubs.obj
 0001:00028ba8       __vcrt_uninitialize        0000000180029ba8 f   MSVCRT:ucrt_stubs.obj
 0001:00028ba8       __vcrt_uninitialize_critical 0000000180029ba8 f   MSVCRT:ucrt_stubs.obj
 0001:00028bc0       _guard_dispatch_icall_nop  0000000180029bc0 f   MSVCRT:guard_dispatch.obj
 0001:00028be0       _guard_xfg_dispatch_icall_nop 0000000180029be0 f   MSVCRT:guard_xfg_dispatch.obj
 0002:00000000       __imp_LoadLibraryA         000000018002a000     kernel32:KERNEL32.dll
 0002:00000008       __imp_SetUnhandledExceptionFilter 000000018002a008     kernel32:KERNEL32.dll
 0002:00000010       __imp_UnhandledExceptionFilter 000000018002a010     kernel32:KERNEL32.dll
 0002:00000018       __imp_IsDebuggerPresent    000000018002a018     kernel32:KERNEL32.dll
 0002:00000020       __imp_RtlVirtualUnwind     000000018002a020     kernel32:KERNEL32.dll
 0002:00000028       __imp_RtlLookupFunctionEntry 000000018002a028     kernel32:KERNEL32.dll
 0002:00000030       __imp_RtlCaptureContext    000000018002a030     kernel32:KERNEL32.dll
 0002:00000038       __imp_DisableThreadLibraryCalls 000000018002a038     kernel32:KERNEL32.dll
 0002:00000040       __imp_GetSystemTimeAsFileTime 000000018002a040     kernel32:KERNEL32.dll
 0002:00000048       __imp_GetCurrentThreadId   000000018002a048     kernel32:KERNEL32.dll
 0002:00000050       __imp_GetCurrentProcessId  000000018002a050     kernel32:KERNEL32.dll
 0002:00000058       __imp_QueryPerformanceCounter 000000018002a058     kernel32:KERNEL32.dll
 0002:00000060       __imp_InitializeSListHead  000000018002a060     kernel32:KERNEL32.dll
 0002:00000068       __imp_LoadLibraryExA       000000018002a068     kernel32:KERNEL32.dll
 0002:00000070       __imp_GetProcAddress       000000018002a070     kernel32:KERNEL32.dll
 0002:00000078       __imp_GetModuleHandleW     000000018002a078     kernel32:KERNEL32.dll
 0002:00000080       __imp_FreeLibrary          000000018002a080     kernel32:KERNEL32.dll
 0002:00000088       __imp_VirtualQuery         000000018002a088     kernel32:KERNEL32.dll
 0002:00000090       __imp_VirtualProtect       000000018002a090     kernel32:KERNEL32.dll
 0002:00000098       __imp_GetSystemInfo        000000018002a098     kernel32:KERNEL32.dll
 0002:000000a0       __imp_GetLastError         000000018002a0a0     kernel32:KERNEL32.dll
 0002:000000a8       __imp_RaiseException       000000018002a0a8     kernel32:KERNEL32.dll
 0002:000000b0       __imp_IsProcessorFeaturePresent 000000018002a0b0     kernel32:KERNEL32.dll
 0002:000000b8       \177KERNEL32_NULL_THUNK_DATA 000000018002a0b8     kernel32:KERNEL32.dll
 0002:000000c0       __imp_memcpy               000000018002a0c0     vcruntime:VCRUNTIME140.dll
 0002:000000c8       __imp_strstr               000000018002a0c8     vcruntime:VCRUNTIME140.dll
 0002:000000d0       __imp___std_type_info_destroy_list 000000018002a0d0     vcruntime:VCRUNTIME140.dll
 0002:000000d8       __imp___C_specific_handler 000000018002a0d8     vcruntime:VCRUNTIME140.dll
 0002:000000e0       __imp_memset               000000018002a0e0     vcruntime:VCRUNTIME140.dll
 0002:000000e8       __imp__purecall            000000018002a0e8     vcruntime:VCRUNTIME140.dll
 0002:000000f0       __imp___std_type_info_name 000000018002a0f0     vcruntime:VCRUNTIME140.dll
 0002:000000f8       \177VCRUNTIME140_NULL_THUNK_DATA 000000018002a0f8     vcruntime:VCRUNTIME140.dll
 0002:00000100       __imp_free                 000000018002a100     ucrt:api-ms-win-crt-heap-l1-1-0.dll
 0002:00000108       \177api-ms-win-crt-heap-l1-1-0_NULL_THUNK_DATA 000000018002a108     ucrt:api-ms-win-crt-heap-l1-1-0.dll
 0002:00000110       __imp__fpclass             000000018002a110     ucrt:api-ms-win-crt-math-l1-1-0.dll
 0002:00000118       __imp_atan2f               000000018002a118     ucrt:api-ms-win-crt-math-l1-1-0.dll
 0002:00000120       \177api-ms-win-crt-math-l1-1-0_NULL_THUNK_DATA 000000018002a120     ucrt:api-ms-win-crt-math-l1-1-0.dll
 0002:00000128       __imp__seh_filter_dll      000000018002a128     ucrt:api-ms-win-crt-runtime-l1-1-0.dll
 0002:00000130       __imp__configure_narrow_argv 000000018002a130     ucrt:api-ms-win-crt-runtime-l1-1-0.dll
 0002:00000138       __imp__initialize_narrow_environment 000000018002a138     ucrt:api-ms-win-crt-runtime-l1-1-0.dll
 0002:00000140       __imp__initterm_e          000000018002a140     ucrt:api-ms-win-crt-runtime-l1-1-0.dll
 0002:00000148       __imp__initialize_onexit_table 000000018002a148     ucrt:api-ms-win-crt-runtime-l1-1-0.dll
 0002:00000150       __imp__execute_onexit_table 000000018002a150     ucrt:api-ms-win-crt-runtime-l1-1-0.dll
 0002:00000158       __imp__initterm            000000018002a158     ucrt:api-ms-win-crt-runtime-l1-1-0.dll
 0002:00000160       __imp__cexit               000000018002a160     ucrt:api-ms-win-crt-runtime-l1-1-0.dll
 0002:00000168       \177api-ms-win-crt-runtime-l1-1-0_NULL_THUNK_DATA 000000018002a168     ucrt:api-ms-win-crt-runtime-l1-1-0.dll
 0002:00000170       __imp_strcmp               000000018002a170     ucrt:api-ms-win-crt-string-l1-1-0.dll
 0002:00000178       \177api-ms-win-crt-string-l1-1-0_NULL_THUNK_DATA 000000018002a178     ucrt:api-ms-win-crt-string-l1-1-0.dll
 0002:00000180       __guard_check_icall_fptr   000000018002a180     MSVCRT:guard_support.obj
 0002:00000188       __guard_xfg_check_icall_fptr 000000018002a188     MSVCRT:guard_support.obj
 0002:00000190       __guard_dispatch_icall_fptr 000000018002a190     MSVCRT:guard_support.obj
 0002:00000198       __guard_xfg_dispatch_icall_fptr 000000018002a198     MSVCRT:guard_support.obj
 0002:000001a0       __guard_xfg_table_dispatch_icall_fptr 000000018002a1a0     MSVCRT:guard_support.obj
 0002:000001a8       __castguard_check_failure_os_handled_fptr 000000018002a1a8     MSVCRT:guard_support.obj
 0002:000001b0       __guard_memcpy_fptr        000000018002a1b0     vcruntime:softmemtag.obj
 0002:000001b8       __xc_a                     000000018002a1b8     MSVCRT:initializers.obj
 0002:000003a0       __xc_z                     000000018002a3a0     MSVCRT:initializers.obj
 0002:000003a8       __xi_a                     000000018002a3a8     MSVCRT:initializers.obj
 0002:000003b0       __xi_z                     000000018002a3b0     MSVCRT:initializers.obj
 0002:000003b8       __xp_a                     000000018002a3b8     MSVCRT:initializers.obj
 0002:000003c0       __xp_z                     000000018002a3c0     MSVCRT:initializers.obj
 0002:000003c8       __xt_a                     000000018002a3c8     MSVCRT:initializers.obj
 0002:000003d0       __xt_z                     000000018002a3d0     MSVCRT:initializers.obj
 0002:000003e0       ??_7PxFoundation@physx@@6B@ 000000018002a3e0     Adjacencies.obj
 0002:00000420       ??_C@_0DM@MOOBGHFH@C?3?2_GIT?2PhysX?2physx?2source?2phys@ 000000018002a420     Adjacencies.obj
 0002:00000460       ??_C@_0DA@FMEHLBKI@Adjacencies?3?3UpdateLink?3?5invali@ 000000018002a460     Adjacencies.obj
 0002:00000490       ??_C@_0EA@CPHOACLK@Adjacencies?3?3CreateDatabase?3?5ca@ 000000018002a490     Adjacencies.obj
 0002:000004d0       ??_C@_0BM@OIFKLHDN@?$DMallocation?5names?5disabled?$DO@ 000000018002a4d0     Adjacencies.obj
 0002:00000510       ?sBufferSize@DebugText@Cm@physx@@2HB 000000018002a510     Cooking.obj
 0002:00000514       ??_C@_06EJKDJEDO@PxBase@   000000018002a514     Cooking.obj
 0002:00000520       ??_C@_0N@CDGINLLF@PxConvexMesh@ 000000018002a520     Cooking.obj
 0002:00000530       ??_C@_0O@PBAKPCEC@PxHeightField@ 000000018002a530     Cooking.obj
 0002:00000540       ??_7PxBase@physx@@6B@      000000018002a540     Cooking.obj
 0002:00000568       ??_7PxCooking@physx@@6B@   000000018002a568     Cooking.obj
 0002:000005e8       ??_7Cooking@physx@@6B@     000000018002a5e8     Cooking.obj
 0002:00000670       ??_C@_0FC@PJIHAFK@Cooking?3?3validateTriangleMesh?3?5@ 000000018002a670     Cooking.obj
 0002:000006c8       ??_C@_0DI@MGIOKICH@C?3?2_GIT?2PhysX?2physx?2source?2phys@ 000000018002a6c8     Cooking.obj
 0002:00000700       ??_C@_0EK@EKAIJEBL@Cooking?3?3cookConvexMesh?3?5user?9p@ 000000018002a700     Cooking.obj
 0002:00000750       ??_C@_0FA@GFFGAPML@Cooking?3?3cookConvexMesh?3?5provid@ 000000018002a750     Cooking.obj
 0002:000007a0       ??_C@_0EP@PKDCPNNO@Cooking?3?3cookConvexMesh?3?5provid@ 000000018002a7a0     Cooking.obj
 0002:000007f0       ??_C@_0EO@LKFMMDE@Cooking?3?3cookConvexMesh?3?5user?9p@ 000000018002a7f0     Cooking.obj
 0002:00000840       ??_C@_0EN@FCEPCAFC@Cooking?3?3createHeightField?3?5use@ 000000018002a840     Cooking.obj
 0002:00000890       ??_C@_0DI@MNOGMMEK@C?3?2_GIT?2PhysX?2physx?2source?2foun@ 000000018002a890     Cooking.obj
 0002:000008c8       __real@3f800000            000000018002a8c8     Cooking.obj
 0002:000008d0       __xmm@000000003a83126f3a83126f3a83126f 000000018002a8d0     Cooking.obj
 0002:000008e0       __xmm@00000000ba83126fba83126fba83126f 000000018002a8e0     Cooking.obj
 0002:000008f0       __xmm@3a83126f3a83126f3a83126f3a83126f 000000018002a8f0     Cooking.obj
 0002:00000900       __xmm@80000000800000008000000080000000 000000018002a900     Cooking.obj
 0002:00000910       __xmm@ba83126fba83126fba83126fba83126f 000000018002a910     Cooking.obj
 0002:00000920       __xmm@cdcdcdcdcdcdcdcdcdcdcdcdcdcdcdcd 000000018002a920     Cooking.obj
 0002:00000930       ??_C@_0DN@CJKNKOJA@C?3?2_GIT?2PhysX?2physx?2source?2phys@ 000000018002a930     CookingUtils.obj
 0002:00000970       ??_C@_06KDGGGLIJ@PxVec3@   000000018002a970     CookingUtils.obj
 0002:00000978       ??_C@_08MOINBLFP@EdgeData@ 000000018002a978     EdgeList.obj
 0002:00000988       ??_C@_0DJ@OBGGNBCA@C?3?2_GIT?2PhysX?2physx?2source?2phys@ 000000018002a988     EdgeList.obj
 0002:000009c8       ??_C@_0N@HMDODPCO@EdgeDescData@ 000000018002a9c8     EdgeList.obj
 0002:000009d8       ??_C@_0CO@GBNJFPN@EdgeList?3?3CreateFacesToEdges?3?5N@ 000000018002a9d8     EdgeList.obj
 0002:00000a08       ??_C@_0BN@EPPJDECF@EdgeListBuilder?5FacesByEdges@ 000000018002aa08     EdgeList.obj
 0002:00000a28       ??_C@_0CO@EHJBBMNK@EdgeList?3?3ComputeActiveEdges?3?5N@ 000000018002aa28     EdgeList.obj
 0002:00000a58       ??_C@_0DI@GBHLFOFP@ActiveEdges?3?3ComputeConvexEdges@ 000000018002aa58     EdgeList.obj
 0002:00000a90       ??_C@_0DM@JOGBLHDI@ActiveEdges?3?3ComputeConvexEdges@ 000000018002aa90     EdgeList.obj
 0002:00000ad0       ??_C@_0ED@FEMJKPEL@ActiveEdges?3?3ComputeConvexEdges@ 000000018002aad0     EdgeList.obj
 0002:00000b20       ??_C@_0EB@BFDPMFCD@ActiveEdges?3?3ComputeConvexEdges@ 000000018002ab20     EdgeList.obj
 0002:00000b64       ??_C@_04DDKJGDCM@bool@     000000018002ab64     EdgeList.obj
 0002:00000b6c       __real@bf7fbe77            000000018002ab6c     EdgeList.obj
 0002:00000b70       __xmm@7fffffff7fffffff7fffffff7fffffff 000000018002ab70     EdgeList.obj
 0002:00000b80       ??_C@_0M@GOCDBJNH@MeshCleaner@ 000000018002ab80     MeshCleaner.obj
 0002:00000b90       ??_C@_0DM@OLLKEKAD@C?3?2_GIT?2PhysX?2physx?2source?2phys@ 000000018002ab90     MeshCleaner.obj
 0002:00000bcc       __real@3f000000            000000018002abcc     MeshCleaner.obj
 0002:00000bd0       ??_7Quantizer@physx@@6B@   000000018002abd0     Quantizer.obj
 0002:00000bf8       ??_7QuantizerImpl@@6B@     000000018002abf8     Quantizer.obj
 0002:00000c20       ??_C@_0DK@PCGCDDPL@C?3?2_GIT?2PhysX?2physx?2source?2phys@ 000000018002ac20     Quantizer.obj
 0002:00000c5c       ??_C@_05LMJPANIN@PxU32@    000000018002ac5c     Quantizer.obj
 0002:00000c64       __real@38d1b717            000000018002ac64     Quantizer.obj
 0002:00000c68       __real@3c23d70a            000000018002ac68     Quantizer.obj
 0002:00000c6c       __real@3f0020c5            000000018002ac6c     Quantizer.obj
 0002:00000c70       __real@3f8020c5            000000018002ac70     Quantizer.obj
 0002:00000c74       __real@7e7fffff            000000018002ac74     Quantizer.obj
 0002:00000c78       __real@7f7fffff            000000018002ac78     Quantizer.obj
 0002:00000c7c       __real@fe7fffff            000000018002ac7c     Quantizer.obj
 0002:00000c80       __xmm@fe7fffff7e7fffff7e7fffff7e7fffff 000000018002ac80     Quantizer.obj
 0002:00000cb0       ??_C@_09JDCJAPKD@PxBounds3@ 000000018002acb0     BVHStructureBuilder.obj
 0002:00000cc0       ??_C@_0EE@CBHPGPOB@C?3?2_GIT?2PhysX?2physx?2source?2phys@ 000000018002acc0     BVHStructureBuilder.obj
 0002:00000d08       ??_C@_0BA@KPLGFFHA@AABB?5tree?5nodes@ 000000018002ad08     BVHStructureBuilder.obj
 0002:00000d20       __xmm@3ba3d70a3ba3d70a3ba3d70a3ba3d70a 000000018002ad20     BVHStructureBuilder.obj
 0002:00000d50       ?reductionFactors@SubSortQuick@physx@@2QBMB 000000018002ad50     RTreeCooking.obj
 0002:00000d60       ?stopAtTrisPerLeaf1@SubSortQuick@physx@@2QBIB 000000018002ad60     RTreeCooking.obj
 0002:00000e08       ??_C@_0BA@DLCJDKDM@NonTrackedAlloc@ 000000018002ae08     RTreeCooking.obj
 0002:00000e18       ??_C@_07ELGPMHDP@metricL@  000000018002ae18     RTreeCooking.obj
 0002:00000e20       ??_C@_0EC@DKOPKOA@C?3?2_GIT?2PhysX?2physx?2source?2phys@ 000000018002ae20     RTreeCooking.obj
 0002:00000e68       ??_C@_07JPCOPIOA@metricR@  000000018002ae68     RTreeCooking.obj
 0002:00000e70       ??_C@_0M@OKCMHFAG@tempPermute@ 000000018002ae70     RTreeCooking.obj
 0002:00000e80       ??_C@_09CMNIGKAE@tempRanks@ 000000018002ae80     RTreeCooking.obj
 0002:00000e90       ??_C@_0DH@JFLNNLCG@C?3?2_GIT?2PhysX?2physx?2source?2foun@ 000000018002ae90     RTreeCooking.obj
 0002:00000ed0       ??_C@_0EA@LHFHPEOP@C?3?2_GIT?2PhysX?2physx?2source?2foun@ 000000018002aed0     RTreeCooking.obj
 0002:00000f10       __real@37800080            000000018002af10     RTreeCooking.obj
 0002:00000f14       __real@41100000            000000018002af14     RTreeCooking.obj
 0002:00000f18       __real@41700000            000000018002af18     RTreeCooking.obj
 0002:00000f1c       __real@42200000            000000018002af1c     RTreeCooking.obj
 0002:00000f20       __real@ff7fffff            000000018002af20     RTreeCooking.obj
 0002:00000f30       __xmm@00000004000000030000000200000001 000000018002af30     RTreeCooking.obj
 0002:00000f40       __xmm@3a03126f3a03126f3a03126f3a03126f 000000018002af40     RTreeCooking.obj
 0002:00000f50       __xmm@3f8000003f8000003f8000003f800000 000000018002af50     RTreeCooking.obj
 0002:00000f60       __xmm@7f7fffff7f7fffff7f7fffff7f7fffff 000000018002af60     RTreeCooking.obj
 0002:00000f70       __xmm@ff7fffffff7fffffff7fffffff7fffff 000000018002af70     RTreeCooking.obj
 0002:00000fa0       __real@34800000            000000018002afa0     MeshBuilder.obj
 0002:00000fd0       ??_7MeshDataBase@Gu@physx@@6B@ 000000018002afd0     TriangleMeshBuilder.obj
 0002:00000fd8       ??_C@_0DL@KBKAGOAF@C?3?2_GIT?2PhysX?2physx?2source?2geom@ 000000018002afd8     TriangleMeshBuilder.obj
 0002:00001018       ??_7TriangleMeshData@Gu@physx@@6B@ 000000018002b018     TriangleMeshBuilder.obj
 0002:00001020       ??_C@_0L@KBOFAKLO@mTriangles@ 000000018002b020     TriangleMeshBuilder.obj
 0002:00001030       ??_C@_0BA@OCOIGPII@mGRB_triIndices@ 000000018002b030     TriangleMeshBuilder.obj
 0002:00001040       ??_7RTreeTriangleData@Gu@physx@@6B@ 000000018002b040     TriangleMeshBuilder.obj
 0002:00001048       ??_7BV4TriangleData@Gu@physx@@6B@ 000000018002b048     TriangleMeshBuilder.obj
 0002:00001050       ??_7RemapCallback@RTreeCooker@physx@@6B@ 000000018002b050     TriangleMeshBuilder.obj
 0002:00001060       ??_7TriangleMeshBuilder@physx@@6B@ 000000018002b060     TriangleMeshBuilder.obj
 0002:00001088       ??_7RTreeTriangleMeshBuilder@physx@@6B@ 000000018002b088     TriangleMeshBuilder.obj
 0002:000010b0       ??_7BV4TriangleMeshBuilder@physx@@6B@ 000000018002b0b0     TriangleMeshBuilder.obj
 0002:000010d8       ??_C@_0M@OJJHBOGG@edgeLookups@ 000000018002b0d8     TriangleMeshBuilder.obj
 0002:000010f0       ??_C@_0EK@JAEBLNHG@C?3?2_GIT?2PhysX?2physx?2source?2phys@ 000000018002b0f0     TriangleMeshBuilder.obj
 0002:00001140       ??_C@_0BF@CCKBOJFO@Gu?3?3TriangleT?$DMPxU32?$DO@ 000000018002b140     TriangleMeshBuilder.obj
 0002:00001160       ??_C@_0EJ@MBEGLGBC@C?3?2_GIT?2PhysX?2physx?2source?2phys@ 000000018002b160     TriangleMeshBuilder.obj
 0002:000011b0       ??_C@_0DJ@IGODLHLP@TriangleMesh?3?5Enable?5mesh?5weldi@ 000000018002b1b0     TriangleMeshBuilder.obj
 0002:000011f0       ??_C@_0FJ@HHJLKGDF@TriangleMesh?3?5triangles?5are?5too@ 000000018002b1f0     TriangleMeshBuilder.obj
 0002:00001250       ??_C@_0CN@KGPHHHLK@TriangleMesh?3?5mesh?5is?5too?5big?5f@ 000000018002b250     TriangleMeshBuilder.obj
 0002:00001280       ??_C@_0BL@DLEDFNFP@tempNormalsPerTri_prealloc@ 000000018002b280     TriangleMeshBuilder.obj
 0002:000012a0       ??_C@_0BD@NDAFHHFF@GRB_triAdjacencies@ 000000018002b2a0     TriangleMeshBuilder.obj
 0002:000012b8       ??_C@_0DD@CMJGDCNN@TriangleMesh?3?3loadFromDesc?3?5des@ 000000018002b2b8     TriangleMeshBuilder.obj
 0002:000012f0       ??_C@_0ED@ILJJNHIP@TriangleMesh?3?3loadFromDesc?3?5mPa@ 000000018002b2f0     TriangleMeshBuilder.obj
 0002:00001338       ??_C@_0CK@BJFFGDPK@input?5mesh?5contains?5corrupted?5v@ 000000018002b338     TriangleMeshBuilder.obj
 0002:00001368       ??_C@_0BJ@BKHDBBHO@cleaning?5the?5mesh?5failed@ 000000018002b368     TriangleMeshBuilder.obj
 0002:00001388       ??_C@_0BK@JIDHMMCE@BV4?5tree?5failed?5to?5build?4@ 000000018002b388     TriangleMeshBuilder.obj
 0002:000013a8       ??_C@_0BL@DHNECNBE@BV32?5tree?5failed?5to?5build?4@ 000000018002b3a8     TriangleMeshBuilder.obj
 0002:000013c8       ??_7RTreeCookerRemap@physx@@6B@ 000000018002b3c8     TriangleMeshBuilder.obj
 0002:000013d8       __real@3951b717            000000018002b3d8     TriangleMeshBuilder.obj
 0002:000013dc       __real@3dcccccd            000000018002b3dc     TriangleMeshBuilder.obj
 0002:000013e0       __real@48742400            000000018002b3e0     TriangleMeshBuilder.obj
 0002:000013f0       __xmm@00000003000000020000000100000000 000000018002b3f0     TriangleMeshBuilder.obj
 0002:00001420       ??_C@_0EM@POFMFHE@C?3?2_GIT?2PhysX?2physx?2source?2phys@ 000000018002b420     BigConvexDataBuilder.obj
 0002:00001470       ??_C@_0BD@PGLLAGCI@BigConvexData?5data@ 000000018002b470     BigConvexDataBuilder.obj
 0002:00001484       __real@40000000            000000018002b484     BigConvexDataBuilder.obj
 0002:000014b0       ??_C@_0EJ@FDPIFEHH@C?3?2_GIT?2PhysX?2physx?2source?2phys@ 000000018002b4b0     ConvexHullBuilder.obj
 0002:00001500       ??_C@_0EB@DCEIFDGC@ConvexHullBuilder?3?3init?3?5convex@ 000000018002b500     ConvexHullBuilder.obj
 0002:00001548       ??_C@_0BE@KOOOMNLC@Gu?3?3HullPolygonData@ 000000018002b548     ConvexHullBuilder.obj
 0002:00001560       ??_C@_0FM@KICBLCBH@Gu?3?3ConvexMesh?3?3checkHullPolygo@ 000000018002b560     ConvexHullBuilder.obj
 0002:000015c0       ??_C@_0GO@HBFIOGLL@Gu?3?3ConvexMesh?3?3checkHullPolygo@ 000000018002b5c0     ConvexHullBuilder.obj
 0002:00001630       ??_C@_0BE@EJGGFHND@ConvexHullData?5data@ 000000018002b630     ConvexHullBuilder.obj
 0002:00001650       ??_C@_0HF@OLJFBIEL@ConvexHullBuilder?3?5convex?5hull?5@ 000000018002b650     ConvexHullBuilder.obj
 0002:000016d0       ??_C@_0OG@JNHFOIL@ConvexHullBuilder?3?5convex?5hull?5@ 000000018002b6d0     ConvexHullBuilder.obj
 0002:000017c0       ??_C@_0EJ@NIOIBAKH@Cooking?3?3cookConvexMesh?3?5non?9ma@ 000000018002b7c0     ConvexHullBuilder.obj
 0002:0000180c       __real@3ca3d70a            000000018002b80c     ConvexHullBuilder.obj
 0002:00001810       __real@3eaaaaab            000000018002b810     ConvexHullBuilder.obj
 0002:00001818       ??_7ConvexHullLib@physx@@6B@ 000000018002b818     ConvexHullLib.obj
 0002:00001840       ??_C@_0EF@BAMKABCI@C?3?2_GIT?2PhysX?2physx?2source?2phys@ 000000018002b840     ConvexHullLib.obj
 0002:00001890       ??_C@_0JE@PABBNGEL@ConvexHullLib?3?3cleanupVertices?3@ 000000018002b890     ConvexHullLib.obj
 0002:00001924       __real@358637bd            000000018002b924     ConvexHullLib.obj
 0002:00001928       __real@3d4ccccd            000000018002b928     ConvexHullLib.obj
 0002:00001950       ??_C@_0EH@JPAHGDBC@C?3?2_GIT?2PhysX?2physx?2source?2phys@ 000000018002b950     ConvexHullUtils.obj
 0002:00001998       ??_C@_04NCKNBPPK@PxU8@     000000018002b998     ConvexHullUtils.obj
 0002:000019a0       ??_C@_05CDCIKCPI@Vec4V@    000000018002b9a0     ConvexHullUtils.obj
 0002:000019a8       __real@3e20d97c            000000018002b9a8     ConvexHullUtils.obj
 0002:000019b0       __xmm@00800000008000000080000000800000 000000018002b9b0     ConvexHullUtils.obj
 0002:000019c0       __xmm@3f0000003f0000003f0000003f000000 000000018002b9c0     ConvexHullUtils.obj
 0002:000019d0       __xmm@bf000000bf000000bf000000bf000000 000000018002b9d0     ConvexHullUtils.obj
 0002:00001a00       ??_C@_0DF@LLFJIJGM@Gu?3?3ConvexMesh?3?3loadFromDesc?3?5d@ 000000018002ba00     ConvexMeshBuilder.obj
 0002:00001a40       ??_C@_0EJ@JNFMPECC@C?3?2_GIT?2PhysX?2physx?2source?2phys@ 000000018002ba40     ConvexMeshBuilder.obj
 0002:00001a90       ??_C@_0HK@JOGKIEAA@Gu?3?3ConvexMesh?3?5Mesh?5has?5a?5nega@ 000000018002ba90     ConvexMeshBuilder.obj
 0002:00001b10       ??_C@_0DH@NJPPHFFD@Gu?3?3ConvexMesh?3?5Error?5computing@ 000000018002bb10     ConvexMeshBuilder.obj
 0002:00001b48       ??_C@_0DJ@LJDLGLDJ@Gu?3?3ConvexMesh?3?3loadConvexHull?3@ 000000018002bb48     ConvexMeshBuilder.obj
 0002:00001b90       ??_C@_0HJ@KJANPPOE@ConvexMeshBuilder?3?3computeHullP@ 000000018002bb90     ConvexMeshBuilder.obj
 0002:00001c10       ??_C@_0O@JMAGMMGG@PxHullPolygon@ 000000018002bc10     ConvexMeshBuilder.obj
 0002:00001c20       __real@33d6bf95            000000018002bc20     ConvexMeshBuilder.obj
 0002:00001c24       __real@3f13cd3a            000000018002bc24     ConvexMeshBuilder.obj
 0002:00001c28       __real@b3d6bf95            000000018002bc28     ConvexMeshBuilder.obj
 0002:00001c2c       __real@bf800000            000000018002bc2c     ConvexMeshBuilder.obj
 0002:00001c30       __xmm@80000000000000008000000000000000 000000018002bc30     ConvexMeshBuilder.obj
 0002:00001c40       ??_C@_0DP@PJBJBEGF@Meshmerizer?3?3extractHullPolygon@ 000000018002bc40     ConvexPolygonsBuilder.obj
 0002:00001c80       ??_C@_0EN@NDMJOIKP@C?3?2_GIT?2PhysX?2physx?2source?2phys@ 000000018002bc80     ConvexPolygonsBuilder.obj
 0002:00001cd0       ??_C@_0BL@MFNKFFFN@Reduced?5vertices?5hull?5data@ 000000018002bcd0     ConvexPolygonsBuilder.obj
 0002:00001cf0       ??_C@_0DL@IAFKOCCK@ConvexHullBuilder?3?5convex?5hull?5@ 000000018002bcf0     ConvexPolygonsBuilder.obj
 0002:00001d30       ??_C@_0GF@OJLJHAMH@ConvexHullBuilder?3?3CreateTriang@ 000000018002bd30     ConvexPolygonsBuilder.obj
 0002:00001d98       __real@3ba3d70a            000000018002bd98     ConvexPolygonsBuilder.obj
 0002:00001da0       ??_7QuickHullConvexHullLib@physx@@6B@ 000000018002bda0     QuickHullConvexHullLib.obj
 0002:00001dc0       ??_C@_0BA@BPKNMKIA@QuickHullVertex@ 000000018002bdc0     QuickHullConvexHullLib.obj
 0002:00001dd0       ??_C@_0EO@KNDLFMIF@C?3?2_GIT?2PhysX?2physx?2source?2phys@ 000000018002bdd0     QuickHullConvexHullLib.obj
 0002:00001e20       ??_C@_0GA@EPPAEJPM@QuickHullConvexHullLib?3?3findSim@ 000000018002be20     QuickHullConvexHullLib.obj
 0002:00001e80       ??_C@_0FB@NEBIJMML@QuickHullConvexHullLib?3?3findSim@ 000000018002be80     QuickHullConvexHullLib.obj
 0002:00001ee0       ??_C@_0FB@CLLCBEMM@QuickHullConvexHullLib?3?3findSim@ 000000018002bee0     QuickHullConvexHullLib.obj
 0002:00001f38       ??_C@_0P@OFIBMBPE@ConvexMeshDesc@ 000000018002bf38     QuickHullConvexHullLib.obj
 0002:00001f48       ??_C@_0BD@NDHBJDBB@Quickhull?5MemBlock@ 000000018002bf48     QuickHullConvexHullLib.obj
 0002:00001f5c       __real@34c00000            000000018002bf5c     QuickHullConvexHullLib.obj
 0002:00001f60       __real@3e800000            000000018002bf60     QuickHullConvexHullLib.obj
 0002:00001f90       __real@00000000            000000018002bf90     VolumeIntegration.obj
 0002:00001fa0       __xmm@3c0888893c0888893c0888893c088889 000000018002bfa0     VolumeIntegration.obj
 0002:00001fb0       __xmm@3c8888893c8888893c8888893c888889 000000018002bfb0     VolumeIntegration.obj
 0002:00001fc0       __xmm@3d2aaaab3d2aaaab3d2aaaab3d2aaaab 000000018002bfc0     VolumeIntegration.obj
 0002:00001fd0       __xmm@3e2aaaab3e2aaaab3e2aaaab3e2aaaab 000000018002bfd0     VolumeIntegration.obj
 0002:00001fe0       __xmm@3f811111111111113f81111111111111 000000018002bfe0     VolumeIntegration.obj
 0002:00001ff0       __xmm@3f811111111111113f91111111111111 000000018002bff0     VolumeIntegration.obj
 0002:00002000       __xmm@3f911111111111113f91111111111111 000000018002c000     VolumeIntegration.obj
 0002:00002010       __xmm@3fa55555555555553fa5555555555555 000000018002c010     VolumeIntegration.obj
 0002:00002020       __xmm@3fa55555555555553fc5555555555555 000000018002c020     VolumeIntegration.obj
 0002:00002030       ??_C@_0BA@EGLNOO@PhysXFoundation@ 000000018002c030     WindowsCookingDelayLoadHook.obj
 0002:00002040       ??_C@_0M@ILKNCJKN@PhysXCommon@ 000000018002c040     WindowsCookingDelayLoadHook.obj
 0002:00002050       __sz_PhysXCommon_64_dll    000000018002c050     PhysXCommon_64:PhysXCommon_64.dll
 0002:00002070       __sz_PhysXFoundation_64_dll 000000018002c070     PhysXFoundation_64:PhysXFoundation_64.dll
 0002:00002088       ??_C@_1BK@DBDEIDLH@?$AAK?$AAE?$AAR?$AAN?$AAE?$AAL?$AA3?$AA2?$AA?4?$AAD?$AAL?$AAL@ 000000018002c088     Delayimp:delayhlp.obj
 0002:000020a8       ??_C@_0BI@OMNLIJDB@AcquireSRWLockExclusive@ 000000018002c0a8     Delayimp:delayhlp.obj
 0002:000020c0       ??_C@_0BI@HMIEPCNJ@ReleaseSRWLockExclusive@ 000000018002c0c0     Delayimp:delayhlp.obj
 0002:000020d8       __pfnDliFailureHook2       000000018002c0d8     Delayimp:delayhk1.obj
 0002:000020e8       ??_7type_info@@6B@         000000018002c0e8     MSVCRT:std_type_info_static.obj
 0002:00002150       _pDefaultRawDllMain        000000018002c150     MSVCRT:dll_dllmain.obj
 0002:00002150       _pRawDllMain               000000018002c150     MSVCRT:dll_dllmain.obj
 0002:00002160       _load_config_used          000000018002c160     MSVCRT:loadcfg.obj
 0002:000022a0       __xmm@ffffffffffffffffffffffffffffffff 000000018002c2a0     MSVCRT:utility.obj
 0002:00002380       ??_R4type_info@@6B@        000000018002c380     MSVCRT:std_type_info_static.obj
 0002:000023a8       ??_R3type_info@@8          000000018002c3a8     MSVCRT:std_type_info_static.obj
 0002:000023c0       ??_R2type_info@@8          000000018002c3c0     MSVCRT:std_type_info_static.obj
 0002:000023d0       ??_R1A@?0A@EA@type_info@@8 000000018002c3d0     MSVCRT:std_type_info_static.obj
 0002:000023f4       __volatile_metadata        000000018002c3f4     <linker-defined>
 0002:00002850       __rtc_iaa                  000000018002c850     MSVCRT:initsect.obj
 0002:00002858       __rtc_izz                  000000018002c858     MSVCRT:initsect.obj
 0002:00002860       __rtc_taa                  000000018002c860     MSVCRT:initsect.obj
 0002:00002868       __rtc_tzz                  000000018002c868     MSVCRT:initsect.obj
 0002:00005478       __DELAY_IMPORT_DESCRIPTOR_physxcommon_64_dll 000000018002f478     PhysXCommon_64:PhysXCommon_64.dll
 0002:00005498       __DELAY_IMPORT_DESCRIPTOR_physxfoundation_64_dll 000000018002f498     PhysXFoundation_64:PhysXFoundation_64.dll
 0002:000054b8       __NULL_DELAY_IMPORT_DESCRIPTOR 000000018002f4b8     PhysXCommon_64:PhysXCommon_64.dll
 0002:000055f8       \177PhysXCommon_64_NULL_THUNK_DATA_DLN 000000018002f5f8     PhysXCommon_64:PhysXCommon_64.dll
 0002:00005680       \177PhysXFoundation_64_NULL_THUNK_DATA_DLN 000000018002f680     PhysXFoundation_64:PhysXFoundation_64.dll
 0002:000060e0       \177PhysXCommon_64_NULL_THUNK_DATA_DLB 00000001800300e0     PhysXCommon_64:PhysXCommon_64.dll
 0002:00006208       \177PhysXFoundation_64_NULL_THUNK_DATA_DLB 0000000180030208     PhysXFoundation_64:PhysXFoundation_64.dll
 0002:00007fc4       __IMPORT_DESCRIPTOR_KERNEL32 0000000180031fc4     kernel32:KERNEL32.dll
 0002:00007fd8       __IMPORT_DESCRIPTOR_VCRUNTIME140 0000000180031fd8     vcruntime:VCRUNTIME140.dll
 0002:00007fec       __IMPORT_DESCRIPTOR_api-ms-win-crt-string-l1-1-0 0000000180031fec     ucrt:api-ms-win-crt-string-l1-1-0.dll
 0002:00008000       __IMPORT_DESCRIPTOR_api-ms-win-crt-math-l1-1-0 0000000180032000     ucrt:api-ms-win-crt-math-l1-1-0.dll
 0002:00008014       __IMPORT_DESCRIPTOR_api-ms-win-crt-heap-l1-1-0 0000000180032014     ucrt:api-ms-win-crt-heap-l1-1-0.dll
 0002:00008028       __IMPORT_DESCRIPTOR_api-ms-win-crt-runtime-l1-1-0 0000000180032028     ucrt:api-ms-win-crt-runtime-l1-1-0.dll
 0002:0000803c       __NULL_IMPORT_DESCRIPTOR   000000018003203c     kernel32:KERNEL32.dll
 0003:00000008       __pfnDliNotifyHook2        0000000180033008     WindowsCookingDelayLoadHook.obj
 0003:00000010       _fltused                   0000000180033010     MSVCRT:fltused.obj
 0003:00000020       __isa_available            0000000180033020     MSVCRT:cpu_disp.obj
 0003:00000024       __isa_enabled              0000000180033024     MSVCRT:cpu_disp.obj
 0003:00000028       __memset_fast_string_threshold 0000000180033028     MSVCRT:cpu_disp.obj
 0003:00000030       __memset_nt_threshold      0000000180033030     MSVCRT:cpu_disp.obj
 0003:00000040       __scrt_native_dllmain_reason 0000000180033040     MSVCRT:utility.obj
 0003:00000048       __security_cookie_complement 0000000180033048     MSVCRT:gs_cookie.obj
 0003:00000050       __security_cookie          0000000180033050     MSVCRT:gs_cookie.obj
 0003:00000060       __scrt_ucrt_dll_is_in_use  0000000180033060     MSVCRT:ucrt_stubs.obj
 0003:00000068       ??_R0?AVAdjEdge@@@8        0000000180033068     Adjacencies.obj
 0003:00000088       ??_R0I@8                   0000000180033088     Adjacencies.obj
 0003:000000a0       ??_R0?AVAdjTriangle@physx@@@8 00000001800330a0     Adjacencies.obj
 0003:000000c8       ??_R0?AVHeightField@Gu@physx@@@8 00000001800330c8     Cooking.obj
 0003:000000f8       ??_R0?AVCooking@physx@@@8  00000001800330f8     Cooking.obj
 0003:00000120       ??_R0?AVQuickHullConvexHullLib@physx@@@8 0000000180033120     Cooking.obj
 0003:00000158       ??_R0M@8                   0000000180033158     CookingUtils.obj
 0003:00000170       ??_R0?AUEdgeData@Gu@physx@@@8 0000000180033170     EdgeList.obj
 0003:00000198       ??_R0?AUEdgeTriangleData@Gu@physx@@@8 0000000180033198     EdgeList.obj
 0003:000001c8       ??_R0?AVQuantizerImpl@@@8  00000001800331c8     Quantizer.obj
 0003:000001f0       ??_R0?AVEdgeListBuilder@Gu@physx@@@8 00000001800331f0     TriangleMeshBuilder.obj
 0003:00000220       ??_R0?AVBV32Tree@Gu@physx@@@8 0000000180033220     TriangleMeshBuilder.obj
 0003:00000248       ??_R0E@8                   0000000180033248     TriangleMeshBuilder.obj
 0003:00000260       ??_R0G@8                   0000000180033260     TriangleMeshBuilder.obj
 0003:00000278       ??_R0?AUEdgeDescData@Gu@physx@@@8 0000000180033278     ConvexHullBuilder.obj
 0003:000002a8       ??_R0_N@8                  00000001800332a8     ConvexHullBuilder.obj
 0003:000002c0       ??_R0?AVConvexHull@physx@@@8 00000001800332c0     ConvexHullUtils.obj
 0003:000002e8       ??_R0?AVBigConvexData@physx@@@8 00000001800332e8     ConvexMeshBuilder.obj
 0003:00000318       ??_R0?AUHullTriangleData@physx@@@8 0000000180033318     ConvexPolygonsBuilder.obj
 0003:00000348       ??_R0?AVQuickHull@local@@@8 0000000180033348     QuickHullConvexHullLib.obj
 0003:00000370       ??_R0?AVtype_info@@@8      0000000180033370     MSVCRT:std_type_info_static.obj
 0003:00000390       __imp_??0RadixSortBuffered@Cm@physx@@QEAA@XZ 0000000180033390     PhysXCommon_64:PhysXCommon_64.dll
 0003:00000398       __imp_??1BigConvexData@physx@@QEAA@XZ 0000000180033398     PhysXCommon_64:PhysXCommon_64.dll
 0003:000003a0       __imp_??1RadixSortBuffered@Cm@physx@@UEAA@XZ 00000001800333a0     PhysXCommon_64:PhysXCommon_64.dll
 0003:000003a8       __imp_?Sort@RadixSortBuffered@Cm@physx@@QEAAAEAV123@PEBIIW4RadixHint@23@@Z 00000001800333a8     PhysXCommon_64:PhysXCommon_64.dll
 0003:000003b0       __imp_??0HeightField@Gu@physx@@QEAA@PEAVGuMeshFactory@2@@Z 00000001800333b0     PhysXCommon_64:PhysXCommon_64.dll
 0003:000003b8       __imp_?loadFromDesc@HeightField@Gu@physx@@QEAA_NAEBVPxHeightFieldDesc@3@@Z 00000001800333b8     PhysXCommon_64:PhysXCommon_64.dll
 0003:000003c0       __imp_?computeCellCoordinates@HeightField@Gu@physx@@QEBAIMMAEAM0@Z 00000001800333c0     PhysXCommon_64:PhysXCommon_64.dll
 0003:000003c8       __imp_?releaseMemory@HeightField@Gu@physx@@QEAAXXZ 00000001800333c8     PhysXCommon_64:PhysXCommon_64.dll
 0003:000003d0       __imp_??1HeightField@Gu@physx@@UEAA@XZ 00000001800333d0     PhysXCommon_64:PhysXCommon_64.dll
 0003:000003d8       __imp_??0NodeAllocator@Gu@physx@@QEAA@XZ 00000001800333d8     PhysXCommon_64:PhysXCommon_64.dll
 0003:000003e0       __imp_??1NodeAllocator@Gu@physx@@QEAA@XZ 00000001800333e0     PhysXCommon_64:PhysXCommon_64.dll
 0003:000003e8       __imp_?release@NodeAllocator@Gu@physx@@QEAAXXZ 00000001800333e8     PhysXCommon_64:PhysXCommon_64.dll
 0003:000003f0       __imp_?buildAABBTree@Gu@physx@@YA_NAEAVAABBTreeBuildParams@12@AEAVNodeAllocator@12@AEAUBuildStats@12@AEAPEAI@Z 00000001800333f0     PhysXCommon_64:PhysXCommon_64.dll
 0003:000003f8       __imp_?writeDword@physx@@YAXI_NAEAVPxOutputStream@1@@Z 00000001800333f8     PhysXCommon_64:PhysXCommon_64.dll
 0003:00000400       __imp_?writeFloatBuffer@physx@@YAXPEBMI_NAEAVPxOutputStream@1@@Z 0000000180033400     PhysXCommon_64:PhysXCommon_64.dll
 0003:00000408       __imp_?writeHeader@physx@@YA_NCCCCI_NAEAVPxOutputStream@1@@Z 0000000180033408     PhysXCommon_64:PhysXCommon_64.dll
 0003:00000410       __imp_?writeWord@physx@@YAXG_NAEAVPxOutputStream@1@@Z 0000000180033410     PhysXCommon_64:PhysXCommon_64.dll
 0003:00000418       __imp_?writeFloat@physx@@YAXM_NAEAVPxOutputStream@1@@Z 0000000180033418     PhysXCommon_64:PhysXCommon_64.dll
 0003:00000420       __imp_?computeBoundsAroundVertices@Gu@physx@@YAXAEAVPxBounds3@2@IPEIBVPxVec3@2@@Z 0000000180033420     PhysXCommon_64:PhysXCommon_64.dll
 0003:00000428       __imp_??0SourceMesh@Gu@physx@@QEAA@XZ 0000000180033428     PhysXCommon_64:PhysXCommon_64.dll
 0003:00000430       __imp_??1SourceMesh@Gu@physx@@QEAA@XZ 0000000180033430     PhysXCommon_64:PhysXCommon_64.dll
 0003:00000438       __imp_??0BV4Tree@Gu@physx@@QEAA@XZ 0000000180033438     PhysXCommon_64:PhysXCommon_64.dll
 0003:00000440       __imp_??1BV4Tree@Gu@physx@@QEAA@XZ 0000000180033440     PhysXCommon_64:PhysXCommon_64.dll
 0003:00000448       __imp_??0BV32Tree@Gu@physx@@QEAA@XZ 0000000180033448     PhysXCommon_64:PhysXCommon_64.dll
 0003:00000450       __imp_??1BV32Tree@Gu@physx@@QEAA@XZ 0000000180033450     PhysXCommon_64:PhysXCommon_64.dll
 0003:00000458       __imp_?writeWordBuffer@physx@@YAXPEBGI_NAEAVPxOutputStream@1@@Z 0000000180033458     PhysXCommon_64:PhysXCommon_64.dll
 0003:00000460       __imp_?computeMaxIndex@physx@@YAIPEBII@Z 0000000180033460     PhysXCommon_64:PhysXCommon_64.dll
 0003:00000468       __imp_?storeIndices@physx@@YAXIIPEBIAEAVPxOutputStream@1@_N@Z 0000000180033468     PhysXCommon_64:PhysXCommon_64.dll
 0003:00000470       __imp_?BuildBV4Ex@Gu@physx@@YA_NAEAVBV4Tree@12@AEAVSourceMesh@12@MI@Z 0000000180033470     PhysXCommon_64:PhysXCommon_64.dll
 0003:00000478       __imp_?BuildBV32Ex@Gu@physx@@YA_NAEAVBV32Tree@12@AEAVSourceMesh@12@MI@Z 0000000180033478     PhysXCommon_64:PhysXCommon_64.dll
 0003:00000480       __imp_?computeMaxIndex@physx@@YAGPEBGI@Z 0000000180033480     PhysXCommon_64:PhysXCommon_64.dll
 0003:00000488       __imp_?WriteHeader@Gu@physx@@YA_NEEEEI_NAEAVPxOutputStream@2@@Z 0000000180033488     PhysXCommon_64:PhysXCommon_64.dll
 0003:00000490       __imp_?StoreIndices@Gu@physx@@YAXGIPEBGAEAVPxOutputStream@2@_N@Z 0000000180033490     PhysXCommon_64:PhysXCommon_64.dll
 0003:00000498       __imp_?CreateOffsets@BigConvexData@physx@@IEAAXXZ 0000000180033498     PhysXCommon_64:PhysXCommon_64.dll
 0003:000004a0       __imp_?computeOBBPoints@Gu@physx@@YAXPEIAVPxVec3@2@AEBV32@1111@Z 00000001800334a0     PhysXCommon_64:PhysXCommon_64.dll
 0003:000004a8       __imp_??0BigConvexData@physx@@QEAA@XZ 00000001800334a8     PhysXCommon_64:PhysXCommon_64.dll
 0003:000004b0       \177PhysXCommon_64_NULL_THUNK_DATA_DLA 00000001800334b0     PhysXCommon_64:PhysXCommon_64.dll
 0003:000004b8       __imp_PxGetFoundation      00000001800334b8     PhysXFoundation_64:PhysXFoundation_64.dll
 0003:000004c0       __imp_?deallocate@TempAllocator@shdfnd@physx@@QEAAXPEAX@Z 00000001800334c0     PhysXFoundation_64:PhysXFoundation_64.dll
 0003:000004c8       __imp_?getAllocator@shdfnd@physx@@YAAEAVPxAllocatorCallback@2@XZ 00000001800334c8     PhysXFoundation_64:PhysXFoundation_64.dll
 0003:000004d0       __imp_??0NamedAllocator@shdfnd@physx@@QEAA@PEBD@Z 00000001800334d0     PhysXFoundation_64:PhysXFoundation_64.dll
 0003:000004d8       __imp_?getInstance@Foundation@shdfnd@physx@@SAAEAV123@XZ 00000001800334d8     PhysXFoundation_64:PhysXFoundation_64.dll
 0003:000004e0       __imp_?error@Foundation@shdfnd@physx@@QEAAXW4Enum@PxErrorCode@3@PEBDH1ZZ 00000001800334e0     PhysXFoundation_64:PhysXFoundation_64.dll
 0003:000004e8       __imp_?allocate@NamedAllocator@shdfnd@physx@@QEAAPEAX_KPEBDH@Z 00000001800334e8     PhysXFoundation_64:PhysXFoundation_64.dll
 0003:000004f0       __imp_?deallocate@NamedAllocator@shdfnd@physx@@QEAAXPEAX@Z 00000001800334f0     PhysXFoundation_64:PhysXFoundation_64.dll
 0003:000004f8       __imp_?incRefCount@Foundation@shdfnd@physx@@SAXXZ 00000001800334f8     PhysXFoundation_64:PhysXFoundation_64.dll
 0003:00000500       __imp_?decRefCount@Foundation@shdfnd@physx@@SAXXZ 0000000180033500     PhysXFoundation_64:PhysXFoundation_64.dll
 0003:00000508       __imp_??0FPUGuard@shdfnd@physx@@QEAA@XZ 0000000180033508     PhysXFoundation_64:PhysXFoundation_64.dll
 0003:00000510       __imp_??1FPUGuard@shdfnd@physx@@QEAA@XZ 0000000180033510     PhysXFoundation_64:PhysXFoundation_64.dll
 0003:00000518       __imp_??1NamedAllocator@shdfnd@physx@@QEAA@XZ 0000000180033518     PhysXFoundation_64:PhysXFoundation_64.dll
 0003:00000520       __imp_??0NamedAllocator@shdfnd@physx@@QEAA@AEBV012@@Z 0000000180033520     PhysXFoundation_64:PhysXFoundation_64.dll
 0003:00000528       __imp_?allocate@TempAllocator@shdfnd@physx@@QEAAPEAX_KPEBDH@Z 0000000180033528     PhysXFoundation_64:PhysXFoundation_64.dll
 0003:00000530       __imp_?PxDiagonalize@physx@@YA?AVPxVec3@1@AEBVPxMat33@1@AEAVPxQuat@1@@Z 0000000180033530     PhysXFoundation_64:PhysXFoundation_64.dll
 0003:00000538       \177PhysXFoundation_64_NULL_THUNK_DATA_DLA 0000000180033538     PhysXFoundation_64:PhysXFoundation_64.dll
 0003:00000908       __hmod__PhysXCommon_64_dll 0000000180033908     PhysXCommon_64:PhysXCommon_64.dll
 0003:00000910       __hmod__PhysXFoundation_64_dll 0000000180033910     PhysXFoundation_64:PhysXFoundation_64.dll
 0003:00000918       ?DloadKernel32@@3PEAUHINSTANCE__@@EA 0000000180033918     Delayimp:delayhlp.obj
 0003:00000920       ?DloadAcquireSRWLockExclusive@@3P6AXPEA_K@ZEA 0000000180033920     Delayimp:delayhlp.obj
 0003:00000928       ?DloadReleaseSRWLockExclusive@@3P6AXPEA_K@ZEA 0000000180033928     Delayimp:delayhlp.obj
 0003:00000930       ?DloadSrwLock@@3_KA        0000000180033930     Delayimp:delayhlp.obj
 0003:00000938       ?DloadSectionLockCount@@3KA 0000000180033938     Delayimp:delayhlp.obj
 0003:0000093c       ?DloadSectionOldProtection@@3KA 000000018003393c     Delayimp:delayhlp.obj
 0003:00000940       ?DloadSectionCommitPermanent@@3KA 0000000180033940     Delayimp:delayhlp.obj
 0003:00000950       ?__type_info_root_node@@3U__type_info_node@@A 0000000180033950     MSVCRT:tncleanup.obj
 0003:00000964       __favor                    0000000180033964     MSVCRT:cpu_disp.obj
 0003:00000968       ?_OptionsStorage@?1??__local_stdio_printf_options@@9@4_KA 0000000180033968     MSVCRT:default_local_stdio_options.obj
 0003:00000970       ?_OptionsStorage@?1??__local_stdio_scanf_options@@9@4_KA 0000000180033970     MSVCRT:default_local_stdio_options.obj
 0003:00000978       __scrt_current_native_startup_state 0000000180033978     MSVCRT:utility.obj
 0003:00000980       __scrt_native_startup_lock 0000000180033980     MSVCRT:utility.obj
 0003:000009c0       __scrt_debugger_hook_flag  00000001800339c0     MSVCRT:utility_desktop.obj
 0003:000009c8       __dyn_tls_init_callback    00000001800339c8     <common>
 0005:00000100       __common_ssin_reduction_data 0000000180036100     MSVCRT:svml_s_sin_data.obj
 0005:00000d00       __common_ssin_data         0000000180036d00     MSVCRT:svml_s_sin_data.obj

 entry point at        0001:00027220

 Static symbols

 0000:fffc5000       .debug$S                   0000000180000000     PhysXCooking_64.exp
 0000:fffc5000       .debug$S                   0000000180000000     ucrt:api-ms-win-crt-heap-l1-1-0.dll
 0000:fffc5000       .debug$S                   0000000180000000     ucrt:api-ms-win-crt-math-l1-1-0.dll
 0000:fffc5000       .debug$S                   0000000180000000     ucrt:api-ms-win-crt-math-l1-1-0.dll
 0000:fffc5000       .debug$S                   0000000180000000     ucrt:api-ms-win-crt-math-l1-1-0.dll
 0000:fffc5000       .debug$S                   0000000180000000     ucrt:api-ms-win-crt-math-l1-1-0.dll
 0000:fffc5000       .debug$S                   0000000180000000     ucrt:api-ms-win-crt-runtime-l1-1-0.dll
 0000:fffc5000       .debug$S                   0000000180000000     ucrt:api-ms-win-crt-runtime-l1-1-0.dll
 0000:fffc5000       .debug$S                   0000000180000000     ucrt:api-ms-win-crt-runtime-l1-1-0.dll
 0000:fffc5000       .debug$S                   0000000180000000     ucrt:api-ms-win-crt-runtime-l1-1-0.dll
 0000:fffc5000       .debug$S                   0000000180000000     ucrt:api-ms-win-crt-runtime-l1-1-0.dll
 0000:fffc5000       .debug$S                   0000000180000000     ucrt:api-ms-win-crt-runtime-l1-1-0.dll
 0000:fffc5000       .debug$S                   0000000180000000     ucrt:api-ms-win-crt-runtime-l1-1-0.dll
 0000:fffc5000       .debug$S                   0000000180000000     ucrt:api-ms-win-crt-runtime-l1-1-0.dll
 0000:fffc5000       .debug$S                   0000000180000000     ucrt:api-ms-win-crt-runtime-l1-1-0.dll
 0000:fffc5000       .debug$S                   0000000180000000     ucrt:api-ms-win-crt-runtime-l1-1-0.dll
 0000:fffc5000       .debug$S                   0000000180000000     ucrt:api-ms-win-crt-runtime-l1-1-0.dll
 0000:fffc5000       .debug$S                   0000000180000000     ucrt:api-ms-win-crt-runtime-l1-1-0.dll
 0000:fffc5000       .debug$S                   0000000180000000     ucrt:api-ms-win-crt-string-l1-1-0.dll
 0000:fffc5000       .debug$S                   0000000180000000     kernel32:KERNEL32.dll
 0000:fffc5000       .debug$S                   0000000180000000     kernel32:KERNEL32.dll
 0000:fffc5000       .debug$S                   0000000180000000     kernel32:KERNEL32.dll
 0000:fffc5000       .debug$S                   0000000180000000     kernel32:KERNEL32.dll
 0000:fffc5000       .debug$S                   0000000180000000     kernel32:KERNEL32.dll
 0000:fffc5000       .debug$S                   0000000180000000     kernel32:KERNEL32.dll
 0000:fffc5000       .debug$S                   0000000180000000     kernel32:KERNEL32.dll
 0000:fffc5000       .debug$S                   0000000180000000     kernel32:KERNEL32.dll
 0000:fffc5000       .debug$S                   0000000180000000     kernel32:KERNEL32.dll
 0000:fffc5000       .debug$S                   0000000180000000     kernel32:KERNEL32.dll
 0000:fffc5000       .debug$S                   0000000180000000     kernel32:KERNEL32.dll
 0000:fffc5000       .debug$S                   0000000180000000     kernel32:KERNEL32.dll
 0000:fffc5000       .debug$S                   0000000180000000     kernel32:KERNEL32.dll
 0000:fffc5000       .debug$S                   0000000180000000     kernel32:KERNEL32.dll
 0000:fffc5000       .debug$S                   0000000180000000     kernel32:KERNEL32.dll
 0000:fffc5000       .debug$S                   0000000180000000     kernel32:KERNEL32.dll
 0000:fffc5000       .debug$S                   0000000180000000     kernel32:KERNEL32.dll
 0000:fffc5000       .debug$S                   0000000180000000     kernel32:KERNEL32.dll
 0000:fffc5000       .debug$S                   0000000180000000     kernel32:KERNEL32.dll
 0000:fffc5000       .debug$S                   0000000180000000     kernel32:KERNEL32.dll
 0000:fffc5000       .debug$S                   0000000180000000     kernel32:KERNEL32.dll
 0000:fffc5000       .debug$S                   0000000180000000     kernel32:KERNEL32.dll
 0000:fffc5000       .debug$S                   0000000180000000     kernel32:KERNEL32.dll
 0000:fffc5000       .debug$S                   0000000180000000     kernel32:KERNEL32.dll
 0000:fffc5000       .debug$S                   0000000180000000     vcruntime:VCRUNTIME140.dll
 0000:fffc5000       .debug$S                   0000000180000000     vcruntime:VCRUNTIME140.dll
 0000:fffc5000       .debug$S                   0000000180000000     vcruntime:VCRUNTIME140.dll
 0000:fffc5000       .debug$S                   0000000180000000     vcruntime:VCRUNTIME140.dll
 0000:fffc5000       .debug$S                   0000000180000000     vcruntime:VCRUNTIME140.dll
 0000:fffc5000       .debug$S                   0000000180000000     vcruntime:VCRUNTIME140.dll
 0000:fffc5000       .debug$S                   0000000180000000     vcruntime:VCRUNTIME140.dll
 0000:fffc5000       .debug$S                   0000000180000000     vcruntime:VCRUNTIME140.dll
 0000:fffc5000       .debug$S                   0000000180000000     vcruntime:VCRUNTIME140.dll
 0000:fffc5000       .debug$S                   0000000180000000     PhysXCommon_64:PhysXCommon_64.dll
 0000:fffc5000       .debug$S                   0000000180000000     PhysXCommon_64:PhysXCommon_64.dll
 0000:fffc5000       .debug$S                   0000000180000000     PhysXCommon_64:PhysXCommon_64.dll
 0000:fffc5000       .debug$S                   0000000180000000     PhysXCommon_64:PhysXCommon_64.dll
 0000:fffc5000       .debug$S                   0000000180000000     PhysXCommon_64:PhysXCommon_64.dll
 0000:fffc5000       .debug$S                   0000000180000000     PhysXCommon_64:PhysXCommon_64.dll
 0000:fffc5000       .debug$S                   0000000180000000     PhysXCommon_64:PhysXCommon_64.dll
 0000:fffc5000       .debug$S                   0000000180000000     PhysXCommon_64:PhysXCommon_64.dll
 0000:fffc5000       .debug$S                   0000000180000000     PhysXCommon_64:PhysXCommon_64.dll
 0000:fffc5000       .debug$S                   0000000180000000     PhysXCommon_64:PhysXCommon_64.dll
 0000:fffc5000       .debug$S                   0000000180000000     PhysXCommon_64:PhysXCommon_64.dll
 0000:fffc5000       .debug$S                   0000000180000000     PhysXCommon_64:PhysXCommon_64.dll
 0000:fffc5000       .debug$S                   0000000180000000     PhysXCommon_64:PhysXCommon_64.dll
 0000:fffc5000       .debug$S                   0000000180000000     PhysXCommon_64:PhysXCommon_64.dll
 0000:fffc5000       .debug$S                   0000000180000000     PhysXCommon_64:PhysXCommon_64.dll
 0000:fffc5000       .debug$S                   0000000180000000     PhysXCommon_64:PhysXCommon_64.dll
 0000:fffc5000       .debug$S                   0000000180000000     PhysXCommon_64:PhysXCommon_64.dll
 0000:fffc5000       .debug$S                   0000000180000000     PhysXCommon_64:PhysXCommon_64.dll
 0000:fffc5000       .debug$S                   0000000180000000     PhysXCommon_64:PhysXCommon_64.dll
 0000:fffc5000       .debug$S                   0000000180000000     PhysXCommon_64:PhysXCommon_64.dll
 0000:fffc5000       .debug$S                   0000000180000000     PhysXCommon_64:PhysXCommon_64.dll
 0000:fffc5000       .debug$S                   0000000180000000     PhysXCommon_64:PhysXCommon_64.dll
 0000:fffc5000       .debug$S                   0000000180000000     PhysXCommon_64:PhysXCommon_64.dll
 0000:fffc5000       .debug$S                   0000000180000000     PhysXCommon_64:PhysXCommon_64.dll
 0000:fffc5000       .debug$S                   0000000180000000     PhysXCommon_64:PhysXCommon_64.dll
 0000:fffc5000       .debug$S                   0000000180000000     PhysXCommon_64:PhysXCommon_64.dll
 0000:fffc5000       .debug$S                   0000000180000000     PhysXCommon_64:PhysXCommon_64.dll
 0000:fffc5000       .debug$S                   0000000180000000     PhysXCommon_64:PhysXCommon_64.dll
 0000:fffc5000       .debug$S                   0000000180000000     PhysXCommon_64:PhysXCommon_64.dll
 0000:fffc5000       .debug$S                   0000000180000000     PhysXCommon_64:PhysXCommon_64.dll
 0000:fffc5000       .debug$S                   0000000180000000     PhysXCommon_64:PhysXCommon_64.dll
 0000:fffc5000       .debug$S                   0000000180000000     PhysXCommon_64:PhysXCommon_64.dll
 0000:fffc5000       .debug$S                   0000000180000000     PhysXCommon_64:PhysXCommon_64.dll
 0000:fffc5000       .debug$S                   0000000180000000     PhysXCommon_64:PhysXCommon_64.dll
 0000:fffc5000       .debug$S                   0000000180000000     PhysXCommon_64:PhysXCommon_64.dll
 0000:fffc5000       .debug$S                   0000000180000000     PhysXCommon_64:PhysXCommon_64.dll
 0000:fffc5000       .debug$S                   0000000180000000     PhysXCommon_64:PhysXCommon_64.dll
 0000:fffc5000       .debug$S                   0000000180000000     PhysXCommon_64:PhysXCommon_64.dll
 0000:fffc5000       .debug$S                   0000000180000000     PhysXFoundation_64:PhysXFoundation_64.dll
 0000:fffc5000       .debug$S                   0000000180000000     PhysXFoundation_64:PhysXFoundation_64.dll
 0000:fffc5000       .debug$S                   0000000180000000     PhysXFoundation_64:PhysXFoundation_64.dll
 0000:fffc5000       .debug$S                   0000000180000000     PhysXFoundation_64:PhysXFoundation_64.dll
 0000:fffc5000       .debug$S                   0000000180000000     PhysXFoundation_64:PhysXFoundation_64.dll
 0000:fffc5000       .debug$S                   0000000180000000     PhysXFoundation_64:PhysXFoundation_64.dll
 0000:fffc5000       .debug$S                   0000000180000000     PhysXFoundation_64:PhysXFoundation_64.dll
 0000:fffc5000       .debug$S                   0000000180000000     PhysXFoundation_64:PhysXFoundation_64.dll
 0000:fffc5000       .debug$S                   0000000180000000     PhysXFoundation_64:PhysXFoundation_64.dll
 0000:fffc5000       .debug$S                   0000000180000000     PhysXFoundation_64:PhysXFoundation_64.dll
 0000:fffc5000       .debug$S                   0000000180000000     PhysXFoundation_64:PhysXFoundation_64.dll
 0000:fffc5000       .debug$S                   0000000180000000     PhysXFoundation_64:PhysXFoundation_64.dll
 0000:fffc5000       .debug$S                   0000000180000000     PhysXFoundation_64:PhysXFoundation_64.dll
 0000:fffc5000       .debug$S                   0000000180000000     PhysXFoundation_64:PhysXFoundation_64.dll
 0000:fffc5000       .debug$S                   0000000180000000     PhysXFoundation_64:PhysXFoundation_64.dll
 0000:fffc5000       .debug$S                   0000000180000000     PhysXFoundation_64:PhysXFoundation_64.dll
 0001:00000000       ??__EmaxFError@_VecMathTests@aos@shdfnd@physx@@YAXXZ 0000000180001000 f   Cooking.obj
 0001:00000010       ??__EmaxV3Error@_VecMathTests@aos@shdfnd@physx@@YAXXZ 0000000180001010 f   Cooking.obj
 0001:00000020       ??__EmaxV4Error@_VecMathTests@aos@shdfnd@physx@@YAXXZ 0000000180001020 f   Cooking.obj
 0001:00000030       ??__EminFError@_VecMathTests@aos@shdfnd@physx@@YAXXZ 0000000180001030 f   Cooking.obj
 0001:00000040       ??__EminV3Error@_VecMathTests@aos@shdfnd@physx@@YAXXZ 0000000180001040 f   Cooking.obj
 0001:00000050       ??__EminV4Error@_VecMathTests@aos@shdfnd@physx@@YAXXZ 0000000180001050 f   Cooking.obj
 0001:00000060       ??__EmaxFError@_VecMathTests@aos@shdfnd@physx@@YAXXZ 0000000180001060 f   BVHStructureBuilder.obj
 0001:00000070       ??__EmaxV3Error@_VecMathTests@aos@shdfnd@physx@@YAXXZ 0000000180001070 f   BVHStructureBuilder.obj
 0001:00000080       ??__EmaxV4Error@_VecMathTests@aos@shdfnd@physx@@YAXXZ 0000000180001080 f   BVHStructureBuilder.obj
 0001:00000090       ??__EminFError@_VecMathTests@aos@shdfnd@physx@@YAXXZ 0000000180001090 f   BVHStructureBuilder.obj
 0001:000000a0       ??__EminV3Error@_VecMathTests@aos@shdfnd@physx@@YAXXZ 00000001800010a0 f   BVHStructureBuilder.obj
 0001:000000b0       ??__EminV4Error@_VecMathTests@aos@shdfnd@physx@@YAXXZ 00000001800010b0 f   BVHStructureBuilder.obj
 0001:000000c0       ??__EmaxFError@_VecMathTests@aos@shdfnd@physx@@YAXXZ 00000001800010c0 f   RTreeCooking.obj
 0001:000000d0       ??__EmaxV3Error@_VecMathTests@aos@shdfnd@physx@@YAXXZ 00000001800010d0 f   RTreeCooking.obj
 0001:000000e0       ??__EmaxV4Error@_VecMathTests@aos@shdfnd@physx@@YAXXZ 00000001800010e0 f   RTreeCooking.obj
 0001:000000f0       ??__EminFError@_VecMathTests@aos@shdfnd@physx@@YAXXZ 00000001800010f0 f   RTreeCooking.obj
 0001:00000100       ??__EminV3Error@_VecMathTests@aos@shdfnd@physx@@YAXXZ 0000000180001100 f   RTreeCooking.obj
 0001:00000110       ??__EminV4Error@_VecMathTests@aos@shdfnd@physx@@YAXXZ 0000000180001110 f   RTreeCooking.obj
 0001:00000120       ??__EmaxFError@_VecMathTests@aos@shdfnd@physx@@YAXXZ 0000000180001120 f   MeshBuilder.obj
 0001:00000130       ??__EmaxV3Error@_VecMathTests@aos@shdfnd@physx@@YAXXZ 0000000180001130 f   MeshBuilder.obj
 0001:00000140       ??__EmaxV4Error@_VecMathTests@aos@shdfnd@physx@@YAXXZ 0000000180001140 f   MeshBuilder.obj
 0001:00000150       ??__EminFError@_VecMathTests@aos@shdfnd@physx@@YAXXZ 0000000180001150 f   MeshBuilder.obj
 0001:00000160       ??__EminV3Error@_VecMathTests@aos@shdfnd@physx@@YAXXZ 0000000180001160 f   MeshBuilder.obj
 0001:00000170       ??__EminV4Error@_VecMathTests@aos@shdfnd@physx@@YAXXZ 0000000180001170 f   MeshBuilder.obj
 0001:00000180       ??__EmaxFError@_VecMathTests@aos@shdfnd@physx@@YAXXZ 0000000180001180 f   TriangleMeshBuilder.obj
 0001:00000190       ??__EmaxV3Error@_VecMathTests@aos@shdfnd@physx@@YAXXZ 0000000180001190 f   TriangleMeshBuilder.obj
 0001:000001a0       ??__EmaxV4Error@_VecMathTests@aos@shdfnd@physx@@YAXXZ 00000001800011a0 f   TriangleMeshBuilder.obj
 0001:000001b0       ??__EminFError@_VecMathTests@aos@shdfnd@physx@@YAXXZ 00000001800011b0 f   TriangleMeshBuilder.obj
 0001:000001c0       ??__EminV3Error@_VecMathTests@aos@shdfnd@physx@@YAXXZ 00000001800011c0 f   TriangleMeshBuilder.obj
 0001:000001d0       ??__EminV4Error@_VecMathTests@aos@shdfnd@physx@@YAXXZ 00000001800011d0 f   TriangleMeshBuilder.obj
 0001:000001e0       ??__EmaxFError@_VecMathTests@aos@shdfnd@physx@@YAXXZ 00000001800011e0 f   BigConvexDataBuilder.obj
 0001:000001f0       ??__EmaxV3Error@_VecMathTests@aos@shdfnd@physx@@YAXXZ 00000001800011f0 f   BigConvexDataBuilder.obj
 0001:00000200       ??__EmaxV4Error@_VecMathTests@aos@shdfnd@physx@@YAXXZ 0000000180001200 f   BigConvexDataBuilder.obj
 0001:00000210       ??__EminFError@_VecMathTests@aos@shdfnd@physx@@YAXXZ 0000000180001210 f   BigConvexDataBuilder.obj
 0001:00000220       ??__EminV3Error@_VecMathTests@aos@shdfnd@physx@@YAXXZ 0000000180001220 f   BigConvexDataBuilder.obj
 0001:00000230       ??__EminV4Error@_VecMathTests@aos@shdfnd@physx@@YAXXZ 0000000180001230 f   BigConvexDataBuilder.obj
 0001:00000240       ??__EmaxFError@_VecMathTests@aos@shdfnd@physx@@YAXXZ 0000000180001240 f   ConvexHullBuilder.obj
 0001:00000250       ??__EmaxV3Error@_VecMathTests@aos@shdfnd@physx@@YAXXZ 0000000180001250 f   ConvexHullBuilder.obj
 0001:00000260       ??__EmaxV4Error@_VecMathTests@aos@shdfnd@physx@@YAXXZ 0000000180001260 f   ConvexHullBuilder.obj
 0001:00000270       ??__EminFError@_VecMathTests@aos@shdfnd@physx@@YAXXZ 0000000180001270 f   ConvexHullBuilder.obj
 0001:00000280       ??__EminV3Error@_VecMathTests@aos@shdfnd@physx@@YAXXZ 0000000180001280 f   ConvexHullBuilder.obj
 0001:00000290       ??__EminV4Error@_VecMathTests@aos@shdfnd@physx@@YAXXZ 0000000180001290 f   ConvexHullBuilder.obj
 0001:000002a0       ??__EmaxFError@_VecMathTests@aos@shdfnd@physx@@YAXXZ 00000001800012a0 f   ConvexHullUtils.obj
 0001:000002b0       ??__EmaxV3Error@_VecMathTests@aos@shdfnd@physx@@YAXXZ 00000001800012b0 f   ConvexHullUtils.obj
 0001:000002c0       ??__EmaxV4Error@_VecMathTests@aos@shdfnd@physx@@YAXXZ 00000001800012c0 f   ConvexHullUtils.obj
 0001:000002d0       ??__EminFError@_VecMathTests@aos@shdfnd@physx@@YAXXZ 00000001800012d0 f   ConvexHullUtils.obj
 0001:000002e0       ??__EminV3Error@_VecMathTests@aos@shdfnd@physx@@YAXXZ 00000001800012e0 f   ConvexHullUtils.obj
 0001:000002f0       ??__EminV4Error@_VecMathTests@aos@shdfnd@physx@@YAXXZ 00000001800012f0 f   ConvexHullUtils.obj
 0001:00000300       ??__EmaxFError@_VecMathTests@aos@shdfnd@physx@@YAXXZ 0000000180001300 f   ConvexMeshBuilder.obj
 0001:00000310       ??__EmaxV3Error@_VecMathTests@aos@shdfnd@physx@@YAXXZ 0000000180001310 f   ConvexMeshBuilder.obj
 0001:00000320       ??__EmaxV4Error@_VecMathTests@aos@shdfnd@physx@@YAXXZ 0000000180001320 f   ConvexMeshBuilder.obj
 0001:00000330       ??__EminFError@_VecMathTests@aos@shdfnd@physx@@YAXXZ 0000000180001330 f   ConvexMeshBuilder.obj
 0001:00000340       ??__EminV3Error@_VecMathTests@aos@shdfnd@physx@@YAXXZ 0000000180001340 f   ConvexMeshBuilder.obj
 0001:00000350       ??__EminV4Error@_VecMathTests@aos@shdfnd@physx@@YAXXZ 0000000180001350 f   ConvexMeshBuilder.obj
 0001:00000360       ??__EmaxFError@_VecMathTests@aos@shdfnd@physx@@YAXXZ 0000000180001360 f   VolumeIntegration.obj
 0001:00000370       ??__EmaxV3Error@_VecMathTests@aos@shdfnd@physx@@YAXXZ 0000000180001370 f   VolumeIntegration.obj
 0001:00000380       ??__EmaxV4Error@_VecMathTests@aos@shdfnd@physx@@YAXXZ 0000000180001380 f   VolumeIntegration.obj
 0001:00000390       ??__EminFError@_VecMathTests@aos@shdfnd@physx@@YAXXZ 0000000180001390 f   VolumeIntegration.obj
 0001:000003a0       ??__EminV3Error@_VecMathTests@aos@shdfnd@physx@@YAXXZ 00000001800013a0 f   VolumeIntegration.obj
 0001:000003b0       ??__EminV4Error@_VecMathTests@aos@shdfnd@physx@@YAXXZ 00000001800013b0 f   VolumeIntegration.obj
 0001:000005d0       ?AddTriangle@@YAXIIIIPEAVAdjTriangle@physx@@AEAIPEAVAdjEdge@@@Z 00000001800015d0 f   Adjacencies.obj
 0001:00000750       ?CreateDatabase@@YA_NPEAVAdjTriangle@physx@@IPEBVAdjEdge@@AEBUADJACENCIESCREATE@2@@Z 0000000180001750 f   Adjacencies.obj
 0001:00000d10       ?UpdateLink@@YA_NIIIIPEAVAdjTriangle@physx@@AEBUADJACENCIESCREATE@2@@Z 0000000180001d10 f   Adjacencies.obj
 0001:00008ce0       ?buildFromBounds@physx@@YAXAEAURTree@Gu@1@PEBUPxBounds3V@1@IAEAV?$Array@IVNamedAllocator@shdfnd@physx@@@shdfnd@1@PEAURemapCallback@RTreeCooker@1@AEAT__m128@@4MW4Enum@PxMeshCookingHint@1@@Z 0000000180009ce0 f   RTreeCooking.obj
 0001:0000cf40       ?buildAdjacencies@physx@@YAXPEAUuint4@1@PEAVPxVec3@1@PEBV31@PEBUuint3@1@I@Z 000000018000df40 f   TriangleMeshBuilder.obj
 0001:0000e580       ?findAdjacent@physx@@YAIPEBVPxVec3@1@0PEBUuint3@1@IIIAEBVPxPlane@1@PEAUEdgeTriLookup@1@I@Z 000000018000f580 f   TriangleMeshBuilder.obj
 0001:00013410       ?checkPointsAABBValidity@local@@YA_NIPEBVPxVec3@physx@@IMMAEAV23@1AEAIPEAV23@_N@Z 0000000180014410 f   ConvexHullLib.obj
 0001:000188b0       ?ComputeInternalExtent@@YAXAEAUConvexHullData@Gu@physx@@PEBUHullPolygonData@23@@Z 00000001800198b0 f   ConvexMeshBuilder.obj
 0001:00019cc0       ?CheckFloodFillFace@Local@?7??extractHullPolygons@@YA_NAEAIAEAV?$Array@IVNamedAllocator@shdfnd@physx@@@shdfnd@physx@@AEBVConvexPolygonsBuilder@5@PEAV345@1@Z@SA_NIPEBVAdjTriangle@5@PEBI@Z 000000018001acc0 f   ConvexPolygonsBuilder.obj
 0001:0001a2b0       ?FloodFill@Local@?7??extractHullPolygons@@YA_NAEAIAEAV?$Array@IVNamedAllocator@shdfnd@physx@@@shdfnd@physx@@AEBVConvexPolygonsBuilder@5@PEAV345@1@Z@SAX1PEBVAdjTriangle@5@IPEA_N@Z 000000018001b2b0 f   ConvexPolygonsBuilder.obj
 0001:0001a390       ?TestDuplicateTriangles@@YA_NAEAIPEAU?$TriangleT@I@Gu@physx@@_N@Z 000000018001b390 f   ConvexPolygonsBuilder.obj
 0001:0001a520       ?checkRedundantVertices@@YAXAEAIAEAV?$Array@IVNamedAllocator@shdfnd@physx@@@shdfnd@physx@@AEBVConvexPolygonsBuilder@3@11@Z 000000018001b520 f   ConvexPolygonsBuilder.obj
 0001:0001bd90       ?computeNewellPlane@@YA_NAEAVPxPlane@physx@@IPEBEPEBVPxVec3@2@@Z 000000018001cd90 f   ConvexPolygonsBuilder.obj
 0001:0001d2b0       ?extractHullPolygons@@YA_NAEAIAEAV?$Array@IVNamedAllocator@shdfnd@physx@@@shdfnd@physx@@AEBVConvexPolygonsBuilder@3@PEAV123@1@Z 000000018001e2b0 f   ConvexPolygonsBuilder.obj
 0001:0001dd50       ?findLineStrip@@YA_NAEAV?$Array@IVNamedAllocator@shdfnd@physx@@@shdfnd@physx@@AEBV?$Array@VPair@@VNamedAllocator@shdfnd@physx@@@23@@Z 000000018001ed50 f   ConvexPolygonsBuilder.obj
 0001:000250c0       ?computeVolumeIntegrals@VolumeIntegratorEberly@?A0x44d11e6b@physx@@QEAA_NAEAUPxIntegrals@3@AEBVPxVec3@3@@Z 00000001800260c0 f   VolumeIntegration.obj
 0001:00025bc0       ?computeVolumeIntegralsSIMD@VolumeIntegratorEberly@?A0x44d11e6b@physx@@QEAA_NAEAUPxIntegrals@3@AEBVPxVec3@3@@Z 0000000180026bc0 f   VolumeIntegration.obj
 0001:00026290       $LN24                      0000000180027290     WindowsCookingDelayLoadHook.obj
 0001:00026e20       $$000000                   0000000180027e20     MSVCRT:chkstk.obj
 0001:00026e90       $$000000                   0000000180027e90     MSVCRT:svml_ssinf4_dispatch.obj
 0001:00026f00       ?dllmain_crt_dispatch@@YAHQEAUHINSTANCE__@@KQEAX@Z 0000000180027f00 f   MSVCRT:dll_dllmain.obj
 0001:00026f50       ?dllmain_crt_process_attach@@YAHQEAUHINSTANCE__@@QEAX@Z 0000000180027f50 f   MSVCRT:dll_dllmain.obj
 0001:00027068       ?dllmain_crt_process_detach@@YAH_N@Z 0000000180028068 f   MSVCRT:dll_dllmain.obj
 0001:000270ec       ?dllmain_dispatch@@YAHQEAUHINSTANCE__@@KQEAX@Z 00000001800280ec f   MSVCRT:dll_dllmain.obj
 0001:00027410       $$000000                   0000000180028410     MSVCRT:svml_ssinf4_sse2.obj
 0001:00027d50       $$000000                   0000000180028d50     MSVCRT:svml_ssinf4_sse4.obj
 0001:00028ac0       $$000000                   0000000180029ac0     MSVCRT:svml_s_sin_cout.obj
 0001:00028bb0       $$000000                   0000000180029bb0     MSVCRT:guard_dispatch.obj
 0001:00028bd0       $$000000                   0000000180029bd0     MSVCRT:guard_xfg_dispatch.obj
 0001:00028be6       ?fin$0@?0??dllmain_crt_process_attach@@YAHQEAUHINSTANCE__@@QEAX@Z@4HA 0000000180029be6 f   MSVCRT:dll_dllmain.obj
 0001:00028bfd       ?fin$0@?0??dllmain_crt_process_detach@@YAH_N@Z@4HA 0000000180029bfd f   MSVCRT:dll_dllmain.obj
 0001:00028c16       ?fin$1@?0??dllmain_crt_process_detach@@YAH_N@Z@4HA 0000000180029c16 f   MSVCRT:dll_dllmain.obj
 0001:00028c2a       ?filt$0@?0??dllmain_dispatch@@YAHQEAUHINSTANCE__@@KQEAX@Z@4HA 0000000180029c2a f   MSVCRT:dll_dllmain.obj
 0001:00028c60       __scrt_is_nonwritable_in_current_image$filt$0 0000000180029c60 f   MSVCRT:utility.obj
 0002:000001c0       ?minFError$initializer$@_VecMathTests@aos@shdfnd@physx@@3P6AXXZEA 000000018002a1c0     Cooking.obj
 0002:000001c8       ?maxFError$initializer$@_VecMathTests@aos@shdfnd@physx@@3P6AXXZEA 000000018002a1c8     Cooking.obj
 0002:000001d0       ?minV3Error$initializer$@_VecMathTests@aos@shdfnd@physx@@3P6AXXZEA 000000018002a1d0     Cooking.obj
 0002:000001d8       ?maxV3Error$initializer$@_VecMathTests@aos@shdfnd@physx@@3P6AXXZEA 000000018002a1d8     Cooking.obj
 0002:000001e0       ?minV4Error$initializer$@_VecMathTests@aos@shdfnd@physx@@3P6AXXZEA 000000018002a1e0     Cooking.obj
 0002:000001e8       ?maxV4Error$initializer$@_VecMathTests@aos@shdfnd@physx@@3P6AXXZEA 000000018002a1e8     Cooking.obj
 0002:000001f0       ?minFError$initializer$@_VecMathTests@aos@shdfnd@physx@@3P6AXXZEA 000000018002a1f0     BVHStructureBuilder.obj
 0002:000001f8       ?maxFError$initializer$@_VecMathTests@aos@shdfnd@physx@@3P6AXXZEA 000000018002a1f8     BVHStructureBuilder.obj
 0002:00000200       ?minV3Error$initializer$@_VecMathTests@aos@shdfnd@physx@@3P6AXXZEA 000000018002a200     BVHStructureBuilder.obj
 0002:00000208       ?maxV3Error$initializer$@_VecMathTests@aos@shdfnd@physx@@3P6AXXZEA 000000018002a208     BVHStructureBuilder.obj
 0002:00000210       ?minV4Error$initializer$@_VecMathTests@aos@shdfnd@physx@@3P6AXXZEA 000000018002a210     BVHStructureBuilder.obj
 0002:00000218       ?maxV4Error$initializer$@_VecMathTests@aos@shdfnd@physx@@3P6AXXZEA 000000018002a218     BVHStructureBuilder.obj
 0002:00000220       ?minFError$initializer$@_VecMathTests@aos@shdfnd@physx@@3P6AXXZEA 000000018002a220     RTreeCooking.obj
 0002:00000228       ?maxFError$initializer$@_VecMathTests@aos@shdfnd@physx@@3P6AXXZEA 000000018002a228     RTreeCooking.obj
 0002:00000230       ?minV3Error$initializer$@_VecMathTests@aos@shdfnd@physx@@3P6AXXZEA 000000018002a230     RTreeCooking.obj
 0002:00000238       ?maxV3Error$initializer$@_VecMathTests@aos@shdfnd@physx@@3P6AXXZEA 000000018002a238     RTreeCooking.obj
 0002:00000240       ?minV4Error$initializer$@_VecMathTests@aos@shdfnd@physx@@3P6AXXZEA 000000018002a240     RTreeCooking.obj
 0002:00000248       ?maxV4Error$initializer$@_VecMathTests@aos@shdfnd@physx@@3P6AXXZEA 000000018002a248     RTreeCooking.obj
 0002:00000250       ?minFError$initializer$@_VecMathTests@aos@shdfnd@physx@@3P6AXXZEA 000000018002a250     MeshBuilder.obj
 0002:00000258       ?maxFError$initializer$@_VecMathTests@aos@shdfnd@physx@@3P6AXXZEA 000000018002a258     MeshBuilder.obj
 0002:00000260       ?minV3Error$initializer$@_VecMathTests@aos@shdfnd@physx@@3P6AXXZEA 000000018002a260     MeshBuilder.obj
 0002:00000268       ?maxV3Error$initializer$@_VecMathTests@aos@shdfnd@physx@@3P6AXXZEA 000000018002a268     MeshBuilder.obj
 0002:00000270       ?minV4Error$initializer$@_VecMathTests@aos@shdfnd@physx@@3P6AXXZEA 000000018002a270     MeshBuilder.obj
 0002:00000278       ?maxV4Error$initializer$@_VecMathTests@aos@shdfnd@physx@@3P6AXXZEA 000000018002a278     MeshBuilder.obj
 0002:00000280       ?minFError$initializer$@_VecMathTests@aos@shdfnd@physx@@3P6AXXZEA 000000018002a280     TriangleMeshBuilder.obj
 0002:00000288       ?maxFError$initializer$@_VecMathTests@aos@shdfnd@physx@@3P6AXXZEA 000000018002a288     TriangleMeshBuilder.obj
 0002:00000290       ?minV3Error$initializer$@_VecMathTests@aos@shdfnd@physx@@3P6AXXZEA 000000018002a290     TriangleMeshBuilder.obj
 0002:00000298       ?maxV3Error$initializer$@_VecMathTests@aos@shdfnd@physx@@3P6AXXZEA 000000018002a298     TriangleMeshBuilder.obj
 0002:000002a0       ?minV4Error$initializer$@_VecMathTests@aos@shdfnd@physx@@3P6AXXZEA 000000018002a2a0     TriangleMeshBuilder.obj
 0002:000002a8       ?maxV4Error$initializer$@_VecMathTests@aos@shdfnd@physx@@3P6AXXZEA 000000018002a2a8     TriangleMeshBuilder.obj
 0002:000002b0       ?minFError$initializer$@_VecMathTests@aos@shdfnd@physx@@3P6AXXZEA 000000018002a2b0     BigConvexDataBuilder.obj
 0002:000002b8       ?maxFError$initializer$@_VecMathTests@aos@shdfnd@physx@@3P6AXXZEA 000000018002a2b8     BigConvexDataBuilder.obj
 0002:000002c0       ?minV3Error$initializer$@_VecMathTests@aos@shdfnd@physx@@3P6AXXZEA 000000018002a2c0     BigConvexDataBuilder.obj
 0002:000002c8       ?maxV3Error$initializer$@_VecMathTests@aos@shdfnd@physx@@3P6AXXZEA 000000018002a2c8     BigConvexDataBuilder.obj
 0002:000002d0       ?minV4Error$initializer$@_VecMathTests@aos@shdfnd@physx@@3P6AXXZEA 000000018002a2d0     BigConvexDataBuilder.obj
 0002:000002d8       ?maxV4Error$initializer$@_VecMathTests@aos@shdfnd@physx@@3P6AXXZEA 000000018002a2d8     BigConvexDataBuilder.obj
 0002:000002e0       ?minFError$initializer$@_VecMathTests@aos@shdfnd@physx@@3P6AXXZEA 000000018002a2e0     ConvexHullBuilder.obj
 0002:000002e8       ?maxFError$initializer$@_VecMathTests@aos@shdfnd@physx@@3P6AXXZEA 000000018002a2e8     ConvexHullBuilder.obj
 0002:000002f0       ?minV3Error$initializer$@_VecMathTests@aos@shdfnd@physx@@3P6AXXZEA 000000018002a2f0     ConvexHullBuilder.obj
 0002:000002f8       ?maxV3Error$initializer$@_VecMathTests@aos@shdfnd@physx@@3P6AXXZEA 000000018002a2f8     ConvexHullBuilder.obj
 0002:00000300       ?minV4Error$initializer$@_VecMathTests@aos@shdfnd@physx@@3P6AXXZEA 000000018002a300     ConvexHullBuilder.obj
 0002:00000308       ?maxV4Error$initializer$@_VecMathTests@aos@shdfnd@physx@@3P6AXXZEA 000000018002a308     ConvexHullBuilder.obj
 0002:00000310       ?minFError$initializer$@_VecMathTests@aos@shdfnd@physx@@3P6AXXZEA 000000018002a310     ConvexHullUtils.obj
 0002:00000318       ?maxFError$initializer$@_VecMathTests@aos@shdfnd@physx@@3P6AXXZEA 000000018002a318     ConvexHullUtils.obj
 0002:00000320       ?minV3Error$initializer$@_VecMathTests@aos@shdfnd@physx@@3P6AXXZEA 000000018002a320     ConvexHullUtils.obj
 0002:00000328       ?maxV3Error$initializer$@_VecMathTests@aos@shdfnd@physx@@3P6AXXZEA 000000018002a328     ConvexHullUtils.obj
 0002:00000330       ?minV4Error$initializer$@_VecMathTests@aos@shdfnd@physx@@3P6AXXZEA 000000018002a330     ConvexHullUtils.obj
 0002:00000338       ?maxV4Error$initializer$@_VecMathTests@aos@shdfnd@physx@@3P6AXXZEA 000000018002a338     ConvexHullUtils.obj
 0002:00000340       ?minFError$initializer$@_VecMathTests@aos@shdfnd@physx@@3P6AXXZEA 000000018002a340     ConvexMeshBuilder.obj
 0002:00000348       ?maxFError$initializer$@_VecMathTests@aos@shdfnd@physx@@3P6AXXZEA 000000018002a348     ConvexMeshBuilder.obj
 0002:00000350       ?minV3Error$initializer$@_VecMathTests@aos@shdfnd@physx@@3P6AXXZEA 000000018002a350     ConvexMeshBuilder.obj
 0002:00000358       ?maxV3Error$initializer$@_VecMathTests@aos@shdfnd@physx@@3P6AXXZEA 000000018002a358     ConvexMeshBuilder.obj
 0002:00000360       ?minV4Error$initializer$@_VecMathTests@aos@shdfnd@physx@@3P6AXXZEA 000000018002a360     ConvexMeshBuilder.obj
 0002:00000368       ?maxV4Error$initializer$@_VecMathTests@aos@shdfnd@physx@@3P6AXXZEA 000000018002a368     ConvexMeshBuilder.obj
 0002:00000370       ?minFError$initializer$@_VecMathTests@aos@shdfnd@physx@@3P6AXXZEA 000000018002a370     VolumeIntegration.obj
 0002:00000378       ?maxFError$initializer$@_VecMathTests@aos@shdfnd@physx@@3P6AXXZEA 000000018002a378     VolumeIntegration.obj
 0002:00000380       ?minV3Error$initializer$@_VecMathTests@aos@shdfnd@physx@@3P6AXXZEA 000000018002a380     VolumeIntegration.obj
 0002:00000388       ?maxV3Error$initializer$@_VecMathTests@aos@shdfnd@physx@@3P6AXXZEA 000000018002a388     VolumeIntegration.obj
 0002:00000390       ?minV4Error$initializer$@_VecMathTests@aos@shdfnd@physx@@3P6AXXZEA 000000018002a390     VolumeIntegration.obj
 0002:00000398       ?maxV4Error$initializer$@_VecMathTests@aos@shdfnd@physx@@3P6AXXZEA 000000018002a398     VolumeIntegration.obj
 0002:000004f0       ?minus1w@?A0xd4b97491@aos@shdfnd@physx@@3QBMB 000000018002a4f0     Cooking.obj
 0002:00000500       ?gMaskXYZ@internalWindowsSimd@aos@shdfnd@physx@@3QBIB 000000018002a500     Cooking.obj
 0002:00000c90       ?minus1w@?A0xb2737a54@aos@shdfnd@physx@@3QBMB 000000018002ac90     BVHStructureBuilder.obj
 0002:00000ca0       ?gMaskXYZ@internalWindowsSimd@aos@shdfnd@physx@@3QBIB 000000018002aca0     BVHStructureBuilder.obj
 0002:00000d30       ?minus1w@?A0xa40e648c@aos@shdfnd@physx@@3QBMB 000000018002ad30     RTreeCooking.obj
 0002:00000d40       ?gMaskXYZ@internalWindowsSimd@aos@shdfnd@physx@@3QBIB 000000018002ad40     RTreeCooking.obj
 0002:00000d88       ?stopAtTrisPerPage@physx@@3QBIB 000000018002ad88     RTreeCooking.obj
 0002:00000dc8       ?stopAtTrisPerLeaf@physx@@3QBIB 000000018002adc8     RTreeCooking.obj
 0002:00000f80       ?minus1w@?A0x8ef3ba1d@aos@shdfnd@physx@@3QBMB 000000018002af80     MeshBuilder.obj
 0002:00000f90       ?gMaskXYZ@internalWindowsSimd@aos@shdfnd@physx@@3QBIB 000000018002af90     MeshBuilder.obj
 0002:00000fb0       ?minus1w@?A0x21c88393@aos@shdfnd@physx@@3QBMB 000000018002afb0     TriangleMeshBuilder.obj
 0002:00000fc0       ?gMaskXYZ@internalWindowsSimd@aos@shdfnd@physx@@3QBIB 000000018002afc0     TriangleMeshBuilder.obj
 0002:00001400       ?minus1w@?A0x6234ba08@aos@shdfnd@physx@@3QBMB 000000018002b400     BigConvexDataBuilder.obj
 0002:00001410       ?gMaskXYZ@internalWindowsSimd@aos@shdfnd@physx@@3QBIB 000000018002b410     BigConvexDataBuilder.obj
 0002:00001490       ?minus1w@?A0xc53f0d4f@aos@shdfnd@physx@@3QBMB 000000018002b490     ConvexHullBuilder.obj
 0002:000014a0       ?gMaskXYZ@internalWindowsSimd@aos@shdfnd@physx@@3QBIB 000000018002b4a0     ConvexHullBuilder.obj
 0002:00001930       ?minus1w@?A0x0f55b665@aos@shdfnd@physx@@3QBMB 000000018002b930     ConvexHullUtils.obj
 0002:00001940       ?gMaskXYZ@internalWindowsSimd@aos@shdfnd@physx@@3QBIB 000000018002b940     ConvexHullUtils.obj
 0002:000019e0       ?minus1w@?A0x0b9bad1a@aos@shdfnd@physx@@3QBMB 000000018002b9e0     ConvexMeshBuilder.obj
 0002:000019f0       ?gMaskXYZ@internalWindowsSimd@aos@shdfnd@physx@@3QBIB 000000018002b9f0     ConvexMeshBuilder.obj
 0002:00001f70       ?minus1w@?A0x44d11e6b@aos@shdfnd@physx@@3QBMB 000000018002bf70     VolumeIntegration.obj
 0002:00001f80       ?gMaskXYZ@internalWindowsSimd@aos@shdfnd@physx@@3QBIB 000000018002bf80     VolumeIntegration.obj
 0002:000020f0       L_abs_mask                 000000018002c0f0     MSVCRT:svml_ssinf4_dispatch.obj
 0002:00002100       L_real_one                 000000018002c100     MSVCRT:svml_ssinf4_dispatch.obj
 0002:00002110       L_one_half                 000000018002c110     MSVCRT:svml_ssinf4_dispatch.obj
 0002:00002120       L_two_to_neg_13            000000018002c120     MSVCRT:svml_ssinf4_dispatch.obj
 0002:00002130       L_pi_over_two              000000018002c130     MSVCRT:svml_ssinf4_dispatch.obj
 0002:00002140       L_pi_over_two2             000000018002c140     MSVCRT:svml_ssinf4_dispatch.obj
 0002:00002870       $unwind$??1Adjacencies@physx@@QEAA@XZ 000000018002c870     Adjacencies.obj
 0002:00002870       $unwind$??_EPxFoundation@physx@@MEAAPEAXI@Z 000000018002c870     Adjacencies.obj
 0002:00002870       $unwind$??0ConvexMeshBuilder@physx@@QEAA@_N@Z 000000018002c870     ConvexMeshBuilder.obj
 0002:00002870       $unwind$?isFinite@PxVec3@physx@@QEBA_NXZ 000000018002c870     ConvexMeshBuilder.obj
 0002:00002870       $unwind$??0ConvexPolygonsBuilder@physx@@QEAA@PEAUConvexHullData@Gu@1@_N@Z 000000018002c870     ConvexPolygonsBuilder.obj
 0002:00002870       $unwind$??_GCooking@physx@@UEAAPEAXI@Z 000000018002c870     Cooking.obj
 0002:00002870       $unwind$??_GPxBase@physx@@MEAAPEAXI@Z 000000018002c870     Cooking.obj
 0002:00002870       $unwind$??_GPxCooking@physx@@MEAAPEAXI@Z 000000018002c870     Cooking.obj
 0002:00002870       $unwind$?getTriangleNormal@HeightField@Gu@physx@@UEBA?AVPxVec3@3@I@Z 000000018002c870     Cooking.obj
 0002:00002870       $unwind$?isKindOf@PxConvexMesh@physx@@MEBA_NPEBD@Z 000000018002c870     Cooking.obj
 0002:00002870       $unwind$?isKindOf@PxHeightField@physx@@MEBA_NPEBD@Z 000000018002c870     Cooking.obj
 0002:00002870       $unwind$??_GQuantizer@physx@@MEAAPEAXI@Z 000000018002c870     Quantizer.obj
 0002:00002870       $unwind$??1RTreeTriangleData@Gu@physx@@UEAA@XZ 000000018002c870     TriangleMeshBuilder.obj
 0002:00002870       $unwind$??1RTreeTriangleMeshBuilder@physx@@UEAA@XZ 000000018002c870     TriangleMeshBuilder.obj
 0002:00002870       $unwind$??_GRTreeCookerRemap@physx@@UEAAPEAXI@Z 000000018002c870     TriangleMeshBuilder.obj
 0002:00002870       $unwind$??_GRemapCallback@RTreeCooker@physx@@UEAAPEAXI@Z 000000018002c870     TriangleMeshBuilder.obj
 0002:00002870       $unwind$?DloadAcquireSectionWriteAccess@@YAXXZ 000000018002c870     Delayimp:delayhlp.obj
 0002:00002870       $unwind$??_Gtype_info@@UEAAPEAXI@Z 000000018002c870     MSVCRT:std_type_info_static.obj
 0002:00002870       $unwind$__scrt_initialize_crt 000000018002c870     MSVCRT:utility.obj
 0002:00002870       $unwind$__scrt_initialize_onexit_tables 000000018002c870     MSVCRT:utility.obj
 0002:00002870       $unwind$__scrt_release_startup_lock 000000018002c870     MSVCRT:utility.obj
 0002:00002870       $unwind$__scrt_uninitialize_crt 000000018002c870     MSVCRT:utility.obj
 0002:00002878       $chain$0$??_EPxFoundation@physx@@MEAAPEAXI@Z 000000018002c878     Adjacencies.obj
 0002:0000288c       $chain$1$??_EPxFoundation@physx@@MEAAPEAXI@Z 000000018002c88c     Adjacencies.obj
 0002:0000289c       $chain$0$??1Adjacencies@physx@@QEAA@XZ 000000018002c89c     Adjacencies.obj
 0002:000028b0       $chain$2$??1Adjacencies@physx@@QEAA@XZ 000000018002c8b0     Adjacencies.obj
 0002:000028c4       $chain$3$??1Adjacencies@physx@@QEAA@XZ 000000018002c8c4     Adjacencies.obj
 0002:000028d4       $unwind$?Init@AdjacenciesBuilder@physx@@QEAA_NAEBUADJACENCIESCREATE@2@@Z 000000018002c8d4     Adjacencies.obj
 0002:000028e0       $chain$2$?Init@AdjacenciesBuilder@physx@@QEAA_NAEBUADJACENCIESCREATE@2@@Z 000000018002c8e0     Adjacencies.obj
 0002:000028fc       $chain$3$?Init@AdjacenciesBuilder@physx@@QEAA_NAEBUADJACENCIESCREATE@2@@Z 000000018002c8fc     Adjacencies.obj
 0002:00002910       $chain$4$?Init@AdjacenciesBuilder@physx@@QEAA_NAEBUADJACENCIESCREATE@2@@Z 000000018002c910     Adjacencies.obj
 0002:00002920       $chain$5$?Init@AdjacenciesBuilder@physx@@QEAA_NAEBUADJACENCIESCREATE@2@@Z 000000018002c920     Adjacencies.obj
 0002:00002938       $unwind$??$?_UV?$ReflectionAllocator@VAdjTriangle@physx@@@shdfnd@physx@@@UserAllocated@shdfnd@physx@@SAPEAX_KV?$ReflectionAllocator@VAdjTriangle@physx@@@12@PEBDH@Z 000000018002c938     Adjacencies.obj
 0002:00002938       $unwind$??$?_UE@@YAPEAX_KV?$ReflectionAllocator@E@shdfnd@physx@@PEBDH@Z 000000018002c938     ConvexHullBuilder.obj
 0002:00002938       $unwind$??$?_UI@@YAPEAX_KV?$ReflectionAllocator@I@shdfnd@physx@@PEBDH@Z 000000018002c938     EdgeList.obj
 0002:00002938       $unwind$??$?_UG@@YAPEAX_KV?$ReflectionAllocator@G@shdfnd@physx@@PEBDH@Z 000000018002c938     TriangleMeshBuilder.obj
 0002:00002948       $chain$0$??$?_UV?$ReflectionAllocator@VAdjTriangle@physx@@@shdfnd@physx@@@UserAllocated@shdfnd@physx@@SAPEAX_KV?$ReflectionAllocator@VAdjTriangle@physx@@@12@PEBDH@Z 000000018002c948     Adjacencies.obj
 0002:0000295c       $chain$1$??$?_UV?$ReflectionAllocator@VAdjTriangle@physx@@@shdfnd@physx@@@UserAllocated@shdfnd@physx@@SAPEAX_KV?$ReflectionAllocator@VAdjTriangle@physx@@@12@PEBDH@Z 000000018002c95c     Adjacencies.obj
 0002:0000296c       $unwind$?AddTriangle@@YAXIIIIPEAVAdjTriangle@physx@@AEAIPEAVAdjEdge@@@Z 000000018002c96c     Adjacencies.obj
 0002:0000296c       $unwind$?getTriangleNormalInternal@HeightField@Gu@physx@@QEBA?AVPxVec3@3@I@Z 000000018002c96c     Cooking.obj
 0002:00002978       $unwind$?UpdateLink@@YA_NIIIIPEAVAdjTriangle@physx@@AEBUADJACENCIESCREATE@2@@Z 000000018002c978     Adjacencies.obj
 0002:00002984       $chain$0$?UpdateLink@@YA_NIIIIPEAVAdjTriangle@physx@@AEBUADJACENCIESCREATE@2@@Z 000000018002c984     Adjacencies.obj
 0002:00002998       $chain$4$?UpdateLink@@YA_NIIIIPEAVAdjTriangle@physx@@AEBUADJACENCIESCREATE@2@@Z 000000018002c998     Adjacencies.obj
 0002:000029b8       $chain$5$?UpdateLink@@YA_NIIIIPEAVAdjTriangle@physx@@AEBUADJACENCIESCREATE@2@@Z 000000018002c9b8     Adjacencies.obj
 0002:000029cc       $chain$6$?UpdateLink@@YA_NIIIIPEAVAdjTriangle@physx@@AEBUADJACENCIESCREATE@2@@Z 000000018002c9cc     Adjacencies.obj
 0002:000029dc       $chain$7$?UpdateLink@@YA_NIIIIPEAVAdjTriangle@physx@@AEBUADJACENCIESCREATE@2@@Z 000000018002c9dc     Adjacencies.obj
 0002:000029f0       $chain$8$?UpdateLink@@YA_NIIIIPEAVAdjTriangle@physx@@AEBUADJACENCIESCREATE@2@@Z 000000018002c9f0     Adjacencies.obj
 0002:00002a00       $unwind$?CreateDatabase@@YA_NPEAVAdjTriangle@physx@@IPEBVAdjEdge@@AEBUADJACENCIESCREATE@2@@Z 000000018002ca00     Adjacencies.obj
 0002:00002a1c       $unwind$?getTransform@Box@Gu@physx@@QEBA?AVPxTransform@3@XZ 000000018002ca1c     ConvexHullUtils.obj
 0002:00002a1c       $unwind$PxCreateCooking    000000018002ca1c     Cooking.obj
 0002:00002a28       $unwind$?allocate@?$Array@USlab@NodeAllocator@Gu@physx@@VNamedAllocator@shdfnd@4@@shdfnd@physx@@IEAAPEAUSlab@NodeAllocator@Gu@3@I@Z 000000018002ca28     BVHStructureBuilder.obj
 0002:00002a28       $unwind$?allocate@?$Array@VPair@@VNamedAllocator@shdfnd@physx@@@shdfnd@physx@@IEAAPEAVPair@@I@Z 000000018002ca28     ConvexPolygonsBuilder.obj
 0002:00002a28       $unwind$?release@Cooking@physx@@UEAAXXZ 000000018002ca28     Cooking.obj
 0002:00002a28       $unwind$?cookingDelayHook@@YAP6A_JXZIPEAUDelayLoadInfo@@@Z 000000018002ca28     WindowsCookingDelayLoadHook.obj
 0002:00002a28       $unwind$?DloadReleaseSectionWriteAccess@@YAXXZ 000000018002ca28     Delayimp:delayhlp.obj
 0002:00002a28       $unwind$__scrt_initialize_default_local_stdio_options 000000018002ca28     MSVCRT:default_local_stdio_options.obj
 0002:00002a28       $unwind$?dllmain_crt_dispatch@@YAHQEAUHINSTANCE__@@KQEAX@Z 000000018002ca28     MSVCRT:dll_dllmain.obj
 0002:00002a28       $unwind$DllMain            000000018002ca28     MSVCRT:dll_dllmain_stub.obj
 0002:00002a28       $unwind$__scrt_acquire_startup_lock 000000018002ca28     MSVCRT:utility.obj
 0002:00002a28       $unwind$__scrt_dllmain_after_initialize_c 000000018002ca28     MSVCRT:utility.obj
 0002:00002a28       $unwind$__scrt_dllmain_before_initialize_c 000000018002ca28     MSVCRT:utility.obj
 0002:00002a28       $unwind$__scrt_dllmain_crt_thread_attach 000000018002ca28     MSVCRT:utility.obj
 0002:00002a28       $unwind$__scrt_dllmain_crt_thread_detach 000000018002ca28     MSVCRT:utility.obj
 0002:00002a28       $unwind$__scrt_dllmain_uninitialize_c 000000018002ca28     MSVCRT:utility.obj
 0002:00002a28       $unwind$__scrt_dllmain_uninitialize_critical 000000018002ca28     MSVCRT:utility.obj
 0002:00002a30       $unwind$?cookConvexMesh@Cooking@physx@@UEBA_NAEBVPxConvexMeshDesc@2@AEAVPxOutputStream@2@PEAW4Enum@PxConvexMeshCookingResult@2@@Z 000000018002ca30     Cooking.obj
 0002:00002a30       $unwind$?cookTriangleMesh@Cooking@physx@@UEBA_NAEBVPxTriangleMeshDesc@2@AEAVPxOutputStream@2@PEAW4Enum@PxTriangleMeshCookingResult@2@@Z 000000018002ca30     Cooking.obj
 0002:00002a30       $unwind$?createTriangleMesh@Cooking@physx@@UEBAPEAVPxTriangleMesh@2@AEBVPxTriangleMeshDesc@2@AEAVPxPhysicsInsertionCallback@2@PEAW4Enum@PxTriangleMeshCookingResult@2@@Z 000000018002ca30     Cooking.obj
 0002:00002a4c       $unwind$?validateTriangleMesh@Cooking@physx@@UEBA_NAEBVPxTriangleMeshDesc@2@@Z 000000018002ca4c     Cooking.obj
 0002:00002a5c       $unwind$?createConvexMesh@Cooking@physx@@UEBAPEAVPxConvexMesh@2@AEBVPxConvexMeshDesc@2@AEAVPxPhysicsInsertionCallback@2@PEAW4Enum@PxConvexMeshCookingResult@2@@Z 000000018002ca5c     Cooking.obj
 0002:00002a78       $unwind$?validateConvexMesh@Cooking@physx@@UEBA_NAEBVPxConvexMeshDesc@2@@Z 000000018002ca78     Cooking.obj
 0002:00002a88       $unwind$?computeHullPolygons@Cooking@physx@@UEBA_NAEBVPxSimpleTriangleMesh@2@AEAVPxAllocatorCallback@2@AEAIAEAPEAVPxVec3@2@2AEAPEAI2AEAPEAUPxHullPolygon@2@@Z 000000018002ca88     Cooking.obj
 0002:00002aa8       $unwind$?cookHeightField@Cooking@physx@@UEBA_NAEBVPxHeightFieldDesc@2@AEAVPxOutputStream@2@@Z 000000018002caa8     Cooking.obj
 0002:00002abc       $unwind$?createHeightField@Cooking@physx@@UEBAPEAVPxHeightField@2@AEBVPxHeightFieldDesc@2@AEAVPxPhysicsInsertionCallback@2@@Z 000000018002cabc     Cooking.obj
 0002:00002acc       $unwind$?cookBVHStructure@Cooking@physx@@UEBA_NAEBVPxBVHStructureDesc@2@AEAVPxOutputStream@2@@Z 000000018002cacc     Cooking.obj
 0002:00002adc       $unwind$?createBVHStructure@Cooking@physx@@UEBAPEAVPxBVHStructure@2@AEBVPxBVHStructureDesc@2@AEAVPxPhysicsInsertionCallback@2@@Z 000000018002cadc     Cooking.obj
 0002:00002aec       $unwind$?cookConvexMeshInternal@Cooking@physx@@AEBA_NAEBVPxConvexMeshDesc@2@AEAVConvexMeshBuilder@2@PEAVConvexHullLib@2@PEAW4Enum@PxConvexMeshCookingResult@2@@Z 000000018002caec     Cooking.obj
 0002:00002b00       $chain$1$?cookConvexMeshInternal@Cooking@physx@@AEBA_NAEBVPxConvexMeshDesc@2@AEAVConvexMeshBuilder@2@PEAVConvexHullLib@2@PEAW4Enum@PxConvexMeshCookingResult@2@@Z 000000018002cb00     Cooking.obj
 0002:00002b14       $chain$2$?cookConvexMeshInternal@Cooking@physx@@AEBA_NAEBVPxConvexMeshDesc@2@AEAVConvexMeshBuilder@2@PEAVConvexHullLib@2@PEAW4Enum@PxConvexMeshCookingResult@2@@Z 000000018002cb14     Cooking.obj
 0002:00002b24       $chain$3$?cookConvexMeshInternal@Cooking@physx@@AEBA_NAEBVPxConvexMeshDesc@2@AEAVConvexMeshBuilder@2@PEAVConvexHullLib@2@PEAW4Enum@PxConvexMeshCookingResult@2@@Z 000000018002cb24     Cooking.obj
 0002:00002b38       $unwind$??0NodeAllocator@Gu@physx@@QEAA@AEBV012@@Z 000000018002cb38     BVHStructureBuilder.obj
 0002:00002b38       $unwind$?recreate@?$Array@VHalfEdge@ConvexHull@physx@@VNamedAllocator@shdfnd@3@@shdfnd@physx@@IEAAXI@Z 000000018002cb38     ConvexHullUtils.obj
 0002:00002b38       $unwind$?recreate@?$Array@VPxPlane@physx@@VNamedAllocator@shdfnd@2@@shdfnd@physx@@IEAAXI@Z 000000018002cb38     ConvexHullUtils.obj
 0002:00002b38       $unwind$?copy@ConvexMeshBuilder@physx@@QEAA_NAEAUConvexHullInitData@Gu@2@@Z 000000018002cb38     ConvexMeshBuilder.obj
 0002:00002b38       $unwind$?recreate@?$Array@UPxDebugLine@physx@@VNamedAllocator@shdfnd@2@@shdfnd@physx@@IEAAXI@Z 000000018002cb38     Cooking.obj
 0002:00002b38       $unwind$??0QuickHull@local@@QEAA@AEBUPxCookingParams@physx@@AEBVPxConvexMeshDesc@3@@Z 000000018002cb38     QuickHullConvexHullLib.obj
 0002:00002b38       $unwind$?recreate@?$Array@PEAUQuickHullFace@local@@VNamedAllocator@shdfnd@physx@@@shdfnd@physx@@IEAAXI@Z 000000018002cb38     QuickHullConvexHullLib.obj
 0002:00002b38       $unwind$?recreate@?$Array@PEAUQuickHullHalfEdge@local@@VNamedAllocator@shdfnd@physx@@@shdfnd@physx@@IEAAXI@Z 000000018002cb38     QuickHullConvexHullLib.obj
 0002:00002b38       $unwind$?recreate@?$Array@PEAUQuickHullVertex@local@@VNamedAllocator@shdfnd@physx@@@shdfnd@physx@@IEAAXI@Z 000000018002cb38     QuickHullConvexHullLib.obj
 0002:00002b38       $unwind$?recreate@?$Array@UExpandPoint@local@@VNamedAllocator@shdfnd@physx@@@shdfnd@physx@@IEAAXI@Z 000000018002cb38     QuickHullConvexHullLib.obj
 0002:00002b38       $unwind$?recreate@?$Array@IVNamedAllocator@shdfnd@physx@@@shdfnd@physx@@IEAAXI@Z 000000018002cb38     RTreeCooking.obj
 0002:00002b38       $unwind$?recreate@?$Array@URTreeNodeNQ@physx@@VNamedAllocator@shdfnd@2@@shdfnd@physx@@IEAAXI@Z 000000018002cb38     RTreeCooking.obj
 0002:00002b38       $unwind$?recreate@?$Array@URTreeNodeQ@Gu@physx@@VNamedAllocator@shdfnd@3@@shdfnd@physx@@IEAAXI@Z 000000018002cb38     RTreeCooking.obj
 0002:00002b38       $unwind$?recreate@?$Array@VPxVec3@physx@@VNamedAllocator@shdfnd@2@@shdfnd@physx@@IEAAXI@Z 000000018002cb38     RTreeCooking.obj
 0002:00002b48       $chain$0$?recreate@?$Array@UPxDebugLine@physx@@VNamedAllocator@shdfnd@2@@shdfnd@physx@@IEAAXI@Z 000000018002cb48     Cooking.obj
 0002:00002b5c       $chain$1$?recreate@?$Array@UPxDebugLine@physx@@VNamedAllocator@shdfnd@2@@shdfnd@physx@@IEAAXI@Z 000000018002cb5c     Cooking.obj
 0002:00002b6c       $unwind$??$copy@VNamedAllocator@shdfnd@physx@@@?$Array@USlab@NodeAllocator@Gu@physx@@VNamedAllocator@shdfnd@4@@shdfnd@physx@@IEAAXAEBV012@@Z 000000018002cb6c     BVHStructureBuilder.obj
 0002:00002b6c       $unwind$??1ConvexHullLib@physx@@UEAA@XZ 000000018002cb6c     ConvexHullLib.obj
 0002:00002b6c       $unwind$??1ConvexMeshBuilder@physx@@QEAA@XZ 000000018002cb6c     ConvexMeshBuilder.obj
 0002:00002b6c       $unwind$??$copy@VNamedAllocator@shdfnd@physx@@@?$Array@VPair@@VNamedAllocator@shdfnd@physx@@@shdfnd@physx@@IEAAXAEBV012@@Z 000000018002cb6c     ConvexPolygonsBuilder.obj
 0002:00002b6c       $unwind$??1ConvexPolygonsBuilder@physx@@QEAA@XZ 000000018002cb6c     ConvexPolygonsBuilder.obj
 0002:00002b6c       $unwind$?reserveSegments@RenderOutput@Cm@physx@@QEAAPEAUPxDebugLine@3@I@Z 000000018002cb6c     Cooking.obj
 0002:00002b6c       $unwind$?Clean@ReducedVertexCloud@physx@@QEAAAEAV12@XZ 000000018002cb6c     CookingUtils.obj
 0002:00002b6c       $unwind$?computeLocalBounds@MeshBulider@physx@@IEAAXAEAVMeshDataBase@Gu@2@@Z 000000018002cb6c     MeshBuilder.obj
 0002:00002b6c       $unwind$?fillConvexMeshDesc@QuickHullConvexHullLib@physx@@UEAAXAEAVPxConvexMeshDesc@2@@Z 000000018002cb6c     QuickHullConvexHullLib.obj
 0002:00002b6c       $unwind$?allocate@?$Array@UInterval@physx@@V?$InlineAllocator@$0CAAA@VNamedAllocator@shdfnd@physx@@@shdfnd@2@@shdfnd@physx@@IEAAPEAUInterval@3@I@Z 000000018002cb6c     RTreeCooking.obj
 0002:00002b6c       $unwind$?resizeUninitialized@?$Array@URTreeNodeNQ@physx@@VNamedAllocator@shdfnd@2@@shdfnd@physx@@QEAAXI@Z 000000018002cb6c     RTreeCooking.obj
 0002:00002b6c       $unwind$??0BV4TriangleMeshBuilder@physx@@QEAA@AEBUPxCookingParams@1@@Z 000000018002cb6c     TriangleMeshBuilder.obj
 0002:00002b6c       $unwind$??1BV4TriangleMeshBuilder@physx@@UEAA@XZ 000000018002cb6c     TriangleMeshBuilder.obj
 0002:00002b6c       $unwind$??1TriangleMeshBuilder@physx@@UEAA@XZ 000000018002cb6c     TriangleMeshBuilder.obj
 0002:00002b6c       $unwind$??1TriangleMeshData@Gu@physx@@UEAA@XZ 000000018002cb6c     TriangleMeshBuilder.obj
 0002:00002b6c       $unwind$??_GBV4TriangleData@Gu@physx@@UEAAPEAXI@Z 000000018002cb6c     TriangleMeshBuilder.obj
 0002:00002b6c       $unwind$??_GMeshDataBase@Gu@physx@@UEAAPEAXI@Z 000000018002cb6c     TriangleMeshBuilder.obj
 0002:00002b6c       $unwind$??_GRTreeTriangleData@Gu@physx@@UEAAPEAXI@Z 000000018002cb6c     TriangleMeshBuilder.obj
 0002:00002b6c       $unwind$??_GRTreeTriangleMeshBuilder@physx@@UEAAPEAXI@Z 000000018002cb6c     TriangleMeshBuilder.obj
 0002:00002b6c       $unwind$??_GTriangleMeshBuilder@physx@@UEAAPEAXI@Z 000000018002cb6c     TriangleMeshBuilder.obj
 0002:00002b6c       $unwind$??_GTriangleMeshData@Gu@physx@@UEAAPEAXI@Z 000000018002cb6c     TriangleMeshBuilder.obj
 0002:00002b6c       $unwind$?DloadGetSRWLockFunctionPointers@@YAEXZ 000000018002cb6c     Delayimp:delayhlp.obj
 0002:00002b6c       $unwind$_RTC_Initialize    000000018002cb6c     MSVCRT:initsect.obj
 0002:00002b6c       $unwind$_RTC_Terminate     000000018002cb6c     MSVCRT:initsect.obj
 0002:00002b78       $unwind$?outputSegment@RenderOutput@Cm@physx@@QEAAXAEBVPxVec3@3@0@Z 000000018002cb78     Cooking.obj
 0002:00002b90       $unwind$?getHeight@HeightField@Gu@physx@@UEBAMMM@Z 000000018002cb90     Cooking.obj
 0002:00002b98       $unwind$?getHeightInternal2@HeightField@Gu@physx@@QEBAMIMM@Z 000000018002cb98     Cooking.obj
 0002:00002ba4       $chain$0$?getHeightInternal2@HeightField@Gu@physx@@QEBAMIMM@Z 000000018002cba4     Cooking.obj
 0002:00002bb8       $chain$2$?getHeightInternal2@HeightField@Gu@physx@@QEBAMIMM@Z 000000018002cbb8     Cooking.obj
 0002:00002bcc       $unwind$?Reduce@ReducedVertexCloud@physx@@QEAA_NPEAUREDUCEDCLOUD@2@@Z 000000018002cbcc     CookingUtils.obj
 0002:00002be4       $unwind$??1AABBTreeBuildParams@Gu@physx@@QEAA@XZ 000000018002cbe4     BVHStructureBuilder.obj
 0002:00002be4       $unwind$??1BVHStructureBuilder@physx@@QEAA@XZ 000000018002cbe4     BVHStructureBuilder.obj
 0002:00002be4       $unwind$?reset@AABBTreeBuildParams@Gu@physx@@QEAAXXZ 000000018002cbe4     BVHStructureBuilder.obj
 0002:00002be4       $unwind$??1ConvexHullBuilder@physx@@QEAA@XZ 000000018002cbe4     ConvexHullBuilder.obj
 0002:00002be4       $unwind$??_GConvexHullLib@physx@@UEAAPEAXI@Z 000000018002cbe4     ConvexHullLib.obj
 0002:00002be4       $unwind$?resize@?$Array@VPxPlane@physx@@VNamedAllocator@shdfnd@2@@shdfnd@physx@@QEAAXIAEBVPxPlane@3@@Z 000000018002cbe4     ConvexHullUtils.obj
 0002:00002be4       $unwind$?resize@?$Array@VPxVec3@physx@@VNamedAllocator@shdfnd@2@@shdfnd@physx@@QEAAXIAEBVPxVec3@3@@Z 000000018002cbe4     ConvexHullUtils.obj
 0002:00002be4       $unwind$??1EdgeList@Gu@physx@@QEAA@XZ 000000018002cbe4     EdgeList.obj
 0002:00002be4       $unwind$??1MeshCleaner@physx@@QEAA@XZ 000000018002cbe4     MeshCleaner.obj
 0002:00002be4       $unwind$??_GQuantizerImpl@@EEAAPEAXI@Z 000000018002cbe4     Quantizer.obj
 0002:00002be4       $unwind$??_GConvexHull@physx@@QEAAPEAXI@Z 000000018002cbe4     QuickHullConvexHullLib.obj
 0002:00002be4       $unwind$??_GQuickHull@local@@QEAAPEAXI@Z 000000018002cbe4     QuickHullConvexHullLib.obj
 0002:00002be4       $unwind$??1MeshDataBase@Gu@physx@@UEAA@XZ 000000018002cbe4     TriangleMeshBuilder.obj
 0002:00002be4       $unwind$??_GBV4TriangleMeshBuilder@physx@@UEAAPEAXI@Z 000000018002cbe4     TriangleMeshBuilder.obj
 0002:00002be4       $unwind$_DllMainCRTStartup 000000018002cbe4     MSVCRT:dll_dllmain.obj
 0002:00002bf4       $unwind$?init@EdgeListBuilder@Gu@physx@@QEAA_NAEBUEDGELISTCREATE@23@@Z 000000018002cbf4     EdgeList.obj
 0002:00002c08       $unwind$?createFacesToEdges@EdgeListBuilder@Gu@physx@@AEAA_NIPEBIPEBG@Z 000000018002cc08     EdgeList.obj
 0002:00002c18       $chain$3$?createFacesToEdges@EdgeListBuilder@Gu@physx@@AEAA_NIPEBIPEBG@Z 000000018002cc18     EdgeList.obj
 0002:00002c38       $chain$4$?createFacesToEdges@EdgeListBuilder@Gu@physx@@AEAA_NIPEBIPEBG@Z 000000018002cc38     EdgeList.obj
 0002:00002c50       $chain$5$?createFacesToEdges@EdgeListBuilder@Gu@physx@@AEAA_NIPEBIPEBG@Z 000000018002cc50     EdgeList.obj
 0002:00002c64       $chain$6$?createFacesToEdges@EdgeListBuilder@Gu@physx@@AEAA_NIPEBIPEBG@Z 000000018002cc64     EdgeList.obj
 0002:00002c74       $unwind$?createEdgesToFaces@EdgeListBuilder@Gu@physx@@AEAA_NIPEBIPEBG@Z 000000018002cc74     EdgeList.obj
 0002:00002c84       $chain$2$?createEdgesToFaces@EdgeListBuilder@Gu@physx@@AEAA_NIPEBIPEBG@Z 000000018002cc84     EdgeList.obj
 0002:00002c9c       $chain$3$?createEdgesToFaces@EdgeListBuilder@Gu@physx@@AEAA_NIPEBIPEBG@Z 000000018002cc9c     EdgeList.obj
 0002:00002cb0       $chain$4$?createEdgesToFaces@EdgeListBuilder@Gu@physx@@AEAA_NIPEBIPEBG@Z 000000018002ccb0     EdgeList.obj
 0002:00002cc0       $unwind$?computeActiveEdges@EdgeListBuilder@Gu@physx@@AEAA_NIPEBIPEBGPEBVPxVec3@3@M@Z 000000018002ccc0     EdgeList.obj
 0002:00002cd0       $chain$0$?computeActiveEdges@EdgeListBuilder@Gu@physx@@AEAA_NIPEBIPEBGPEBVPxVec3@3@M@Z 000000018002ccd0     EdgeList.obj
 0002:00002ce4       $chain$3$?computeActiveEdges@EdgeListBuilder@Gu@physx@@AEAA_NIPEBIPEBGPEBVPxVec3@3@M@Z 000000018002cce4     EdgeList.obj
 0002:00002cf8       $chain$16$?computeActiveEdges@EdgeListBuilder@Gu@physx@@AEAA_NIPEBIPEBGPEBVPxVec3@3@M@Z 000000018002ccf8     EdgeList.obj
 0002:00002d3c       $chain$17$?computeActiveEdges@EdgeListBuilder@Gu@physx@@AEAA_NIPEBIPEBGPEBVPxVec3@3@M@Z 000000018002cd3c     EdgeList.obj
 0002:00002d50       $chain$2$?computeActiveEdges@EdgeListBuilder@Gu@physx@@AEAA_NIPEBIPEBGPEBVPxVec3@3@M@Z 000000018002cd50     EdgeList.obj
 0002:00002d64       $chain$18$?computeActiveEdges@EdgeListBuilder@Gu@physx@@AEAA_NIPEBIPEBGPEBVPxVec3@3@M@Z 000000018002cd64     EdgeList.obj
 0002:00002d74       $chain$0$??$?_UI@@YAPEAX_KV?$ReflectionAllocator@I@shdfnd@physx@@PEBDH@Z 000000018002cd74     EdgeList.obj
 0002:00002d88       $chain$1$??$?_UI@@YAPEAX_KV?$ReflectionAllocator@I@shdfnd@physx@@PEBDH@Z 000000018002cd88     EdgeList.obj
 0002:00002d98       $unwind$??0MeshCleaner@physx@@QEAA@IPEBVPxVec3@1@IPEBIM@Z 000000018002cd98     MeshCleaner.obj
 0002:00002da4       $chain$1$??0MeshCleaner@physx@@QEAA@IPEBVPxVec3@1@IPEBIM@Z 000000018002cda4     MeshCleaner.obj
 0002:00002dbc       $chain$5$??0MeshCleaner@physx@@QEAA@IPEBVPxVec3@1@IPEBIM@Z 000000018002cdbc     MeshCleaner.obj
 0002:00002ddc       $chain$7$??0MeshCleaner@physx@@QEAA@IPEBVPxVec3@1@IPEBIM@Z 000000018002cddc     MeshCleaner.obj
 0002:00002df4       $chain$8$??0MeshCleaner@physx@@QEAA@IPEBVPxVec3@1@IPEBIM@Z 000000018002cdf4     MeshCleaner.obj
 0002:00002e08       $chain$9$??0MeshCleaner@physx@@QEAA@IPEBVPxVec3@1@IPEBIM@Z 000000018002ce08     MeshCleaner.obj
 0002:00002e18       $chain$10$??0MeshCleaner@physx@@QEAA@IPEBVPxVec3@1@IPEBIM@Z 000000018002ce18     MeshCleaner.obj
 0002:00002e28       $chain$11$??0MeshCleaner@physx@@QEAA@IPEBVPxVec3@1@IPEBIM@Z 000000018002ce28     MeshCleaner.obj
 0002:00002e44       $chain$12$??0MeshCleaner@physx@@QEAA@IPEBVPxVec3@1@IPEBIM@Z 000000018002ce44     MeshCleaner.obj
 0002:00002e54       $unwind$?createQuantizer@physx@@YAPEAVQuantizer@1@XZ 000000018002ce54     Quantizer.obj
 0002:00002e64       $unwind$??$kmeans_cluster@VPxVec3@physx@@M@@YAIPEBVPxVec3@physx@@IIPEAV01@PEAIMM@Z 000000018002ce64     Quantizer.obj
 0002:00002e70       $chain$6$??$kmeans_cluster@VPxVec3@physx@@M@@YAIPEBVPxVec3@physx@@IIPEAV01@PEAIMM@Z 000000018002ce70     Quantizer.obj
 0002:00002e9c       $chain$12$??$kmeans_cluster@VPxVec3@physx@@M@@YAIPEBVPxVec3@physx@@IIPEAV01@PEAIMM@Z 000000018002ce9c     Quantizer.obj
 0002:00002ec4       $chain$13$??$kmeans_cluster@VPxVec3@physx@@M@@YAIPEBVPxVec3@physx@@IIPEAV01@PEAIMM@Z 000000018002cec4     Quantizer.obj
 0002:00002ed4       $chain$14$??$kmeans_cluster@VPxVec3@physx@@M@@YAIPEBVPxVec3@physx@@IIPEAV01@PEAIMM@Z 000000018002ced4     Quantizer.obj
 0002:00002ee4       $unwind$?kmeansQuantize3D@QuantizerImpl@@UEAAPEBVPxVec3@physx@@IPEBV23@I_NIAEAI@Z 000000018002cee4     Quantizer.obj
 0002:00002ef4       $chain$2$?kmeansQuantize3D@QuantizerImpl@@UEAAPEBVPxVec3@physx@@IPEBV23@I_NIAEAI@Z 000000018002cef4     Quantizer.obj
 0002:00002f10       $chain$3$?kmeansQuantize3D@QuantizerImpl@@UEAAPEBVPxVec3@physx@@IPEBV23@I_NIAEAI@Z 000000018002cf10     Quantizer.obj
 0002:00002f28       $chain$4$?kmeansQuantize3D@QuantizerImpl@@UEAAPEBVPxVec3@physx@@IPEBV23@I_NIAEAI@Z 000000018002cf28     Quantizer.obj
 0002:00002f3c       $chain$5$?kmeansQuantize3D@QuantizerImpl@@UEAAPEBVPxVec3@physx@@IPEBV23@I_NIAEAI@Z 000000018002cf3c     Quantizer.obj
 0002:00002f4c       $unwind$?normalizeInput@QuantizerImpl@@AEAAXIPEBVPxVec3@physx@@I@Z 000000018002cf4c     Quantizer.obj
 0002:00002f68       $chain$3$?normalizeInput@QuantizerImpl@@AEAAXIPEBVPxVec3@physx@@I@Z 000000018002cf68     Quantizer.obj
 0002:00002f88       $chain$6$?normalizeInput@QuantizerImpl@@AEAAXIPEBVPxVec3@physx@@I@Z 000000018002cf88     Quantizer.obj
 0002:00002fa4       $chain$7$?normalizeInput@QuantizerImpl@@AEAAXIPEBVPxVec3@physx@@I@Z 000000018002cfa4     Quantizer.obj
 0002:00002fb4       $chain$8$?normalizeInput@QuantizerImpl@@AEAAXIPEBVPxVec3@physx@@I@Z 000000018002cfb4     Quantizer.obj
 0002:00002fc4       $chain$10$?normalizeInput@QuantizerImpl@@AEAAXIPEBVPxVec3@physx@@I@Z 000000018002cfc4     Quantizer.obj
 0002:00002fdc       $chain$11$?normalizeInput@QuantizerImpl@@AEAAXIPEBVPxVec3@physx@@I@Z 000000018002cfdc     Quantizer.obj
 0002:00002fec       $unwind$?growAndPushBack@?$Array@VHalfEdge@ConvexHull@physx@@VNamedAllocator@shdfnd@3@@shdfnd@physx@@IEAAAEAVHalfEdge@ConvexHull@3@AEBV453@@Z 000000018002cfec     ConvexHullUtils.obj
 0002:00002fec       $unwind$?growAndPushBack@?$Array@VPxPlane@physx@@VNamedAllocator@shdfnd@2@@shdfnd@physx@@IEAAAEAVPxPlane@3@AEBV43@@Z 000000018002cfec     ConvexHullUtils.obj
 0002:00002fec       $unwind$?growAndPushBack@?$Array@VPair@@VNamedAllocator@shdfnd@physx@@@shdfnd@physx@@IEAAAEAVPair@@AEBV4@@Z 000000018002cfec     ConvexPolygonsBuilder.obj
 0002:00002fec       $unwind$?growAndPushBack@?$Array@VPxVec3@physx@@VNamedAllocator@shdfnd@2@@shdfnd@physx@@IEAAAEAVPxVec3@3@AEBV43@@Z 000000018002cfec     Quantizer.obj
 0002:00002fec       $unwind$?growAndPushBack@?$Array@PEAUQuickHullFace@local@@VNamedAllocator@shdfnd@physx@@@shdfnd@physx@@IEAAAEAPEAUQuickHullFace@local@@AEBQEAU45@@Z 000000018002cfec     QuickHullConvexHullLib.obj
 0002:00002fec       $unwind$?growAndPushBack@?$Array@PEAUQuickHullHalfEdge@local@@VNamedAllocator@shdfnd@physx@@@shdfnd@physx@@IEAAAEAPEAUQuickHullHalfEdge@local@@AEBQEAU45@@Z 000000018002cfec     QuickHullConvexHullLib.obj
 0002:00002fec       $unwind$?growAndPushBack@?$Array@PEAUQuickHullVertex@local@@VNamedAllocator@shdfnd@physx@@@shdfnd@physx@@IEAAAEAPEAUQuickHullVertex@local@@AEBQEAU45@@Z 000000018002cfec     QuickHullConvexHullLib.obj
 0002:00002fec       $unwind$?growAndPushBack@?$Array@IVNamedAllocator@shdfnd@physx@@@shdfnd@physx@@IEAAAEAIAEBI@Z 000000018002cfec     RTreeCooking.obj
 0002:00002fec       $unwind$?growAndPushBack@?$Array@UPxBounds3V@physx@@VNamedAllocator@shdfnd@2@@shdfnd@physx@@IEAAAEAUPxBounds3V@3@AEBU43@@Z 000000018002cfec     RTreeCooking.obj
 0002:00002fec       $unwind$?growAndPushBack@?$Array@URTreeNodeNQ@physx@@VNamedAllocator@shdfnd@2@@shdfnd@physx@@IEAAAEAURTreeNodeNQ@3@AEBU43@@Z 000000018002cfec     RTreeCooking.obj
 0002:00002ffc       $chain$0$?growAndPushBack@?$Array@VPxVec3@physx@@VNamedAllocator@shdfnd@2@@shdfnd@physx@@IEAAAEAVPxVec3@3@AEBV43@@Z 000000018002cffc     Quantizer.obj
 0002:00003010       $chain$1$?growAndPushBack@?$Array@VPxVec3@physx@@VNamedAllocator@shdfnd@2@@shdfnd@physx@@IEAAAEAVPxVec3@3@AEBV43@@Z 000000018002d010     Quantizer.obj
 0002:00003024       $chain$2$?growAndPushBack@?$Array@VPxVec3@physx@@VNamedAllocator@shdfnd@2@@shdfnd@physx@@IEAAAEAVPxVec3@3@AEBV43@@Z 000000018002d024     Quantizer.obj
 0002:00003034       $chain$3$?growAndPushBack@?$Array@VPxVec3@physx@@VNamedAllocator@shdfnd@2@@shdfnd@physx@@IEAAAEAVPxVec3@3@AEBV43@@Z 000000018002d034     Quantizer.obj
 0002:00003044       $unwind$?loadFromDesc@BVHStructureBuilder@physx@@QEAA_NAEBVPxBVHStructureDesc@2@@Z 000000018002d044     BVHStructureBuilder.obj
 0002:00003058       $unwind$?save@BVHStructureBuilder@physx@@QEBA_NAEAVPxOutputStream@2@_N@Z 000000018002d058     BVHStructureBuilder.obj
 0002:00003068       $chain$2$?save@BVHStructureBuilder@physx@@QEBA_NAEAVPxOutputStream@2@_N@Z 000000018002d068     BVHStructureBuilder.obj
 0002:00003080       $chain$3$?save@BVHStructureBuilder@physx@@QEBA_NAEAVPxOutputStream@2@_N@Z 000000018002d080     BVHStructureBuilder.obj
 0002:00003094       $chain$1$?allocate@?$Array@USlab@NodeAllocator@Gu@physx@@VNamedAllocator@shdfnd@4@@shdfnd@physx@@IEAAPEAUSlab@NodeAllocator@Gu@3@I@Z 000000018002d094     BVHStructureBuilder.obj
 0002:000030ac       $chain$2$?allocate@?$Array@USlab@NodeAllocator@Gu@physx@@VNamedAllocator@shdfnd@4@@shdfnd@physx@@IEAAPEAUSlab@NodeAllocator@Gu@3@I@Z 000000018002d0ac     BVHStructureBuilder.obj
 0002:000030bc       $unwind$?recreate@?$Array@USlab@NodeAllocator@Gu@physx@@VNamedAllocator@shdfnd@4@@shdfnd@physx@@IEAAXI@Z 000000018002d0bc     BVHStructureBuilder.obj
 0002:000030bc       $unwind$?recreate@?$Array@UPxBounds3V@physx@@VNamedAllocator@shdfnd@2@@shdfnd@physx@@IEAAXI@Z 000000018002d0bc     RTreeCooking.obj
 0002:000030cc       $chain$0$?recreate@?$Array@USlab@NodeAllocator@Gu@physx@@VNamedAllocator@shdfnd@4@@shdfnd@physx@@IEAAXI@Z 000000018002d0cc     BVHStructureBuilder.obj
 0002:000030e0       $chain$1$?recreate@?$Array@USlab@NodeAllocator@Gu@physx@@VNamedAllocator@shdfnd@4@@shdfnd@physx@@IEAAXI@Z 000000018002d0e0     BVHStructureBuilder.obj
 0002:000030f0       $unwind$??4NodeAllocator@Gu@physx@@QEAAAEAV012@AEBV012@@Z 000000018002d0f0     BVHStructureBuilder.obj
 0002:000030f0       $unwind$?growAndPushBack@?$Array@UInterval@physx@@V?$InlineAllocator@$0CAAA@VNamedAllocator@shdfnd@physx@@@shdfnd@2@@shdfnd@physx@@IEAAAEAUInterval@3@AEBU43@@Z 000000018002d0f0     RTreeCooking.obj
 0002:00003104       $unwind$?flatten@@YAXAEBVNodeAllocator@Gu@physx@@PEAUBVHNode@23@@Z 000000018002d104     BVHStructureBuilder.obj
 0002:00003110       $chain$5$?flatten@@YAXAEBVNodeAllocator@Gu@physx@@PEAUBVHNode@23@@Z 000000018002d110     BVHStructureBuilder.obj
 0002:00003138       $chain$6$?flatten@@YAXAEBVNodeAllocator@Gu@physx@@PEAUBVHNode@23@@Z 000000018002d138     BVHStructureBuilder.obj
 0002:00003148       $chain$7$?flatten@@YAXAEBVNodeAllocator@Gu@physx@@PEAUBVHNode@23@@Z 000000018002d148     BVHStructureBuilder.obj
 0002:00003170       $unwind$?saveHeightField@physx@@YA_NAEBVHeightField@Gu@1@AEAVPxOutputStream@1@_N@Z 000000018002d170     HeightFieldCooking.obj
 0002:00003180       $chain$2$?saveHeightField@physx@@YA_NAEBVHeightField@Gu@1@AEAVPxOutputStream@1@_N@Z 000000018002d180     HeightFieldCooking.obj
 0002:00003198       $chain$3$?saveHeightField@physx@@YA_NAEBVHeightField@Gu@1@AEAVPxOutputStream@1@_N@Z 000000018002d198     HeightFieldCooking.obj
 0002:000031a8       $unwind$?expandHullOBB@QuickHullConvexHullLib@physx@@IEAA?AW4Enum@PxConvexMeshCookingResult@2@XZ 000000018002d1a8     QuickHullConvexHullLib.obj
 0002:000031a8       $unwind$?buildFromTriangles@RTreeCooker@physx@@SAXAEAURTree@Gu@2@PEBVPxVec3@2@IPEBGPEBIIAEAV?$Array@IVNamedAllocator@shdfnd@physx@@@shdfnd@2@PEAURemapCallback@12@MW4Enum@PxMeshCookingHint@2@@Z 000000018002d1a8     RTreeCooking.obj
 0002:000031b4       $chain$7$?buildFromTriangles@RTreeCooker@physx@@SAXAEAURTree@Gu@2@PEBVPxVec3@2@IPEBGPEBIIAEAV?$Array@IVNamedAllocator@shdfnd@physx@@@shdfnd@2@PEAURemapCallback@12@MW4Enum@PxMeshCookingHint@2@@Z 000000018002d1b4     RTreeCooking.obj
 0002:000031e4       $chain$9$?buildFromTriangles@RTreeCooker@physx@@SAXAEAURTree@Gu@2@PEBVPxVec3@2@IPEBGPEBIIAEAV?$Array@IVNamedAllocator@shdfnd@physx@@@shdfnd@2@PEAURemapCallback@12@MW4Enum@PxMeshCookingHint@2@@Z 000000018002d1e4     RTreeCooking.obj
 0002:000031fc       $chain$10$?buildFromTriangles@RTreeCooker@physx@@SAXAEAURTree@Gu@2@PEBVPxVec3@2@IPEBGPEBIIAEAV?$Array@IVNamedAllocator@shdfnd@physx@@@shdfnd@2@PEAURemapCallback@12@MW4Enum@PxMeshCookingHint@2@@Z 000000018002d1fc     RTreeCooking.obj
 0002:0000320c       $chain$11$?buildFromTriangles@RTreeCooker@physx@@SAXAEAURTree@Gu@2@PEBVPxVec3@2@IPEBGPEBIIAEAV?$Array@IVNamedAllocator@shdfnd@physx@@@shdfnd@2@PEAURemapCallback@12@MW4Enum@PxMeshCookingHint@2@@Z 000000018002d20c     RTreeCooking.obj
 0002:0000321c       $unwind$?buildFromBounds@physx@@YAXAEAURTree@Gu@1@PEBUPxBounds3V@1@IAEAV?$Array@IVNamedAllocator@shdfnd@physx@@@shdfnd@1@PEAURemapCallback@RTreeCooker@1@AEAT__m128@@4MW4Enum@PxMeshCookingHint@1@@Z 000000018002d21c     RTreeCooking.obj
 0002:00003240       $chain$0$?growAndPushBack@?$Array@UPxBounds3V@physx@@VNamedAllocator@shdfnd@2@@shdfnd@physx@@IEAAAEAUPxBounds3V@3@AEBU43@@Z 000000018002d240     RTreeCooking.obj
 0002:00003254       $chain$1$?growAndPushBack@?$Array@UPxBounds3V@physx@@VNamedAllocator@shdfnd@2@@shdfnd@physx@@IEAAAEAUPxBounds3V@3@AEBU43@@Z 000000018002d254     RTreeCooking.obj
 0002:00003268       $chain$2$?growAndPushBack@?$Array@UPxBounds3V@physx@@VNamedAllocator@shdfnd@2@@shdfnd@physx@@IEAAAEAUPxBounds3V@3@AEBU43@@Z 000000018002d268     RTreeCooking.obj
 0002:00003278       $chain$3$?growAndPushBack@?$Array@UPxBounds3V@physx@@VNamedAllocator@shdfnd@2@@shdfnd@physx@@IEAAAEAUPxBounds3V@3@AEBU43@@Z 000000018002d278     RTreeCooking.obj
 0002:00003288       $chain$0$?recreate@?$Array@UPxBounds3V@physx@@VNamedAllocator@shdfnd@2@@shdfnd@physx@@IEAAXI@Z 000000018002d288     RTreeCooking.obj
 0002:0000329c       $chain$1$?recreate@?$Array@UPxBounds3V@physx@@VNamedAllocator@shdfnd@2@@shdfnd@physx@@IEAAXI@Z 000000018002d29c     RTreeCooking.obj
 0002:000032ac       $unwind$?resize@?$Array@VHalfEdge@ConvexHull@physx@@VNamedAllocator@shdfnd@3@@shdfnd@physx@@QEAAXIAEBVHalfEdge@ConvexHull@3@@Z 000000018002d2ac     ConvexHullUtils.obj
 0002:000032ac       $unwind$??_GQuickHullConvexHullLib@physx@@UEAAPEAXI@Z 000000018002d2ac     QuickHullConvexHullLib.obj
 0002:000032ac       $unwind$?resize@?$Array@IVNamedAllocator@shdfnd@physx@@@shdfnd@physx@@QEAAXIAEBI@Z 000000018002d2ac     RTreeCooking.obj
 0002:000032ac       $unwind$__scrt_dllmain_exception_filter 000000018002d2ac     MSVCRT:utility.obj
 0002:000032c0       $chain$0$?growAndPushBack@?$Array@VHalfEdge@ConvexHull@physx@@VNamedAllocator@shdfnd@3@@shdfnd@physx@@IEAAAEAVHalfEdge@ConvexHull@3@AEBV453@@Z 000000018002d2c0     ConvexHullUtils.obj
 0002:000032c0       $chain$0$?growAndPushBack@?$Array@IVNamedAllocator@shdfnd@physx@@@shdfnd@physx@@IEAAAEAIAEBI@Z 000000018002d2c0     RTreeCooking.obj
 0002:000032d4       $chain$1$?growAndPushBack@?$Array@VHalfEdge@ConvexHull@physx@@VNamedAllocator@shdfnd@3@@shdfnd@physx@@IEAAAEAVHalfEdge@ConvexHull@3@AEBV453@@Z 000000018002d2d4     ConvexHullUtils.obj
 0002:000032d4       $chain$1$?growAndPushBack@?$Array@IVNamedAllocator@shdfnd@physx@@@shdfnd@physx@@IEAAAEAIAEBI@Z 000000018002d2d4     RTreeCooking.obj
 0002:000032e8       $chain$2$?growAndPushBack@?$Array@VHalfEdge@ConvexHull@physx@@VNamedAllocator@shdfnd@3@@shdfnd@physx@@IEAAAEAVHalfEdge@ConvexHull@3@AEBV453@@Z 000000018002d2e8     ConvexHullUtils.obj
 0002:000032e8       $chain$2$?growAndPushBack@?$Array@IVNamedAllocator@shdfnd@physx@@@shdfnd@physx@@IEAAAEAIAEBI@Z 000000018002d2e8     RTreeCooking.obj
 0002:000032f8       $chain$3$?growAndPushBack@?$Array@VHalfEdge@ConvexHull@physx@@VNamedAllocator@shdfnd@3@@shdfnd@physx@@IEAAAEAVHalfEdge@ConvexHull@3@AEBV453@@Z 000000018002d2f8     ConvexHullUtils.obj
 0002:000032f8       $chain$3$?growAndPushBack@?$Array@IVNamedAllocator@shdfnd@physx@@@shdfnd@physx@@IEAAAEAIAEBI@Z 000000018002d2f8     RTreeCooking.obj
 0002:00003308       $chain$0$?recreate@?$Array@VHalfEdge@ConvexHull@physx@@VNamedAllocator@shdfnd@3@@shdfnd@physx@@IEAAXI@Z 000000018002d308     ConvexHullUtils.obj
 0002:00003308       $chain$0$?recreate@?$Array@IVNamedAllocator@shdfnd@physx@@@shdfnd@physx@@IEAAXI@Z 000000018002d308     RTreeCooking.obj
 0002:0000331c       $chain$1$?recreate@?$Array@VHalfEdge@ConvexHull@physx@@VNamedAllocator@shdfnd@3@@shdfnd@physx@@IEAAXI@Z 000000018002d31c     ConvexHullUtils.obj
 0002:0000331c       $chain$1$?recreate@?$Array@IVNamedAllocator@shdfnd@physx@@@shdfnd@physx@@IEAAXI@Z 000000018002d31c     RTreeCooking.obj
 0002:0000332c       $chain$0$?recreate@?$Array@VPxVec3@physx@@VNamedAllocator@shdfnd@2@@shdfnd@physx@@IEAAXI@Z 000000018002d32c     RTreeCooking.obj
 0002:00003340       $chain$1$?recreate@?$Array@VPxVec3@physx@@VNamedAllocator@shdfnd@2@@shdfnd@physx@@IEAAXI@Z 000000018002d340     RTreeCooking.obj
 0002:00003350       $unwind$?sort4@SubSortQuick@physx@@QEAAXPEIAIIAEAV?$Array@URTreeNodeNQ@physx@@VNamedAllocator@shdfnd@2@@shdfnd@2@AEAIAEAUPxBounds3V@2@I@Z 000000018002d350     RTreeCooking.obj
 0002:00003368       $chain$0$?growAndPushBack@?$Array@URTreeNodeNQ@physx@@VNamedAllocator@shdfnd@2@@shdfnd@physx@@IEAAAEAURTreeNodeNQ@3@AEBU43@@Z 000000018002d368     RTreeCooking.obj
 0002:0000337c       $chain$1$?growAndPushBack@?$Array@URTreeNodeNQ@physx@@VNamedAllocator@shdfnd@2@@shdfnd@physx@@IEAAAEAURTreeNodeNQ@3@AEBU43@@Z 000000018002d37c     RTreeCooking.obj
 0002:00003390       $chain$2$?growAndPushBack@?$Array@URTreeNodeNQ@physx@@VNamedAllocator@shdfnd@2@@shdfnd@physx@@IEAAAEAURTreeNodeNQ@3@AEBU43@@Z 000000018002d390     RTreeCooking.obj
 0002:000033a0       $chain$3$?growAndPushBack@?$Array@URTreeNodeNQ@physx@@VNamedAllocator@shdfnd@2@@shdfnd@physx@@IEAAAEAURTreeNodeNQ@3@AEBU43@@Z 000000018002d3a0     RTreeCooking.obj
 0002:000033b0       $chain$0$?recreate@?$Array@URTreeNodeNQ@physx@@VNamedAllocator@shdfnd@2@@shdfnd@physx@@IEAAXI@Z 000000018002d3b0     RTreeCooking.obj
 0002:000033c4       $chain$1$?recreate@?$Array@URTreeNodeNQ@physx@@VNamedAllocator@shdfnd@2@@shdfnd@physx@@IEAAXI@Z 000000018002d3c4     RTreeCooking.obj
 0002:000033d4       $unwind$??$quickSelectFirstK@UBoundsLTE@physx@@@quickSelect@physx@@YAXPEIAIIIIAEBUBoundsLTE@1@@Z 000000018002d3d4     RTreeCooking.obj
 0002:000033f0       $unwind$?split@SubSortSAH@physx@@QEAAIPEAII@Z 000000018002d3f0     RTreeCooking.obj
 0002:000033fc       $chain$5$?split@SubSortSAH@physx@@QEAAIPEAII@Z 000000018002d3fc     RTreeCooking.obj
 0002:00003424       $chain$6$?split@SubSortSAH@physx@@QEAAIPEAII@Z 000000018002d424     RTreeCooking.obj
 0002:00003438       $chain$7$?split@SubSortSAH@physx@@QEAAIPEAII@Z 000000018002d438     RTreeCooking.obj
 0002:00003438       $chain$9$?split@SubSortSAH@physx@@QEAAIPEAII@Z 000000018002d438     RTreeCooking.obj
 0002:00003448       $chain$8$?split@SubSortSAH@physx@@QEAAIPEAII@Z 000000018002d448     RTreeCooking.obj
 0002:0000345c       $chain$10$?split@SubSortSAH@physx@@QEAAIPEAII@Z 000000018002d45c     RTreeCooking.obj
 0002:0000346c       $unwind$?sort4@SubSortSAH@physx@@QEAAXPEAIIAEAV?$Array@URTreeNodeNQ@physx@@VNamedAllocator@shdfnd@2@@shdfnd@2@AEAIIPEAURTreeNodeNQ@2@@Z 000000018002d46c     RTreeCooking.obj
 0002:00003488       $chain$2$?sort4@SubSortSAH@physx@@QEAAXPEAIIAEAV?$Array@URTreeNodeNQ@physx@@VNamedAllocator@shdfnd@2@@shdfnd@2@AEAIIPEAURTreeNodeNQ@2@@Z 000000018002d488     RTreeCooking.obj
 0002:000034a4       $chain$3$?sort4@SubSortSAH@physx@@QEAAXPEAIIAEAV?$Array@URTreeNodeNQ@physx@@VNamedAllocator@shdfnd@2@@shdfnd@2@AEAIIPEAURTreeNodeNQ@2@@Z 000000018002d4a4     RTreeCooking.obj
 0002:000034b8       $chain$4$?sort4@SubSortSAH@physx@@QEAAXPEAIIAEAV?$Array@URTreeNodeNQ@physx@@VNamedAllocator@shdfnd@2@@shdfnd@2@AEAIIPEAURTreeNodeNQ@2@@Z 000000018002d4b8     RTreeCooking.obj
 0002:000034c8       $unwind$??0?$InlineArray@UInterval@physx@@$0EAA@VNamedAllocator@shdfnd@2@@shdfnd@physx@@QEAA@AEBVNamedAllocator@12@@Z 000000018002d4c8     RTreeCooking.obj
 0002:000034d8       $unwind$?growAndPushBack@?$Array@UExpandPoint@local@@VNamedAllocator@shdfnd@physx@@@shdfnd@physx@@IEAAAEAUExpandPoint@local@@AEBU45@@Z 000000018002d4d8     QuickHullConvexHullLib.obj
 0002:000034d8       $unwind$?growAndPushBack@?$Array@URTreeNodeQ@Gu@physx@@VNamedAllocator@shdfnd@3@@shdfnd@physx@@IEAAAEAURTreeNodeQ@Gu@3@AEBU453@@Z 000000018002d4d8     RTreeCooking.obj
 0002:000034e8       $chain$0$?growAndPushBack@?$Array@URTreeNodeQ@Gu@physx@@VNamedAllocator@shdfnd@3@@shdfnd@physx@@IEAAAEAURTreeNodeQ@Gu@3@AEBU453@@Z 000000018002d4e8     RTreeCooking.obj
 0002:000034fc       $chain$1$?growAndPushBack@?$Array@URTreeNodeQ@Gu@physx@@VNamedAllocator@shdfnd@3@@shdfnd@physx@@IEAAAEAURTreeNodeQ@Gu@3@AEBU453@@Z 000000018002d4fc     RTreeCooking.obj
 0002:00003510       $chain$2$?growAndPushBack@?$Array@URTreeNodeQ@Gu@physx@@VNamedAllocator@shdfnd@3@@shdfnd@physx@@IEAAAEAURTreeNodeQ@Gu@3@AEBU453@@Z 000000018002d510     RTreeCooking.obj
 0002:00003520       $chain$3$?growAndPushBack@?$Array@URTreeNodeQ@Gu@physx@@VNamedAllocator@shdfnd@3@@shdfnd@physx@@IEAAAEAURTreeNodeQ@Gu@3@AEBU453@@Z 000000018002d520     RTreeCooking.obj
 0002:00003530       $chain$0$?recreate@?$Array@URTreeNodeQ@Gu@physx@@VNamedAllocator@shdfnd@3@@shdfnd@physx@@IEAAXI@Z 000000018002d530     RTreeCooking.obj
 0002:00003544       $chain$1$?recreate@?$Array@URTreeNodeQ@Gu@physx@@VNamedAllocator@shdfnd@3@@shdfnd@physx@@IEAAXI@Z 000000018002d544     RTreeCooking.obj
 0002:00003554       $unwind$??$sort@IU?$Less@I@shdfnd@physx@@VNamedAllocator@23@@shdfnd@physx@@YAXPEAIIAEBU?$Less@I@01@AEBVNamedAllocator@01@I@Z 000000018002d554     RTreeCooking.obj
 0002:00003554       $unwind$??$sort@UEdgeTriLookup@physx@@U?$Less@UEdgeTriLookup@physx@@@shdfnd@2@VNamedAllocator@42@@shdfnd@physx@@YAXPEAUEdgeTriLookup@1@IAEBU?$Less@UEdgeTriLookup@physx@@@01@AEBVNamedAllocator@01@I@Z 000000018002d554     TriangleMeshBuilder.obj
 0002:00003574       $unwind$??$sort@IUSortBoundsPredicate@physx@@VNamedAllocator@shdfnd@2@@shdfnd@physx@@YAXPEAIIAEBUSortBoundsPredicate@1@AEBVNamedAllocator@01@I@Z 000000018002d574     RTreeCooking.obj
 0002:00003594       $unwind$??$smallSort@I$$CBUSortBoundsPredicate@physx@@@internal@shdfnd@physx@@YAXPEAIHHAEBUSortBoundsPredicate@2@@Z 000000018002d594     RTreeCooking.obj
 0002:000035a0       $chain$6$??$smallSort@I$$CBUSortBoundsPredicate@physx@@@internal@shdfnd@physx@@YAXPEAIHHAEBUSortBoundsPredicate@2@@Z 000000018002d5a0     RTreeCooking.obj
 0002:000035cc       $chain$7$??$smallSort@I$$CBUSortBoundsPredicate@physx@@@internal@shdfnd@physx@@YAXPEAIHHAEBUSortBoundsPredicate@2@@Z 000000018002d5cc     RTreeCooking.obj
 0002:000035dc       $unwind$?preallocate@QuickHull@local@@QEAAXI@Z 000000018002d5dc     QuickHullConvexHullLib.obj
 0002:000035dc       $unwind$?allocateVertices@MeshDataBase@Gu@physx@@QEAAPEAVPxVec3@3@I@Z 000000018002d5dc     TriangleMeshBuilder.obj
 0002:000035ec       $unwind$?allocateTriangles@TriangleMeshData@Gu@physx@@QEAAPEAXI_NI@Z 000000018002d5ec     TriangleMeshBuilder.obj
 0002:00003600       $chain$0$??$?_UG@@YAPEAX_KV?$ReflectionAllocator@G@shdfnd@physx@@PEBDH@Z 000000018002d600     TriangleMeshBuilder.obj
 0002:00003614       $chain$1$??$?_UG@@YAPEAX_KV?$ReflectionAllocator@G@shdfnd@physx@@PEBDH@Z 000000018002d614     TriangleMeshBuilder.obj
 0002:00003624       $chain$0$??1RTreeTriangleData@Gu@physx@@UEAA@XZ 000000018002d624     TriangleMeshBuilder.obj
 0002:00003638       $chain$1$??1RTreeTriangleData@Gu@physx@@UEAA@XZ 000000018002d638     TriangleMeshBuilder.obj
 0002:00003648       $unwind$?cleanMesh@TriangleMeshBuilder@physx@@QEAA_N_NPEAW4Enum@PxTriangleMeshCookingResult@2@@Z 000000018002d648     TriangleMeshBuilder.obj
 0002:0000365c       $chain$1$?cleanMesh@TriangleMeshBuilder@physx@@QEAA_N_NPEAW4Enum@PxTriangleMeshCookingResult@2@@Z 000000018002d65c     TriangleMeshBuilder.obj
 0002:00003674       $chain$2$?cleanMesh@TriangleMeshBuilder@physx@@QEAA_N_NPEAW4Enum@PxTriangleMeshCookingResult@2@@Z 000000018002d674     TriangleMeshBuilder.obj
 0002:00003688       $chain$3$?cleanMesh@TriangleMeshBuilder@physx@@QEAA_N_NPEAW4Enum@PxTriangleMeshCookingResult@2@@Z 000000018002d688     TriangleMeshBuilder.obj
 0002:0000369c       $chain$4$?cleanMesh@TriangleMeshBuilder@physx@@QEAA_N_NPEAW4Enum@PxTriangleMeshCookingResult@2@@Z 000000018002d69c     TriangleMeshBuilder.obj
 0002:000036ac       $chain$5$?cleanMesh@TriangleMeshBuilder@physx@@QEAA_N_NPEAW4Enum@PxTriangleMeshCookingResult@2@@Z 000000018002d6ac     TriangleMeshBuilder.obj
 0002:000036bc       $chain$9$?cleanMesh@TriangleMeshBuilder@physx@@QEAA_N_NPEAW4Enum@PxTriangleMeshCookingResult@2@@Z 000000018002d6bc     TriangleMeshBuilder.obj
 0002:000036d8       $chain$6$?cleanMesh@TriangleMeshBuilder@physx@@QEAA_N_NPEAW4Enum@PxTriangleMeshCookingResult@2@@Z 000000018002d6d8     TriangleMeshBuilder.obj
 0002:000036ec       $chain$10$?cleanMesh@TriangleMeshBuilder@physx@@QEAA_N_NPEAW4Enum@PxTriangleMeshCookingResult@2@@Z 000000018002d6ec     TriangleMeshBuilder.obj
 0002:000036fc       $unwind$?remapTopology@TriangleMeshBuilder@physx@@QEAAXPEBI@Z 000000018002d6fc     TriangleMeshBuilder.obj
 0002:00003708       $chain$3$?remapTopology@TriangleMeshBuilder@physx@@QEAAXPEBI@Z 000000018002d708     TriangleMeshBuilder.obj
 0002:00003728       $chain$4$?remapTopology@TriangleMeshBuilder@physx@@QEAAXPEBI@Z 000000018002d728     TriangleMeshBuilder.obj
 0002:0000373c       $chain$5$?remapTopology@TriangleMeshBuilder@physx@@QEAAXPEBI@Z 000000018002d73c     TriangleMeshBuilder.obj
 0002:0000374c       $chain$6$?remapTopology@TriangleMeshBuilder@physx@@QEAAXPEBI@Z 000000018002d74c     TriangleMeshBuilder.obj
 0002:0000375c       $unwind$?createSharedEdgeData@TriangleMeshBuilder@physx@@QEAAX_N0@Z 000000018002d75c     TriangleMeshBuilder.obj
 0002:00003768       $chain$3$?createSharedEdgeData@TriangleMeshBuilder@physx@@QEAAX_N0@Z 000000018002d768     TriangleMeshBuilder.obj
 0002:00003788       $chain$4$?createSharedEdgeData@TriangleMeshBuilder@physx@@QEAAX_N0@Z 000000018002d788     TriangleMeshBuilder.obj
 0002:0000379c       $chain$5$?createSharedEdgeData@TriangleMeshBuilder@physx@@QEAAX_N0@Z 000000018002d79c     TriangleMeshBuilder.obj
 0002:000037ac       $chain$6$?createSharedEdgeData@TriangleMeshBuilder@physx@@QEAAX_N0@Z 000000018002d7ac     TriangleMeshBuilder.obj
 0002:000037bc       $unwind$?createGRBMidPhaseAndData@TriangleMeshBuilder@physx@@QEAAXI@Z 000000018002d7bc     TriangleMeshBuilder.obj
 0002:000037c8       $chain$0$?createGRBMidPhaseAndData@TriangleMeshBuilder@physx@@QEAAXI@Z 000000018002d7c8     TriangleMeshBuilder.obj
 0002:000037dc       $chain$1$?createGRBMidPhaseAndData@TriangleMeshBuilder@physx@@QEAAXI@Z 000000018002d7dc     TriangleMeshBuilder.obj
 0002:000037f0       $chain$4$?createGRBMidPhaseAndData@TriangleMeshBuilder@physx@@QEAAXI@Z 000000018002d7f0     TriangleMeshBuilder.obj
 0002:0000380c       $chain$5$?createGRBMidPhaseAndData@TriangleMeshBuilder@physx@@QEAAXI@Z 000000018002d80c     TriangleMeshBuilder.obj
 0002:00003824       $chain$6$?createGRBMidPhaseAndData@TriangleMeshBuilder@physx@@QEAAXI@Z 000000018002d824     TriangleMeshBuilder.obj
 0002:00003834       $chain$7$?createGRBMidPhaseAndData@TriangleMeshBuilder@physx@@QEAAXI@Z 000000018002d834     TriangleMeshBuilder.obj
 0002:00003844       $chain$8$?createGRBMidPhaseAndData@TriangleMeshBuilder@physx@@QEAAXI@Z 000000018002d844     TriangleMeshBuilder.obj
 0002:00003854       $unwind$?loadFromDesc@TriangleMeshBuilder@physx@@QEAA_NAEBVPxTriangleMeshDesc@2@PEAW4Enum@PxTriangleMeshCookingResult@2@_N@Z 000000018002d854     TriangleMeshBuilder.obj
 0002:00003864       $chain$1$?loadFromDesc@TriangleMeshBuilder@physx@@QEAA_NAEBVPxTriangleMeshDesc@2@PEAW4Enum@PxTriangleMeshCookingResult@2@_N@Z 000000018002d864     TriangleMeshBuilder.obj
 0002:0000387c       $chain$2$?loadFromDesc@TriangleMeshBuilder@physx@@QEAA_NAEBVPxTriangleMeshDesc@2@PEAW4Enum@PxTriangleMeshCookingResult@2@_N@Z 000000018002d87c     TriangleMeshBuilder.obj
 0002:00003890       $chain$3$?loadFromDesc@TriangleMeshBuilder@physx@@QEAA_NAEBVPxTriangleMeshDesc@2@PEAW4Enum@PxTriangleMeshCookingResult@2@_N@Z 000000018002d890     TriangleMeshBuilder.obj
 0002:000038a0       $chain$5$?loadFromDesc@TriangleMeshBuilder@physx@@QEAA_NAEBVPxTriangleMeshDesc@2@PEAW4Enum@PxTriangleMeshCookingResult@2@_N@Z 000000018002d8a0     TriangleMeshBuilder.obj
 0002:000038b8       $chain$6$?loadFromDesc@TriangleMeshBuilder@physx@@QEAA_NAEBVPxTriangleMeshDesc@2@PEAW4Enum@PxTriangleMeshCookingResult@2@_N@Z 000000018002d8b8     TriangleMeshBuilder.obj
 0002:000038c8       $unwind$?save@TriangleMeshBuilder@physx@@QEBA_NAEAVPxOutputStream@2@_NAEBUPxCookingParams@2@@Z 000000018002d8c8     TriangleMeshBuilder.obj
 0002:000038e4       $chain$3$?save@TriangleMeshBuilder@physx@@QEBA_NAEAVPxOutputStream@2@_NAEBUPxCookingParams@2@@Z 000000018002d8e4     TriangleMeshBuilder.obj
 0002:000038f8       $unwind$?checkMeshIndicesSize@TriangleMeshBuilder@physx@@QEAAXXZ 000000018002d8f8     TriangleMeshBuilder.obj
 0002:00003904       $chain$1$?checkMeshIndicesSize@TriangleMeshBuilder@physx@@QEAAXXZ 000000018002d904     TriangleMeshBuilder.obj
 0002:0000391c       $chain$3$?checkMeshIndicesSize@TriangleMeshBuilder@physx@@QEAAXXZ 000000018002d91c     TriangleMeshBuilder.obj
 0002:00003934       $chain$4$?checkMeshIndicesSize@TriangleMeshBuilder@physx@@QEAAXXZ 000000018002d934     TriangleMeshBuilder.obj
 0002:00003948       $chain$5$?checkMeshIndicesSize@TriangleMeshBuilder@physx@@QEAAXXZ 000000018002d948     TriangleMeshBuilder.obj
 0002:00003958       $unwind$?importMesh@TriangleMeshBuilder@physx@@IEAA_NAEBVPxTriangleMeshDesc@2@AEBUPxCookingParams@2@PEAW4Enum@PxTriangleMeshCookingResult@2@_N@Z 000000018002d958     TriangleMeshBuilder.obj
 0002:00003974       $unwind$?createMidPhaseStructure@RTreeTriangleMeshBuilder@physx@@UEAAXXZ 000000018002d974     TriangleMeshBuilder.obj
 0002:00003984       $unwind$?saveMidPhaseStructure@RTreeTriangleMeshBuilder@physx@@UEBAXAEAVPxOutputStream@2@_N@Z 000000018002d984     TriangleMeshBuilder.obj
 0002:00003994       $chain$0$?saveMidPhaseStructure@RTreeTriangleMeshBuilder@physx@@UEBAXAEAVPxOutputStream@2@_N@Z 000000018002d994     TriangleMeshBuilder.obj
 0002:000039a8       $chain$1$?saveMidPhaseStructure@RTreeTriangleMeshBuilder@physx@@UEBAXAEAVPxOutputStream@2@_N@Z 000000018002d9a8     TriangleMeshBuilder.obj
 0002:000039b8       $unwind$?createMidPhaseStructure@BV4TriangleMeshBuilder@physx@@UEAAXXZ 000000018002d9b8     TriangleMeshBuilder.obj
 0002:000039c4       $chain$2$?createMidPhaseStructure@BV4TriangleMeshBuilder@physx@@UEAAXXZ 000000018002d9c4     TriangleMeshBuilder.obj
 0002:000039e0       $chain$3$?createMidPhaseStructure@BV4TriangleMeshBuilder@physx@@UEAAXXZ 000000018002d9e0     TriangleMeshBuilder.obj
 0002:000039f4       $chain$4$?createMidPhaseStructure@BV4TriangleMeshBuilder@physx@@UEAAXXZ 000000018002d9f4     TriangleMeshBuilder.obj
 0002:00003a04       $chain$5$?createMidPhaseStructure@BV4TriangleMeshBuilder@physx@@UEAAXXZ 000000018002da04     TriangleMeshBuilder.obj
 0002:00003a18       $unwind$?doAdjacentMerge@QuickHull@local@@IEAA_NAEAUQuickHullFace@2@_NAEA_N@Z 000000018002da18     QuickHullConvexHullLib.obj
 0002:00003a18       $unwind$?saveMidPhaseStructure@BV4TriangleMeshBuilder@physx@@UEBAXAEAVPxOutputStream@2@_N@Z 000000018002da18     TriangleMeshBuilder.obj
 0002:00003a24       $unwind$?findAdjacent@physx@@YAIPEBVPxVec3@1@0PEBUuint3@1@IIIAEBVPxPlane@1@PEAUEdgeTriLookup@1@I@Z 000000018002da24     TriangleMeshBuilder.obj
 0002:00003a48       $unwind$?buildAdjacencies@physx@@YAXPEAUuint4@1@PEAVPxVec3@1@PEBV31@PEBUuint3@1@I@Z 000000018002da48     TriangleMeshBuilder.obj
 0002:00003a54       $chain$7$?buildAdjacencies@physx@@YAXPEAUuint4@1@PEAVPxVec3@1@PEBV31@PEBUuint3@1@I@Z 000000018002da54     TriangleMeshBuilder.obj
 0002:00003a84       $chain$11$?buildAdjacencies@physx@@YAXPEAUuint4@1@PEAVPxVec3@1@PEBV31@PEBUuint3@1@I@Z 000000018002da84     TriangleMeshBuilder.obj
 0002:00003aa4       $chain$12$?buildAdjacencies@physx@@YAXPEAUuint4@1@PEAVPxVec3@1@PEBV31@PEBUuint3@1@I@Z 000000018002daa4     TriangleMeshBuilder.obj
 0002:00003ab4       $chain$13$?buildAdjacencies@physx@@YAXPEAUuint4@1@PEAVPxVec3@1@PEBV31@PEBUuint3@1@I@Z 000000018002dab4     TriangleMeshBuilder.obj
 0002:00003ac4       $unwind$?precompute@BigConvexDataBuilder@physx@@QEAA_NI@Z 000000018002dac4     BigConvexDataBuilder.obj
 0002:00003adc       $chain$10$?precompute@BigConvexDataBuilder@physx@@QEAA_NI@Z 000000018002dadc     BigConvexDataBuilder.obj
 0002:00003b18       $chain$11$?precompute@BigConvexDataBuilder@physx@@QEAA_NI@Z 000000018002db18     BigConvexDataBuilder.obj
 0002:00003b28       $unwind$?save@BigConvexDataBuilder@physx@@QEBA_NAEAVPxOutputStream@2@_N@Z 000000018002db28     BigConvexDataBuilder.obj
 0002:00003b38       $unwind$?computeValencies@BigConvexDataBuilder@physx@@QEAA_NAEBVConvexHullBuilder@2@@Z 000000018002db38     BigConvexDataBuilder.obj
 0002:00003b4c       $chain$2$?computeValencies@BigConvexDataBuilder@physx@@QEAA_NAEBVConvexHullBuilder@2@@Z 000000018002db4c     BigConvexDataBuilder.obj
 0002:00003b68       $chain$3$?computeValencies@BigConvexDataBuilder@physx@@QEAA_NAEBVConvexHullBuilder@2@@Z 000000018002db68     BigConvexDataBuilder.obj
 0002:00003b78       $unwind$?saveValencies@BigConvexDataBuilder@physx@@QEBA_NAEAVPxOutputStream@2@_N@Z 000000018002db78     BigConvexDataBuilder.obj
 0002:00003b84       $chain$1$?saveValencies@BigConvexDataBuilder@physx@@QEBA_NAEAVPxOutputStream@2@_N@Z 000000018002db84     BigConvexDataBuilder.obj
 0002:00003b9c       $chain$2$?saveValencies@BigConvexDataBuilder@physx@@QEBA_NAEAVPxOutputStream@2@_N@Z 000000018002db9c     BigConvexDataBuilder.obj
 0002:00003bb0       $chain$3$?saveValencies@BigConvexDataBuilder@physx@@QEBA_NAEAVPxOutputStream@2@_N@Z 000000018002dbb0     BigConvexDataBuilder.obj
 0002:00003bc0       $chain$4$?saveValencies@BigConvexDataBuilder@physx@@QEBA_NAEAVPxOutputStream@2@_N@Z 000000018002dbc0     BigConvexDataBuilder.obj
 0002:00003bd4       $unwind$?init@ConvexHullBuilder@physx@@QEAA_NIPEBVPxVec3@2@PEBIIIPEBUPxHullPolygon@2@_NPEAVConvexHullLib@2@@Z 000000018002dbd4     ConvexHullBuilder.obj
 0002:00003bec       $chain$0$?init@ConvexHullBuilder@physx@@QEAA_NIPEBVPxVec3@2@PEBIIIPEBUPxHullPolygon@2@_NPEAVConvexHullLib@2@@Z 000000018002dbec     ConvexHullBuilder.obj
 0002:00003c00       $chain$2$?init@ConvexHullBuilder@physx@@QEAA_NIPEBVPxVec3@2@PEBIIIPEBUPxHullPolygon@2@_NPEAVConvexHullLib@2@@Z 000000018002dc00     ConvexHullBuilder.obj
 0002:00003c18       $chain$9$?init@ConvexHullBuilder@physx@@QEAA_NIPEBVPxVec3@2@PEBIIIPEBUPxHullPolygon@2@_NPEAVConvexHullLib@2@@Z 000000018002dc18     ConvexHullBuilder.obj
 0002:00003c44       $chain$10$?init@ConvexHullBuilder@physx@@QEAA_NIPEBVPxVec3@2@PEBIIIPEBUPxHullPolygon@2@_NPEAVConvexHullLib@2@@Z 000000018002dc44     ConvexHullBuilder.obj
 0002:00003c54       $chain$11$?init@ConvexHullBuilder@physx@@QEAA_NIPEBVPxVec3@2@PEBIIIPEBUPxHullPolygon@2@_NPEAVConvexHullLib@2@@Z 000000018002dc54     ConvexHullBuilder.obj
 0002:00003c64       $chain$12$?init@ConvexHullBuilder@physx@@QEAA_NIPEBVPxVec3@2@PEBIIIPEBUPxHullPolygon@2@_NPEAVConvexHullLib@2@@Z 000000018002dc64     ConvexHullBuilder.obj
 0002:00003c74       $chain$13$?init@ConvexHullBuilder@physx@@QEAA_NIPEBVPxVec3@2@PEBIIIPEBUPxHullPolygon@2@_NPEAVConvexHullLib@2@@Z 000000018002dc74     ConvexHullBuilder.obj
 0002:00003c90       $chain$14$?init@ConvexHullBuilder@physx@@QEAA_NIPEBVPxVec3@2@PEBIIIPEBUPxHullPolygon@2@_NPEAVConvexHullLib@2@@Z 000000018002dc90     ConvexHullBuilder.obj
 0002:00003ca4       $unwind$?save@ConvexHullBuilder@physx@@QEBA_NAEAVPxOutputStream@2@_N@Z 000000018002dca4     ConvexHullBuilder.obj
 0002:00003cb4       $chain$0$?save@ConvexHullBuilder@physx@@QEBA_NAEAVPxOutputStream@2@_N@Z 000000018002dcb4     ConvexHullBuilder.obj
 0002:00003cc8       $chain$3$?save@ConvexHullBuilder@physx@@QEBA_NAEAVPxOutputStream@2@_N@Z 000000018002dcc8     ConvexHullBuilder.obj
 0002:00003ce4       $chain$4$?save@ConvexHullBuilder@physx@@QEBA_NAEAVPxOutputStream@2@_N@Z 000000018002dce4     ConvexHullBuilder.obj
 0002:00003cf8       $chain$5$?save@ConvexHullBuilder@physx@@QEBA_NAEAVPxOutputStream@2@_N@Z 000000018002dcf8     ConvexHullBuilder.obj
 0002:00003d08       $unwind$?copy@ConvexHullBuilder@physx@@QEAA_NAEAUConvexHullData@Gu@2@AEAI@Z 000000018002dd08     ConvexHullBuilder.obj
 0002:00003d24       $unwind$?createEdgeList@ConvexHullBuilder@physx@@QEAA_N_NI@Z 000000018002dd24     ConvexHullBuilder.obj
 0002:00003d34       $chain$4$?createEdgeList@ConvexHullBuilder@physx@@QEAA_N_NI@Z 000000018002dd34     ConvexHullBuilder.obj
 0002:00003d58       $chain$6$?createEdgeList@ConvexHullBuilder@physx@@QEAA_N_NI@Z 000000018002dd58     ConvexHullBuilder.obj
 0002:00003d7c       $unwind$?checkHullPolygons@ConvexHullBuilder@physx@@QEBA_NXZ 000000018002dd7c     ConvexHullBuilder.obj
 0002:00003d88       $chain$14$?checkHullPolygons@ConvexHullBuilder@physx@@QEBA_NXZ 000000018002dd88     ConvexHullBuilder.obj
 0002:00003dd4       $chain$16$?checkHullPolygons@ConvexHullBuilder@physx@@QEBA_NXZ 000000018002ddd4     ConvexHullBuilder.obj
 0002:00003e20       $chain$17$?checkHullPolygons@ConvexHullBuilder@physx@@QEBA_NXZ 000000018002de20     ConvexHullBuilder.obj
 0002:00003e30       $unwind$?calculateVertexMapTable@ConvexHullBuilder@physx@@QEAA_NI_N@Z 000000018002de30     ConvexHullBuilder.obj
 0002:00003e48       $chain$0$?calculateVertexMapTable@ConvexHullBuilder@physx@@QEAA_NI_N@Z 000000018002de48     ConvexHullBuilder.obj
 0002:00003e5c       $chain$1$?calculateVertexMapTable@ConvexHullBuilder@physx@@QEAA_NI_N@Z 000000018002de5c     ConvexHullBuilder.obj
 0002:00003e6c       $unwind$?computeGeomCenter@ConvexHullBuilder@physx@@IEBA_NAEAVPxVec3@2@IPEAUHullTriangleData@2@@Z 000000018002de6c     ConvexHullBuilder.obj
 0002:00003e74       $chain$1$?computeGeomCenter@ConvexHullBuilder@physx@@IEBA_NAEAVPxVec3@2@IPEAUHullTriangleData@2@@Z 000000018002de74     ConvexHullBuilder.obj
 0002:00003e8c       $chain$10$?computeGeomCenter@ConvexHullBuilder@physx@@IEBA_NAEAVPxVec3@2@IPEAUHullTriangleData@2@@Z 000000018002de8c     ConvexHullBuilder.obj
 0002:00003ec0       $chain$11$?computeGeomCenter@ConvexHullBuilder@physx@@IEBA_NAEAVPxVec3@2@IPEAUHullTriangleData@2@@Z 000000018002dec0     ConvexHullBuilder.obj
 0002:00003ed0       $chain$12$?computeGeomCenter@ConvexHullBuilder@physx@@IEBA_NAEAVPxVec3@2@IPEAUHullTriangleData@2@@Z 000000018002ded0     ConvexHullBuilder.obj
 0002:00003ee0       $chain$0$??$?_UE@@YAPEAX_KV?$ReflectionAllocator@E@shdfnd@physx@@PEBDH@Z 000000018002dee0     ConvexHullBuilder.obj
 0002:00003ef4       $chain$1$??$?_UE@@YAPEAX_KV?$ReflectionAllocator@E@shdfnd@physx@@PEBDH@Z 000000018002def4     ConvexHullBuilder.obj
 0002:00003f04       $unwind$?cleanupVertices@ConvexHullLib@physx@@IEAA_NIPEBVPxVec3@2@IAEAIPEAV32@AEAV32@3@Z 000000018002df04     ConvexHullLib.obj
 0002:00003f2c       $chain$7$?cleanupVertices@ConvexHullLib@physx@@IEAA_NIPEBVPxVec3@2@IAEAIPEAV32@AEAV32@3@Z 000000018002df2c     ConvexHullLib.obj
 0002:00003f44       $chain$13$?cleanupVertices@ConvexHullLib@physx@@IEAA_NIPEBVPxVec3@2@IAEAIPEAV32@AEAV32@3@Z 000000018002df44     ConvexHullLib.obj
 0002:00003f6c       $chain$14$?cleanupVertices@ConvexHullLib@physx@@IEAA_NIPEBVPxVec3@2@IAEAIPEAV32@AEAV32@3@Z 000000018002df6c     ConvexHullLib.obj
 0002:00003f7c       $chain$15$?cleanupVertices@ConvexHullLib@physx@@IEAA_NIPEBVPxVec3@2@IAEAIPEAV32@AEAV32@3@Z 000000018002df7c     ConvexHullLib.obj
 0002:00003f8c       $unwind$?shiftAndcleanupVertices@ConvexHullLib@physx@@IEAA_NIPEBVPxVec3@2@IAEAIPEAV32@AEAV32@3@Z 000000018002df8c     ConvexHullLib.obj
 0002:00003f9c       $chain$6$?shiftAndcleanupVertices@ConvexHullLib@physx@@IEAA_NIPEBVPxVec3@2@IAEAIPEAV32@AEAV32@3@Z 000000018002df9c     ConvexHullLib.obj
 0002:00003fc8       $chain$7$?shiftAndcleanupVertices@ConvexHullLib@physx@@IEAA_NIPEBVPxVec3@2@IAEAIPEAV32@AEAV32@3@Z 000000018002dfc8     ConvexHullLib.obj
 0002:00003fec       $chain$12$?shiftAndcleanupVertices@ConvexHullLib@physx@@IEAA_NIPEBVPxVec3@2@IAEAIPEAV32@AEAV32@3@Z 000000018002dfec     ConvexHullLib.obj
 0002:00004010       $chain$13$?shiftAndcleanupVertices@ConvexHullLib@physx@@IEAA_NIPEBVPxVec3@2@IAEAIPEAV32@AEAV32@3@Z 000000018002e010     ConvexHullLib.obj
 0002:00004020       $chain$14$?shiftAndcleanupVertices@ConvexHullLib@physx@@IEAA_NIPEBVPxVec3@2@IAEAIPEAV32@AEAV32@3@Z 000000018002e020     ConvexHullLib.obj
 0002:00004030       $unwind$?swapLargestFace@ConvexHullLib@physx@@IEAAXAEAVPxConvexMeshDesc@2@@Z 000000018002e030     ConvexHullLib.obj
 0002:00004040       $chain$1$?swapLargestFace@ConvexHullLib@physx@@IEAAXAEAVPxConvexMeshDesc@2@@Z 000000018002e040     ConvexHullLib.obj
 0002:00004058       $chain$2$?swapLargestFace@ConvexHullLib@physx@@IEAAXAEAVPxConvexMeshDesc@2@@Z 000000018002e058     ConvexHullLib.obj
 0002:0000406c       $chain$3$?swapLargestFace@ConvexHullLib@physx@@IEAAXAEAVPxConvexMeshDesc@2@@Z 000000018002e06c     ConvexHullLib.obj
 0002:0000407c       $chain$4$?swapLargestFace@ConvexHullLib@physx@@IEAAXAEAVPxConvexMeshDesc@2@@Z 000000018002e07c     ConvexHullLib.obj
 0002:0000408c       $unwind$?checkPointsAABBValidity@local@@YA_NIPEBVPxVec3@physx@@IMMAEAV23@1AEAIPEAV23@_N@Z 000000018002e08c     ConvexHullLib.obj
 0002:000040a8       $chain$1$?checkPointsAABBValidity@local@@YA_NIPEBVPxVec3@physx@@IMMAEAV23@1AEAIPEAV23@_N@Z 000000018002e0a8     ConvexHullLib.obj
 0002:000040c0       $chain$4$?checkPointsAABBValidity@local@@YA_NIPEBVPxVec3@physx@@IMMAEAV23@1AEAIPEAV23@_N@Z 000000018002e0c0     ConvexHullLib.obj
 0002:000040dc       $chain$5$?checkPointsAABBValidity@local@@YA_NIPEBVPxVec3@physx@@IMMAEAV23@1AEAIPEAV23@_N@Z 000000018002e0dc     ConvexHullLib.obj
 0002:000040ec       $chain$6$?checkPointsAABBValidity@local@@YA_NIPEBVPxVec3@physx@@IMMAEAV23@1AEAIPEAV23@_N@Z 000000018002e0ec     ConvexHullLib.obj
 0002:000040fc       $unwind$??0PxQuat@physx@@QEAA@AEBVPxMat33@1@@Z 000000018002e0fc     ConvexHullUtils.obj
 0002:00004104       $chain$0$??0PxQuat@physx@@QEAA@AEBVPxMat33@1@@Z 000000018002e104     ConvexHullUtils.obj
 0002:00004118       $chain$1$??0PxQuat@physx@@QEAA@AEBVPxMat33@1@@Z 000000018002e118     ConvexHullUtils.obj
 0002:00004128       $unwind$?getInverse@PxMat33@physx@@QEBA?BV12@XZ 000000018002e128     ConvexHullUtils.obj
 0002:00004148       $chain$1$?getInverse@PxMat33@physx@@QEBA?BV12@XZ 000000018002e148     ConvexHullUtils.obj
 0002:00004160       $chain$2$?getInverse@PxMat33@physx@@QEBA?BV12@XZ 000000018002e160     ConvexHullUtils.obj
 0002:00004170       $unwind$??0ConvexHull@physx@@QEAA@AEBVPxVec3@1@AEBVPxTransform@1@AEBV?$Array@VPxPlane@physx@@VNamedAllocator@shdfnd@2@@shdfnd@1@@Z 000000018002e170     ConvexHullUtils.obj
 0002:000041b0       $unwind$?findCandidatePlane@ConvexHull@physx@@QEBAHMM@Z 000000018002e1b0     ConvexHullUtils.obj
 0002:000041d4       $chain$8$?findCandidatePlane@ConvexHull@physx@@QEBAHMM@Z 000000018002e1d4     ConvexHullUtils.obj
 0002:00004208       $chain$9$?findCandidatePlane@ConvexHull@physx@@QEBAHMM@Z 000000018002e208     ConvexHullUtils.obj
 0002:00004218       $unwind$?assertIntact@ConvexHull@physx@@QEBA_NM@Z 000000018002e218     ConvexHullUtils.obj
 0002:0000425c       $unwind$?maxNumVertsPerFace@ConvexHull@physx@@QEBAIXZ 000000018002e25c     ConvexHullUtils.obj
 0002:00004268       $chain$0$?maxNumVertsPerFace@ConvexHull@physx@@QEBAIXZ 000000018002e268     ConvexHullUtils.obj
 0002:0000427c       $chain$1$?maxNumVertsPerFace@ConvexHull@physx@@QEBAIXZ 000000018002e27c     ConvexHullUtils.obj
 0002:0000428c       $chain$0$?growAndPushBack@?$Array@VPxPlane@physx@@VNamedAllocator@shdfnd@2@@shdfnd@physx@@IEAAAEAVPxPlane@3@AEBV43@@Z 000000018002e28c     ConvexHullUtils.obj
 0002:000042a0       $chain$1$?growAndPushBack@?$Array@VPxPlane@physx@@VNamedAllocator@shdfnd@2@@shdfnd@physx@@IEAAAEAVPxPlane@3@AEBV43@@Z 000000018002e2a0     ConvexHullUtils.obj
 0002:000042b4       $chain$2$?growAndPushBack@?$Array@VPxPlane@physx@@VNamedAllocator@shdfnd@2@@shdfnd@physx@@IEAAAEAVPxPlane@3@AEBV43@@Z 000000018002e2b4     ConvexHullUtils.obj
 0002:000042c4       $chain$3$?growAndPushBack@?$Array@VPxPlane@physx@@VNamedAllocator@shdfnd@2@@shdfnd@physx@@IEAAAEAVPxPlane@3@AEBV43@@Z 000000018002e2c4     ConvexHullUtils.obj
 0002:000042d4       $chain$0$?recreate@?$Array@VPxPlane@physx@@VNamedAllocator@shdfnd@2@@shdfnd@physx@@IEAAXI@Z 000000018002e2d4     ConvexHullUtils.obj
 0002:000042e8       $chain$1$?recreate@?$Array@VPxPlane@physx@@VNamedAllocator@shdfnd@2@@shdfnd@physx@@IEAAXI@Z 000000018002e2e8     ConvexHullUtils.obj
 0002:000042f8       $unwind$?convexHullCrop@physx@@YAPEAVConvexHull@1@AEBV21@AEBVPxPlane@1@M@Z 000000018002e2f8     ConvexHullUtils.obj
 0002:00004304       $chain$7$?convexHullCrop@physx@@YAPEAVConvexHull@1@AEBV21@AEBVPxPlane@1@M@Z 000000018002e304     ConvexHullUtils.obj
 0002:00004334       $chain$8$?convexHullCrop@physx@@YAPEAVConvexHull@1@AEBV21@AEBVPxPlane@1@M@Z 000000018002e334     ConvexHullUtils.obj
 0002:00004348       $chain$11$?convexHullCrop@physx@@YAPEAVConvexHull@1@AEBV21@AEBVPxPlane@1@M@Z 000000018002e348     ConvexHullUtils.obj
 0002:00004348       $chain$9$?convexHullCrop@physx@@YAPEAVConvexHull@1@AEBV21@AEBVPxPlane@1@M@Z 000000018002e348     ConvexHullUtils.obj
 0002:00004358       $chain$10$?convexHullCrop@physx@@YAPEAVConvexHull@1@AEBV21@AEBVPxPlane@1@M@Z 000000018002e358     ConvexHullUtils.obj
 0002:0000436c       $chain$12$?convexHullCrop@physx@@YAPEAVConvexHull@1@AEBV21@AEBVPxPlane@1@M@Z 000000018002e36c     ConvexHullUtils.obj
 0002:0000437c       $unwind$?computeOBBFromConvex@physx@@YA_NAEBVPxConvexMeshDesc@1@AEAVPxVec3@1@AEAVPxTransform@1@@Z 000000018002e37c     ConvexHullUtils.obj
 0002:000043a0       $chain$4$?computeOBBFromConvex@physx@@YA_NAEBVPxConvexMeshDesc@1@AEAVPxVec3@1@AEAVPxTransform@1@@Z 000000018002e3a0     ConvexHullUtils.obj
 0002:000043c4       $chain$5$?computeOBBFromConvex@physx@@YA_NAEBVPxConvexMeshDesc@1@AEAVPxVec3@1@AEAVPxTransform@1@@Z 000000018002e3c4     ConvexHullUtils.obj
 0002:000043d4       $unwind$?rotate@Box@Gu@physx@@QEBA?AVPxVec3@3@AEBV43@@Z 000000018002e3d4     ConvexHullUtils.obj
 0002:000043e0       $unwind$?rotateInv@Box@Gu@physx@@QEBA?AVPxVec3@3@AEBV43@@Z 000000018002e3e0     ConvexHullUtils.obj
 0002:000043e0       $unwind$?transform@Box@Gu@physx@@QEBA?AVPxVec3@3@AEBV43@@Z 000000018002e3e0     ConvexHullUtils.obj
 0002:000043ec       $unwind$?computeAABBExtent@Box@Gu@physx@@QEBA?AVPxVec3@3@XZ 000000018002e3ec     ConvexHullUtils.obj
 0002:000043f8       $unwind$?computeBoxPoints@Box@Gu@physx@@QEBAXPEIAVPxVec3@3@@Z 000000018002e3f8     ConvexHullUtils.obj
 0002:00004400       $unwind$?computeOBBSIMD@local@@YAXIPEBT__m128@@AEAT2@AEBT2@1@Z 000000018002e400     ConvexHullUtils.obj
 0002:00004424       $chain$1$?computeOBBSIMD@local@@YAXIPEBT__m128@@AEAT2@AEBT2@1@Z 000000018002e424     ConvexHullUtils.obj
 0002:0000443c       $chain$2$?computeOBBSIMD@local@@YAXIPEBT__m128@@AEAT2@AEBT2@1@Z 000000018002e43c     ConvexHullUtils.obj
 0002:0000444c       $unwind$?build@ConvexMeshBuilder@physx@@QEAA_NAEBVPxConvexMeshDesc@2@I_NPEAVConvexHullLib@2@@Z 000000018002e44c     ConvexMeshBuilder.obj
 0002:0000445c       $chain$0$?build@ConvexMeshBuilder@physx@@QEAA_NAEBVPxConvexMeshDesc@2@I_NPEAVConvexHullLib@2@@Z 000000018002e45c     ConvexMeshBuilder.obj
 0002:00004470       $chain$2$?build@ConvexMeshBuilder@physx@@QEAA_NAEBVPxConvexMeshDesc@2@I_NPEAVConvexHullLib@2@@Z 000000018002e470     ConvexMeshBuilder.obj
 0002:00004488       $chain$3$?build@ConvexMeshBuilder@physx@@QEAA_NAEBVPxConvexMeshDesc@2@I_NPEAVConvexHullLib@2@@Z 000000018002e488     ConvexMeshBuilder.obj
 0002:00004498       $chain$4$?build@ConvexMeshBuilder@physx@@QEAA_NAEBVPxConvexMeshDesc@2@I_NPEAVConvexHullLib@2@@Z 000000018002e498     ConvexMeshBuilder.obj
 0002:000044a8       $unwind$?save@ConvexMeshBuilder@physx@@QEBA_NAEAVPxOutputStream@2@_N@Z 000000018002e4a8     ConvexMeshBuilder.obj
 0002:000044b8       $chain$0$?save@ConvexMeshBuilder@physx@@QEBA_NAEAVPxOutputStream@2@_N@Z 000000018002e4b8     ConvexMeshBuilder.obj
 0002:000044cc       $chain$1$?save@ConvexMeshBuilder@physx@@QEBA_NAEAVPxOutputStream@2@_N@Z 000000018002e4cc     ConvexMeshBuilder.obj
 0002:000044dc       $unwind$?loadConvexHull@ConvexMeshBuilder@physx@@QEAA_NAEBVPxConvexMeshDesc@2@PEAVConvexHullLib@2@@Z 000000018002e4dc     ConvexMeshBuilder.obj
 0002:000044fc       $unwind$?computeHullPolygons@ConvexMeshBuilder@physx@@QEAA_NAEBIPEBVPxVec3@2@0PEBIAEAVPxAllocatorCallback@2@AEAIAEAPEAV32@4AEAPEAI4AEAPEAUPxHullPolygon@2@@Z 000000018002e4fc     ConvexMeshBuilder.obj
 0002:00004508       $chain$4$?computeHullPolygons@ConvexMeshBuilder@physx@@QEAA_NAEBIPEBVPxVec3@2@0PEBIAEAVPxAllocatorCallback@2@AEAIAEAPEAV32@4AEAPEAI4AEAPEAUPxHullPolygon@2@@Z 000000018002e508     ConvexMeshBuilder.obj
 0002:00004528       $chain$5$?computeHullPolygons@ConvexMeshBuilder@physx@@QEAA_NAEBIPEBVPxVec3@2@0PEBIAEAVPxAllocatorCallback@2@AEAIAEAPEAV32@4AEAPEAI4AEAPEAUPxHullPolygon@2@@Z 000000018002e528     ConvexMeshBuilder.obj
 0002:00004540       $unwind$?computeMassInfo@ConvexMeshBuilder@physx@@QEAAX_N@Z 000000018002e540     ConvexMeshBuilder.obj
 0002:00004550       $chain$0$?computeMassInfo@ConvexMeshBuilder@physx@@QEAAX_N@Z 000000018002e550     ConvexMeshBuilder.obj
 0002:00004564       $chain$1$?computeMassInfo@ConvexMeshBuilder@physx@@QEAAX_N@Z 000000018002e564     ConvexMeshBuilder.obj
 0002:00004578       $chain$5$?computeMassInfo@ConvexMeshBuilder@physx@@QEAAX_N@Z 000000018002e578     ConvexMeshBuilder.obj
 0002:00004598       $chain$6$?computeMassInfo@ConvexMeshBuilder@physx@@QEAAX_N@Z 000000018002e598     ConvexMeshBuilder.obj
 0002:000045a8       $chain$7$?computeMassInfo@ConvexMeshBuilder@physx@@QEAAX_N@Z 000000018002e5a8     ConvexMeshBuilder.obj
 0002:000045b8       $chain$8$?computeMassInfo@ConvexMeshBuilder@physx@@QEAAX_N@Z 000000018002e5b8     ConvexMeshBuilder.obj
 0002:000045c8       $unwind$?ComputeInternalExtent@@YAXAEAUConvexHullData@Gu@physx@@PEBUHullPolygonData@23@@Z 000000018002e5c8     ConvexMeshBuilder.obj
 0002:000045f0       $chain$0$?ComputeInternalExtent@@YAXAEAUConvexHullData@Gu@physx@@PEBUHullPolygonData@23@@Z 000000018002e5f0     ConvexMeshBuilder.obj
 0002:00004604       $chain$1$?ComputeInternalExtent@@YAXAEAUConvexHullData@Gu@physx@@PEBUHullPolygonData@23@@Z 000000018002e604     ConvexMeshBuilder.obj
 0002:00004614       $unwind$?computeHullPolygons@ConvexPolygonsBuilder@physx@@QEAA_NAEBIPEBVPxVec3@2@0PEBI@Z 000000018002e614     ConvexPolygonsBuilder.obj
 0002:00004638       $chain$0$?computeHullPolygons@ConvexPolygonsBuilder@physx@@QEAA_NAEBIPEBVPxVec3@2@0PEBI@Z 000000018002e638     ConvexPolygonsBuilder.obj
 0002:0000464c       $chain$8$?computeHullPolygons@ConvexPolygonsBuilder@physx@@QEAA_NAEBIPEBVPxVec3@2@0PEBI@Z 000000018002e64c     ConvexPolygonsBuilder.obj
 0002:0000467c       $chain$9$?computeHullPolygons@ConvexPolygonsBuilder@physx@@QEAA_NAEBIPEBVPxVec3@2@0PEBI@Z 000000018002e67c     ConvexPolygonsBuilder.obj
 0002:000046ac       $unwind$?createPolygonData@ConvexPolygonsBuilder@physx@@AEAA_NXZ 000000018002e6ac     ConvexPolygonsBuilder.obj
 0002:000046b8       $chain$6$?createPolygonData@ConvexPolygonsBuilder@physx@@AEAA_NXZ 000000018002e6b8     ConvexPolygonsBuilder.obj
 0002:000046e4       $chain$7$?createPolygonData@ConvexPolygonsBuilder@physx@@AEAA_NXZ 000000018002e6e4     ConvexPolygonsBuilder.obj
 0002:000046f4       $chain$8$?createPolygonData@ConvexPolygonsBuilder@physx@@AEAA_NXZ 000000018002e6f4     ConvexPolygonsBuilder.obj
 0002:00004720       $chain$9$?createPolygonData@ConvexPolygonsBuilder@physx@@AEAA_NXZ 000000018002e720     ConvexPolygonsBuilder.obj
 0002:00004734       $chain$14$?createPolygonData@ConvexPolygonsBuilder@physx@@AEAA_NXZ 000000018002e734     ConvexPolygonsBuilder.obj
 0002:00004758       $chain$15$?createPolygonData@ConvexPolygonsBuilder@physx@@AEAA_NXZ 000000018002e758     ConvexPolygonsBuilder.obj
 0002:00004768       $chain$16$?createPolygonData@ConvexPolygonsBuilder@physx@@AEAA_NXZ 000000018002e768     ConvexPolygonsBuilder.obj
 0002:00004778       $unwind$?createTrianglesFromPolygons@ConvexPolygonsBuilder@physx@@AEAA_NXZ 000000018002e778     ConvexPolygonsBuilder.obj
 0002:0000479c       $chain$3$?createTrianglesFromPolygons@ConvexPolygonsBuilder@physx@@AEAA_NXZ 000000018002e79c     ConvexPolygonsBuilder.obj
 0002:000047bc       $chain$4$?createTrianglesFromPolygons@ConvexPolygonsBuilder@physx@@AEAA_NXZ 000000018002e7bc     ConvexPolygonsBuilder.obj
 0002:000047cc       $unwind$?findLineStrip@@YA_NAEAV?$Array@IVNamedAllocator@shdfnd@physx@@@shdfnd@physx@@AEBV?$Array@VPair@@VNamedAllocator@shdfnd@physx@@@23@@Z 000000018002e7cc     ConvexPolygonsBuilder.obj
 0002:000047e4       $chain$1$?allocate@?$Array@VPair@@VNamedAllocator@shdfnd@physx@@@shdfnd@physx@@IEAAPEAVPair@@I@Z 000000018002e7e4     ConvexPolygonsBuilder.obj
 0002:000047fc       $chain$2$?allocate@?$Array@VPair@@VNamedAllocator@shdfnd@physx@@@shdfnd@physx@@IEAAPEAVPair@@I@Z 000000018002e7fc     ConvexPolygonsBuilder.obj
 0002:0000480c       $chain$0$?growAndPushBack@?$Array@VPair@@VNamedAllocator@shdfnd@physx@@@shdfnd@physx@@IEAAAEAVPair@@AEBV4@@Z 000000018002e80c     ConvexPolygonsBuilder.obj
 0002:00004820       $chain$1$?growAndPushBack@?$Array@VPair@@VNamedAllocator@shdfnd@physx@@@shdfnd@physx@@IEAAAEAVPair@@AEBV4@@Z 000000018002e820     ConvexPolygonsBuilder.obj
 0002:00004834       $chain$2$?growAndPushBack@?$Array@VPair@@VNamedAllocator@shdfnd@physx@@@shdfnd@physx@@IEAAAEAVPair@@AEBV4@@Z 000000018002e834     ConvexPolygonsBuilder.obj
 0002:00004844       $chain$3$?growAndPushBack@?$Array@VPair@@VNamedAllocator@shdfnd@physx@@@shdfnd@physx@@IEAAAEAVPair@@AEBV4@@Z 000000018002e844     ConvexPolygonsBuilder.obj
 0002:00004854       $unwind$?TestDuplicateTriangles@@YA_NAEAIPEAU?$TriangleT@I@Gu@physx@@_N@Z 000000018002e854     ConvexPolygonsBuilder.obj
 0002:00004870       $unwind$?computeNewellPlane@@YA_NAEAVPxPlane@physx@@IPEBEPEBVPxVec3@2@@Z 000000018002e870     ConvexPolygonsBuilder.obj
 0002:00004878       $chain$5$?computeNewellPlane@@YA_NAEAVPxPlane@physx@@IPEBEPEBVPxVec3@2@@Z 000000018002e878     ConvexPolygonsBuilder.obj
 0002:000048a0       $chain$8$?computeNewellPlane@@YA_NAEAVPxPlane@physx@@IPEBEPEBVPxVec3@2@@Z 000000018002e8a0     ConvexPolygonsBuilder.obj
 0002:000048bc       $chain$9$?computeNewellPlane@@YA_NAEAVPxPlane@physx@@IPEBEPEBVPxVec3@2@@Z 000000018002e8bc     ConvexPolygonsBuilder.obj
 0002:000048cc       $chain$10$?computeNewellPlane@@YA_NAEAVPxPlane@physx@@IPEBEPEBVPxVec3@2@@Z 000000018002e8cc     ConvexPolygonsBuilder.obj
 0002:000048ec       $chain$11$?computeNewellPlane@@YA_NAEAVPxPlane@physx@@IPEBEPEBVPxVec3@2@@Z 000000018002e8ec     ConvexPolygonsBuilder.obj
 0002:000048fc       $unwind$?checkRedundantVertices@@YAXAEAIAEAV?$Array@IVNamedAllocator@shdfnd@physx@@@shdfnd@physx@@AEBVConvexPolygonsBuilder@3@11@Z 000000018002e8fc     ConvexPolygonsBuilder.obj
 0002:00004918       $unwind$?extractHullPolygons@@YA_NAEAIAEAV?$Array@IVNamedAllocator@shdfnd@physx@@@shdfnd@physx@@AEBVConvexPolygonsBuilder@3@PEAV123@1@Z 000000018002e918     ConvexPolygonsBuilder.obj
 0002:00004934       $unwind$?FloodFill@Local@?7??extractHullPolygons@@YA_NAEAIAEAV?$Array@IVNamedAllocator@shdfnd@physx@@@shdfnd@physx@@AEBVConvexPolygonsBuilder@5@PEAV345@1@Z@SAX1PEBVAdjTriangle@5@IPEA_N@Z 000000018002e934     ConvexPolygonsBuilder.obj
 0002:00004944       $chain$0$?FloodFill@Local@?7??extractHullPolygons@@YA_NAEAIAEAV?$Array@IVNamedAllocator@shdfnd@physx@@@shdfnd@physx@@AEBVConvexPolygonsBuilder@5@PEAV345@1@Z@SAX1PEBVAdjTriangle@5@IPEA_N@Z 000000018002e944     ConvexPolygonsBuilder.obj
 0002:00004958       $chain$1$?FloodFill@Local@?7??extractHullPolygons@@YA_NAEAIAEAV?$Array@IVNamedAllocator@shdfnd@physx@@@shdfnd@physx@@AEBVConvexPolygonsBuilder@5@PEAV345@1@Z@SAX1PEBVAdjTriangle@5@IPEA_N@Z 000000018002e958     ConvexPolygonsBuilder.obj
 0002:00004968       $unwind$?CheckFloodFillFace@Local@?7??extractHullPolygons@@YA_NAEAIAEAV?$Array@IVNamedAllocator@shdfnd@physx@@@shdfnd@physx@@AEBVConvexPolygonsBuilder@5@PEAV345@1@Z@SA_NIPEBVAdjTriangle@5@PEBI@Z 000000018002e968     ConvexPolygonsBuilder.obj
 0002:00004980       $unwind$??0QuickHullConvexHullLib@physx@@QEAA@AEBVPxConvexMeshDesc@1@AEBUPxCookingParams@1@@Z 000000018002e980     QuickHullConvexHullLib.obj
 0002:00004998       $unwind$?createConvexHull@QuickHullConvexHullLib@physx@@UEAA?AW4Enum@PxConvexMeshCookingResult@2@XZ 000000018002e998     QuickHullConvexHullLib.obj
 0002:000049ac       $unwind$?createEdgeList@QuickHullConvexHullLib@physx@@UEAA_NIPEBEPEAPEAEPEAPEAG2@Z 000000018002e9ac     QuickHullConvexHullLib.obj
 0002:000049cc       $chain$5$?createEdgeList@QuickHullConvexHullLib@physx@@UEAA_NIPEBEPEAPEAEPEAPEAG2@Z 000000018002e9cc     QuickHullConvexHullLib.obj
 0002:000049e0       $chain$6$?createEdgeList@QuickHullConvexHullLib@physx@@UEAA_NIPEBEPEAPEAEPEAPEAG2@Z 000000018002e9e0     QuickHullConvexHullLib.obj
 0002:000049f0       $chain$5$?expandHullOBB@QuickHullConvexHullLib@physx@@IEAA?AW4Enum@PxConvexMeshCookingResult@2@XZ 000000018002e9f0     QuickHullConvexHullLib.obj
 0002:00004a18       $chain$6$?expandHullOBB@QuickHullConvexHullLib@physx@@IEAA?AW4Enum@PxConvexMeshCookingResult@2@XZ 000000018002ea18     QuickHullConvexHullLib.obj
 0002:00004a2c       $chain$7$?expandHullOBB@QuickHullConvexHullLib@physx@@IEAA?AW4Enum@PxConvexMeshCookingResult@2@XZ 000000018002ea2c     QuickHullConvexHullLib.obj
 0002:00004a3c       $chain$8$?expandHullOBB@QuickHullConvexHullLib@physx@@IEAA?AW4Enum@PxConvexMeshCookingResult@2@XZ 000000018002ea3c     QuickHullConvexHullLib.obj
 0002:00004a4c       $unwind$?expandHull@QuickHullConvexHullLib@physx@@IEAA?AW4Enum@PxConvexMeshCookingResult@2@XZ 000000018002ea4c     QuickHullConvexHullLib.obj
 0002:00004a74       $unwind$?cleanupForSimplex@QuickHullConvexHullLib@physx@@IEAA_NPEAVPxVec3@2@IPEAUQuickHullVertex@local@@1AEAM2@Z 000000018002ea74     QuickHullConvexHullLib.obj
 0002:00004a98       $chain$4$?cleanupForSimplex@QuickHullConvexHullLib@physx@@IEAA_NPEAVPxVec3@2@IPEAUQuickHullVertex@local@@1AEAM2@Z 000000018002ea98     QuickHullConvexHullLib.obj
 0002:00004abc       $chain$6$?cleanupForSimplex@QuickHullConvexHullLib@physx@@IEAA_NPEAVPxVec3@2@IPEAUQuickHullVertex@local@@1AEAM2@Z 000000018002eabc     QuickHullConvexHullLib.obj
 0002:00004ad4       $chain$7$?cleanupForSimplex@QuickHullConvexHullLib@physx@@IEAA_NPEAVPxVec3@2@IPEAUQuickHullVertex@local@@1AEAM2@Z 000000018002ead4     QuickHullConvexHullLib.obj
 0002:00004ae8       $chain$8$?cleanupForSimplex@QuickHullConvexHullLib@physx@@IEAA_NPEAVPxVec3@2@IPEAUQuickHullVertex@local@@1AEAM2@Z 000000018002eae8     QuickHullConvexHullLib.obj
 0002:00004afc       $chain$9$?cleanupForSimplex@QuickHullConvexHullLib@physx@@IEAA_NPEAVPxVec3@2@IPEAUQuickHullVertex@local@@1AEAM2@Z 000000018002eafc     QuickHullConvexHullLib.obj
 0002:00004b0c       $chain$10$?cleanupForSimplex@QuickHullConvexHullLib@physx@@IEAA_NPEAVPxVec3@2@IPEAUQuickHullVertex@local@@1AEAM2@Z 000000018002eb0c     QuickHullConvexHullLib.obj
 0002:00004b1c       $chain$11$?cleanupForSimplex@QuickHullConvexHullLib@physx@@IEAA_NPEAVPxVec3@2@IPEAUQuickHullVertex@local@@1AEAM2@Z 000000018002eb1c     QuickHullConvexHullLib.obj
 0002:00004b2c       $chain$12$?cleanupForSimplex@QuickHullConvexHullLib@physx@@IEAA_NPEAVPxVec3@2@IPEAUQuickHullVertex@local@@1AEAM2@Z 000000018002eb2c     QuickHullConvexHullLib.obj
 0002:00004b3c       $unwind$?fillConvexMeshDescFromQuickHull@QuickHullConvexHullLib@physx@@IEAAXAEAVPxConvexMeshDesc@2@@Z 000000018002eb3c     QuickHullConvexHullLib.obj
 0002:00004b54       $unwind$?fillConvexMeshDescFromCroppedHull@QuickHullConvexHullLib@physx@@IEAAXAEAVPxConvexMeshDesc@2@@Z 000000018002eb54     QuickHullConvexHullLib.obj
 0002:00004b6c       $unwind$?mergeAdjacentFace@QuickHullFace@local@@QEAA_NPEAUQuickHullHalfEdge@2@AEAV?$Array@PEAUQuickHullFace@local@@VNamedAllocator@shdfnd@physx@@@shdfnd@physx@@@Z 000000018002eb6c     QuickHullConvexHullLib.obj
 0002:00004b84       $chain$4$?mergeAdjacentFace@QuickHullFace@local@@QEAA_NPEAUQuickHullHalfEdge@2@AEAV?$Array@PEAUQuickHullFace@local@@VNamedAllocator@shdfnd@physx@@@shdfnd@physx@@@Z 000000018002eb84     QuickHullConvexHullLib.obj
 0002:00004ba8       $chain$5$?mergeAdjacentFace@QuickHullFace@local@@QEAA_NPEAUQuickHullHalfEdge@2@AEAV?$Array@PEAUQuickHullFace@local@@VNamedAllocator@shdfnd@physx@@@shdfnd@physx@@@Z 000000018002eba8     QuickHullConvexHullLib.obj
 0002:00004ba8       $chain$8$?mergeAdjacentFace@QuickHullFace@local@@QEAA_NPEAUQuickHullHalfEdge@2@AEAV?$Array@PEAUQuickHullFace@local@@VNamedAllocator@shdfnd@physx@@@shdfnd@physx@@@Z 000000018002eba8     QuickHullConvexHullLib.obj
 0002:00004bb8       $chain$6$?mergeAdjacentFace@QuickHullFace@local@@QEAA_NPEAUQuickHullHalfEdge@2@AEAV?$Array@PEAUQuickHullFace@local@@VNamedAllocator@shdfnd@physx@@@shdfnd@physx@@@Z 000000018002ebb8     QuickHullConvexHullLib.obj
 0002:00004bdc       $chain$7$?mergeAdjacentFace@QuickHullFace@local@@QEAA_NPEAUQuickHullHalfEdge@2@AEAV?$Array@PEAUQuickHullFace@local@@VNamedAllocator@shdfnd@physx@@@shdfnd@physx@@@Z 000000018002ebdc     QuickHullConvexHullLib.obj
 0002:00004bf0       $unwind$?connectHalfEdges@QuickHullFace@local@@AEAAPEAU12@PEAUQuickHullHalfEdge@2@0@Z 000000018002ebf0     QuickHullConvexHullLib.obj
 0002:00004bf8       $chain$5$?connectHalfEdges@QuickHullFace@local@@AEAAPEAU12@PEAUQuickHullHalfEdge@2@0@Z 000000018002ebf8     QuickHullConvexHullLib.obj
 0002:00004c20       $chain$6$?connectHalfEdges@QuickHullFace@local@@AEAAPEAU12@PEAUQuickHullHalfEdge@2@0@Z 000000018002ec20     QuickHullConvexHullLib.obj
 0002:00004c44       $chain$7$?connectHalfEdges@QuickHullFace@local@@AEAAPEAU12@PEAUQuickHullHalfEdge@2@0@Z 000000018002ec44     QuickHullConvexHullLib.obj
 0002:00004c58       $chain$8$?connectHalfEdges@QuickHullFace@local@@AEAAPEAU12@PEAUQuickHullHalfEdge@2@0@Z 000000018002ec58     QuickHullConvexHullLib.obj
 0002:00004c68       $unwind$?parseInputVertices@QuickHull@local@@QEAAXPEBVPxVec3@physx@@I@Z 000000018002ec68     QuickHullConvexHullLib.obj
 0002:00004c74       $chain$1$?parseInputVertices@QuickHull@local@@QEAAXPEBVPxVec3@physx@@I@Z 000000018002ec74     QuickHullConvexHullLib.obj
 0002:00004c8c       $chain$2$?parseInputVertices@QuickHull@local@@QEAAXPEBVPxVec3@physx@@I@Z 000000018002ec8c     QuickHullConvexHullLib.obj
 0002:00004c9c       $unwind$?buildHull@QuickHull@local@@QEAA?AW4Enum@QuickHullResult@2@XZ 000000018002ec9c     QuickHullConvexHullLib.obj
 0002:00004cb0       $unwind$?computeMinMaxVerts@QuickHull@local@@IEAAXXZ 000000018002ecb0     QuickHullConvexHullLib.obj
 0002:00004cbc       $unwind$?findSimplex@QuickHull@local@@IEAA_NXZ 000000018002ecbc     QuickHullConvexHullLib.obj
 0002:00004cd0       $chain$8$?findSimplex@QuickHull@local@@IEAA_NXZ 000000018002ecd0     QuickHullConvexHullLib.obj
 0002:00004d04       $chain$12$?findSimplex@QuickHull@local@@IEAA_NXZ 000000018002ed04     QuickHullConvexHullLib.obj
 0002:00004d24       $chain$13$?findSimplex@QuickHull@local@@IEAA_NXZ 000000018002ed24     QuickHullConvexHullLib.obj
 0002:00004d24       $chain$15$?findSimplex@QuickHull@local@@IEAA_NXZ 000000018002ed24     QuickHullConvexHullLib.obj
 0002:00004d58       $chain$14$?findSimplex@QuickHull@local@@IEAA_NXZ 000000018002ed58     QuickHullConvexHullLib.obj
 0002:00004d9c       $chain$16$?findSimplex@QuickHull@local@@IEAA_NXZ 000000018002ed9c     QuickHullConvexHullLib.obj
 0002:00004dac       $unwind$?addSimplex@QuickHull@local@@IEAAXPEAUQuickHullVertex@2@_N@Z 000000018002edac     QuickHullConvexHullLib.obj
 0002:00004dc0       $chain$2$?addSimplex@QuickHull@local@@IEAAXPEAUQuickHullVertex@2@_N@Z 000000018002edc0     QuickHullConvexHullLib.obj
 0002:00004ddc       $chain$8$?addSimplex@QuickHull@local@@IEAAXPEAUQuickHullVertex@2@_N@Z 000000018002eddc     QuickHullConvexHullLib.obj
 0002:00004e00       $chain$3$?addSimplex@QuickHull@local@@IEAAXPEAUQuickHullVertex@2@_N@Z 000000018002ee00     QuickHullConvexHullLib.obj
 0002:00004e10       $unwind$?nextPointToAdd@QuickHull@local@@IEAAPEAUQuickHullVertex@2@AEAPEAUQuickHullFace@2@@Z 000000018002ee10     QuickHullConvexHullLib.obj
 0002:00004e24       $unwind$?addPointToHull@QuickHull@local@@IEAA_NPEBUQuickHullVertex@2@AEAUQuickHullFace@2@AEA_N@Z 000000018002ee24     QuickHullConvexHullLib.obj
 0002:00004e38       $chain$1$?addPointToHull@QuickHull@local@@IEAA_NPEBUQuickHullVertex@2@AEAUQuickHullFace@2@AEA_N@Z 000000018002ee38     QuickHullConvexHullLib.obj
 0002:00004e50       $chain$2$?addPointToHull@QuickHull@local@@IEAA_NPEBUQuickHullVertex@2@AEAUQuickHullFace@2@AEA_N@Z 000000018002ee50     QuickHullConvexHullLib.obj
 0002:00004e64       $unwind$?createTriangle@QuickHull@local@@IEAAPEAUQuickHullFace@2@AEBUQuickHullVertex@2@00@Z 000000018002ee64     QuickHullConvexHullLib.obj
 0002:00004e90       $unwind$?calculateHorizon@QuickHull@local@@IEAAXAEBVPxVec3@physx@@PEAUQuickHullHalfEdge@2@AEAUQuickHullFace@2@AEAV?$Array@PEAUQuickHullHalfEdge@local@@VNamedAllocator@shdfnd@physx@@@shdfnd@4@AEAV?$Array@PEAUQuickHullFace@local@@VNamedAllocator@shdfnd@physx@@@84@@Z 000000018002ee90     QuickHullConvexHullLib.obj
 0002:00004ea8       $chain$1$?doAdjacentMerge@QuickHull@local@@IEAA_NAEAUQuickHullFace@2@_NAEA_N@Z 000000018002eea8     QuickHullConvexHullLib.obj
 0002:00004ec0       $chain$2$?doAdjacentMerge@QuickHull@local@@IEAA_NAEAUQuickHullFace@2@_NAEA_N@Z 000000018002eec0     QuickHullConvexHullLib.obj
 0002:00004ed4       $chain$3$?doAdjacentMerge@QuickHull@local@@IEAA_NAEAUQuickHullFace@2@_NAEA_N@Z 000000018002eed4     QuickHullConvexHullLib.obj
 0002:00004ee8       $chain$4$?doAdjacentMerge@QuickHull@local@@IEAA_NAEAUQuickHullFace@2@_NAEA_N@Z 000000018002eee8     QuickHullConvexHullLib.obj
 0002:00004ef8       $chain$5$?doAdjacentMerge@QuickHull@local@@IEAA_NAEAUQuickHullFace@2@_NAEA_N@Z 000000018002eef8     QuickHullConvexHullLib.obj
 0002:00004f08       $unwind$?resolveUnclaimedPoints@QuickHull@local@@IEAAXAEBV?$Array@PEAUQuickHullFace@local@@VNamedAllocator@shdfnd@physx@@@shdfnd@physx@@@Z 000000018002ef08     QuickHullConvexHullLib.obj
 0002:00004f18       $chain$1$?resolveUnclaimedPoints@QuickHull@local@@IEAAXAEBV?$Array@PEAUQuickHullFace@local@@VNamedAllocator@shdfnd@physx@@@shdfnd@physx@@@Z 000000018002ef18     QuickHullConvexHullLib.obj
 0002:00004f30       $chain$2$?resolveUnclaimedPoints@QuickHull@local@@IEAAXAEBV?$Array@PEAUQuickHullFace@local@@VNamedAllocator@shdfnd@physx@@@shdfnd@physx@@@Z 000000018002ef30     QuickHullConvexHullLib.obj
 0002:00004f40       $unwind$?postMergeHull@QuickHull@local@@IEAAXXZ 000000018002ef40     QuickHullConvexHullLib.obj
 0002:00004f4c       $chain$4$?postMergeHull@QuickHull@local@@IEAAXXZ 000000018002ef4c     QuickHullConvexHullLib.obj
 0002:00004f70       $chain$5$?postMergeHull@QuickHull@local@@IEAAXXZ 000000018002ef70     QuickHullConvexHullLib.obj
 0002:00004f80       $chain$6$?postMergeHull@QuickHull@local@@IEAAXXZ 000000018002ef80     QuickHullConvexHullLib.obj
 0002:00004fa4       $unwind$?canMergeFaces@QuickHull@local@@IEAA_NAEBUQuickHullHalfEdge@2@@Z 000000018002efa4     QuickHullConvexHullLib.obj
 0002:00004fe8       $unwind$?init@?$MemBlock@UQuickHullFace@local@@$00@local@@QEAAXI@Z 000000018002efe8     QuickHullConvexHullLib.obj
 0002:00004fe8       $unwind$?init@?$MemBlock@UQuickHullHalfEdge@local@@$0A@@local@@QEAAXI@Z 000000018002efe8     QuickHullConvexHullLib.obj
 0002:00004ff4       $unwind$??1?$MemBlock@UQuickHullFace@local@@$00@local@@QEAA@XZ 000000018002eff4     QuickHullConvexHullLib.obj
 0002:00004ff4       $unwind$??1?$MemBlock@UQuickHullHalfEdge@local@@$0A@@local@@QEAA@XZ 000000018002eff4     QuickHullConvexHullLib.obj
 0002:00004ffc       $chain$1$??1?$MemBlock@UQuickHullFace@local@@$00@local@@QEAA@XZ 000000018002effc     QuickHullConvexHullLib.obj
 0002:00004ffc       $chain$1$??1?$MemBlock@UQuickHullHalfEdge@local@@$0A@@local@@QEAA@XZ 000000018002effc     QuickHullConvexHullLib.obj
 0002:00005014       $chain$2$??1?$MemBlock@UQuickHullFace@local@@$00@local@@QEAA@XZ 000000018002f014     QuickHullConvexHullLib.obj
 0002:00005014       $chain$2$??1?$MemBlock@UQuickHullHalfEdge@local@@$0A@@local@@QEAA@XZ 000000018002f014     QuickHullConvexHullLib.obj
 0002:00005028       $chain$3$??1?$MemBlock@UQuickHullFace@local@@$00@local@@QEAA@XZ 000000018002f028     QuickHullConvexHullLib.obj
 0002:00005028       $chain$3$??1?$MemBlock@UQuickHullHalfEdge@local@@$0A@@local@@QEAA@XZ 000000018002f028     QuickHullConvexHullLib.obj
 0002:00005038       $chain$4$??1?$MemBlock@UQuickHullFace@local@@$00@local@@QEAA@XZ 000000018002f038     QuickHullConvexHullLib.obj
 0002:00005038       $chain$4$??1?$MemBlock@UQuickHullHalfEdge@local@@$0A@@local@@QEAA@XZ 000000018002f038     QuickHullConvexHullLib.obj
 0002:00005048       $unwind$?getFreeItem@?$MemBlock@UQuickHullHalfEdge@local@@$0A@@local@@QEAAPEAUQuickHullHalfEdge@2@XZ 000000018002f048     QuickHullConvexHullLib.obj
 0002:00005058       $chain$0$?growAndPushBack@?$Array@PEAUQuickHullFace@local@@VNamedAllocator@shdfnd@physx@@@shdfnd@physx@@IEAAAEAPEAUQuickHullFace@local@@AEBQEAU45@@Z 000000018002f058     QuickHullConvexHullLib.obj
 0002:00005058       $chain$0$?growAndPushBack@?$Array@PEAUQuickHullHalfEdge@local@@VNamedAllocator@shdfnd@physx@@@shdfnd@physx@@IEAAAEAPEAUQuickHullHalfEdge@local@@AEBQEAU45@@Z 000000018002f058     QuickHullConvexHullLib.obj
 0002:00005058       $chain$0$?growAndPushBack@?$Array@PEAUQuickHullVertex@local@@VNamedAllocator@shdfnd@physx@@@shdfnd@physx@@IEAAAEAPEAUQuickHullVertex@local@@AEBQEAU45@@Z 000000018002f058     QuickHullConvexHullLib.obj
 0002:0000506c       $chain$1$?growAndPushBack@?$Array@PEAUQuickHullFace@local@@VNamedAllocator@shdfnd@physx@@@shdfnd@physx@@IEAAAEAPEAUQuickHullFace@local@@AEBQEAU45@@Z 000000018002f06c     QuickHullConvexHullLib.obj
 0002:0000506c       $chain$1$?growAndPushBack@?$Array@PEAUQuickHullHalfEdge@local@@VNamedAllocator@shdfnd@physx@@@shdfnd@physx@@IEAAAEAPEAUQuickHullHalfEdge@local@@AEBQEAU45@@Z 000000018002f06c     QuickHullConvexHullLib.obj
 0002:0000506c       $chain$1$?growAndPushBack@?$Array@PEAUQuickHullVertex@local@@VNamedAllocator@shdfnd@physx@@@shdfnd@physx@@IEAAAEAPEAUQuickHullVertex@local@@AEBQEAU45@@Z 000000018002f06c     QuickHullConvexHullLib.obj
 0002:00005080       $chain$2$?growAndPushBack@?$Array@PEAUQuickHullFace@local@@VNamedAllocator@shdfnd@physx@@@shdfnd@physx@@IEAAAEAPEAUQuickHullFace@local@@AEBQEAU45@@Z 000000018002f080     QuickHullConvexHullLib.obj
 0002:00005080       $chain$2$?growAndPushBack@?$Array@PEAUQuickHullHalfEdge@local@@VNamedAllocator@shdfnd@physx@@@shdfnd@physx@@IEAAAEAPEAUQuickHullHalfEdge@local@@AEBQEAU45@@Z 000000018002f080     QuickHullConvexHullLib.obj
 0002:00005080       $chain$2$?growAndPushBack@?$Array@PEAUQuickHullVertex@local@@VNamedAllocator@shdfnd@physx@@@shdfnd@physx@@IEAAAEAPEAUQuickHullVertex@local@@AEBQEAU45@@Z 000000018002f080     QuickHullConvexHullLib.obj
 0002:00005090       $chain$3$?growAndPushBack@?$Array@PEAUQuickHullFace@local@@VNamedAllocator@shdfnd@physx@@@shdfnd@physx@@IEAAAEAPEAUQuickHullFace@local@@AEBQEAU45@@Z 000000018002f090     QuickHullConvexHullLib.obj
 0002:00005090       $chain$3$?growAndPushBack@?$Array@PEAUQuickHullHalfEdge@local@@VNamedAllocator@shdfnd@physx@@@shdfnd@physx@@IEAAAEAPEAUQuickHullHalfEdge@local@@AEBQEAU45@@Z 000000018002f090     QuickHullConvexHullLib.obj
 0002:00005090       $chain$3$?growAndPushBack@?$Array@PEAUQuickHullVertex@local@@VNamedAllocator@shdfnd@physx@@@shdfnd@physx@@IEAAAEAPEAUQuickHullVertex@local@@AEBQEAU45@@Z 000000018002f090     QuickHullConvexHullLib.obj
 0002:000050a0       $chain$0$?recreate@?$Array@PEAUQuickHullFace@local@@VNamedAllocator@shdfnd@physx@@@shdfnd@physx@@IEAAXI@Z 000000018002f0a0     QuickHullConvexHullLib.obj
 0002:000050a0       $chain$0$?recreate@?$Array@PEAUQuickHullHalfEdge@local@@VNamedAllocator@shdfnd@physx@@@shdfnd@physx@@IEAAXI@Z 000000018002f0a0     QuickHullConvexHullLib.obj
 0002:000050a0       $chain$0$?recreate@?$Array@PEAUQuickHullVertex@local@@VNamedAllocator@shdfnd@physx@@@shdfnd@physx@@IEAAXI@Z 000000018002f0a0     QuickHullConvexHullLib.obj
 0002:000050b4       $chain$1$?recreate@?$Array@PEAUQuickHullFace@local@@VNamedAllocator@shdfnd@physx@@@shdfnd@physx@@IEAAXI@Z 000000018002f0b4     QuickHullConvexHullLib.obj
 0002:000050b4       $chain$1$?recreate@?$Array@PEAUQuickHullHalfEdge@local@@VNamedAllocator@shdfnd@physx@@@shdfnd@physx@@IEAAXI@Z 000000018002f0b4     QuickHullConvexHullLib.obj
 0002:000050b4       $chain$1$?recreate@?$Array@PEAUQuickHullVertex@local@@VNamedAllocator@shdfnd@physx@@@shdfnd@physx@@IEAAXI@Z 000000018002f0b4     QuickHullConvexHullLib.obj
 0002:000050c4       $unwind$?getFreeItem@?$MemBlock@UQuickHullFace@local@@$00@local@@QEAAPEAUQuickHullFace@2@XZ 000000018002f0c4     QuickHullConvexHullLib.obj
 0002:000050d8       $chain$0$?growAndPushBack@?$Array@UExpandPoint@local@@VNamedAllocator@shdfnd@physx@@@shdfnd@physx@@IEAAAEAUExpandPoint@local@@AEBU45@@Z 000000018002f0d8     QuickHullConvexHullLib.obj
 0002:000050ec       $chain$1$?growAndPushBack@?$Array@UExpandPoint@local@@VNamedAllocator@shdfnd@physx@@@shdfnd@physx@@IEAAAEAUExpandPoint@local@@AEBU45@@Z 000000018002f0ec     QuickHullConvexHullLib.obj
 0002:00005100       $chain$2$?growAndPushBack@?$Array@UExpandPoint@local@@VNamedAllocator@shdfnd@physx@@@shdfnd@physx@@IEAAAEAUExpandPoint@local@@AEBU45@@Z 000000018002f100     QuickHullConvexHullLib.obj
 0002:00005110       $chain$3$?growAndPushBack@?$Array@UExpandPoint@local@@VNamedAllocator@shdfnd@physx@@@shdfnd@physx@@IEAAAEAUExpandPoint@local@@AEBU45@@Z 000000018002f110     QuickHullConvexHullLib.obj
 0002:00005120       $chain$0$?recreate@?$Array@UExpandPoint@local@@VNamedAllocator@shdfnd@physx@@@shdfnd@physx@@IEAAXI@Z 000000018002f120     QuickHullConvexHullLib.obj
 0002:00005134       $chain$1$?recreate@?$Array@UExpandPoint@local@@VNamedAllocator@shdfnd@physx@@@shdfnd@physx@@IEAAXI@Z 000000018002f134     QuickHullConvexHullLib.obj
 0002:00005144       $unwind$?computeVolumeIntegralsEberly@physx@@YA_NAEBVPxConvexMeshDesc@1@MAEAUPxIntegrals@1@AEBVPxVec3@1@@Z 000000018002f144     VolumeIntegration.obj
 0002:00005144       $unwind$?computeVolumeIntegralsEberlySIMD@physx@@YA_NAEBVPxConvexMeshDesc@1@MAEAUPxIntegrals@1@AEBVPxVec3@1@@Z 000000018002f144     VolumeIntegration.obj
 0002:0000514c       $unwind$?computeVolumeIntegralsSIMD@VolumeIntegratorEberly@?A0x44d11e6b@physx@@QEAA_NAEAUPxIntegrals@3@AEBVPxVec3@3@@Z 000000018002f14c     VolumeIntegration.obj
 0002:00005184       $chain$1$?computeVolumeIntegralsSIMD@VolumeIntegratorEberly@?A0x44d11e6b@physx@@QEAA_NAEAUPxIntegrals@3@AEBVPxVec3@3@@Z 000000018002f184     VolumeIntegration.obj
 0002:0000519c       $chain$2$?computeVolumeIntegralsSIMD@VolumeIntegratorEberly@?A0x44d11e6b@physx@@QEAA_NAEAUPxIntegrals@3@AEBVPxVec3@3@@Z 000000018002f19c     VolumeIntegration.obj
 0002:000051ac       $unwind$?computeVolumeIntegrals@VolumeIntegratorEberly@?A0x44d11e6b@physx@@QEAA_NAEAUPxIntegrals@3@AEBVPxVec3@3@@Z 000000018002f1ac     VolumeIntegration.obj
 0002:000051e4       $chain$0$?computeVolumeIntegrals@VolumeIntegratorEberly@?A0x44d11e6b@physx@@QEAA_NAEAUPxIntegrals@3@AEBVPxVec3@3@@Z 000000018002f1e4     VolumeIntegration.obj
 0002:000051f8       $chain$3$?computeVolumeIntegrals@VolumeIntegratorEberly@?A0x44d11e6b@physx@@QEAA_NAEAUPxIntegrals@3@AEBVPxVec3@3@@Z 000000018002f1f8     VolumeIntegration.obj
 0002:00005214       $chain$4$?computeVolumeIntegrals@VolumeIntegratorEberly@?A0x44d11e6b@physx@@QEAA_NAEAUPxIntegrals@3@AEBVPxVec3@3@@Z 000000018002f214     VolumeIntegration.obj
 0002:00005224       $chain$5$?computeVolumeIntegrals@VolumeIntegratorEberly@?A0x44d11e6b@physx@@QEAA_NAEAUPxIntegrals@3@AEBVPxVec3@3@@Z 000000018002f224     VolumeIntegration.obj
 0002:00005234       $chain$1$?cookingDelayHook@@YAP6A_JXZIPEAUDelayLoadInfo@@@Z 000000018002f234     WindowsCookingDelayLoadHook.obj
 0002:0000524c       $chain$3$?cookingDelayHook@@YAP6A_JXZIPEAUDelayLoadInfo@@@Z 000000018002f24c     WindowsCookingDelayLoadHook.obj
 0002:0000524c       $chain$5$?cookingDelayHook@@YAP6A_JXZIPEAUDelayLoadInfo@@@Z 000000018002f24c     WindowsCookingDelayLoadHook.obj
 0002:00005264       $chain$6$?cookingDelayHook@@YAP6A_JXZIPEAUDelayLoadInfo@@@Z 000000018002f264     WindowsCookingDelayLoadHook.obj
 0002:00005274       xdata                      000000018002f274     PhysXCommon_64:PhysXCommon_64.dll
 0002:0000527c       xdata                      000000018002f27c     PhysXFoundation_64:PhysXFoundation_64.dll
 0002:00005284       $unwind$?DloadObtainSection@@YAPEAXPEAK0@Z 000000018002f284     Delayimp:delayhlp.obj
 0002:00005294       $unwind$?DloadMakePermanentImageCommit@@YAXPEAX_K@Z 000000018002f294     Delayimp:delayhlp.obj
 0002:000052a0       $unwind$?DloadProtectSection@@YAXKPEAK@Z 000000018002f2a0     Delayimp:delayhlp.obj
 0002:000052b0       $unwind$__delayLoadHelper2 000000018002f2b0     Delayimp:delayhlp.obj
 0002:000052d0       $xdatasym                  000000018002f2d0     MSVCRT:chkstk.obj
 0002:000052d8       $unwind$?dllmain_crt_process_attach@@YAHQEAUHINSTANCE__@@QEAX@Z 000000018002f2d8     MSVCRT:dll_dllmain.obj
 0002:00005314       $unwind$?fin$0@?0??dllmain_crt_process_attach@@YAHQEAUHINSTANCE__@@QEAX@Z@4HA 000000018002f314     MSVCRT:dll_dllmain.obj
 0002:00005314       $unwind$?fin$0@?0??dllmain_crt_process_detach@@YAH_N@Z@4HA 000000018002f314     MSVCRT:dll_dllmain.obj
 0002:00005314       $unwind$?fin$1@?0??dllmain_crt_process_detach@@YAH_N@Z@4HA 000000018002f314     MSVCRT:dll_dllmain.obj
 0002:0000531c       $unwind$?dllmain_crt_process_detach@@YAH_N@Z 000000018002f31c     MSVCRT:dll_dllmain.obj
 0002:00005370       $unwind$?dllmain_dispatch@@YAHQEAUHINSTANCE__@@KQEAX@Z 000000018002f370     MSVCRT:dll_dllmain.obj
 0002:00005398       $unwind$?filt$0@?0??dllmain_dispatch@@YAHQEAUHINSTANCE__@@KQEAX@Z@4HA 000000018002f398     MSVCRT:dll_dllmain.obj
 0002:000053a0       $unwind$__isa_available_init 000000018002f3a0     MSVCRT:cpu_disp.obj
 0002:000053b0       $xdatasym                  000000018002f3b0     MSVCRT:svml_ssinf4_sse2.obj
 0002:000053e8       $xdatasym                  000000018002f3e8     MSVCRT:svml_ssinf4_sse4.obj
 0002:0000541c       $unwind$__security_init_cookie 000000018002f41c     MSVCRT:gs_support.obj
 0002:00005428       $unwind$__scrt_is_nonwritable_in_current_image 000000018002f428     MSVCRT:utility.obj
 0002:00005448       $unwind$__scrt_is_nonwritable_in_current_image$filt$0 000000018002f448     MSVCRT:utility.obj
 0002:00005450       $unwind$__scrt_fastfail    000000018002f450     MSVCRT:utility_desktop.obj
 0002:00005460       $xdatasym                  000000018002f460     MSVCRT:guard_dispatch.obj
 0002:00005468       $xdatasym                  000000018002f468     MSVCRT:guard_xfg_dispatch.obj
 0002:00005470       $xdatasym                  000000018002f470     MSVCRT:svml_s_sin_cout.obj
 0002:00006290       .edata                     0000000180030290     PhysXCooking_64.exp
 0002:000062b8       rgpv                       00000001800302b8     PhysXCooking_64.exp
 0002:000064a4       rgszName                   00000001800304a4     PhysXCooking_64.exp
 0002:00006690       rgwOrd                     0000000180030690     PhysXCooking_64.exp
 0002:00006786       szName                     0000000180030786     PhysXCooking_64.exp
 0002:0000679a       $N00001                    000000018003079a     PhysXCooking_64.exp
 0002:000067c9       $N00002                    00000001800307c9     PhysXCooking_64.exp
 0002:000067f0       $N00003                    00000001800307f0     PhysXCooking_64.exp
 0002:0000682b       $N00004                    000000018003082b     PhysXCooking_64.exp
 0002:00006852       $N00005                    0000000180030852     PhysXCooking_64.exp
 0002:0000687e       $N00006                    000000018003087e     PhysXCooking_64.exp
 0002:0000689f       $N00007                    000000018003089f     PhysXCooking_64.exp
 0002:000068d4       $N00008                    00000001800308d4     PhysXCooking_64.exp
 0002:000068ed       $N00009                    00000001800308ed     PhysXCooking_64.exp
 0002:0000690d       $N00010                    000000018003090d     PhysXCooking_64.exp
 0002:00006936       $N00011                    0000000180030936     PhysXCooking_64.exp
 0002:0000695d       $N00012                    000000018003095d     PhysXCooking_64.exp
 0002:0000698c       $N00013                    000000018003098c     PhysXCooking_64.exp
 0002:000069b9       $N00014                    00000001800309b9     PhysXCooking_64.exp
 0002:000069ea       $N00015                    00000001800309ea     PhysXCooking_64.exp
 0002:00006a0f       $N00016                    0000000180030a0f     PhysXCooking_64.exp
 0002:00006a3a       $N00017                    0000000180030a3a     PhysXCooking_64.exp
 0002:00006a60       $N00018                    0000000180030a60     PhysXCooking_64.exp
 0002:00006a7f       $N00019                    0000000180030a7f     PhysXCooking_64.exp
 0002:00006ab5       $N00020                    0000000180030ab5     PhysXCooking_64.exp
 0002:00006adf       $N00021                    0000000180030adf     PhysXCooking_64.exp
 0002:00006b06       $N00022                    0000000180030b06     PhysXCooking_64.exp
 0002:00006b2f       $N00023                    0000000180030b2f     PhysXCooking_64.exp
 0002:00006b48       $N00024                    0000000180030b48     PhysXCooking_64.exp
 0002:00006b6d       $N00025                    0000000180030b6d     PhysXCooking_64.exp
 0002:00006b8c       $N00026                    0000000180030b8c     PhysXCooking_64.exp
 0002:00006bab       $N00027                    0000000180030bab     PhysXCooking_64.exp
 0002:00006bcb       $N00028                    0000000180030bcb     PhysXCooking_64.exp
 0002:00006c01       $N00029                    0000000180030c01     PhysXCooking_64.exp
 0002:00006c39       $N00030                    0000000180030c39     PhysXCooking_64.exp
 0002:00006c6d       $N00031                    0000000180030c6d     PhysXCooking_64.exp
 0002:00006c9f       $N00032                    0000000180030c9f     PhysXCooking_64.exp
 0002:00006ccc       $N00033                    0000000180030ccc     PhysXCooking_64.exp
 0002:00006cf4       $N00034                    0000000180030cf4     PhysXCooking_64.exp
 0002:00006d25       $N00035                    0000000180030d25     PhysXCooking_64.exp
 0002:00006d54       $N00036                    0000000180030d54     PhysXCooking_64.exp
 0002:00006d84       $N00037                    0000000180030d84     PhysXCooking_64.exp
 0002:00006db2       $N00038                    0000000180030db2     PhysXCooking_64.exp
 0002:00006de3       $N00039                    0000000180030de3     PhysXCooking_64.exp
 0002:00006e19       $N00040                    0000000180030e19     PhysXCooking_64.exp
 0002:00006e4d       $N00041                    0000000180030e4d     PhysXCooking_64.exp
 0002:00006e7f       $N00042                    0000000180030e7f     PhysXCooking_64.exp
 0002:00006eb1       $N00043                    0000000180030eb1     PhysXCooking_64.exp
 0002:00006edd       $N00044                    0000000180030edd     PhysXCooking_64.exp
 0002:00006ef9       $N00045                    0000000180030ef9     PhysXCooking_64.exp
 0002:00006f23       $N00046                    0000000180030f23     PhysXCooking_64.exp
 0002:00006f47       $N00047                    0000000180030f47     PhysXCooking_64.exp
 0002:00006f70       $N00048                    0000000180030f70     PhysXCooking_64.exp
 0002:00006fa2       $N00049                    0000000180030fa2     PhysXCooking_64.exp
 0002:00006fc9       $N00050                    0000000180030fc9     PhysXCooking_64.exp
 0002:00006ff7       $N00051                    0000000180030ff7     PhysXCooking_64.exp
 0002:00007022       $N00052                    0000000180031022     PhysXCooking_64.exp
 0002:0000704f       $N00053                    000000018003104f     PhysXCooking_64.exp
 0002:00007078       $N00054                    0000000180031078     PhysXCooking_64.exp
 0002:000070a7       $N00055                    00000001800310a7     PhysXCooking_64.exp
 0002:000070d0       $N00056                    00000001800310d0     PhysXCooking_64.exp
 0002:000070f9       $N00057                    00000001800310f9     PhysXCooking_64.exp
 0002:00007127       $N00058                    0000000180031127     PhysXCooking_64.exp
 0002:0000714f       $N00059                    000000018003114f     PhysXCooking_64.exp
 0002:0000718a       $N00060                    000000018003118a     PhysXCooking_64.exp
 0002:000071b4       $N00061                    00000001800311b4     PhysXCooking_64.exp
 0002:000071e8       $N00062                    00000001800311e8     PhysXCooking_64.exp
 0002:0000721e       $N00063                    000000018003121e     PhysXCooking_64.exp
 0002:0000725a       $N00064                    000000018003125a     PhysXCooking_64.exp
 0002:000072a2       $N00065                    00000001800312a2     PhysXCooking_64.exp
 0002:000072f2       $N00066                    00000001800312f2     PhysXCooking_64.exp
 0002:00007326       $N00067                    0000000180031326     PhysXCooking_64.exp
 0002:0000735b       $N00068                    000000018003135b     PhysXCooking_64.exp
 0002:00007391       $N00069                    0000000180031391     PhysXCooking_64.exp
 0002:000073b8       $N00070                    00000001800313b8     PhysXCooking_64.exp
 0002:00007400       $N00071                    0000000180031400     PhysXCooking_64.exp
 0002:00007446       $N00072                    0000000180031446     PhysXCooking_64.exp
 0002:0000749e       $N00073                    000000018003149e     PhysXCooking_64.exp
 0002:000074e5       $N00074                    00000001800314e5     PhysXCooking_64.exp
 0002:00007510       $N00075                    0000000180031510     PhysXCooking_64.exp
 0002:00007540       $N00076                    0000000180031540     PhysXCooking_64.exp
 0002:00007590       $N00077                    0000000180031590     PhysXCooking_64.exp
 0002:0000763f       $N00078                    000000018003163f     PhysXCooking_64.exp
 0002:0000769d       $N00079                    000000018003169d     PhysXCooking_64.exp
 0002:000076c9       $N00080                    00000001800316c9     PhysXCooking_64.exp
 0002:000076f5       $N00081                    00000001800316f5     PhysXCooking_64.exp
 0002:0000772a       $N00082                    000000018003172a     PhysXCooking_64.exp
 0002:00007753       $N00083                    0000000180031753     PhysXCooking_64.exp
 0002:0000778f       $N00084                    000000018003178f     PhysXCooking_64.exp
 0002:000077bb       $N00085                    00000001800317bb     PhysXCooking_64.exp
 0002:000077ee       $N00086                    00000001800317ee     PhysXCooking_64.exp
 0002:0000783b       $N00087                    000000018003183b     PhysXCooking_64.exp
 0002:0000786e       $N00088                    000000018003186e     PhysXCooking_64.exp
 0002:000078a8       $N00089                    00000001800318a8     PhysXCooking_64.exp
 0002:000078e2       $N00090                    00000001800318e2     PhysXCooking_64.exp
 0002:0000791e       $N00091                    000000018003191e     PhysXCooking_64.exp
 0002:00007962       $N00092                    0000000180031962     PhysXCooking_64.exp
 0002:00007991       $N00093                    0000000180031991     PhysXCooking_64.exp
 0002:00007a0b       $N00094                    0000000180031a0b     PhysXCooking_64.exp
 0002:00007a68       $N00095                    0000000180031a68     PhysXCooking_64.exp
 0002:00007a94       $N00096                    0000000180031a94     PhysXCooking_64.exp
 0002:00007ac8       $N00097                    0000000180031ac8     PhysXCooking_64.exp
 0002:00007b01       $N00098                    0000000180031b01     PhysXCooking_64.exp
 0002:00007b3e       $N00099                    0000000180031b3e     PhysXCooking_64.exp
 0002:00007b74       $N00100                    0000000180031b74     PhysXCooking_64.exp
 0002:00007ba1       $N00101                    0000000180031ba1     PhysXCooking_64.exp
 0002:00007bce       $N00102                    0000000180031bce     PhysXCooking_64.exp
 0002:00007bf9       $N00103                    0000000180031bf9     PhysXCooking_64.exp
 0002:00007c25       $N00104                    0000000180031c25     PhysXCooking_64.exp
 0002:00007c52       $N00105                    0000000180031c52     PhysXCooking_64.exp
 0002:00007c72       $N00106                    0000000180031c72     PhysXCooking_64.exp
 0002:00007cae       $N00107                    0000000180031cae     PhysXCooking_64.exp
 0002:00007cdf       $N00108                    0000000180031cdf     PhysXCooking_64.exp
 0002:00007d11       $N00109                    0000000180031d11     PhysXCooking_64.exp
 0002:00007d53       $N00110                    0000000180031d53     PhysXCooking_64.exp
 0002:00007d80       $N00111                    0000000180031d80     PhysXCooking_64.exp
 0002:00007da4       $N00112                    0000000180031da4     PhysXCooking_64.exp
 0002:00007dd4       $N00113                    0000000180031dd4     PhysXCooking_64.exp
 0002:00007e07       $N00114                    0000000180031e07     PhysXCooking_64.exp
 0002:00007e2c       $N00115                    0000000180031e2c     PhysXCooking_64.exp
 0002:00007e5a       $N00116                    0000000180031e5a     PhysXCooking_64.exp
 0002:00007e82       $N00117                    0000000180031e82     PhysXCooking_64.exp
 0002:00007ea2       $N00118                    0000000180031ea2     PhysXCooking_64.exp
 0002:00007ee7       $N00119                    0000000180031ee7     PhysXCooking_64.exp
 0002:00007f24       $N00120                    0000000180031f24     PhysXCooking_64.exp
 0002:00007f61       $N00121                    0000000180031f61     PhysXCooking_64.exp
 0002:00007f94       $N00122                    0000000180031f94     PhysXCooking_64.exp
 0002:00007fa4       $N00123                    0000000180031fa4     PhysXCooking_64.exp
 0002:000081e0       .idata$6                   00000001800321e0     kernel32:KERNEL32.dll
 0002:00008268       .idata$6                   0000000180032268     vcruntime:VCRUNTIME140.dll
 0002:00008348       .idata$6                   0000000180032348     ucrt:api-ms-win-crt-string-l1-1-0.dll
 0002:0000836a       .idata$6                   000000018003236a     ucrt:api-ms-win-crt-math-l1-1-0.dll
 0002:0000838a       .idata$6                   000000018003238a     ucrt:api-ms-win-crt-heap-l1-1-0.dll
 0002:000083aa       .idata$6                   00000001800323aa     ucrt:api-ms-win-crt-runtime-l1-1-0.dll
 0003:00000000       ?MAXDOT_MINANG@local@@3MB  0000000180033000     ConvexHullUtils.obj
 0003:00000004       ?MAXDOT_MINANG@local@@3MB  0000000180033004     QuickHullConvexHullLib.obj
 0003:00000540       ?maxV3Error@_VecMathTests@aos@shdfnd@physx@@3T__m128@@B 0000000180033540     Cooking.obj
 0003:00000550       ?minFError@_VecMathTests@aos@shdfnd@physx@@3T__m128@@B 0000000180033550     Cooking.obj
 0003:00000560       ?maxV4Error@_VecMathTests@aos@shdfnd@physx@@3T__m128@@B 0000000180033560     Cooking.obj
 0003:00000570       ?minV4Error@_VecMathTests@aos@shdfnd@physx@@3T__m128@@B 0000000180033570     Cooking.obj
 0003:00000580       ?minV3Error@_VecMathTests@aos@shdfnd@physx@@3T__m128@@B 0000000180033580     Cooking.obj
 0003:00000590       ?maxFError@_VecMathTests@aos@shdfnd@physx@@3T__m128@@B 0000000180033590     Cooking.obj
 0003:000005a0       ?maxV3Error@_VecMathTests@aos@shdfnd@physx@@3T__m128@@B 00000001800335a0     BVHStructureBuilder.obj
 0003:000005b0       ?minFError@_VecMathTests@aos@shdfnd@physx@@3T__m128@@B 00000001800335b0     BVHStructureBuilder.obj
 0003:000005c0       ?maxV4Error@_VecMathTests@aos@shdfnd@physx@@3T__m128@@B 00000001800335c0     BVHStructureBuilder.obj
 0003:000005d0       ?minV4Error@_VecMathTests@aos@shdfnd@physx@@3T__m128@@B 00000001800335d0     BVHStructureBuilder.obj
 0003:000005e0       ?minV3Error@_VecMathTests@aos@shdfnd@physx@@3T__m128@@B 00000001800335e0     BVHStructureBuilder.obj
 0003:000005f0       ?maxFError@_VecMathTests@aos@shdfnd@physx@@3T__m128@@B 00000001800335f0     BVHStructureBuilder.obj
 0003:00000600       ?maxV3Error@_VecMathTests@aos@shdfnd@physx@@3T__m128@@B 0000000180033600     RTreeCooking.obj
 0003:00000610       ?minFError@_VecMathTests@aos@shdfnd@physx@@3T__m128@@B 0000000180033610     RTreeCooking.obj
 0003:00000620       ?maxV4Error@_VecMathTests@aos@shdfnd@physx@@3T__m128@@B 0000000180033620     RTreeCooking.obj
 0003:00000630       ?minV4Error@_VecMathTests@aos@shdfnd@physx@@3T__m128@@B 0000000180033630     RTreeCooking.obj
 0003:00000640       ?minV3Error@_VecMathTests@aos@shdfnd@physx@@3T__m128@@B 0000000180033640     RTreeCooking.obj
 0003:00000650       ?maxFError@_VecMathTests@aos@shdfnd@physx@@3T__m128@@B 0000000180033650     RTreeCooking.obj
 0003:00000660       ?maxV3Error@_VecMathTests@aos@shdfnd@physx@@3T__m128@@B 0000000180033660     MeshBuilder.obj
 0003:00000670       ?minFError@_VecMathTests@aos@shdfnd@physx@@3T__m128@@B 0000000180033670     MeshBuilder.obj
 0003:00000680       ?maxV4Error@_VecMathTests@aos@shdfnd@physx@@3T__m128@@B 0000000180033680     MeshBuilder.obj
 0003:00000690       ?minV4Error@_VecMathTests@aos@shdfnd@physx@@3T__m128@@B 0000000180033690     MeshBuilder.obj
 0003:000006a0       ?minV3Error@_VecMathTests@aos@shdfnd@physx@@3T__m128@@B 00000001800336a0     MeshBuilder.obj
 0003:000006b0       ?maxFError@_VecMathTests@aos@shdfnd@physx@@3T__m128@@B 00000001800336b0     MeshBuilder.obj
 0003:000006c0       ?maxV3Error@_VecMathTests@aos@shdfnd@physx@@3T__m128@@B 00000001800336c0     TriangleMeshBuilder.obj
 0003:000006d0       ?minFError@_VecMathTests@aos@shdfnd@physx@@3T__m128@@B 00000001800336d0     TriangleMeshBuilder.obj
 0003:000006e0       ?maxV4Error@_VecMathTests@aos@shdfnd@physx@@3T__m128@@B 00000001800336e0     TriangleMeshBuilder.obj
 0003:000006f0       ?minV4Error@_VecMathTests@aos@shdfnd@physx@@3T__m128@@B 00000001800336f0     TriangleMeshBuilder.obj
 0003:00000700       ?minV3Error@_VecMathTests@aos@shdfnd@physx@@3T__m128@@B 0000000180033700     TriangleMeshBuilder.obj
 0003:00000710       ?maxFError@_VecMathTests@aos@shdfnd@physx@@3T__m128@@B 0000000180033710     TriangleMeshBuilder.obj
 0003:00000720       ?maxV3Error@_VecMathTests@aos@shdfnd@physx@@3T__m128@@B 0000000180033720     BigConvexDataBuilder.obj
 0003:00000730       ?minFError@_VecMathTests@aos@shdfnd@physx@@3T__m128@@B 0000000180033730     BigConvexDataBuilder.obj
 0003:00000740       ?maxV4Error@_VecMathTests@aos@shdfnd@physx@@3T__m128@@B 0000000180033740     BigConvexDataBuilder.obj
 0003:00000750       ?minV4Error@_VecMathTests@aos@shdfnd@physx@@3T__m128@@B 0000000180033750     BigConvexDataBuilder.obj
 0003:00000760       ?minV3Error@_VecMathTests@aos@shdfnd@physx@@3T__m128@@B 0000000180033760     BigConvexDataBuilder.obj
 0003:00000770       ?maxFError@_VecMathTests@aos@shdfnd@physx@@3T__m128@@B 0000000180033770     BigConvexDataBuilder.obj
 0003:00000780       ?maxV3Error@_VecMathTests@aos@shdfnd@physx@@3T__m128@@B 0000000180033780     ConvexHullBuilder.obj
 0003:00000790       ?minFError@_VecMathTests@aos@shdfnd@physx@@3T__m128@@B 0000000180033790     ConvexHullBuilder.obj
 0003:000007a0       ?maxV4Error@_VecMathTests@aos@shdfnd@physx@@3T__m128@@B 00000001800337a0     ConvexHullBuilder.obj
 0003:000007b0       ?minV4Error@_VecMathTests@aos@shdfnd@physx@@3T__m128@@B 00000001800337b0     ConvexHullBuilder.obj
 0003:000007c0       ?minV3Error@_VecMathTests@aos@shdfnd@physx@@3T__m128@@B 00000001800337c0     ConvexHullBuilder.obj
 0003:000007d0       ?maxFError@_VecMathTests@aos@shdfnd@physx@@3T__m128@@B 00000001800337d0     ConvexHullBuilder.obj
 0003:000007e0       ?maxV3Error@_VecMathTests@aos@shdfnd@physx@@3T__m128@@B 00000001800337e0     ConvexHullUtils.obj
 0003:000007f0       ?minFError@_VecMathTests@aos@shdfnd@physx@@3T__m128@@B 00000001800337f0     ConvexHullUtils.obj
 0003:00000800       ?maxV4Error@_VecMathTests@aos@shdfnd@physx@@3T__m128@@B 0000000180033800     ConvexHullUtils.obj
 0003:00000810       ?minV4Error@_VecMathTests@aos@shdfnd@physx@@3T__m128@@B 0000000180033810     ConvexHullUtils.obj
 0003:00000820       ?minV3Error@_VecMathTests@aos@shdfnd@physx@@3T__m128@@B 0000000180033820     ConvexHullUtils.obj
 0003:00000830       ?maxFError@_VecMathTests@aos@shdfnd@physx@@3T__m128@@B 0000000180033830     ConvexHullUtils.obj
 0003:00000840       ?maxV3Error@_VecMathTests@aos@shdfnd@physx@@3T__m128@@B 0000000180033840     ConvexMeshBuilder.obj
 0003:00000850       ?minFError@_VecMathTests@aos@shdfnd@physx@@3T__m128@@B 0000000180033850     ConvexMeshBuilder.obj
 0003:00000860       ?maxV4Error@_VecMathTests@aos@shdfnd@physx@@3T__m128@@B 0000000180033860     ConvexMeshBuilder.obj
 0003:00000870       ?minV4Error@_VecMathTests@aos@shdfnd@physx@@3T__m128@@B 0000000180033870     ConvexMeshBuilder.obj
 0003:00000880       ?minV3Error@_VecMathTests@aos@shdfnd@physx@@3T__m128@@B 0000000180033880     ConvexMeshBuilder.obj
 0003:00000890       ?maxFError@_VecMathTests@aos@shdfnd@physx@@3T__m128@@B 0000000180033890     ConvexMeshBuilder.obj
 0003:000008a0       ?maxV3Error@_VecMathTests@aos@shdfnd@physx@@3T__m128@@B 00000001800338a0     VolumeIntegration.obj
 0003:000008b0       ?minFError@_VecMathTests@aos@shdfnd@physx@@3T__m128@@B 00000001800338b0     VolumeIntegration.obj
 0003:000008c0       ?maxV4Error@_VecMathTests@aos@shdfnd@physx@@3T__m128@@B 00000001800338c0     VolumeIntegration.obj
 0003:000008d0       ?minV4Error@_VecMathTests@aos@shdfnd@physx@@3T__m128@@B 00000001800338d0     VolumeIntegration.obj
 0003:000008e0       ?minV3Error@_VecMathTests@aos@shdfnd@physx@@3T__m128@@B 00000001800338e0     VolumeIntegration.obj
 0003:000008f0       ?maxFError@_VecMathTests@aos@shdfnd@physx@@3T__m128@@B 00000001800338f0     VolumeIntegration.obj
 0003:00000900       ?gCookingDelayLoadHook@@3PEBVPxDelayLoadHook@physx@@EB 0000000180033900     WindowsCookingDelayLoadHook.obj
 0003:00000960       ?__proc_attached@@3HA      0000000180033960     MSVCRT:dll_dllmain.obj
 0003:00000988       ?is_initialized_as_dll@@3_NA 0000000180033988     MSVCRT:utility.obj
 0003:00000989       ?module_local_atexit_table_initialized@@3_NA 0000000180033989     MSVCRT:utility.obj
 0003:00000990       ?module_local_atexit_table@@3U_onexit_table_t@@A 0000000180033990     MSVCRT:utility.obj
 0003:000009a8       ?module_local_at_quick_exit_table@@3U_onexit_table_t@@A 00000001800339a8     MSVCRT:utility.obj
 0005:00000000       _2il0floatpacket$19        0000000180036000     MSVCRT:svml_ssinf4_sse2.obj
 0005:00002200       _vmlsSinHATab              0000000180038200     MSVCRT:svml_s_sin_cout.obj
 0006:000000a0       $R000000                   00000001800390a0     PhysXCooking.res
 0006:000003d0       $R000330                   00000001800393d0     PhysXCooking.res
