 PhysXCommon_64

 Timestamp is 63f49218 (Tue Feb 21 10:42:48 2023)

 Preferred load address is 0000000180000000

 Start         Length     Name                   Class
 0001:00000000 000029e0H .text$di                CODE
 0001:000029e0 00119f00H .text$mn                CODE
 0001:0011c8e0 00000036H .text$mn$00             CODE
 0001:0011c916 00000092H .text$x                 CODE
 0002:00000000 00000188H .idata$5                DATA
 0002:00000188 00000038H .00cfg                  DATA
 0002:000001c0 00000008H .CRT$XCA                DATA
 0002:000001c8 00001428H .CRT$XCU                DATA
 0002:000015f0 00000008H .CRT$XCZ                DATA
 0002:000015f8 00000008H .CRT$XIA                DATA
 0002:00001600 00000008H .CRT$XIZ                DATA
 0002:00001608 00000008H .CRT$XPA                DATA
 0002:00001610 00000008H .CRT$XPZ                DATA
 0002:00001618 00000008H .CRT$XTA                DATA
 0002:00001620 00000010H .CRT$XTZ                DATA
 0002:00001628 00000000H .gehcont$y              DATA
 0002:00001628 00000000H .gfids$y                DATA
 0002:00001630 00004d50H .rdata                  DATA
 0002:00006380 00000000H .rdata$CastGuardVftablesA DATA
 0002:00006380 00000000H .rdata$CastGuardVftablesC DATA
 0002:00006380 00000074H .rdata$r                DATA
 0002:000063f4 00000108H .rdata$voltmd           DATA
 0002:000064fc 000003b4H .rdata$zzzdbg           DATA
 0002:000068b0 00000008H .rtc$IAA                DATA
 0002:000068b8 00000008H .rtc$IZZ                DATA
 0002:000068c0 00000008H .rtc$TAA                DATA
 0002:000068c8 00000008H .rtc$TZZ                DATA
 0002:000068d0 0000b5c8H .xdata                  DATA
 0002:00011e98 00000020H .didat$2                DATA
 0002:00011eb8 00000020H .didat$3                DATA
 0002:00011ed8 000000b8H .didat$4                DATA
 0002:00011f90 00000430H .didat$6                DATA
 0002:000123c0 000000c0H .didat$7                DATA
 0002:00012480 0000a0dcH .edata                  DATA
 0002:0001c55c 00000078H .idata$2                DATA
 0002:0001c5d4 00000014H .idata$3                DATA
 0002:0001c5e8 00000188H .idata$4                DATA
 0002:0001c770 000003daH .idata$6                DATA
 0003:00000000 00000a70H .data                   DATA
 0003:00000a70 000003e8H .data$r                 DATA
 0003:00000e58 00000020H .data$rs                DATA
 0003:00000e78 000000b8H .didat$5                DATA
 0003:00000f30 000029a0H .bss                    DATA
 0004:00000000 00005a30H .pdata                  DATA
 0005:00000000 00002208H _RDATA                  DATA
 0006:00000000 000000a0H .rsrc$01                DATA
 0006:000000a0 000004b0H .rsrc$02                DATA

  Address         Publics by Value              Rva+Base               Lib:Object

 0000:00000000       __AbsoluteZero             0000000000000000     <absolute>
 0000:00000000       ___safe_se_handler_count   0000000000000000     <absolute>
 0000:00000000       ___safe_se_handler_table   0000000000000000     <absolute>
 0000:00000000       __arm64x_extra_rfe_table   0000000000000000     <absolute>
 0000:00000000       __arm64x_extra_rfe_table_size 0000000000000000     <absolute>
 0000:00000000       __arm64x_native_entrypoint 0000000000000000     <absolute>
 0000:00000000       __arm64x_redirection_metadata 0000000000000000     <absolute>
 0000:00000000       __arm64x_redirection_metadata_count 0000000000000000     <absolute>
 0000:00000000       __dynamic_value_reloc_table 0000000000000000     <absolute>
 0000:00000000       __enclave_config           0000000000000000     <absolute>
 0000:00000000       __guard_check_icall_a64n_fptr 0000000000000000     <absolute>
 0000:00000000       __guard_eh_cont_count      0000000000000000     <absolute>
 0000:00000000       __guard_eh_cont_table      0000000000000000     <absolute>
 0000:00000000       __guard_fids_count         0000000000000000     <absolute>
 0000:00000000       __guard_fids_table         0000000000000000     <absolute>
 0000:00000000       __guard_iat_count          0000000000000000     <absolute>
 0000:00000000       __guard_iat_table          0000000000000000     <absolute>
 0000:00000000       __guard_longjmp_count      0000000000000000     <absolute>
 0000:00000000       __guard_longjmp_table      0000000000000000     <absolute>
 0000:00000000       __hybrid_auxiliary_iat     0000000000000000     <absolute>
 0000:00000000       __hybrid_auxiliary_iat_copy 0000000000000000     <absolute>
 0000:00000000       __hybrid_code_map          0000000000000000     <absolute>
 0000:00000000       __hybrid_code_map_count    0000000000000000     <absolute>
 0000:00000000       __x64_code_ranges_to_entry_points 0000000000000000     <absolute>
 0000:00000000       __x64_code_ranges_to_entry_points_count 0000000000000000     <absolute>
 0000:00000100       __guard_flags              0000000000000100     <absolute>
 0000:00000000       __ImageBase                0000000180000000     <linker-defined>
 0001:000029e0       ??_ECollection@Cm@physx@@UEAAPEAXI@Z 00000001800039e0 f i CmCollection.obj
 0001:000029e0       ??_GCollection@Cm@physx@@UEAAPEAXI@Z 00000001800039e0 f i CmCollection.obj
 0001:00002a90       ??_EPxCollection@physx@@MEAAPEAXI@Z 0000000180003a90 f i CmCollection.obj
 0001:00002a90       ??_GPxCollection@physx@@MEAAPEAXI@Z 0000000180003a90 f i CmCollection.obj
 0001:00002ac0       ?PxCreateCollection@@YAPEAVPxCollection@physx@@XZ 0000000180003ac0 f   CmCollection.obj
 0001:00002bc0       ?add@Collection@Cm@physx@@UEAAXAEAVPxBase@3@_K@Z 0000000180003bc0 f   CmCollection.obj
 0001:00002cb0       ?add@Collection@Cm@physx@@UEAAXAEAVPxCollection@3@@Z 0000000180003cb0 f   CmCollection.obj
 0001:00002ed0       ?addId@Collection@Cm@physx@@UEAAXAEAVPxBase@3@_K@Z 0000000180003ed0 f   CmCollection.obj
 0001:00003020       ?contains@Collection@Cm@physx@@UEBA_NAEAVPxBase@3@@Z 0000000180004020 f   CmCollection.obj
 0001:000030d0       ?create@?$HashBase@V?$Pair@$$CB_KPEAVPxBase@physx@@@shdfnd@physx@@_KU?$Hash@_K@23@UGetKey@?$HashMapBase@_KPEAVPxBase@physx@@U?$Hash@_K@shdfnd@2@VNonTrackingAllocator@42@@internal@23@VNonTrackingAllocator@23@$00@internal@shdfnd@physx@@QEAAPEAV?$Pair@$$CB_KPEAVPxBase@physx@@@34@AEB_KAEA_N@Z 00000001800040d0 f i CmCollection.obj
 0001:000030d0       ?create@?$HashBase@V?$Pair@QEAVPxBase@physx@@_K@shdfnd@physx@@PEAVPxBase@3@U?$Hash@PEAVPxBase@physx@@@23@UGetKey@?$HashMapBase@PEAVPxBase@physx@@_KU?$Hash@PEAVPxBase@physx@@@shdfnd@2@VNonTrackingAllocator@42@@internal@23@VNonTrackingAllocator@23@$00@internal@shdfnd@physx@@QEAAPEAV?$Pair@QEAVPxBase@physx@@_K@34@AEBQEAVPxBase@4@AEA_N@Z 00000001800040d0 f i CmCollection.obj
 0001:00003260       ?erase@?$HashBase@V?$Pair@$$CB_KPEAVPxBase@physx@@@shdfnd@physx@@_KU?$Hash@_K@23@UGetKey@?$HashMapBase@_KPEAVPxBase@physx@@U?$Hash@_K@shdfnd@2@VNonTrackingAllocator@42@@internal@23@VNonTrackingAllocator@23@$00@internal@shdfnd@physx@@QEAA_NAEB_K@Z 0000000180004260 f i CmCollection.obj
 0001:00003260       ?erase@?$HashBase@V?$Pair@QEAVPxBase@physx@@_K@shdfnd@physx@@PEAVPxBase@3@U?$Hash@PEAVPxBase@physx@@@23@UGetKey@?$HashMapBase@PEAVPxBase@physx@@_KU?$Hash@PEAVPxBase@physx@@@shdfnd@2@VNonTrackingAllocator@42@@internal@23@VNonTrackingAllocator@23@$00@internal@shdfnd@physx@@QEAA_NAEBQEAVPxBase@4@@Z 0000000180004260 f i CmCollection.obj
 0001:00003410       ?find@?$HashMapBase@PEAVPxBase@physx@@_KU?$Hash@PEAVPxBase@physx@@@shdfnd@2@VNonTrackingAllocator@42@@internal@shdfnd@physx@@QEBAPEBV?$Pair@QEAVPxBase@physx@@_K@34@AEBQEAVPxBase@4@@Z 0000000180004410 f i CmCollection.obj
 0001:00003410       ?find@?$HashMapBase@_KPEAVPxBase@physx@@U?$Hash@_K@shdfnd@2@VNonTrackingAllocator@42@@internal@shdfnd@physx@@QEBAPEBV?$Pair@$$CB_KPEAVPxBase@physx@@@34@AEB_K@Z 0000000180004410 f i CmCollection.obj
 0001:000034b0       ?find@Collection@Cm@physx@@UEBAPEAVPxBase@3@_K@Z 00000001800044b0 f   CmCollection.obj
 0001:00003510       ?getId@Collection@Cm@physx@@UEBA_KAEBVPxBase@3@@Z 0000000180004510 f   CmCollection.obj
 0001:000035c0       ?getIds@Collection@Cm@physx@@UEBAIPEA_KII@Z 00000001800045c0 f   CmCollection.obj
 0001:00003700       ?getNbColumns@HeightField@Gu@physx@@UEBAIXZ 0000000180004700 f   GuBounds.obj
 0001:00003700       ?getNbIds@Collection@Cm@physx@@UEBAIXZ 0000000180004700 f   CmCollection.obj
 0001:00003710       ?getNbObjects@Collection@Cm@physx@@UEBAIXZ 0000000180004710 f   CmCollection.obj
 0001:00003720       ?getObject@Collection@Cm@physx@@UEBAAEAVPxBase@3@I@Z 0000000180004720 f   CmCollection.obj
 0001:00003730       ?getObjects@Collection@Cm@physx@@UEBAIPEAPEAVPxBase@3@II@Z 0000000180004730 f   CmCollection.obj
 0001:000037f0       ?insert@?$HashMapBase@_KPEAVPxBase@physx@@U?$Hash@_K@shdfnd@2@VNonTrackingAllocator@42@@internal@shdfnd@physx@@QEAA_N_KQEAVPxBase@4@@Z 00000001800047f0 f i CmCollection.obj
 0001:00003840       ?release@Collection@Cm@physx@@UEAAXXZ 0000000180004840 f i CmCollection.obj
 0001:00003860       ?remove@Collection@Cm@physx@@UEAAXAEAVPxBase@3@@Z 0000000180004860 f   CmCollection.obj
 0001:000039a0       ?remove@Collection@Cm@physx@@UEAAXAEAVPxCollection@3@@Z 00000001800049a0 f   CmCollection.obj
 0001:00003b00       ?removeId@Collection@Cm@physx@@UEAAX_K@Z 0000000180004b00 f   CmCollection.obj
 0001:00003bf0       ?reserveInternal@?$HashBase@V?$Pair@$$CB_KPEAVPxBase@physx@@@shdfnd@physx@@_KU?$Hash@_K@23@UGetKey@?$HashMapBase@_KPEAVPxBase@physx@@U?$Hash@_K@shdfnd@2@VNonTrackingAllocator@42@@internal@23@VNonTrackingAllocator@23@$00@internal@shdfnd@physx@@AEAAXI@Z 0000000180004bf0 f i CmCollection.obj
 0001:00003bf0       ?reserveInternal@?$HashBase@V?$Pair@QEAVPxBase@physx@@_K@shdfnd@physx@@PEAVPxBase@3@U?$Hash@PEAVPxBase@physx@@@23@UGetKey@?$HashMapBase@PEAVPxBase@physx@@_KU?$Hash@PEAVPxBase@physx@@@shdfnd@2@VNonTrackingAllocator@42@@internal@23@VNonTrackingAllocator@23@$00@internal@shdfnd@physx@@AEAAXI@Z 0000000180004bf0 f i CmCollection.obj
 0001:00003dd0       ??0PtrTable@Cm@physx@@QEAA@W4PxEMPTY@2@@Z 0000000180004dd0 f i CmPtrTable.obj
 0001:00003df0       ??0PtrTable@Cm@physx@@QEAA@XZ 0000000180004df0 f   CmPtrTable.obj
 0001:00003e00       ??1AABBTreeBuildNode@Gu@physx@@QEAA@XZ 0000000180004e00 f   GuAABBTreeBuild.obj
 0001:00003e00       ??1Box@Gu@physx@@QEAA@XZ   0000000180004e00 f   GuBounds.obj
 0001:00003e00       ??1HeightFieldData@Gu@physx@@QEAA@XZ 0000000180004e00 f   GuBounds.obj
 0001:00003e00       ??1MaterialIndicesStruct@physx@@QEAA@XZ 0000000180004e00 f   GuGeometryUnion.obj
 0001:00003e00       ??1PtrTable@Cm@physx@@QEAA@XZ 0000000180004e00 f   CmPtrTable.obj
 0001:00003e00       ?profile@Callback@RTree@Gu@physx@@UEAAXXZ 0000000180004e00 f   GuMidphaseRTree.obj
 0001:00003e00       ?requiresObjects@ConvexMesh@Gu@physx@@UEAAXAEAVPxProcessPxBaseCallback@3@@Z 0000000180004e00 f   GuConvexMesh.obj
 0001:00003e00       ?requiresObjects@HeightField@Gu@physx@@UEAAXAEAVPxProcessPxBaseCallback@3@@Z 0000000180004e00 f   GuHeightField.obj
 0001:00003e00       ?requiresObjects@TriangleMesh@Gu@physx@@UEAAXAEAVPxProcessPxBaseCallback@3@@Z 0000000180004e00 f   GuTriangleMesh.obj
 0001:00003e00       _guard_check_icall_nop     0000000180004e00 f   MSVCRT:guard_support.obj
 0001:00003e10       ??4CmModuleUpdateLoader@Cm@physx@@QEAAAEAV012@AEBV012@@Z 0000000180004e10 f i CmWindowsModuleUpdateLoader.obj
 0001:00003e10       ??4MaterialIndicesStruct@physx@@QEAAAEAU01@AEBU01@@Z 0000000180004e10 f i GuGeometryUnion.obj
 0001:00003e10       ??4PtrTable@Cm@physx@@QEAAAEAU012@AEBU012@@Z 0000000180004e10 f i CmPtrTable.obj
 0001:00003e20       ?add@PtrTable@Cm@physx@@QEAAXPEAXAEAVPtrTableStorageManager@23@@Z 0000000180004e20 f   CmPtrTable.obj
 0001:00003ee0       ?clear@PtrTable@Cm@physx@@QEAAXAEAVPtrTableStorageManager@23@@Z 0000000180004ee0 f   CmPtrTable.obj
 0001:00003f60       ?exportExtraData@PtrTable@Cm@physx@@QEAAXAEAVPxSerializationContext@3@@Z 0000000180004f60 f   CmPtrTable.obj
 0001:00003fb0       ?find@PtrTable@Cm@physx@@QEBAIPEBX@Z 0000000180004fb0 f   CmPtrTable.obj
 0001:00003fe0       ?getBinaryMetaData@PtrTable@Cm@physx@@SAXAEAVPxOutputStream@3@@Z 0000000180004fe0 f   CmPtrTable.obj
 0001:00004190       ?getCount@PtrTable@Cm@physx@@QEBAIXZ 0000000180005190 f i CmPtrTable.obj
 0001:000041a0       ?getPtrs@PtrTable@Cm@physx@@QEAAPEAPEAXXZ 00000001800051a0 f i CmPtrTable.obj
 0001:000041a0       ?getPtrs@PtrTable@Cm@physx@@QEBAPEBQEAXXZ 00000001800051a0 f i CmPtrTable.obj
 0001:000041b0       ?importExtraData@PtrTable@Cm@physx@@QEAAXAEAVPxDeserializationContext@3@@Z 00000001800051b0 f   CmPtrTable.obj
 0001:000041e0       ?realloc@PtrTable@Cm@physx@@AEAAXIIAEAVPtrTableStorageManager@23@@Z 00000001800051e0 f   CmPtrTable.obj
 0001:00004270       ?replaceWithLast@PtrTable@Cm@physx@@QEAAXIAEAVPtrTableStorageManager@23@@Z 0000000180005270 f   CmPtrTable.obj
 0001:00004370       ??0RadixSort@Cm@physx@@QEAA@XZ 0000000180005370 f   CmRadixSort.obj
 0001:000043a0       ??1RadixSort@Cm@physx@@UEAA@XZ 00000001800053a0 f   CmRadixSort.obj
 0001:000043b0       ??_ERadixSort@Cm@physx@@UEAAPEAXI@Z 00000001800053b0 f i CmRadixSort.obj
 0001:00004440       ?GetNbHits@RadixSort@Cm@physx@@QEBAIXZ 0000000180005440 f i CmRadixSort.obj
 0001:00004450       ?GetNbTotalCalls@RadixSort@Cm@physx@@QEBAIXZ 0000000180005450 f i CmRadixSort.obj
 0001:00004460       ?GetRanks@RadixSort@Cm@physx@@QEBAPEBIXZ 0000000180005460 f i CmRadixSort.obj
 0001:00004460       ?getHeightField@HeightFieldUtil@Gu@physx@@QEBAAEBVHeightField@23@XZ 0000000180005460 f i GuCCTSweepTests.obj
 0001:00004470       ?GetRecyclable@RadixSort@Cm@physx@@QEBAPEAIXZ 0000000180005470 f i CmRadixSort.obj
 0001:00004470       ?GetValencies@BigConvexData@physx@@QEBAPEBUValency@Gu@2@XZ 0000000180005470 f i GuMetaData.obj
 0001:00004470       ?getHeightFieldGeometry@HeightFieldUtil@Gu@physx@@QEBAAEBVPxHeightFieldGeometry@3@XZ 0000000180005470 f i GuCCTSweepTests.obj
 0001:00004470       ?getPos@AABBTreeBuildNode@Gu@physx@@QEBAPEBV123@XZ 0000000180005470 f i GuAABBTreeBuild.obj
 0001:00004480       ?SetBuffers@RadixSort@Cm@physx@@QEAA_NPEAI00PEAPEAI@Z 0000000180005480 f   CmRadixSort.obj
 0001:000044c0       ?Sort@RadixSort@Cm@physx@@QEAAAEAV123@PEBIIW4RadixHint@23@@Z 00000001800054c0 f   CmRadixSort.obj
 0001:00004b70       ?Sort@RadixSort@Cm@physx@@QEAAAEAV123@PEBMI@Z 0000000180005b70 f   CmRadixSort.obj
 0001:00005310       ?invalidateRanks@RadixSort@Cm@physx@@QEAAXXZ 0000000180006310 f i CmRadixSort.obj
 0001:00005320       ??0RadixSortBuffered@Cm@physx@@QEAA@XZ 0000000180006320 f   CmRadixSortBuffered.obj
 0001:00005350       ??1RadixSortBuffered@Cm@physx@@UEAA@XZ 0000000180006350 f   CmRadixSortBuffered.obj
 0001:00005380       ??_ERadixSortBuffered@Cm@physx@@UEAAPEAXI@Z 0000000180006380 f i CmRadixSortBuffered.obj
 0001:00005450       ?CheckResize@RadixSortBuffered@Cm@physx@@AEAAXI@Z 0000000180006450 f i CmRadixSortBuffered.obj
 0001:00005490       ?Resize@RadixSortBuffered@Cm@physx@@AEAA_NI@Z 0000000180006490 f   CmRadixSortBuffered.obj
 0001:00005590       ?Sort@RadixSortBuffered@Cm@physx@@QEAAAEAV123@PEBIIW4RadixHint@23@@Z 0000000180006590 f   CmRadixSortBuffered.obj
 0001:00005630       ?Sort@RadixSortBuffered@Cm@physx@@QEAAAEAV123@PEBMI@Z 0000000180006630 f   CmRadixSortBuffered.obj
 0001:000056c0       ?reset@RadixSortBuffered@Cm@physx@@QEAAXXZ 00000001800066c0 f   CmRadixSortBuffered.obj
 0001:00005740       ??0DebugText@Cm@physx@@QEAA@$$QEAU012@@Z 0000000180006740 f i CmRenderOutput.obj
 0001:00005740       ??0DebugText@Cm@physx@@QEAA@AEBU012@@Z 0000000180006740 f i CmRenderOutput.obj
 0001:00005820       ??0DebugText@Cm@physx@@QEAA@AEBVPxVec3@2@MPEBDZZ 0000000180006820 f   CmRenderOutput.obj
 0001:00005880       ??0RenderOutput@Cm@physx@@QEAA@AEAVRenderBuffer@12@@Z 0000000180006880 f i CmRenderOutput.obj
 0001:000058d0       ??0RenderOutput@Cm@physx@@QEAA@AEBV012@@Z 00000001800068d0 f i CmRenderOutput.obj
 0001:00005970       ??4DebugText@Cm@physx@@QEAAAEAU012@$$QEAU012@@Z 0000000180006970 f i CmRenderOutput.obj
 0001:00005970       ??4DebugText@Cm@physx@@QEAAAEAU012@AEBU012@@Z 0000000180006970 f i CmRenderOutput.obj
 0001:00005aa0       ??6Cm@physx@@YAAEAVRenderOutput@01@AEAV201@AEBUDebugArc@01@@Z 0000000180006aa0 f   CmRenderOutput.obj
 0001:00005ba0       ??6Cm@physx@@YAAEAVRenderOutput@01@AEAV201@AEBUDebugArrow@01@@Z 0000000180006ba0 f   CmRenderOutput.obj
 0001:00005fa0       ??6Cm@physx@@YAAEAVRenderOutput@01@AEAV201@AEBUDebugBasis@01@@Z 0000000180006fa0 f   CmRenderOutput.obj
 0001:000060a0       ??6Cm@physx@@YAAEAVRenderOutput@01@AEAV201@AEBUDebugBox@01@@Z 00000001800070a0 f   CmRenderOutput.obj
 0001:000065a0       ??6Cm@physx@@YAAEAVRenderOutput@01@AEAV201@AEBUDebugCircle@01@@Z 00000001800075a0 f   CmRenderOutput.obj
 0001:00006680       ??6RenderOutput@Cm@physx@@QEAAAEAV012@AEBUDebugText@12@@Z 0000000180007680 f   CmRenderOutput.obj
 0001:00006880       ??6RenderOutput@Cm@physx@@QEAAAEAV012@AEBVPxMat44@2@@Z 0000000180007880 f   CmRenderOutput.obj
 0001:000068f0       ??6RenderOutput@Cm@physx@@QEAAAEAV012@AEBVPxTransform@2@@Z 00000001800078f0 f   CmRenderOutput.obj
 0001:00006a70       ??6RenderOutput@Cm@physx@@QEAAAEAV012@I@Z 0000000180007a70 f   CmRenderOutput.obj
 0001:00006a80       ??6RenderOutput@Cm@physx@@QEAAAEAV012@VPxVec3@2@@Z 0000000180007a80 f   CmRenderOutput.obj
 0001:00006fd0       ??6RenderOutput@Cm@physx@@QEAAAEAV012@W4Primitive@012@@Z 0000000180007fd0 f   CmRenderOutput.obj
 0001:00006fe0       ?copy@?$Array@UPxDebugLine@physx@@VNamedAllocator@shdfnd@2@@shdfnd@physx@@KAXPEAUPxDebugLine@3@0PEBU43@@Z 0000000180007fe0 f i CmRenderOutput.obj
 0001:00007190       ?copy@?$Array@UPxDebugPoint@physx@@VNamedAllocator@shdfnd@2@@shdfnd@physx@@KAXPEAUPxDebugPoint@3@0PEBU43@@Z 0000000180008190 f i CmRenderOutput.obj
 0001:00007290       ?copy@?$Array@UPxDebugText@physx@@VNamedAllocator@shdfnd@2@@shdfnd@physx@@KAXPEAUPxDebugText@3@0PEBU43@@Z 0000000180008290 f i CmRenderOutput.obj
 0001:00007400       ?copy@?$Array@UPxDebugTriangle@physx@@VNamedAllocator@shdfnd@2@@shdfnd@physx@@KAXPEAUPxDebugTriangle@3@0PEBU43@@Z 0000000180008400 f i CmRenderOutput.obj
 0001:00007600       ?growAndPushBack@?$Array@DVNamedAllocator@shdfnd@physx@@@shdfnd@physx@@IEAAAEADAEBD@Z 0000000180008600 f i CmRenderOutput.obj
 0001:000076e0       ?growAndPushBack@?$Array@UPxDebugLine@physx@@VNamedAllocator@shdfnd@2@@shdfnd@physx@@IEAAAEAUPxDebugLine@3@AEBU43@@Z 00000001800086e0 f i CmRenderOutput.obj
 0001:000077f0       ?growAndPushBack@?$Array@UPxDebugPoint@physx@@VNamedAllocator@shdfnd@2@@shdfnd@physx@@IEAAAEAUPxDebugPoint@3@AEBU43@@Z 00000001800087f0 f i CmRenderOutput.obj
 0001:000078e0       ?growAndPushBack@?$Array@UPxDebugText@physx@@VNamedAllocator@shdfnd@2@@shdfnd@physx@@IEAAAEAUPxDebugText@3@AEBU43@@Z 00000001800088e0 f i CmRenderOutput.obj
 0001:000079e0       ?growAndPushBack@?$Array@UPxDebugTriangle@physx@@VNamedAllocator@shdfnd@2@@shdfnd@physx@@IEAAAEAUPxDebugTriangle@3@AEBU43@@Z 00000001800089e0 f i CmRenderOutput.obj
 0001:00007b20       ?outputCapsule@RenderOutput@Cm@physx@@QEAAAEAV123@MMAEBVPxMat44@3@@Z 0000000180008b20 f   CmRenderOutput.obj
 0001:000085e0       ?outputSegment@RenderOutput@Cm@physx@@QEAAXAEBVPxVec3@3@0@Z 00000001800095e0 f i CmRenderOutput.obj
 0001:000086a0       ?recreate@?$Array@DVNamedAllocator@shdfnd@physx@@@shdfnd@physx@@IEAAXI@Z 00000001800096a0 f i CmRenderOutput.obj
 0001:00008750       ?recreate@?$Array@UPxDebugLine@physx@@VNamedAllocator@shdfnd@2@@shdfnd@physx@@IEAAXI@Z 0000000180009750 f i CmRenderOutput.obj
 0001:000087f0       ?reserveSegments@RenderOutput@Cm@physx@@QEAAPEAUPxDebugLine@3@I@Z 00000001800097f0 f i CmRenderOutput.obj
 0001:00008850       ??DPxQuat@physx@@QEBA?AV01@AEBV01@@Z 0000000180009850 f i CmVisualization.obj
 0001:00008990       ?visualizeAngularLimit@Cm@physx@@YAXAEAVRenderOutput@12@MAEBVPxTransform@2@MM_N@Z 0000000180009990 f   CmVisualization.obj
 0001:00008b50       ?visualizeDoubleCone@Cm@physx@@YAXAEAVRenderOutput@12@MAEBVPxTransform@2@M_N@Z 0000000180009b50 f   CmVisualization.obj
 0001:00008db0       ?visualizeJointFrames@Cm@physx@@YAXAEAVRenderOutput@12@MAEBVPxTransform@2@1@Z 0000000180009db0 f   CmVisualization.obj
 0001:00008e70       ?visualizeLimitCone@Cm@physx@@YAXAEAVRenderOutput@12@MAEBVPxTransform@2@MM_N@Z 0000000180009e70 f   CmVisualization.obj
 0001:00009100       ?visualizeLinearLimit@Cm@physx@@YAXAEAVRenderOutput@12@MAEBVPxTransform@2@1M_N@Z 000000018000a100 f   CmVisualization.obj
 0001:00009380       ??0CmModuleUpdateLoader@Cm@physx@@QEAA@PEBD@Z 000000018000a380 f   CmWindowsModuleUpdateLoader.obj
 0001:000093c0       ??1CmModuleUpdateLoader@Cm@physx@@QEAA@XZ 000000018000a3c0 f   CmWindowsModuleUpdateLoader.obj
 0001:000093f0       ?LoadModule@CmModuleUpdateLoader@Cm@physx@@QEAAPEAUHINSTANCE__@@PEBD0@Z 000000018000a3f0 f   CmWindowsModuleUpdateLoader.obj
 0001:00009410       ?commonDelayHook@@YAP6A_JXZIPEAUDelayLoadInfo@@@Z 000000018000a410 f   CmWindowsDelayLoadHook.obj
 0001:000094f0       PxSetPhysXCommonDelayLoadHook 000000018000a4f0 f   CmWindowsDelayLoadHook.obj
 0001:00009500       ??0Box@Gu@physx@@QEAA@AEBV012@@Z 000000018000a500 f i GuBounds.obj
 0001:00009500       ??4Box@Gu@physx@@QEAAAEBV012@AEBV012@@Z 000000018000a500 f i GuBounds.obj
 0001:00009560       ??0Box@Gu@physx@@QEAA@AEBVPxVec3@2@0AEBVPxMat33@2@@Z 000000018000a560 f i GuBounds.obj
 0001:000095d0       ??0AABBTreeBuildNode@Gu@physx@@QEAA@XZ 000000018000a5d0 f i GuAABBTreeBuild.obj
 0001:000095d0       ??0BigConvexData@physx@@QEAA@W4PxEMPTY@1@@Z 000000018000a5d0 f i GuMetaData.obj
 0001:000095d0       ??0Box@Gu@physx@@QEAA@XZ   000000018000a5d0 f i GuBounds.obj
 0001:000095d0       ??0GeometryUnion@Gu@physx@@QEAA@W4PxEMPTY@2@@Z 000000018000a5d0 f i GuGeometryUnion.obj
 0001:000095d0       ??0HeightFieldData@Gu@physx@@QEAA@W4PxEMPTY@2@@Z 000000018000a5d0 f i GuBounds.obj
 0001:000095d0       ??0MaterialIndicesStruct@physx@@QEAA@W4PxEMPTY@1@@Z 000000018000a5d0 f i GuGeometryUnion.obj
 0001:000095d0       ?getAABB@AABBTreeBuildNode@Gu@physx@@QEBAAEBVPxBounds3@3@XZ 000000018000a5d0 f i GuAABBTreeBuild.obj
 0001:000095d0       ?getGeometry@GeometryUnion@Gu@physx@@QEBAAEBVPxGeometry@3@XZ 000000018000a5d0 f i GuGeometryUnion.obj
 0001:000095d0       ?getPaddedBounds@HeightFieldData@Gu@physx@@QEBAAEBVCenterExtentsPadded@23@XZ 000000018000a5d0 f i GuBounds.obj
 0001:000095e0       ??0HeightFieldData@Gu@physx@@QEAA@$$QEAU012@@Z 000000018000a5e0 f i GuBounds.obj
 0001:000095e0       ??0HeightFieldData@Gu@physx@@QEAA@AEBU012@@Z 000000018000a5e0 f i GuBounds.obj
 0001:000095e0       ??4HeightFieldData@Gu@physx@@QEAAAEAU012@$$QEAU012@@Z 000000018000a5e0 f i GuBounds.obj
 0001:000095e0       ??4HeightFieldData@Gu@physx@@QEAAAEAU012@AEBU012@@Z 000000018000a5e0 f i GuBounds.obj
 0001:00009640       ??0HeightFieldData@Gu@physx@@QEAA@XZ 000000018000a640 f i GuBounds.obj
 0001:00009650       ??0PxQuat@physx@@QEAA@AEBVPxMat33@1@@Z 000000018000a650 f i GuBounds.obj
 0001:00009850       ??0ShapeData@Gu@physx@@QEAA@AEBVPxGeometry@2@AEBVPxTransform@2@M@Z 000000018000a850 f   GuBounds.obj
 0001:00009db0       ??1PxConvexMesh@physx@@MEAA@XZ 000000018000adb0 f i GuBounds.obj
 0001:00009db0       ??1PxHeightField@physx@@MEAA@XZ 000000018000adb0 f i GuBounds.obj
 0001:00009dc0       ??_EPxBVHStructure@physx@@MEAAPEAXI@Z 000000018000adc0 f i GuBVHStructure.obj
 0001:00009dc0       ??_EPxBase@physx@@MEAAPEAXI@Z 000000018000adc0 f i GuBounds.obj
 0001:00009dc0       ??_EPxTriangleMesh@physx@@MEAAPEAXI@Z 000000018000adc0 f i GuTriangleMesh.obj
 0001:00009dc0       ??_GPxBVHStructure@physx@@MEAAPEAXI@Z 000000018000adc0 f i GuBVHStructure.obj
 0001:00009dc0       ??_GPxBase@physx@@MEAAPEAXI@Z 000000018000adc0 f i GuBounds.obj
 0001:00009dc0       ??_GPxTriangleMesh@physx@@MEAAPEAXI@Z 000000018000adc0 f i GuTriangleMesh.obj
 0001:00009df0       ??_H@YAXPEAX_K1P6APEAX0@Z@Z 000000018000adf0 f i GuBounds.obj
 0001:00009e40       ?computeAABBExtent@Box@Gu@physx@@QEBA?AVPxVec3@3@XZ 000000018000ae40 f i GuBounds.obj
 0001:00009f00       ?computeBounds@Gu@physx@@YAXAEAVPxBounds3@2@AEBVPxGeometry@2@AEBVPxTransform@2@MPEIBVCenterExtentsPadded@12@M@Z 000000018000af00 f   GuBounds.obj
 0001:0000a7e0       ?computeBoundsWithCCDThreshold@Gu@physx@@YAMAEAVVec3p@12@0AEBVPxGeometry@2@AEBVPxTransform@2@PEIBVCenterExtentsPadded@12@@Z 000000018000b7e0 f   GuBounds.obj
 0001:0000a9b0       ?computeBoxPoints@Box@Gu@physx@@QEBAXPEIAVPxVec3@3@@Z 000000018000b9b0 f i GuBounds.obj
 0001:0000b970       ?getConcreteTypeName@PxConvexMesh@physx@@UEBAPEBDXZ 000000018000c970 f i GuBounds.obj
 0001:0000b980       ?getConcreteTypeName@PxHeightField@physx@@UEBAPEBDXZ 000000018000c980 f i GuBounds.obj
 0001:0000b990       ?getConvexEdgeThreshold@HeightField@Gu@physx@@UEBAMXZ 000000018000c990 f i GuBounds.obj
 0001:0000b9a0       ?getFlags@HeightField@Gu@physx@@UEBA?AV?$PxFlags@W4Enum@PxHeightFieldFlag@physx@@G@3@XZ 000000018000c9a0 f i GuBounds.obj
 0001:0000b9b0       ?getFormat@HeightField@Gu@physx@@UEBA?AW4Enum@PxHeightFieldFormat@3@XZ 000000018000c9b0 f i GuBounds.obj
 0001:0000b9c0       ?getHeight@HeightField@Gu@physx@@UEBAMMM@Z 000000018000c9c0 f i GuBounds.obj
 0001:0000ba00       ?getHeightInternal2@HeightField@Gu@physx@@QEBAMIMM@Z 000000018000ca00 f i GuBounds.obj
 0001:0000bb70       ?getIndexBuffer@ConvexMesh@Gu@physx@@UEBAPEBEXZ 000000018000cb70 f i GuBounds.obj
 0001:0000bbb0       ?getNbPolygons@ConvexMesh@Gu@physx@@UEBAIXZ 000000018000cbb0 f i GuBounds.obj
 0001:0000bbc0       ?getNbRows@HeightField@Gu@physx@@UEBAIXZ 000000018000cbc0 f i GuBounds.obj
 0001:0000bbd0       ?getNbVertices@ConvexMesh@Gu@physx@@UEBAIXZ 000000018000cbd0 f i GuBounds.obj
 0001:0000bbe0       ?getSample@HeightField@Gu@physx@@UEBAAEBUPxHeightFieldSample@3@II@Z 000000018000cbe0 f i GuBounds.obj
 0001:0000bbf0       ?getSampleStride@HeightField@Gu@physx@@UEBAIXZ 000000018000cbf0 f i GuBounds.obj
 0001:0000bc00       ?getTimestamp@HeightField@Gu@physx@@UEBAIXZ 000000018000cc00 f i GuBounds.obj
 0001:0000bc10       ?getTransform@Box@Gu@physx@@QEBA?AVPxTransform@3@XZ 000000018000cc10 f i GuBounds.obj
 0001:0000bc70       ?getTriangleMaterialIndex@HeightField@Gu@physx@@UEBAGI@Z 000000018000cc70 f i GuBounds.obj
 0001:0000bca0       ?getTriangleNormal@HeightField@Gu@physx@@UEBA?AVPxVec3@3@I@Z 000000018000cca0 f i GuBounds.obj
 0001:0000bcc0       ?getTriangleNormalInternal@HeightField@Gu@physx@@QEBA?AVPxVec3@3@I@Z 000000018000ccc0 f i GuBounds.obj
 0001:0000be10       ?getVertices@ConvexMesh@Gu@physx@@UEBAPEBVPxVec3@3@XZ 000000018000ce10 f i GuBounds.obj
 0001:0000be30       ?isKindOf@PxBase@physx@@MEBA_NPEBD@Z 000000018000ce30 f i GuBounds.obj
 0001:0000be60       ?isKindOf@PxConvexMesh@physx@@MEBA_NPEBD@Z 000000018000ce60 f i GuBounds.obj
 0001:0000beb0       ?isKindOf@PxHeightField@physx@@MEBA_NPEBD@Z 000000018000ceb0 f i GuBounds.obj
 0001:0000bf00       ?isReleasable@PxBase@physx@@UEBA_NXZ 000000018000cf00 f i GuBounds.obj
 0001:0000bf10       ?isValid@Box@Gu@physx@@QEBA_NXZ 000000018000cf10 f i GuBounds.obj
 0001:0000bf30       ?preExportDataReset@ConvexMesh@Gu@physx@@QEAAXXZ 000000018000cf30 f i GuBounds.obj
 0001:0000bf30       ?preExportDataReset@HeightField@Gu@physx@@QEAAXXZ 000000018000cf30 f i GuBounds.obj
 0001:0000bf40       ?rotate@Box@Gu@physx@@QEBA?AVPxVec3@3@AEBV43@@Z 000000018000cf40 f i GuBounds.obj
 0001:0000bfd0       ?rotateInv@Box@Gu@physx@@QEBA?AVPxVec3@3@AEBV43@@Z 000000018000cfd0 f i GuBounds.obj
 0001:0000c060       ?setAxes@Box@Gu@physx@@QEAAXAEBVPxVec3@3@00@Z 000000018000d060 f i GuBounds.obj
 0001:0000c0a0       ?setEmpty@Box@Gu@physx@@QEAAXXZ 000000018000d0a0 f i GuBounds.obj
 0001:0000c0e0       ?transform@Box@Gu@physx@@QEBA?AVPxVec3@3@AEBV43@@Z 000000018000d0e0 f i GuBounds.obj
 0001:0000c180       ?computeOBBPoints@Gu@physx@@YAXPEIAVPxVec3@2@AEBV32@1111@Z 000000018000d180 f   GuBox.obj
 0001:0000c400       ?create@Box@Gu@physx@@QEAAXAEBVCapsule@23@@Z 000000018000d400 f   GuBox.obj
 0001:0000c630       ?getBoxEdges@Gu@physx@@YAPEBEXZ 000000018000d630 f   GuBox.obj
 0001:0000c640       ?computeBasis@shdfnd@physx@@YAXAEBVPxVec3@2@0AEAV32@11@Z 000000018000d640 f i GuCapsule.obj
 0001:0000c7e0       ?computeBoxAroundCapsule@Gu@physx@@YAXAEBVCapsule@12@AEAVBox@12@@Z 000000018000d7e0 f   GuCapsule.obj
 0001:0000c930       ??0HeightFieldTraceUtil@Gu@physx@@QEAA@AEBVPxHeightFieldGeometry@2@@Z 000000018000d930 f i GuCCTSweepTests.obj
 0001:0000c930       ??0HeightFieldUtil@Gu@physx@@QEAA@AEBVPxHeightFieldGeometry@2@@Z 000000018000d930 f i GuCCTSweepTests.obj
 0001:0000c970       ??4HeightFieldTraceUtil@Gu@physx@@QEAAAEAV012@$$QEAV012@@Z 000000018000d970 f i GuCCTSweepTests.obj
 0001:0000c970       ??4HeightFieldTraceUtil@Gu@physx@@QEAAAEAV012@AEBV012@@Z 000000018000d970 f i GuCCTSweepTests.obj
 0001:0000c970       ??4HeightFieldUtil@Gu@physx@@QEAAAEAV012@AEBV012@@Z 000000018000d970 f i GuCCTSweepTests.obj
 0001:0000c990       ??4HeightFieldUtil@Gu@physx@@QEAAAEAV012@$$QEAV012@@Z 000000018000d990 f i GuCCTSweepTests.obj
 0001:0000c9c0       ??_E?$EntityReport@I@Gu@physx@@UEAAPEAXI@Z 000000018000d9c0 f i GuCCTSweepTests.obj
 0001:0000c9c0       ??_G?$EntityReport@I@Gu@physx@@UEAAPEAXI@Z 000000018000d9c0 f i GuCCTSweepTests.obj
 0001:0000ca20       ?ceilUp@HeightFieldTraceUtil@Gu@physx@@SAMM@Z 000000018000da20 f i GuCCTSweepTests.obj
 0001:0000ca60       ?computePointNormal@HeightFieldUtil@Gu@physx@@QEBA?AVPxVec3@3@IAEBV43@AEBVPxTransform@3@MMMMAEAM@Z 000000018000da60 f i GuCCTSweepTests.obj
 0001:0000ce80       ?floorDown@HeightFieldTraceUtil@Gu@physx@@SAMM@Z 000000018000de80 f i GuCCTSweepTests.obj
 0001:0000cec0       ?getFeatureIndex@HeightFieldUtil@Gu@physx@@SAII@Z 000000018000dec0 f i GuCCTSweepTests.obj
 0001:0000ced0       ?getFeatureType@HeightFieldUtil@Gu@physx@@SA?AW4Feature@123@I@Z 000000018000ded0 f i GuCCTSweepTests.obj
 0001:0000cee0       ?getHeightAtShapePoint@HeightFieldUtil@Gu@physx@@QEBAMMM@Z 000000018000dee0 f i GuCCTSweepTests.obj
 0001:0000cf40       ?getNormalAtShapePoint@HeightFieldUtil@Gu@physx@@QEBA?AVPxVec3@3@MM@Z 000000018000df40 f i GuCCTSweepTests.obj
 0001:0000d000       ?getNormal_2@HeightField@Gu@physx@@QEBA?AVPxVec3@3@IMMMMM@Z 000000018000e000 f i GuCCTSweepTests.obj
 0001:0000d120       ?getOneOverColumnScale@HeightFieldUtil@Gu@physx@@QEBAMXZ 000000018000e120 f i GuCCTSweepTests.obj
 0001:0000d130       ?getOneOverHeightScale@HeightFieldUtil@Gu@physx@@QEBAMXZ 000000018000e130 f i GuCCTSweepTests.obj
 0001:0000d140       ?getOneOverRowScale@HeightFieldUtil@Gu@physx@@QEBAMXZ 000000018000e140 f i GuCCTSweepTests.obj
 0001:0000d150       ?getVertexNormal@HeightFieldUtil@Gu@physx@@QEBA?AVPxVec3@3@I@Z 000000018000e150 f i GuCCTSweepTests.obj
 0001:0000d180       ?hf2shapen@HeightFieldUtil@Gu@physx@@QEBA?AVPxVec3@3@AEBV43@@Z 000000018000e180 f i GuCCTSweepTests.obj
 0001:0000d180       ?shape2hfp@HeightFieldUtil@Gu@physx@@QEBA?AVPxVec3@3@AEBV43@@Z 000000018000e180 f i GuCCTSweepTests.obj
 0001:0000d1c0       ?hf2shapep@HeightFieldUtil@Gu@physx@@QEBA?AVPxVec3@3@AEBV43@@Z 000000018000e1c0 f i GuCCTSweepTests.obj
 0001:0000d200       ?hf2worldn@HeightFieldUtil@Gu@physx@@QEBA?AVPxVec3@3@AEBVPxTransform@3@AEBV43@@Z 000000018000e200 f i GuCCTSweepTests.obj
 0001:0000d370       ?hf2worldp@HeightFieldUtil@Gu@physx@@QEBA?AVPxVec3@3@AEBVPxTransform@3@AEBV43@@Z 000000018000e370 f i GuCCTSweepTests.obj
 0001:0000d4f0       ?isCollisionVertex@HeightFieldUtil@Gu@physx@@QEBA_NIII@Z 000000018000e4f0 f i GuCCTSweepTests.obj
 0001:0000d510       ?isQueryVertex@HeightFieldUtil@Gu@physx@@QEBA_NIII@Z 000000018000e510 f i GuCCTSweepTests.obj
 0001:0000d5d0       ?isShapePointOnHeightField@HeightFieldUtil@Gu@physx@@QEBA_NMM@Z 000000018000e5d0 f i GuCCTSweepTests.obj
 0001:0000d620       ?makeFeatureCode@HeightFieldUtil@Gu@physx@@SAIIW4Feature@123@@Z 000000018000e620 f i GuCCTSweepTests.obj
 0001:0000d7e0       ?sweepBoxTriangles_Precise@Gu@physx@@YA_NIPEBVPxTriangle@2@_NAEBVPxBoxGeometry@2@AEBVPxTransform@2@AEBVPxVec3@2@MAEAUPxSweepHit@2@PEBIMV?$PxFlags@W4Enum@PxHitFlag@physx@@G@2@@Z 000000018000e7e0 f   GuCCTSweepTests.obj
 0001:0000e590       ?sweepBox_BoxGeom_Precise@@YA_NAEBVPxGeometry@physx@@AEBVPxTransform@2@AEBVPxBoxGeometry@2@1AEBVBox@Gu@2@AEBVPxVec3@2@MAEAUPxSweepHit@2@V?$PxFlags@W4Enum@PxHitFlag@physx@@G@2@M@Z 000000018000f590 f   GuCCTSweepTests.obj
 0001:0000e750       ?sweepBox_CapsuleGeom_Precise@@YA_NAEBVPxGeometry@physx@@AEBVPxTransform@2@AEBVPxBoxGeometry@2@1AEBVBox@Gu@2@AEBVPxVec3@2@MAEAUPxSweepHit@2@V?$PxFlags@W4Enum@PxHitFlag@physx@@G@2@M@Z 000000018000f750 f   GuCCTSweepTests.obj
 0001:0000eb20       ?sweepBox_HeightFieldGeom_Precise@@YA_NAEBVPxGeometry@physx@@AEBVPxTransform@2@AEBVPxBoxGeometry@2@1AEBVBox@Gu@2@AEBVPxVec3@2@MAEAUPxSweepHit@2@V?$PxFlags@W4Enum@PxHitFlag@physx@@G@2@M@Z 000000018000fb20 f   GuCCTSweepTests.obj
 0001:0000eef0       ?sweepBox_SphereGeom_Precise@@YA_NAEBVPxGeometry@physx@@AEBVPxTransform@2@AEBVPxBoxGeometry@2@1AEBVBox@Gu@2@AEBVPxVec3@2@MAEAUPxSweepHit@2@V?$PxFlags@W4Enum@PxHitFlag@physx@@G@2@M@Z 000000018000fef0 f   GuCCTSweepTests.obj
 0001:0000f1c0       ?sweepCapsule_BoxGeom_Precise@@YA_NAEBVPxGeometry@physx@@AEBVPxTransform@2@AEBVPxCapsuleGeometry@2@1AEBVCapsule@Gu@2@AEBVPxVec3@2@MAEAUPxSweepHit@2@V?$PxFlags@W4Enum@PxHitFlag@physx@@G@2@M@Z 00000001800101c0 f   GuCCTSweepTests.obj
 0001:0000f820       ?computePenetration@PxGeometryQuery@physx@@SA_NAEAVPxVec3@2@AEAMAEBVPxGeometry@2@AEBVPxTransform@2@23@Z 0000000180010820 f   GuGeometryQuery.obj
 0001:0000f9c0       ?getWorldBounds@PxGeometryQuery@physx@@SA?AVPxBounds3@2@AEBVPxGeometry@2@AEBVPxTransform@2@M@Z 00000001800109c0 f   GuGeometryQuery.obj
 0001:0000fb20       ?isFinite@PxQuat@physx@@QEBA_NXZ 0000000180010b20 f i GuGeometryQuery.obj
 0001:0000fb90       ?isFinite@PxVec3@physx@@QEBA_NXZ 0000000180010b90 f i GuGeometryQuery.obj
 0001:0000fbf0       ?isUnit@PxQuat@physx@@QEBA_NXZ 0000000180010bf0 f i GuGeometryQuery.obj
 0001:0000fc60       ?isValid@PxGeometryQuery@physx@@SA_NAEBVPxGeometry@2@@Z 0000000180010c60 f   GuGeometryQuery.obj
 0001:0000fdf0       ?isValid@PxTransform@physx@@QEBA_NXZ 0000000180010df0 f i GuGeometryQuery.obj
 0001:0000fe60       ?overlap@PxGeometryQuery@physx@@SA_NAEBVPxGeometry@2@AEBVPxTransform@2@01@Z 0000000180010e60 f   GuGeometryQuery.obj
 0001:0000ffc0       ?pointDistance@PxGeometryQuery@physx@@SAMAEBVPxVec3@2@AEBVPxGeometry@2@AEBVPxTransform@2@PEAV32@@Z 0000000180010fc0 f   GuGeometryQuery.obj
 0001:000106f0       ?raycast@PxGeometryQuery@physx@@SAIAEBVPxVec3@2@0AEBVPxGeometry@2@AEBVPxTransform@2@MV?$PxFlags@W4Enum@PxHitFlag@physx@@G@2@IPEIAUPxRaycastHit@2@@Z 00000001800116f0 f   GuGeometryQuery.obj
 0001:00010a30       ?sweep@PxGeometryQuery@physx@@SA_NAEBVPxVec3@2@MAEBVPxGeometry@2@AEBVPxTransform@2@12AEAUPxSweepHit@2@V?$PxFlags@W4Enum@PxHitFlag@physx@@G@2@M@Z 0000000180011a30 f   GuGeometryQuery.obj
 0001:00011060       ??0GeometryUnion@Gu@physx@@QEAA@AEBVPxGeometry@2@@Z 0000000180012060 f i GuGeometryUnion.obj
 0001:00011080       ??0GeometryUnion@Gu@physx@@QEAA@XZ 0000000180012080 f i GuGeometryUnion.obj
 0001:00011090       ??0MaterialIndicesStruct@physx@@QEAA@XZ 0000000180012090 f i GuGeometryUnion.obj
 0001:000110b0       ??4GeometryUnion@Gu@physx@@QEAAAEAV012@$$QEAV012@@Z 00000001800120b0 f i GuGeometryUnion.obj
 0001:000110b0       ??4GeometryUnion@Gu@physx@@QEAAAEAV012@AEBV012@@Z 00000001800120b0 f i GuGeometryUnion.obj
 0001:000110e0       ?allocate@MaterialIndicesStruct@physx@@QEAAXG@Z 00000001800120e0 f i GuGeometryUnion.obj
 0001:00011150       ?deallocate@MaterialIndicesStruct@physx@@QEAAXXZ 0000000180012150 f i GuGeometryUnion.obj
 0001:000111a0       ?getCount@BuildStats@Gu@physx@@QEBAIXZ 00000001800121a0 f i GuAABBTreeBuild.obj
 0001:000111a0       ?getNumAxes@SeparatingAxes@Gu@physx@@QEBAIXZ 00000001800121a0 f i GuMTD.obj
 0001:000111a0       ?getType@GeometryUnion@Gu@physx@@QEBA?AW4Enum@PxGeometryType@3@XZ 00000001800121a0 f i GuGeometryUnion.obj
 0001:000111b0       ?set@GeometryUnion@Gu@physx@@QEAAXAEBVPxGeometry@3@@Z 00000001800121b0 f   GuGeometryUnion.obj
 0001:00011380       ?computeBoundsAroundVertices@Gu@physx@@YAXAEAVPxBounds3@2@IPEIBVPxVec3@2@@Z 0000000180012380 f   GuInternal.obj
 0001:00011430       ?computeBoxPoints@Gu@physx@@YAXAEBVPxBounds3@2@PEIAVPxVec3@2@@Z 0000000180012430 f   GuInternal.obj
 0001:000114d0       ?computeSweptBox@Gu@physx@@YAXAEAVBox@12@AEBVPxVec3@2@1AEBVPxMat33@2@1M@Z 00000001800124d0 f   GuInternal.obj
 0001:00011a10       ?getPlane@Gu@physx@@YA?AVPxPlane@2@AEBVPxTransform@2@@Z 0000000180012a10 f   GuInternal.obj
 0001:00011ac0       ??$?_UI@@YAPEAX_KV?$ReflectionAllocator@I@shdfnd@physx@@PEBDH@Z 0000000180012ac0 f i GuMeshFactory.obj
 0001:00011b60       ??0GuMeshFactory@physx@@QEAA@XZ 0000000180012b60 f   GuMeshFactory.obj
 0001:00011d20       ??1GuMeshFactory@physx@@MEAA@XZ 0000000180012d20 f   GuMeshFactory.obj
 0001:00011e10       ??1MeshDataBase@Gu@physx@@UEAA@XZ 0000000180012e10 f i GuMeshFactory.obj
 0001:00011f00       ??1TriangleMeshData@Gu@physx@@UEAA@XZ 0000000180012f00 f i GuMeshFactory.obj
 0001:00011fd0       ??_EGuMeshFactory@physx@@MEAAPEAXI@Z 0000000180012fd0 f i GuMeshFactory.obj
 0001:000120e0       ??_EBV4TriangleData@Gu@physx@@UEAAPEAXI@Z 00000001800130e0 f i GuMeshFactory.obj
 0001:000120e0       ??_GBV4TriangleData@Gu@physx@@UEAAPEAXI@Z 00000001800130e0 f i GuMeshFactory.obj
 0001:00012170       ??_EMeshDataBase@Gu@physx@@UEAAPEAXI@Z 0000000180013170 f i GuMeshFactory.obj
 0001:00012170       ??_GMeshDataBase@Gu@physx@@UEAAPEAXI@Z 0000000180013170 f i GuMeshFactory.obj
 0001:000121e0       ??_ERTreeTriangleData@Gu@physx@@UEAAPEAXI@Z 00000001800131e0 f i GuMeshFactory.obj
 0001:000121e0       ??_GRTreeTriangleData@Gu@physx@@UEAAPEAXI@Z 00000001800131e0 f i GuMeshFactory.obj
 0001:00012290       ??_ETriangleMeshData@Gu@physx@@UEAAPEAXI@Z 0000000180013290 f i GuMeshFactory.obj
 0001:00012290       ??_GTriangleMeshData@Gu@physx@@UEAAPEAXI@Z 0000000180013290 f i GuMeshFactory.obj
 0001:00012300       ?__global_array_delete@@YAXPEAX_K@Z 0000000180013300 f i GuMeshFactory.obj
 0001:00012310       ??_V@YAXPEAX_K@Z           0000000180013310 f i MSVCRT:delete_array_size.obj
 0001:00012310       ?__global_delete@@YAXPEAX_K@Z 0000000180013310 f i GuMeshFactory.obj
 0001:00012320       ?addBVHStructure@GuMeshFactory@physx@@QEAAXPEAVBVHStructure@Gu@2@_N@Z 0000000180013320 f   GuMeshFactory.obj
 0001:000123a0       ?addConvexMesh@GuMeshFactory@physx@@QEAAXPEAVConvexMesh@Gu@2@_N@Z 00000001800133a0 f   GuMeshFactory.obj
 0001:00012420       ?addFactoryListener@GuMeshFactory@physx@@QEAAXAEAVGuMeshFactoryListener@2@@Z 0000000180013420 f   GuMeshFactory.obj
 0001:00012490       ?addHeightField@GuMeshFactory@physx@@QEAAXPEAVHeightField@Gu@2@_N@Z 0000000180013490 f   GuMeshFactory.obj
 0001:00012510       ?addTriangleMesh@GuMeshFactory@physx@@QEAAXPEAVTriangleMesh@Gu@2@_N@Z 0000000180013510 f   GuMeshFactory.obj
 0001:00012590       ?create@?$HashBase@PEAVBVHStructure@Gu@physx@@PEAV123@U?$Hash@PEAVBVHStructure@Gu@physx@@@shdfnd@3@UGetKey@?$HashSetBase@PEAVBVHStructure@Gu@physx@@U?$Hash@PEAVBVHStructure@Gu@physx@@@shdfnd@3@VNonTrackingAllocator@53@$00@internal@53@VNonTrackingAllocator@53@$00@internal@shdfnd@physx@@QEAAPEAPEAVBVHStructure@Gu@4@AEBQEAV564@AEA_N@Z 0000000180013590 f i GuMeshFactory.obj
 0001:00012590       ?create@?$HashBase@PEAVConvexMesh@Gu@physx@@PEAV123@U?$Hash@PEAVConvexMesh@Gu@physx@@@shdfnd@3@UGetKey@?$HashSetBase@PEAVConvexMesh@Gu@physx@@U?$Hash@PEAVConvexMesh@Gu@physx@@@shdfnd@3@VNonTrackingAllocator@53@$00@internal@53@VNonTrackingAllocator@53@$00@internal@shdfnd@physx@@QEAAPEAPEAVConvexMesh@Gu@4@AEBQEAV564@AEA_N@Z 0000000180013590 f i GuMeshFactory.obj
 0001:00012590       ?create@?$HashBase@PEAVHeightField@Gu@physx@@PEAV123@U?$Hash@PEAVHeightField@Gu@physx@@@shdfnd@3@UGetKey@?$HashSetBase@PEAVHeightField@Gu@physx@@U?$Hash@PEAVHeightField@Gu@physx@@@shdfnd@3@VNonTrackingAllocator@53@$00@internal@53@VNonTrackingAllocator@53@$00@internal@shdfnd@physx@@QEAAPEAPEAVHeightField@Gu@4@AEBQEAV564@AEA_N@Z 0000000180013590 f i GuMeshFactory.obj
 0001:00012590       ?create@?$HashBase@PEAVTriangleMesh@Gu@physx@@PEAV123@U?$Hash@PEAVTriangleMesh@Gu@physx@@@shdfnd@3@UGetKey@?$HashSetBase@PEAVTriangleMesh@Gu@physx@@U?$Hash@PEAVTriangleMesh@Gu@physx@@@shdfnd@3@VNonTrackingAllocator@53@$00@internal@53@VNonTrackingAllocator@53@$00@internal@shdfnd@physx@@QEAAPEAPEAVTriangleMesh@Gu@4@AEBQEAV564@AEA_N@Z 0000000180013590 f i GuMeshFactory.obj
 0001:00012720       ?createBVHStructure@GuMeshFactory@physx@@IEAAPEAVPxBVHStructure@2@AEAUBVHStructureData@Gu@2@@Z 0000000180013720 f   GuMeshFactory.obj
 0001:00012830       ?createBVHStructure@GuMeshFactory@physx@@QEAAPEAVPxBVHStructure@2@AEAVPxInputStream@2@@Z 0000000180013830 f   GuMeshFactory.obj
 0001:00012970       ?createBVHStructure@GuMeshFactory@physx@@QEAAPEAVPxBVHStructure@2@PEAX@Z 0000000180013970 f   GuMeshFactory.obj
 0001:00012980       ?createConvexMesh@GuMeshFactory@physx@@IEAAPEAVPxConvexMesh@2@AEAUConvexHullInitData@Gu@2@@Z 0000000180013980 f   GuMeshFactory.obj
 0001:00012ab0       ?createConvexMesh@GuMeshFactory@physx@@QEAAPEAVPxConvexMesh@2@AEAVPxInputStream@2@@Z 0000000180013ab0 f   GuMeshFactory.obj
 0001:00012c10       ?createConvexMesh@GuMeshFactory@physx@@QEAAPEAVPxConvexMesh@2@PEAX@Z 0000000180013c10 f   GuMeshFactory.obj
 0001:00012c20       ?createHeightField@GuMeshFactory@physx@@QEAAPEAVPxHeightField@2@AEAVPxInputStream@2@@Z 0000000180013c20 f   GuMeshFactory.obj
 0001:00012d70       ?createHeightField@GuMeshFactory@physx@@QEAAPEAVPxHeightField@2@PEAX@Z 0000000180013d70 f   GuMeshFactory.obj
 0001:00012ea0       ?createTriangleMesh@GuMeshFactory@physx@@IEAAPEAVPxTriangleMesh@2@AEAVTriangleMeshData@Gu@2@@Z 0000000180013ea0 f   GuMeshFactory.obj
 0001:000130c0       ?createTriangleMesh@GuMeshFactory@physx@@QEAAPEAVPxTriangleMesh@2@AEAVPxInputStream@2@@Z 00000001800140c0 f   GuMeshFactory.obj
 0001:00013120       ?createTriangleMesh@GuMeshFactory@physx@@QEAAPEAVPxTriangleMesh@2@PEAX@Z 0000000180014120 f   GuMeshFactory.obj
 0001:00013130       ?erase@?$HashBase@PEAVBVHStructure@Gu@physx@@PEAV123@U?$Hash@PEAVBVHStructure@Gu@physx@@@shdfnd@3@UGetKey@?$HashSetBase@PEAVBVHStructure@Gu@physx@@U?$Hash@PEAVBVHStructure@Gu@physx@@@shdfnd@3@VNonTrackingAllocator@53@$00@internal@53@VNonTrackingAllocator@53@$00@internal@shdfnd@physx@@QEAA_NAEBQEAVBVHStructure@Gu@4@@Z 0000000180014130 f i GuMeshFactory.obj
 0001:00013130       ?erase@?$HashBase@PEAVConvexMesh@Gu@physx@@PEAV123@U?$Hash@PEAVConvexMesh@Gu@physx@@@shdfnd@3@UGetKey@?$HashSetBase@PEAVConvexMesh@Gu@physx@@U?$Hash@PEAVConvexMesh@Gu@physx@@@shdfnd@3@VNonTrackingAllocator@53@$00@internal@53@VNonTrackingAllocator@53@$00@internal@shdfnd@physx@@QEAA_NAEBQEAVConvexMesh@Gu@4@@Z 0000000180014130 f i GuMeshFactory.obj
 0001:00013130       ?erase@?$HashBase@PEAVHeightField@Gu@physx@@PEAV123@U?$Hash@PEAVHeightField@Gu@physx@@@shdfnd@3@UGetKey@?$HashSetBase@PEAVHeightField@Gu@physx@@U?$Hash@PEAVHeightField@Gu@physx@@@shdfnd@3@VNonTrackingAllocator@53@$00@internal@53@VNonTrackingAllocator@53@$00@internal@shdfnd@physx@@QEAA_NAEBQEAVHeightField@Gu@4@@Z 0000000180014130 f i GuMeshFactory.obj
 0001:00013130       ?erase@?$HashBase@PEAVTriangleMesh@Gu@physx@@PEAV123@U?$Hash@PEAVTriangleMesh@Gu@physx@@@shdfnd@3@UGetKey@?$HashSetBase@PEAVTriangleMesh@Gu@physx@@U?$Hash@PEAVTriangleMesh@Gu@physx@@@shdfnd@3@VNonTrackingAllocator@53@$00@internal@53@VNonTrackingAllocator@53@$00@internal@shdfnd@physx@@QEAA_NAEBQEAVTriangleMesh@Gu@4@@Z 0000000180014130 f i GuMeshFactory.obj
 0001:000132b0       ?getBVHStructures@GuMeshFactory@physx@@QEBAIPEAPEAVPxBVHStructure@2@II@Z 00000001800142b0 f   GuMeshFactory.obj
 0001:00013350       ?getConvexMeshes@GuMeshFactory@physx@@QEBAIPEAPEAVPxConvexMesh@2@II@Z 0000000180014350 f   GuMeshFactory.obj
 0001:000133e0       ?getHeightFields@GuMeshFactory@physx@@QEBAIPEAPEAVPxHeightField@2@II@Z 00000001800143e0 f   GuMeshFactory.obj
 0001:00013480       ?getNbBVHStructures@GuMeshFactory@physx@@QEBAIXZ 0000000180014480 f   GuMeshFactory.obj
 0001:000134c0       ?getNbConvexMeshes@GuMeshFactory@physx@@QEBAIXZ 00000001800144c0 f   GuMeshFactory.obj
 0001:00013500       ?getNbHeightFields@GuMeshFactory@physx@@QEBAIXZ 0000000180014500 f   GuMeshFactory.obj
 0001:00013540       ?getNbTriangleMeshes@GuMeshFactory@physx@@QEBAIXZ 0000000180014540 f   GuMeshFactory.obj
 0001:00013580       ?getTriangleMeshes@GuMeshFactory@physx@@QEBAIPEAPEAVPxTriangleMesh@2@II@Z 0000000180014580 f   GuMeshFactory.obj
 0001:00013610       ?growAndPushBack@?$Array@PEAVGuMeshFactoryListener@physx@@VNamedAllocator@shdfnd@2@@shdfnd@physx@@IEAAAEAPEAVGuMeshFactoryListener@3@AEBQEAV43@@Z 0000000180014610 f i GuMeshFactory.obj
 0001:00014570       ?notifyFactoryListener@GuMeshFactory@physx@@QEAAXPEBVPxBase@2@G@Z 0000000180015570 f   GuMeshFactory.obj
 0001:000145e0       ?release@GuMeshFactory@physx@@QEAAXXZ 00000001800155e0 f   GuMeshFactory.obj
 0001:00014690       ?removeBVHStructure@GuMeshFactory@physx@@QEAA_NAEAVPxBVHStructure@2@@Z 0000000180015690 f   GuMeshFactory.obj
 0001:000146e0       ?removeConvexMesh@GuMeshFactory@physx@@QEAA_NAEAVPxConvexMesh@2@@Z 00000001800156e0 f   GuMeshFactory.obj
 0001:00014730       ?removeFactoryListener@GuMeshFactory@physx@@QEAAXAEAVGuMeshFactoryListener@2@@Z 0000000180015730 f   GuMeshFactory.obj
 0001:000147c0       ?removeHeightField@GuMeshFactory@physx@@QEAA_NAEAVPxHeightField@2@@Z 00000001800157c0 f   GuMeshFactory.obj
 0001:00014810       ?removeTriangleMesh@GuMeshFactory@physx@@QEAA_NAEAVPxTriangleMesh@2@@Z 0000000180015810 f   GuMeshFactory.obj
 0001:00014860       ?reserveInternal@?$HashBase@PEAVBVHStructure@Gu@physx@@PEAV123@U?$Hash@PEAVBVHStructure@Gu@physx@@@shdfnd@3@UGetKey@?$HashSetBase@PEAVBVHStructure@Gu@physx@@U?$Hash@PEAVBVHStructure@Gu@physx@@@shdfnd@3@VNonTrackingAllocator@53@$00@internal@53@VNonTrackingAllocator@53@$00@internal@shdfnd@physx@@AEAAXI@Z 0000000180015860 f i GuMeshFactory.obj
 0001:00014860       ?reserveInternal@?$HashBase@PEAVConvexMesh@Gu@physx@@PEAV123@U?$Hash@PEAVConvexMesh@Gu@physx@@@shdfnd@3@UGetKey@?$HashSetBase@PEAVConvexMesh@Gu@physx@@U?$Hash@PEAVConvexMesh@Gu@physx@@@shdfnd@3@VNonTrackingAllocator@53@$00@internal@53@VNonTrackingAllocator@53@$00@internal@shdfnd@physx@@AEAAXI@Z 0000000180015860 f i GuMeshFactory.obj
 0001:00014860       ?reserveInternal@?$HashBase@PEAVHeightField@Gu@physx@@PEAV123@U?$Hash@PEAVHeightField@Gu@physx@@@shdfnd@3@UGetKey@?$HashSetBase@PEAVHeightField@Gu@physx@@U?$Hash@PEAVHeightField@Gu@physx@@@shdfnd@3@VNonTrackingAllocator@53@$00@internal@53@VNonTrackingAllocator@53@$00@internal@shdfnd@physx@@AEAAXI@Z 0000000180015860 f i GuMeshFactory.obj
 0001:00014860       ?reserveInternal@?$HashBase@PEAVTriangleMesh@Gu@physx@@PEAV123@U?$Hash@PEAVTriangleMesh@Gu@physx@@@shdfnd@3@UGetKey@?$HashSetBase@PEAVTriangleMesh@Gu@physx@@U?$Hash@PEAVTriangleMesh@Gu@physx@@@shdfnd@3@VNonTrackingAllocator@53@$00@internal@53@VNonTrackingAllocator@53@$00@internal@shdfnd@physx@@AEAAXI@Z 0000000180015860 f i GuMeshFactory.obj
 0001:00014a30       ??4BigConvexData@physx@@QEAAAEAV01@AEBV01@@Z 0000000180015a30 f i GuMetaData.obj
 0001:00014a50       ?GetAdjacentVerts@BigConvexData@physx@@QEBAPEBEXZ 0000000180015a50 f i GuMetaData.obj
 0001:00014a60       ?GetNbNeighbors@BigConvexData@physx@@QEBAGI@Z 0000000180015a60 f i GuMetaData.obj
 0001:00014a60       ?GetValency@BigConvexData@physx@@QEBAGI@Z 0000000180015a60 f i GuMetaData.obj
 0001:00014a70       ?GetNbSamples@BigConvexData@physx@@QEBAIXZ 0000000180015a70 f i GuMetaData.obj
 0001:00014a80       ?GetNbVerts@BigConvexData@physx@@QEBAIXZ 0000000180015a80 f i GuMetaData.obj
 0001:00014a90       ?GetNeighbors@BigConvexData@physx@@QEBAPEBEI@Z 0000000180015a90 f i GuMetaData.obj
 0001:00014aa0       ?GetOffset@BigConvexData@physx@@QEBAGI@Z 0000000180015aa0 f i GuMetaData.obj
 0001:00014ab0       ?GetSubdiv@BigConvexData@physx@@QEBAIXZ 0000000180015ab0 f i GuMetaData.obj
 0001:00014ac0       ?getBinaryMetaData@BV4Tree@Gu@physx@@SAXAEAVPxOutputStream@3@@Z 0000000180015ac0 f   GuMetaData.obj
 0001:00014e50       ?getBinaryMetaData@BV4TriangleMesh@Gu@physx@@SAXAEAVPxOutputStream@3@@Z 0000000180015e50 f   GuMetaData.obj
 0001:00015130       ?getBinaryMetaData@BigConvexData@physx@@SAXAEAVPxOutputStream@2@@Z 0000000180016130 f   GuMetaData.obj
 0001:000153f0       ?getBinaryMetaData@ConvexMesh@Gu@physx@@SAXAEAVPxOutputStream@3@@Z 00000001800163f0 f   GuMetaData.obj
 0001:00015a80       ?getBinaryMetaData@GeometryUnion@Gu@physx@@SAXAEAVPxOutputStream@3@@Z 0000000180016a80 f   GuMetaData.obj
 0001:000160d0       ?getBinaryMetaData@HeightField@Gu@physx@@SAXAEAVPxOutputStream@3@@Z 00000001800170d0 f   GuMetaData.obj
 0001:00016500       ?getBinaryMetaData@MaterialIndicesStruct@physx@@SAXAEAVPxOutputStream@2@@Z 0000000180017500 f   GuMetaData.obj
 0001:000166a0       ?getBinaryMetaData@RTree@Gu@physx@@SAXAEAVPxOutputStream@3@@Z 00000001800176a0 f   GuMetaData.obj
 0001:000169d0       ?getBinaryMetaData@RTreeTriangleMesh@Gu@physx@@SAXAEAVPxOutputStream@3@@Z 00000001800179d0 f   GuMetaData.obj
 0001:00017270       ?getBinaryMetaData@TriangleMesh@Gu@physx@@SAXAEAVPxOutputStream@3@@Z 0000000180018270 f   GuMetaData.obj
 0001:000186e0       ?doSupport@?$SupportLocalImpl@VBoxV@Gu@physx@@@Gu@physx@@UEBA?AT__m128@@AEBT4@@Z 00000001800196e0 f i GuMTD.obj
 0001:00018710       ?doSupport@?$SupportLocalImpl@VBoxV@Gu@physx@@@Gu@physx@@UEBAXAEBT__m128@@AEAT4@1@Z 0000000180019710 f i GuMTD.obj
 0001:00018760       ?populateVerts@?$SupportLocalImpl@VBoxV@Gu@physx@@@Gu@physx@@UEBAXPEBEIPEBVPxVec3@3@PEAT__m128@@@Z 0000000180019760 f i GuMTD.obj
 0001:00018760       ?populateVerts@?$SupportLocalImpl@VConvexHullNoScaleV@Gu@physx@@@Gu@physx@@UEBAXPEBEIPEBVPxVec3@3@PEAT__m128@@@Z 0000000180019760 f i GuMTD.obj
 0001:000187a0       ??_E?$SupportLocalImpl@VBoxV@Gu@physx@@@Gu@physx@@UEAAPEAXI@Z 00000001800197a0 f i GuMTD.obj
 0001:000187a0       ??_E?$SupportLocalImpl@VConvexHullNoScaleV@Gu@physx@@@Gu@physx@@UEAAPEAXI@Z 00000001800197a0 f i GuMTD.obj
 0001:000187a0       ??_E?$SupportLocalImpl@VConvexHullV@Gu@physx@@@Gu@physx@@UEAAPEAXI@Z 00000001800197a0 f i GuMTD.obj
 0001:000187a0       ??_E?$SupportLocalImpl@VTriangleV@Gu@physx@@@Gu@physx@@UEAAPEAXI@Z 00000001800197a0 f i GuPCMContactConvexCommon.obj
 0001:000187a0       ??_G?$SupportLocalImpl@VBoxV@Gu@physx@@@Gu@physx@@UEAAPEAXI@Z 00000001800197a0 f i GuMTD.obj
 0001:000187a0       ??_G?$SupportLocalImpl@VConvexHullNoScaleV@Gu@physx@@@Gu@physx@@UEAAPEAXI@Z 00000001800197a0 f i GuMTD.obj
 0001:000187a0       ??_G?$SupportLocalImpl@VConvexHullV@Gu@physx@@@Gu@physx@@UEAAPEAXI@Z 00000001800197a0 f i GuMTD.obj
 0001:000187a0       ??_G?$SupportLocalImpl@VTriangleV@Gu@physx@@@Gu@physx@@UEAAPEAXI@Z 00000001800197a0 f i GuPCMContactConvexCommon.obj
 0001:00018990       ??_ESupportLocal@Gu@physx@@UEAAPEAXI@Z 0000000180019990 f i GuMTD.obj
 0001:00018990       ??_GSupportLocal@Gu@physx@@UEAAPEAXI@Z 0000000180019990 f i GuMTD.obj
 0001:0001a780       ?doSupport@?$SupportLocalImpl@VConvexHullV@Gu@physx@@@Gu@physx@@UEBA?AT__m128@@AEBT4@@Z 000000018001b780 f i GuMTD.obj
 0001:0001a860       ?doSupport@?$SupportLocalImpl@VConvexHullV@Gu@physx@@@Gu@physx@@UEBAXAEBT__m128@@AEAT4@1@Z 000000018001b860 f i GuMTD.obj
 0001:0001abc0       ?populateVerts@?$SupportLocalImpl@VConvexHullV@Gu@physx@@@Gu@physx@@UEBAXPEBEIPEBVPxVec3@3@PEAT__m128@@@Z 000000018001bbc0 f i GuMTD.obj
 0001:0001ac20       ?doSupport@?$SupportLocalImpl@VConvexHullNoScaleV@Gu@physx@@@Gu@physx@@UEBA?AT__m128@@AEBT4@@Z 000000018001bc20 f i GuMTD.obj
 0001:0001ac70       ?doSupport@?$SupportLocalImpl@VConvexHullNoScaleV@Gu@physx@@@Gu@physx@@UEBAXAEBT__m128@@AEAT4@1@Z 000000018001bc70 f i GuMTD.obj
 0001:0001adf0       ??$gjk@U?$LocalConvex@VCapsuleV@Gu@physx@@@Gu@physx@@U?$LocalConvex@VConvexHullV@Gu@physx@@@23@@Gu@physx@@YA?AW4GjkStatus@01@AEBU?$LocalConvex@VCapsuleV@Gu@physx@@@01@AEBU?$LocalConvex@VConvexHullV@Gu@physx@@@01@AEBT__m128@@2AEAT5@333@Z 000000018001bdf0 f i GuMTD.obj
 0001:0001bb60       ??0MultiplePersistentContactManifold@Gu@physx@@QEAA@XZ 000000018001cb60 f i GuMTD.obj
 0001:0001bbb0       ??0PolygonalBox@Gu@physx@@QEAA@AEBV012@@Z 000000018001cbb0 f i GuMTD.obj
 0001:0001be30       ??0SeparatingAxes@Gu@physx@@QEAA@$$QEAV012@@Z 000000018001ce30 f i GuMTD.obj
 0001:0001be30       ??0SeparatingAxes@Gu@physx@@QEAA@AEBV012@@Z 000000018001ce30 f i GuMTD.obj
 0001:0001bf40       ??0SeparatingAxes@Gu@physx@@QEAA@XZ 000000018001cf40 f i GuMTD.obj
 0001:0001bf50       ??4MultiplePersistentContactManifold@Gu@physx@@QEAAAEAV012@$$QEAV012@@Z 000000018001cf50 f i GuMTD.obj
 0001:0001c260       ??4MultiplePersistentContactManifold@Gu@physx@@QEAAAEAV012@AEBV012@@Z 000000018001d260 f i GuMTD.obj
 0001:0001c280       ??4SeparatingAxes@Gu@physx@@QEAAAEAV012@$$QEAV012@@Z 000000018001d280 f i GuMTD.obj
 0001:0001c280       ??4SeparatingAxes@Gu@physx@@QEAAAEAV012@AEBV012@@Z 000000018001d280 f i GuMTD.obj
 0001:0001c390       ??_E?$LocalConvex@VBoxV@Gu@physx@@@Gu@physx@@UEAAPEAXI@Z 000000018001d390 f i GuSweepTests.obj
 0001:0001c390       ??_E?$LocalConvex@VCapsuleV@Gu@physx@@@Gu@physx@@UEAAPEAXI@Z 000000018001d390 f i GuMTD.obj
 0001:0001c390       ??_E?$LocalConvex@VConvexHullNoScaleV@Gu@physx@@@Gu@physx@@UEAAPEAXI@Z 000000018001d390 f i GuPCMContactBoxConvex.obj
 0001:0001c390       ??_E?$LocalConvex@VConvexHullV@Gu@physx@@@Gu@physx@@UEAAPEAXI@Z 000000018001d390 f i GuMTD.obj
 0001:0001c390       ??_E?$LocalConvex@VTriangleV@Gu@physx@@@Gu@physx@@UEAAPEAXI@Z 000000018001d390 f i GuSweepTests.obj
 0001:0001c390       ??_EGjkConvexBase@Gu@physx@@UEAAPEAXI@Z 000000018001d390 f i GuMTD.obj
 0001:0001c390       ??_G?$LocalConvex@VBoxV@Gu@physx@@@Gu@physx@@UEAAPEAXI@Z 000000018001d390 f i GuSweepTests.obj
 0001:0001c390       ??_G?$LocalConvex@VCapsuleV@Gu@physx@@@Gu@physx@@UEAAPEAXI@Z 000000018001d390 f i GuMTD.obj
 0001:0001c390       ??_G?$LocalConvex@VConvexHullNoScaleV@Gu@physx@@@Gu@physx@@UEAAPEAXI@Z 000000018001d390 f i GuPCMContactBoxConvex.obj
 0001:0001c390       ??_G?$LocalConvex@VConvexHullV@Gu@physx@@@Gu@physx@@UEAAPEAXI@Z 000000018001d390 f i GuMTD.obj
 0001:0001c390       ??_G?$LocalConvex@VTriangleV@Gu@physx@@@Gu@physx@@UEAAPEAXI@Z 000000018001d390 f i GuSweepTests.obj
 0001:0001c390       ??_GGjkConvexBase@Gu@physx@@UEAAPEAXI@Z 000000018001d390 f i GuMTD.obj
 0001:0001cb10       ?clearManifold@MultiplePersistentContactManifold@Gu@physx@@QEAAXXZ 000000018001db10 f i GuMTD.obj
 0001:00020440       ?getAxes@SeparatingAxes@Gu@physx@@QEBAPEBVPxVec3@3@XZ 0000000180021440 f i GuMTD.obj
 0001:00020450       ?getCenter@?$LocalConvex@VBoxV@Gu@physx@@@Gu@physx@@UEBA?AT__m128@@XZ 0000000180021450 f i GuSweepTests.obj
 0001:00020450       ?getCenter@?$LocalConvex@VCapsuleV@Gu@physx@@@Gu@physx@@UEBA?AT__m128@@XZ 0000000180021450 f i GuMTD.obj
 0001:00020450       ?getCenter@?$LocalConvex@VConvexHullNoScaleV@Gu@physx@@@Gu@physx@@UEBA?AT__m128@@XZ 0000000180021450 f i GuPCMContactBoxConvex.obj
 0001:00020450       ?getCenter@?$LocalConvex@VConvexHullV@Gu@physx@@@Gu@physx@@UEBA?AT__m128@@XZ 0000000180021450 f i GuMTD.obj
 0001:00020450       ?getCenter@?$LocalConvex@VTriangleV@Gu@physx@@@Gu@physx@@UEBA?AT__m128@@XZ 0000000180021450 f i GuSweepTests.obj
 0001:00020460       ?getEmptyManifold@MultiplePersistentContactManifold@Gu@physx@@QEAAPEAVSinglePersistentContactManifold@23@XZ 0000000180021460 f i GuMTD.obj
 0001:00020480       ?getManifold@MultiplePersistentContactManifold@Gu@physx@@QEAAPEAVSinglePersistentContactManifold@23@I@Z 0000000180021480 f i GuMTD.obj
 0001:000204a0       ?getSweepMargin@?$LocalConvex@VCapsuleV@Gu@physx@@@Gu@physx@@UEBA?AT__m128@@XZ 00000001800214a0 f i GuMTD.obj
 0001:000204a0       ?getSweepMargin@?$RelativeConvex@VCapsuleV@Gu@physx@@@Gu@physx@@UEBA?AT__m128@@XZ 00000001800214a0 f i GuCCDSweepPrimitives.obj
 0001:000204b0       ?getSweepMargin@?$LocalConvex@VBoxV@Gu@physx@@@Gu@physx@@UEBA?AT__m128@@XZ 00000001800214b0 f i GuSweepTests.obj
 0001:000204b0       ?getSweepMargin@?$LocalConvex@VConvexHullNoScaleV@Gu@physx@@@Gu@physx@@UEBA?AT__m128@@XZ 00000001800214b0 f i GuPCMContactBoxConvex.obj
 0001:000204b0       ?getSweepMargin@?$LocalConvex@VConvexHullV@Gu@physx@@@Gu@physx@@UEBA?AT__m128@@XZ 00000001800214b0 f i GuMTD.obj
 0001:000204b0       ?getSweepMargin@?$RelativeConvex@VBoxV@Gu@physx@@@Gu@physx@@UEBA?AT__m128@@XZ 00000001800214b0 f i GuOverlapTests.obj
 0001:000204b0       ?getSweepMargin@?$RelativeConvex@VConvexHullNoScaleV@Gu@physx@@@Gu@physx@@UEBA?AT__m128@@XZ 00000001800214b0 f i GuPCMContactConvexConvex.obj
 0001:000204b0       ?getSweepMargin@?$RelativeConvex@VConvexHullV@Gu@physx@@@Gu@physx@@UEBA?AT__m128@@XZ 00000001800214b0 f i GuOverlapTests.obj
 0001:000204d0       ?hillClimbing@ConvexHullV@Gu@physx@@QEBAIAEBT__m128@@@Z 00000001800214d0 f i GuMTD.obj
 0001:00020700       ?initialize@MultiplePersistentContactManifold@Gu@physx@@QEAAXXZ 0000000180021700 f i GuMTD.obj
 0001:00020760       ?invalidate@MultiplePersistentContactManifold@Gu@physx@@QEAAIAEBVPsTransformV@aos@shdfnd@3@AEBT__m128@@1@Z 0000000180021760 f i GuMTD.obj
 0001:000207e0       ?invalidate@MultiplePersistentContactManifold@Gu@physx@@QEAAIAEBVPsTransformV@aos@shdfnd@3@AEBT__m128@@@Z 00000001800217e0 f i GuMTD.obj
 0001:00020860       ?maxTransformPositionDelta@MultiplePersistentContactManifold@Gu@physx@@QEAA?AT__m128@@AEBT4@@Z 0000000180021860 f i GuMTD.obj
 0001:000208a0       ?maxTransformQuatDelta@MultiplePersistentContactManifold@Gu@physx@@QEAA?AT__m128@@AEBT4@@Z 00000001800218a0 f i GuMTD.obj
 0001:000208e0       ?pointConvexDistance@@YA_NAEAVPxVec3@physx@@0AEAMAEBV12@PEBVConvexMesh@Gu@2@AEBVPxMeshScale@2@AEBVPxTransform@2@@Z 00000001800218e0 f   GuMTD.obj
 0001:000216b0       ?reduceManifoldContactsInDifferentPatches@MultiplePersistentContactManifold@Gu@physx@@QEAAIPEAPEAUPCMContactPatch@23@IPEAVMeshPersistentContact@23@IAEBT__m128@@@Z 00000001800226b0 f i GuMTD.obj
 0001:00021820       ?refineContactPatchConnective@MultiplePersistentContactManifold@Gu@physx@@QEAAXPEAPEAUPCMContactPatch@23@IPEAVMeshPersistentContact@23@AEBT__m128@@@Z 0000000180022820 f i GuMTD.obj
 0001:00021910       ?refreshManifold@MultiplePersistentContactManifold@Gu@physx@@QEAAXAEBVPsMatTransformV@aos@shdfnd@3@AEBT__m128@@1@Z 0000000180022910 f i GuMTD.obj
 0001:00021a10       ?reset@SeparatingAxes@Gu@physx@@QEAAXXZ 0000000180022a10 f i GuMTD.obj
 0001:00021a20       ?setRelativeTransform@MultiplePersistentContactManifold@Gu@physx@@QEAAXAEBVPsTransformV@aos@shdfnd@3@@Z 0000000180022a20 f i GuMTD.obj
 0001:00021a30       ?support@?$LocalConvex@VCapsuleV@Gu@physx@@@Gu@physx@@UEBA?AT__m128@@AEBT4@@Z 0000000180022a30 f i GuMTD.obj
 0001:00021a90       ?support@?$LocalConvex@VCapsuleV@Gu@physx@@@Gu@physx@@UEBA?AT__m128@@AEBT4@AEAH@Z 0000000180022a90 f i GuMTD.obj
 0001:00021b00       ?support@?$LocalConvex@VConvexHullV@Gu@physx@@@Gu@physx@@UEBA?AT__m128@@AEBT4@@Z 0000000180022b00 f i GuMTD.obj
 0001:00021be0       ?support@?$LocalConvex@VConvexHullV@Gu@physx@@@Gu@physx@@UEBA?AT__m128@@AEBT4@AEAH@Z 0000000180022be0 f i GuMTD.obj
 0001:00021cb0       ?supportPoint@?$LocalConvex@VCapsuleV@Gu@physx@@@Gu@physx@@UEBA?AT__m128@@H@Z 0000000180022cb0 f i GuMTD.obj
 0001:00021ce0       ?supportPoint@?$LocalConvex@VConvexHullV@Gu@physx@@@Gu@physx@@UEBA?AT__m128@@H@Z 0000000180022ce0 f i GuMTD.obj
 0001:00021d30       ?supportVertexIndex@ConvexHullV@Gu@physx@@QEBAIAEBT__m128@@@Z 0000000180022d30 f i GuMTD.obj
 0001:00021fb0       ?toBuffer@MultiplePersistentContactManifold@Gu@physx@@QEAAXPEIAE@Z 0000000180022fb0 f i GuMTD.obj
 0001:00022090       ?supportPoint@?$RelativeConvex@VBoxV@Gu@physx@@@Gu@physx@@UEBA?AT__m128@@H@Z 0000000180023090 f i GuOverlapTests.obj
 0001:00022100       ?support@?$RelativeConvex@VBoxV@Gu@physx@@@Gu@physx@@UEBA?AT__m128@@AEBT4@@Z 0000000180023100 f i GuOverlapTests.obj
 0001:00022180       ?support@?$RelativeConvex@VBoxV@Gu@physx@@@Gu@physx@@UEBA?AT__m128@@AEBT4@AEAH@Z 0000000180023180 f i GuOverlapTests.obj
 0001:00022210       ?getCenter@?$RelativeConvex@VBoxV@Gu@physx@@@Gu@physx@@UEBA?AT__m128@@XZ 0000000180023210 f i GuOverlapTests.obj
 0001:00022210       ?getCenter@?$RelativeConvex@VCapsuleV@Gu@physx@@@Gu@physx@@UEBA?AT__m128@@XZ 0000000180023210 f i GuCCDSweepPrimitives.obj
 0001:00022210       ?getCenter@?$RelativeConvex@VConvexHullNoScaleV@Gu@physx@@@Gu@physx@@UEBA?AT__m128@@XZ 0000000180023210 f i GuPCMContactConvexConvex.obj
 0001:00022210       ?getCenter@?$RelativeConvex@VConvexHullV@Gu@physx@@@Gu@physx@@UEBA?AT__m128@@XZ 0000000180023210 f i GuOverlapTests.obj
 0001:00022210       ?getCenter@?$RelativeConvex@VTriangleV@Gu@physx@@@Gu@physx@@UEBA?AT__m128@@XZ 0000000180023210 f i GuCCDSweepPrimitives.obj
 0001:00022250       ??_E?$RelativeConvex@VBoxV@Gu@physx@@@Gu@physx@@UEAAPEAXI@Z 0000000180023250 f i GuOverlapTests.obj
 0001:00022250       ??_E?$RelativeConvex@VCapsuleV@Gu@physx@@@Gu@physx@@UEAAPEAXI@Z 0000000180023250 f i GuCCDSweepPrimitives.obj
 0001:00022250       ??_E?$RelativeConvex@VConvexHullNoScaleV@Gu@physx@@@Gu@physx@@UEAAPEAXI@Z 0000000180023250 f i GuPCMContactConvexConvex.obj
 0001:00022250       ??_E?$RelativeConvex@VConvexHullV@Gu@physx@@@Gu@physx@@UEAAPEAXI@Z 0000000180023250 f i GuOverlapTests.obj
 0001:00022250       ??_E?$RelativeConvex@VTriangleV@Gu@physx@@@Gu@physx@@UEAAPEAXI@Z 0000000180023250 f i GuCCDSweepPrimitives.obj
 0001:00022250       ??_G?$RelativeConvex@VBoxV@Gu@physx@@@Gu@physx@@UEAAPEAXI@Z 0000000180023250 f i GuOverlapTests.obj
 0001:00022250       ??_G?$RelativeConvex@VCapsuleV@Gu@physx@@@Gu@physx@@UEAAPEAXI@Z 0000000180023250 f i GuCCDSweepPrimitives.obj
 0001:00022250       ??_G?$RelativeConvex@VConvexHullNoScaleV@Gu@physx@@@Gu@physx@@UEAAPEAXI@Z 0000000180023250 f i GuPCMContactConvexConvex.obj
 0001:00022250       ??_G?$RelativeConvex@VConvexHullV@Gu@physx@@@Gu@physx@@UEAAPEAXI@Z 0000000180023250 f i GuOverlapTests.obj
 0001:00022250       ??_G?$RelativeConvex@VTriangleV@Gu@physx@@@Gu@physx@@UEAAPEAXI@Z 0000000180023250 f i GuCCDSweepPrimitives.obj
 0001:000243f0       ?supportPoint@?$RelativeConvex@VConvexHullV@Gu@physx@@@Gu@physx@@UEBA?AT__m128@@H@Z 00000001800253f0 f i GuOverlapTests.obj
 0001:00024470       ?support@?$RelativeConvex@VConvexHullV@Gu@physx@@@Gu@physx@@UEBA?AT__m128@@AEBT4@@Z 0000000180025470 f i GuOverlapTests.obj
 0001:000245a0       ?support@?$RelativeConvex@VConvexHullV@Gu@physx@@@Gu@physx@@UEBA?AT__m128@@AEBT4@AEAH@Z 00000001800255a0 f i GuOverlapTests.obj
 0001:00024700       ??$gjk@U?$RelativeConvex@VBoxV@Gu@physx@@@Gu@physx@@U?$LocalConvex@VConvexHullV@Gu@physx@@@23@@Gu@physx@@YA?AW4GjkStatus@01@AEBU?$RelativeConvex@VBoxV@Gu@physx@@@01@AEBU?$LocalConvex@VConvexHullV@Gu@physx@@@01@AEBT__m128@@2AEAT5@333@Z 0000000180025700 f i GuOverlapTests.obj
 0001:000254c0       ??$gjk@U?$RelativeConvex@VConvexHullV@Gu@physx@@@Gu@physx@@U?$LocalConvex@VConvexHullV@Gu@physx@@@23@@Gu@physx@@YA?AW4GjkStatus@01@AEBU?$RelativeConvex@VConvexHullV@Gu@physx@@@01@AEBU?$LocalConvex@VConvexHullV@Gu@physx@@@01@AEBT__m128@@2AEAT5@333@Z 00000001800264c0 f i GuOverlapTests.obj
 0001:00026350       ?ComputeCubemapNearestOffset@physx@@YAIAEBVPxVec3@1@I@Z 0000000180027350 f i GuOverlapTests.obj
 0001:00026450       ?getOverlapFuncTable@Gu@physx@@YAPEAY06Q6A_NAEBVPxGeometry@2@AEBVPxTransform@2@01PEAUTriggerCache@12@@ZXZ 0000000180027450 f   GuOverlapTests.obj
 0001:00027f30       ?registerHeightFields@Gu@physx@@YAXXZ 0000000180028f30 f   GuOverlapTests.obj
 0001:00027f80       ?raycast_capsule@@YAIAEBVPxGeometry@physx@@AEBVPxTransform@2@AEBVPxVec3@2@2MV?$PxFlags@W4Enum@PxHitFlag@physx@@G@2@IPEIAUPxRaycastHit@2@@Z 0000000180028f80 f   GuRaycastTests.obj
 0001:000284e0       ?raycast_plane@@YAIAEBVPxGeometry@physx@@AEBVPxTransform@2@AEBVPxVec3@2@2MV?$PxFlags@W4Enum@PxHitFlag@physx@@G@2@IPEIAUPxRaycastHit@2@@Z 00000001800294e0 f   GuRaycastTests.obj
 0001:00028650       ?raycast_convexMesh@@YAIAEBVPxGeometry@physx@@AEBVPxTransform@2@AEBVPxVec3@2@2MV?$PxFlags@W4Enum@PxHitFlag@physx@@G@2@IPEIAUPxRaycastHit@2@@Z 0000000180029650 f   GuRaycastTests.obj
 0001:00029180       ?raycast_triangleMesh@@YAIAEBVPxGeometry@physx@@AEBVPxTransform@2@AEBVPxVec3@2@2MV?$PxFlags@W4Enum@PxHitFlag@physx@@G@2@IPEIAUPxRaycastHit@2@@Z 000000018002a180 f   GuRaycastTests.obj
 0001:00029240       ?raycast_box@@YAIAEBVPxGeometry@physx@@AEBVPxTransform@2@AEBVPxVec3@2@2MV?$PxFlags@W4Enum@PxHitFlag@physx@@G@2@IPEIAUPxRaycastHit@2@@Z 000000018002a240 f   GuRaycastTests.obj
 0001:00029870       ?raycast_sphere@@YAIAEBVPxGeometry@physx@@AEBVPxTransform@2@AEBVPxVec3@2@2MV?$PxFlags@W4Enum@PxHitFlag@physx@@G@2@IPEIAUPxRaycastHit@2@@Z 000000018002a870 f   GuRaycastTests.obj
 0001:0002ac60       ??Dphysx@@YA?AVMatrix34@Cm@0@AEBVPxMeshScale@0@AEBVPxTransform@0@@Z 000000018002bc60 f i GuRaycastTests.obj
 0001:0002b8a0       ?getRaycastFuncTable@Gu@physx@@YAAEAY06Q6AIAEBVPxGeometry@2@AEBVPxTransform@2@AEBVPxVec3@2@2MV?$PxFlags@W4Enum@PxHitFlag@physx@@G@2@IPEIAUPxRaycastHit@2@@ZXZ 000000018002c8a0 f   GuRaycastTests.obj
 0001:0002b8b0       ?raycast_heightField@@YAIAEBVPxGeometry@physx@@AEBVPxTransform@2@AEBVPxVec3@2@2MV?$PxFlags@W4Enum@PxHitFlag@physx@@G@2@IPEIAUPxRaycastHit@2@@Z 000000018002c8b0 f   GuRaycastTests.obj
 0001:0002bff0       ?registerHeightFields_Raycasts@@YAXXZ 000000018002cff0 f   GuRaycastTests.obj
 0001:0002c000       ?ReadHeader@Gu@physx@@YA_NEEEEAEAIAEA_NAEAVPxInputStream@2@@Z 000000018002d000 f   GuSerialize.obj
 0001:0002c160       ?ReadIndices@Gu@physx@@YAXGIPEAGAEAVPxInputStream@2@_N@Z 000000018002d160 f   GuSerialize.obj
 0001:0002c2b0       ?StoreIndices@Gu@physx@@YAXGIPEBGAEAVPxOutputStream@2@_N@Z 000000018002d2b0 f   GuSerialize.obj
 0001:0002c3a0       ?StoreIndices@Gu@physx@@YAXIIPEBIAEAVPxOutputStream@2@_N@Z 000000018002d3a0 f   GuSerialize.obj
 0001:0002c530       ?WriteHeader@Gu@physx@@YA_NEEEEI_NAEAVPxOutputStream@2@@Z 000000018002d530 f   GuSerialize.obj
 0001:0002c660       ?computeMaxIndex@physx@@YAGPEBGI@Z 000000018002d660 f   GuSerialize.obj
 0001:0002c690       ?computeMaxIndex@physx@@YAIPEBII@Z 000000018002d690 f   GuSerialize.obj
 0001:0002c6c0       ?readChunk@physx@@YAXAEAC000AEAVPxInputStream@1@@Z 000000018002d6c0 f   GuSerialize.obj
 0001:0002c740       ?readDword@physx@@YAI_NAEAVPxInputStream@1@@Z 000000018002d740 f   GuSerialize.obj
 0001:0002c7a0       ?readFloat@physx@@YAM_NAEAVPxInputStream@1@@Z 000000018002d7a0 f   GuSerialize.obj
 0001:0002c800       ?readFloatBuffer@physx@@YA_NPEAMI_NAEAVPxInputStream@1@@Z 000000018002d800 f   GuSerialize.obj
 0001:0002c880       ?readHeader@physx@@YA_NCCCCAEAIAEA_NAEAVPxInputStream@1@@Z 000000018002d880 f   GuSerialize.obj
 0001:0002c9d0       ?readIndices@physx@@YAXIIPEAIAEAVPxInputStream@1@_N@Z 000000018002d9d0 f   GuSerialize.obj
 0001:0002cb00       ?readWord@physx@@YAG_NAEAVPxInputStream@1@@Z 000000018002db00 f   GuSerialize.obj
 0001:0002cb40       ?readWordBuffer@physx@@YAXPEAGI_NAEAVPxInputStream@1@@Z 000000018002db40 f   GuSerialize.obj
 0001:0002cbb0       ?storeIndices@physx@@YAXIIPEBIAEAVPxOutputStream@1@_N@Z 000000018002dbb0 f   GuSerialize.obj
 0001:0002ccd0       ?writeDword@physx@@YAXI_NAEAVPxOutputStream@1@@Z 000000018002dcd0 f   GuSerialize.obj
 0001:0002cd20       ?writeFloat@physx@@YAXM_NAEAVPxOutputStream@1@@Z 000000018002dd20 f   GuSerialize.obj
 0001:0002cd70       ?writeFloatBuffer@physx@@YAXPEBMI_NAEAVPxOutputStream@1@@Z 000000018002dd70 f   GuSerialize.obj
 0001:0002ce10       ?writeHeader@physx@@YA_NCCCCI_NAEAVPxOutputStream@1@@Z 000000018002de10 f   GuSerialize.obj
 0001:0002cf40       ?writeWord@physx@@YAXG_NAEAVPxOutputStream@1@@Z 000000018002df40 f   GuSerialize.obj
 0001:0002cf80       ?writeWordBuffer@physx@@YAXPEBGI_NAEAVPxOutputStream@1@@Z 000000018002df80 f   GuSerialize.obj
 0001:0002d000       ??Dphysx@@YA?AVMatrix34@Cm@0@AEBVPxTransform@0@AEBVPxMeshScale@0@@Z 000000018002e000 f i GuSweepMTD.obj
 0001:0002d650       ??_E?$MeshHitCallback@UPxRaycastHit@physx@@@Gu@physx@@UEAAPEAXI@Z 000000018002e650 f i GuSweepMTD.obj
 0001:0002d650       ??_G?$MeshHitCallback@UPxRaycastHit@physx@@@Gu@physx@@UEAAPEAXI@Z 000000018002e650 f i GuSweepMTD.obj
 0001:0002d680       ??_EMeshMTDGenerationCallback@@UEAAPEAXI@Z 000000018002e680 f i GuSweepMTD.obj
 0001:0002d680       ??_GMeshMTDGenerationCallback@@UEAAPEAXI@Z 000000018002e680 f i GuSweepMTD.obj
 0001:0002d6b0       ??_EMidPhaseQueryLocalReport@@UEAAPEAXI@Z 000000018002e6b0 f i GuSweepMTD.obj
 0001:0002d6b0       ??_GMidPhaseQueryLocalReport@@UEAAPEAXI@Z 000000018002e6b0 f i GuSweepMTD.obj
 0001:0002d6e0       ?computeBox_HeightFieldMTD@Gu@physx@@YA_NAEBVPxHeightFieldGeometry@2@AEBVPxTransform@2@AEBVBox@12@1M_NIAEAUPxSweepHit@2@@Z 000000018002e6e0 f   GuSweepMTD.obj
 0001:0002e570       ?computeBox_TriangleMeshMTD@Gu@physx@@YA_NAEBVPxTriangleMeshGeometry@2@AEBVPxTransform@2@AEBVBox@12@1M_NAEAUPxSweepHit@2@@Z 000000018002f570 f   GuSweepMTD.obj
 0001:0002f200       ?computeCapsule_CapsuleMTD@Gu@physx@@YA_NAEBVCapsule@12@0AEAUPxSweepHit@2@@Z 0000000180030200 f   GuSweepMTD.obj
 0001:0002f440       ?computeCapsule_HeightFieldMTD@Gu@physx@@YA_NAEBVPxHeightFieldGeometry@2@AEBVPxTransform@2@AEAVCapsuleV@12@M_NIAEAUPxSweepHit@2@@Z 0000000180030440 f   GuSweepMTD.obj
 0001:0002fc90       ?computeCapsule_TriangleMeshMTD@Gu@physx@@YA_NAEBVPxTriangleMeshGeometry@2@AEBVPxTransform@2@AEAVCapsuleV@12@M_NAEAUPxSweepHit@2@@Z 0000000180030c90 f   GuSweepMTD.obj
 0001:00030560       ?computeConvex_HeightFieldMTD@Gu@physx@@YA_NAEBVPxHeightFieldGeometry@2@AEBVPxTransform@2@AEBVPxConvexMeshGeometry@2@1M_NIAEAUPxSweepHit@2@@Z 0000000180031560 f   GuSweepMTD.obj
 0001:00031900       ?computeConvex_TriangleMeshMTD@Gu@physx@@YA_NAEBVPxTriangleMeshGeometry@2@AEBVPxTransform@2@AEBVPxConvexMeshGeometry@2@1M_NAEAUPxSweepHit@2@@Z 0000000180032900 f   GuSweepMTD.obj
 0001:00032b90       ?computePlane_BoxMTD@Gu@physx@@YA_NAEBVPxPlane@2@AEBVBox@12@AEAUPxSweepHit@2@@Z 0000000180033b90 f   GuSweepMTD.obj
 0001:00032e30       ?computePlane_CapsuleMTD@Gu@physx@@YA_NAEBVPxPlane@2@AEBVCapsule@12@AEAUPxSweepHit@2@@Z 0000000180033e30 f   GuSweepMTD.obj
 0001:00032f40       ?computePlane_ConvexMTD@Gu@physx@@YA_NAEBVPxPlane@2@AEBVPxConvexMeshGeometry@2@AEBVPxTransform@2@AEAUPxSweepHit@2@@Z 0000000180033f40 f   GuSweepMTD.obj
 0001:00033b00       ?computeSphere_CapsuleMTD@Gu@physx@@YA_NAEBVSphere@12@AEBVCapsule@12@AEAUPxSweepHit@2@@Z 0000000180034b00 f   GuSweepMTD.obj
 0001:00033cb0       ?computeSphere_SphereMTD@Gu@physx@@YA_NAEBVSphere@12@0AEAUPxSweepHit@2@@Z 0000000180034cb0 f   GuSweepMTD.obj
 0001:00033da0       ?getInverse@PxMat33@physx@@QEBA?BV12@XZ 0000000180034da0 f i GuSweepMTD.obj
 0001:00033ff0       ?growAndPushBack@?$Array@IVNamedAllocator@shdfnd@physx@@@shdfnd@physx@@IEAAAEAIAEBI@Z 0000000180034ff0 f i GuSweepMTD.obj
 0001:000340e0       ?init@FastVertex2ShapeScaling@Cm@physx@@QEAAXAEBVPxVec3@3@AEBVPxQuat@3@@Z 00000001800350e0 f i GuSweepMTD.obj
 0001:000344d0       ?onEvent@MidPhaseQueryLocalReport@@UEAA_NIPEAI@Z 00000001800354d0 f i GuSweepMTD.obj
 0001:00034540       ?processHit@MeshMTDGenerationCallback@@UEAA_NAEBUPxRaycastHit@physx@@AEBVPxVec3@3@11AEAMPEBI@Z 0000000180035540 f i GuSweepMTD.obj
 0001:00034590       ?recreate@?$Array@IVNamedAllocator@shdfnd@physx@@@shdfnd@physx@@IEAAXI@Z 0000000180035590 f i GuSweepMTD.obj
 0001:00034640       ??$gjkPenetration@U?$LocalConvex@VCapsuleV@Gu@physx@@@Gu@physx@@U?$LocalConvex@VConvexHullV@Gu@physx@@@23@@Gu@physx@@YA?AW4GjkStatus@01@AEBU?$LocalConvex@VCapsuleV@Gu@physx@@@01@AEBU?$LocalConvex@VConvexHullV@Gu@physx@@@01@AEBT__m128@@2_NPEIAE4AEAEAEAUGjkOutput@01@@Z 0000000180035640 f i GuSweepSharedTests.obj
 0001:00035c50       ??$gjkPenetration@U?$RelativeConvex@VBoxV@Gu@physx@@@Gu@physx@@U?$LocalConvex@VConvexHullV@Gu@physx@@@23@@Gu@physx@@YA?AW4GjkStatus@01@AEBU?$RelativeConvex@VBoxV@Gu@physx@@@01@AEBU?$LocalConvex@VConvexHullV@Gu@physx@@@01@AEBT__m128@@2_NPEIAE4AEAEAEAUGjkOutput@01@@Z 0000000180036c50 f i GuSweepSharedTests.obj
 0001:000372d0       ??$gjkPenetration@U?$RelativeConvex@VConvexHullV@Gu@physx@@@Gu@physx@@U?$LocalConvex@VConvexHullV@Gu@physx@@@23@@Gu@physx@@YA?AW4GjkStatus@01@AEBU?$RelativeConvex@VConvexHullV@Gu@physx@@@01@AEBU?$LocalConvex@VConvexHullV@Gu@physx@@@01@AEBT__m128@@2_NPEIAE4AEAEAEAUGjkOutput@01@@Z 00000001800382d0 f i GuSweepSharedTests.obj
 0001:000389a0       ??$gjkRaycast@U?$LocalConvex@VCapsuleV@Gu@physx@@@Gu@physx@@U?$LocalConvex@VConvexHullV@Gu@physx@@@23@@Gu@physx@@YA_NAEBU?$LocalConvex@VCapsuleV@Gu@physx@@@01@AEBU?$LocalConvex@VConvexHullV@Gu@physx@@@01@AEBT__m128@@222AEAT4@33M@Z 00000001800399a0 f i GuSweepSharedTests.obj
 0001:00039700       ??$gjkRaycast@U?$RelativeConvex@VBoxV@Gu@physx@@@Gu@physx@@U?$LocalConvex@VConvexHullV@Gu@physx@@@23@@Gu@physx@@YA_NAEBU?$RelativeConvex@VBoxV@Gu@physx@@@01@AEBU?$LocalConvex@VConvexHullV@Gu@physx@@@01@AEBT__m128@@222AEAT4@33M@Z 000000018003a700 f i GuSweepSharedTests.obj
 0001:0003a500       ??$gjkRaycast@U?$RelativeConvex@VConvexHullV@Gu@physx@@@Gu@physx@@U?$LocalConvex@VConvexHullV@Gu@physx@@@23@@Gu@physx@@YA_NAEBU?$RelativeConvex@VConvexHullV@Gu@physx@@@01@AEBU?$LocalConvex@VConvexHullV@Gu@physx@@@01@AEBT__m128@@222AEAT4@33M@Z 000000018003b500 f i GuSweepSharedTests.obj
 0001:0003b2f0       ??$gjkRaycastPenetration@U?$RelativeConvex@VConvexHullV@Gu@physx@@@Gu@physx@@U?$LocalConvex@VConvexHullV@Gu@physx@@@23@@Gu@physx@@YA_NAEBU?$RelativeConvex@VConvexHullV@Gu@physx@@@01@AEBU?$LocalConvex@VConvexHullV@Gu@physx@@@01@AEBT__m128@@222AEAT4@33M_N@Z 000000018003c2f0 f i GuSweepSharedTests.obj
 0001:0003bec0       ?sweepBox_ConvexGeom@@YA_NAEBVPxGeometry@physx@@AEBVPxTransform@2@AEBVPxBoxGeometry@2@1AEBVBox@Gu@2@AEBVPxVec3@2@MAEAUPxSweepHit@2@V?$PxFlags@W4Enum@PxHitFlag@physx@@G@2@M@Z 000000018003cec0 f   GuSweepSharedTests.obj
 0001:0003ccf0       ?sweepBox_PlaneGeom@@YA_NAEBVPxGeometry@physx@@AEBVPxTransform@2@AEBVPxBoxGeometry@2@1AEBVBox@Gu@2@AEBVPxVec3@2@MAEAUPxSweepHit@2@V?$PxFlags@W4Enum@PxHitFlag@physx@@G@2@M@Z 000000018003dcf0 f   GuSweepSharedTests.obj
 0001:0003d0d0       ?sweepCapsuleTriangles@Gu@physx@@YA_NIPEBVPxTriangle@2@_NAEBVPxCapsuleGeometry@2@AEBVPxTransform@2@AEBVPxVec3@2@MAEAUPxSweepHit@2@PEBIMV?$PxFlags@W4Enum@PxHitFlag@physx@@G@2@@Z 000000018003e0d0 f   GuSweepSharedTests.obj
 0001:0003d2c0       ?sweepCapsule_CapsuleGeom@@YA_NAEBVPxGeometry@physx@@AEBVPxTransform@2@AEBVPxCapsuleGeometry@2@1AEBVCapsule@Gu@2@AEBVPxVec3@2@MAEAUPxSweepHit@2@V?$PxFlags@W4Enum@PxHitFlag@physx@@G@2@M@Z 000000018003e2c0 f   GuSweepSharedTests.obj
 0001:0003d4a0       ?sweepCapsule_ConvexGeom@@YA_NAEBVPxGeometry@physx@@AEBVPxTransform@2@AEBVPxCapsuleGeometry@2@1AEBVCapsule@Gu@2@AEBVPxVec3@2@MAEAUPxSweepHit@2@V?$PxFlags@W4Enum@PxHitFlag@physx@@G@2@M@Z 000000018003e4a0 f   GuSweepSharedTests.obj
 0001:0003e1f0       ?sweepCapsule_PlaneGeom@@YA_NAEBVPxGeometry@physx@@AEBVPxTransform@2@AEBVPxCapsuleGeometry@2@1AEBVCapsule@Gu@2@AEBVPxVec3@2@MAEAUPxSweepHit@2@V?$PxFlags@W4Enum@PxHitFlag@physx@@G@2@M@Z 000000018003f1f0 f   GuSweepSharedTests.obj
 0001:0003e4d0       ?sweepCapsule_SphereGeom@@YA_NAEBVPxGeometry@physx@@AEBVPxTransform@2@AEBVPxCapsuleGeometry@2@1AEBVCapsule@Gu@2@AEBVPxVec3@2@MAEAUPxSweepHit@2@V?$PxFlags@W4Enum@PxHitFlag@physx@@G@2@M@Z 000000018003f4d0 f   GuSweepSharedTests.obj
 0001:0003e670       ?sweepConvex_BoxGeom@@YA_NAEBVPxGeometry@physx@@AEBVPxTransform@2@AEBVPxConvexMeshGeometry@2@1AEBVPxVec3@2@MAEAUPxSweepHit@2@V?$PxFlags@W4Enum@PxHitFlag@physx@@G@2@M@Z 000000018003f670 f   GuSweepSharedTests.obj
 0001:0003e880       ?sweepConvex_CapsuleGeom@@YA_NAEBVPxGeometry@physx@@AEBVPxTransform@2@AEBVPxConvexMeshGeometry@2@1AEBVPxVec3@2@MAEAUPxSweepHit@2@V?$PxFlags@W4Enum@PxHitFlag@physx@@G@2@M@Z 000000018003f880 f   GuSweepSharedTests.obj
 0001:0003eaa0       ?sweepConvex_ConvexGeom@@YA_NAEBVPxGeometry@physx@@AEBVPxTransform@2@AEBVPxConvexMeshGeometry@2@1AEBVPxVec3@2@MAEAUPxSweepHit@2@V?$PxFlags@W4Enum@PxHitFlag@physx@@G@2@M@Z 000000018003faa0 f   GuSweepSharedTests.obj
 0001:0003faa0       ?sweepConvex_PlaneGeom@@YA_NAEBVPxGeometry@physx@@AEBVPxTransform@2@AEBVPxConvexMeshGeometry@2@1AEBVPxVec3@2@MAEAUPxSweepHit@2@V?$PxFlags@W4Enum@PxHitFlag@physx@@G@2@M@Z 0000000180040aa0 f   GuSweepSharedTests.obj
 0001:0003fee0       ?sweepConvex_SphereGeom@@YA_NAEBVPxGeometry@physx@@AEBVPxTransform@2@AEBVPxConvexMeshGeometry@2@1AEBVPxVec3@2@MAEAUPxSweepHit@2@V?$PxFlags@W4Enum@PxHitFlag@physx@@G@2@M@Z 0000000180040ee0 f   GuSweepSharedTests.obj
 0001:00040b10       ?sweepCapsule_BoxGeom@@YA_NAEBVPxGeometry@physx@@AEBVPxTransform@2@AEBVPxCapsuleGeometry@2@1AEBVCapsule@Gu@2@AEBVPxVec3@2@MAEAUPxSweepHit@2@V?$PxFlags@W4Enum@PxHitFlag@physx@@G@2@M@Z 0000000180041b10 f   GuSweepTests.obj
 0001:00041400       ?sweepBox_SphereGeom@@YA_NAEBVPxGeometry@physx@@AEBVPxTransform@2@AEBVPxBoxGeometry@2@1AEBVBox@Gu@2@AEBVPxVec3@2@MAEAUPxSweepHit@2@V?$PxFlags@W4Enum@PxHitFlag@physx@@G@2@M@Z 0000000180042400 f   GuSweepTests.obj
 0001:00041ad0       ?sweepBox_CapsuleGeom@@YA_NAEBVPxGeometry@physx@@AEBVPxTransform@2@AEBVPxBoxGeometry@2@1AEBVBox@Gu@2@AEBVPxVec3@2@MAEAUPxSweepHit@2@V?$PxFlags@W4Enum@PxHitFlag@physx@@G@2@M@Z 0000000180042ad0 f   GuSweepTests.obj
 0001:000423d0       ?sweepBox_BoxGeom@@YA_NAEBVPxGeometry@physx@@AEBVPxTransform@2@AEBVPxBoxGeometry@2@1AEBVBox@Gu@2@AEBVPxVec3@2@MAEAUPxSweepHit@2@V?$PxFlags@W4Enum@PxHitFlag@physx@@G@2@M@Z 00000001800433d0 f   GuSweepTests.obj
 0001:00042d60       ??$gjkPenetration@U?$LocalConvex@VCapsuleV@Gu@physx@@@Gu@physx@@U?$LocalConvex@VBoxV@Gu@physx@@@23@@Gu@physx@@YA?AW4GjkStatus@01@AEBU?$LocalConvex@VCapsuleV@Gu@physx@@@01@AEBU?$LocalConvex@VBoxV@Gu@physx@@@01@AEBT__m128@@2_NPEIAE4AEAEAEAUGjkOutput@01@@Z 0000000180043d60 f i GuSweepTests.obj
 0001:000442d0       ??$gjkPenetration@U?$RelativeConvex@VBoxV@Gu@physx@@@Gu@physx@@U?$LocalConvex@VBoxV@Gu@physx@@@23@@Gu@physx@@YA?AW4GjkStatus@01@AEBU?$RelativeConvex@VBoxV@Gu@physx@@@01@AEBU?$LocalConvex@VBoxV@Gu@physx@@@01@AEBT__m128@@2_NPEIAE4AEAEAEAUGjkOutput@01@@Z 00000001800452d0 f i GuSweepTests.obj
 0001:00045890       ??$gjkRaycast@U?$LocalConvex@VCapsuleV@Gu@physx@@@Gu@physx@@U?$LocalConvex@VBoxV@Gu@physx@@@23@@Gu@physx@@YA_NAEBU?$LocalConvex@VCapsuleV@Gu@physx@@@01@AEBU?$LocalConvex@VBoxV@Gu@physx@@@01@AEBT__m128@@222AEAT4@33M@Z 0000000180046890 f i GuSweepTests.obj
 0001:00046470       ??$gjkRaycast@U?$LocalConvex@VTriangleV@Gu@physx@@@Gu@physx@@U?$LocalConvex@VBoxV@Gu@physx@@@23@@Gu@physx@@YA_NAEBU?$LocalConvex@VTriangleV@Gu@physx@@@01@AEBU?$LocalConvex@VBoxV@Gu@physx@@@01@AEBT__m128@@222AEAT4@33M@Z 0000000180047470 f i GuSweepTests.obj
 0001:000470d0       ??$gjkRaycast@U?$RelativeConvex@VBoxV@Gu@physx@@@Gu@physx@@U?$LocalConvex@VBoxV@Gu@physx@@@23@@Gu@physx@@YA_NAEBU?$RelativeConvex@VBoxV@Gu@physx@@@01@AEBU?$LocalConvex@VBoxV@Gu@physx@@@01@AEBT__m128@@222AEAT4@33M@Z 00000001800480d0 f i GuSweepTests.obj
 0001:00047d10       ?getSweepFuncTable@Gu@physx@@YAAEBUGeomSweepFuncs@12@XZ 0000000180048d10 f   GuSweepTests.obj
 0001:00047d20       ?getSweepMargin@?$LocalConvex@VTriangleV@Gu@physx@@@Gu@physx@@UEBA?AT__m128@@XZ 0000000180048d20 f i GuSweepTests.obj
 0001:00047d20       ?getSweepMargin@?$RelativeConvex@VTriangleV@Gu@physx@@@Gu@physx@@UEBA?AT__m128@@XZ 0000000180048d20 f i GuCCDSweepPrimitives.obj
 0001:00047d30       ?registerHeightFields_Sweeps@@YAXXZ 0000000180048d30 f   GuSweepTests.obj
 0001:00047d70       ?support@?$LocalConvex@VBoxV@Gu@physx@@@Gu@physx@@UEBA?AT__m128@@AEBT4@@Z 0000000180048d70 f i GuSweepTests.obj
 0001:00047da0       ?support@?$LocalConvex@VBoxV@Gu@physx@@@Gu@physx@@UEBA?AT__m128@@AEBT4@AEAH@Z 0000000180048da0 f i GuSweepTests.obj
 0001:00047de0       ?support@?$LocalConvex@VTriangleV@Gu@physx@@@Gu@physx@@UEBA?AT__m128@@AEBT4@@Z 0000000180048de0 f i GuSweepTests.obj
 0001:00047e70       ?support@?$LocalConvex@VTriangleV@Gu@physx@@@Gu@physx@@UEBA?AT__m128@@AEBT4@AEAH@Z 0000000180048e70 f i GuSweepTests.obj
 0001:00047f50       ?supportPoint@?$LocalConvex@VBoxV@Gu@physx@@@Gu@physx@@UEBA?AT__m128@@H@Z 0000000180048f50 f i GuSweepTests.obj
 0001:00047f90       ?supportPoint@?$LocalConvex@VTriangleV@Gu@physx@@@Gu@physx@@UEBA?AT__m128@@H@Z 0000000180048f90 f i GuSweepTests.obj
 0001:00047fb0       ?sweepBoxTriangles@Gu@physx@@YA_NIPEBVPxTriangle@2@_NAEBVPxBoxGeometry@2@AEBVPxTransform@2@AEBVPxVec3@2@MAEAUPxSweepHit@2@PEBIMV?$PxFlags@W4Enum@PxHitFlag@physx@@G@2@@Z 0000000180048fb0 f   GuSweepTests.obj
 0001:00048a40       ??$?_UV?$ReflectionAllocator@VAABBTreeBuildNode@Gu@physx@@@shdfnd@physx@@@UserAllocated@shdfnd@physx@@SAPEAX_KV?$ReflectionAllocator@VAABBTreeBuildNode@Gu@physx@@@12@PEBDH@Z 0000000180049a40 f i GuAABBTreeBuild.obj
 0001:00048ae0       ??$copy@VNamedAllocator@shdfnd@physx@@@?$Array@USlab@NodeAllocator@Gu@physx@@VNamedAllocator@shdfnd@4@@shdfnd@physx@@IEAAXAEBV012@@Z 0000000180049ae0 f i GuAABBTreeBuild.obj
 0001:00048b60       ??0AABBTreeBuildNode@Gu@physx@@QEAA@AEBV012@@Z 0000000180049b60 f i GuAABBTreeBuild.obj
 0001:00048b60       ??4AABBTreeBuildNode@Gu@physx@@QEAAAEAV012@AEBV012@@Z 0000000180049b60 f i GuAABBTreeBuild.obj
 0001:00048ba0       ??0AABBTreeBuildParams@Gu@physx@@QEAA@IIPEBVPxBounds3@2@@Z 0000000180049ba0 f i GuAABBTreeBuild.obj
 0001:00048bc0       ??0BuildStats@Gu@physx@@QEAA@XZ 0000000180049bc0 f i GuAABBTreeBuild.obj
 0001:00048bd0       ??0NodeAllocator@Gu@physx@@QEAA@AEBV012@@Z 0000000180049bd0 f i GuAABBTreeBuild.obj
 0001:00048c40       ??0NodeAllocator@Gu@physx@@QEAA@XZ 0000000180049c40 f   GuAABBTreeBuild.obj
 0001:00048ca0       ??1AABBTreeBuildParams@Gu@physx@@QEAA@XZ 0000000180049ca0 f i GuAABBTreeBuild.obj
 0001:00048ca0       ?reset@AABBTreeBuildParams@Gu@physx@@QEAAXXZ 0000000180049ca0 f i GuAABBTreeBuild.obj
 0001:00048d00       ??1NodeAllocator@Gu@physx@@QEAA@XZ 0000000180049d00 f   GuAABBTreeBuild.obj
 0001:00048d40       ??4AABBTreeBuildParams@Gu@physx@@QEAAAEAV012@AEBV012@@Z 0000000180049d40 f i GuAABBTreeBuild.obj
 0001:00048d60       ??4BuildStats@Gu@physx@@QEAAAEAU012@$$QEAU012@@Z 0000000180049d60 f i GuAABBTreeBuild.obj
 0001:00048d70       ??4BuildStats@Gu@physx@@QEAAAEAU012@AEBU012@@Z 0000000180049d70 f i GuAABBTreeBuild.obj
 0001:00048d80       ??4NodeAllocator@Gu@physx@@QEAAAEAV012@AEBV012@@Z 0000000180049d80 f i GuAABBTreeBuild.obj
 0001:00048e30       ??_FAABBTreeBuildParams@Gu@physx@@QEAAXXZ 0000000180049e30 f i GuAABBTreeBuild.obj
 0001:00048e50       ?_buildHierarchy@AABBTreeBuildNode@Gu@physx@@QEAAXAEAVAABBTreeBuildParams@23@AEAUBuildStats@23@AEAVNodeAllocator@23@QEAI@Z 0000000180049e50 f   GuAABBTreeBuild.obj
 0001:00048ee0       ?allocate@?$Array@USlab@NodeAllocator@Gu@physx@@VNamedAllocator@shdfnd@4@@shdfnd@physx@@IEAAPEAUSlab@NodeAllocator@Gu@3@I@Z 0000000180049ee0 f i GuAABBTreeBuild.obj
 0001:00048f50       ?buildAABBTree@Gu@physx@@YA_NAEAVAABBTreeBuildParams@12@AEAVNodeAllocator@12@AEAUBuildStats@12@AEAPEAI@Z 0000000180049f50 f   GuAABBTreeBuild.obj
 0001:00048fb0       ?getBiNode@NodeAllocator@Gu@physx@@QEAAPEAVAABBTreeBuildNode@23@XZ 0000000180049fb0 f   GuAABBTreeBuild.obj
 0001:000490e0       ?getNbPrimitives@AABBTreeBuildNode@Gu@physx@@QEBAIXZ 000000018004a0e0 f i GuAABBTreeBuild.obj
 0001:000490e0       ?getNbRuntimePrimitives@AABBTreeBuildNode@Gu@physx@@QEBAIXZ 000000018004a0e0 f i GuAABBTreeBuild.obj
 0001:000490e0       ?getNbTriangles@TriangleMesh@Gu@physx@@UEBAIXZ 000000018004a0e0 f i GuTriangleMesh.obj
 0001:000490f0       ?getNeg@AABBTreeBuildNode@Gu@physx@@QEBAPEBV123@XZ 000000018004a0f0 f i GuAABBTreeBuild.obj
 0001:00049110       ?getPrimitives@AABBTreeBuildNode@Gu@physx@@QEAAPEAIPEAI@Z 000000018004a110 f i GuAABBTreeBuild.obj
 0001:00049110       ?getPrimitives@AABBTreeBuildNode@Gu@physx@@QEBAPEBIPEBI@Z 000000018004a110 f i GuAABBTreeBuild.obj
 0001:00049120       ?growAndPushBack@?$Array@USlab@NodeAllocator@Gu@physx@@VNamedAllocator@shdfnd@4@@shdfnd@physx@@IEAAAEAUSlab@NodeAllocator@Gu@3@AEBU4563@@Z 000000018004a120 f i GuAABBTreeBuild.obj
 0001:00049210       ?increaseCount@BuildStats@Gu@physx@@QEAAXI@Z 000000018004a210 f i GuAABBTreeBuild.obj
 0001:00049220       ?init@NodeAllocator@Gu@physx@@QEAAXII@Z 000000018004a220 f   GuAABBTreeBuild.obj
 0001:00049330       ?initAABBTreeBuild@Gu@physx@@YA_NAEAVAABBTreeBuildParams@12@AEAVNodeAllocator@12@AEAUBuildStats@12@AEAPEAI@Z 000000018004a330 f   GuAABBTreeBuild.obj
 0001:00049530       ?isLeaf@AABBTreeBuildNode@Gu@physx@@QEBA_NXZ 000000018004a530 f i GuAABBTreeBuild.obj
 0001:00049540       ?recreate@?$Array@USlab@NodeAllocator@Gu@physx@@VNamedAllocator@shdfnd@4@@shdfnd@physx@@IEAAXI@Z 000000018004a540 f i GuAABBTreeBuild.obj
 0001:000495f0       ?release@NodeAllocator@Gu@physx@@QEAAXXZ 000000018004a5f0 f   GuAABBTreeBuild.obj
 0001:000496a0       ?reset@BuildStats@Gu@physx@@QEAAXXZ 000000018004a6a0 f i GuAABBTreeBuild.obj
 0001:000496b0       ?resize@?$Array@USlab@NodeAllocator@Gu@physx@@VNamedAllocator@shdfnd@4@@shdfnd@physx@@QEAAXIAEBUSlab@NodeAllocator@Gu@3@@Z 000000018004a6b0 f i GuAABBTreeBuild.obj
 0001:00049730       ?setCount@BuildStats@Gu@physx@@QEAAXI@Z 000000018004a730 f i GuAABBTreeBuild.obj
 0001:00049740       ?setNbRunTimePrimitives@AABBTreeBuildNode@Gu@physx@@QEAAXI@Z 000000018004a740 f i GuAABBTreeBuild.obj
 0001:000498b0       ?subdivide@AABBTreeBuildNode@Gu@physx@@QEAAXAEBVAABBTreeBuildParams@23@AEAUBuildStats@23@AEAVNodeAllocator@23@QEAI@Z 000000018004a8b0 f   GuAABBTreeBuild.obj
 0001:00049a90       ??0?$InlineArray@PEBUBVHNode@Gu@physx@@$0BAA@VNamedAllocator@shdfnd@3@@shdfnd@physx@@QEAA@AEBVNamedAllocator@12@@Z 000000018004aa90 f i GuBVHStructure.obj
 0001:00049b50       ??0BVHStructure@Gu@physx@@QEAA@PEAVGuMeshFactory@2@@Z 000000018004ab50 f   GuBVHStructure.obj
 0001:00049bb0       ??0BVHStructure@Gu@physx@@QEAA@PEAVGuMeshFactory@2@AEAUBVHStructureData@12@@Z 000000018004abb0 f   GuBVHStructure.obj
 0001:00049c20       ??R?$AABBTreeOverlap@UAABBAABBTest@Gu@physx@@UBVHTree@23@UBVHNode@23@IUBVHCallback@23@@Gu@physx@@QEAA_NPEBIPEBVPxBounds3@2@AEBUBVHTree@12@AEBUAABBAABBTest@12@AEAUBVHCallback@12@@Z 000000018004ac20 f i GuBVHStructure.obj
 0001:00049f80       ??R?$AABBTreeRaycast@$00UBVHTree@Gu@physx@@UBVHNode@23@IUBVHCallback@23@@Gu@physx@@QEAA_NPEBIPEBVPxBounds3@2@AEBUBVHTree@12@AEBVPxVec3@2@3AEAM3AEAUBVHCallback@12@@Z 000000018004af80 f i GuBVHStructure.obj
 0001:0004a640       ??R?$AABBTreeRaycast@$0A@UBVHTree@Gu@physx@@UBVHNode@23@IUBVHCallback@23@@Gu@physx@@QEAA_NPEBIPEBVPxBounds3@2@AEBUBVHTree@12@AEBVPxVec3@2@3AEAM3AEAUBVHCallback@12@@Z 000000018004b640 f i GuBVHStructure.obj
 0001:0004aca0       ??_EBVHStructure@Gu@physx@@WBA@EAAPEAXI@Z 000000018004bca0 f i GuBVHStructure.obj
 0001:0004acb0       ??_EBVHStructure@Gu@physx@@UEAAPEAXI@Z 000000018004bcb0 f i GuBVHStructure.obj
 0001:0004acb0       ??_GBVHStructure@Gu@physx@@UEAAPEAXI@Z 000000018004bcb0 f i GuBVHStructure.obj
 0001:0004ad10       ??_ERefCountable@Cm@physx@@UEAAPEAXI@Z 000000018004bd10 f i GuBVHStructure.obj
 0001:0004ad10       ??_GRefCountable@Cm@physx@@UEAAPEAXI@Z 000000018004bd10 f i GuBVHStructure.obj
 0001:0004ad40       ?allocate@?$Array@PEBUBVHNode@Gu@physx@@V?$InlineAllocator@$0IAA@VNamedAllocator@shdfnd@physx@@@shdfnd@3@@shdfnd@physx@@IEAAPEAPEBUBVHNode@Gu@3@I@Z 000000018004bd40 f i GuBVHStructure.obj
 0001:0004add0       ?createVolumes@BVHStructure@Gu@physx@@AEBAXXZ 000000018004bdd0 f   GuBVHStructure.obj
 0001:0004ae50       ?getBounds@BVHStructure@Gu@physx@@UEBAPEBVPxBounds3@3@XZ 000000018004be50 f i GuBVHStructure.obj
 0001:0004ae50       ?getTriangles@TriangleMesh@Gu@physx@@UEBAPEBXXZ 000000018004be50 f i GuTriangleMesh.obj
 0001:0004ae60       ?getConcreteTypeName@PxBVHStructure@physx@@UEBAPEBDXZ 000000018004be60 f i GuBVHStructure.obj
 0001:0004ae70       ?getNbBounds@BVHStructure@Gu@physx@@UEBAIXZ 000000018004be70 f i GuBVHStructure.obj
 0001:0004ae80       ?isKindOf@PxBVHStructure@physx@@MEBA_NPEBD@Z 000000018004be80 f i GuBVHStructure.obj
 0001:0004aed0       ?load@BVHStructure@Gu@physx@@QEAA_NAEAVPxInputStream@3@@Z 000000018004bed0 f   GuBVHStructure.obj
 0001:0004b0b0       ?onRefCountZero@BVHStructure@Gu@physx@@UEAAXXZ 000000018004c0b0 f   GuBVHStructure.obj
 0001:0004b1e0       ?onRefCountZero@RefCountable@Cm@physx@@UEAAXXZ 000000018004c1e0 f i GuBVHStructure.obj
 0001:0004b200       ?overlap@BVHStructure@Gu@physx@@UEBAIAEBVPxBounds3@3@IPEIAI@Z 000000018004c200 f   GuBVHStructure.obj
 0001:0004b340       ?raycast@BVHStructure@Gu@physx@@UEBAIAEBVPxVec3@3@0MIPEIAI@Z 000000018004c340 f   GuBVHStructure.obj
 0001:0004b410       ?recreate@?$Array@PEBUBVHNode@Gu@physx@@V?$InlineAllocator@$0IAA@VNamedAllocator@shdfnd@physx@@@shdfnd@3@@shdfnd@physx@@IEAAXI@Z 000000018004c410 f i GuBVHStructure.obj
 0001:0004b4b0       ?release@BVHStructure@Gu@physx@@UEAAXXZ 000000018004c4b0 f   GuBVHStructure.obj
 0001:0004b4b0       ?release@ConvexMesh@Gu@physx@@UEAAXXZ 000000018004c4b0 f   GuConvexMesh.obj
 0001:0004b4b0       ?release@HeightField@Gu@physx@@UEAAXXZ 000000018004c4b0 f   GuHeightField.obj
 0001:0004b4b0       ?release@TriangleMesh@Gu@physx@@UEAAXXZ 000000018004c4b0 f   GuTriangleMesh.obj
 0001:0004b4e0       ?resizeUninitialized@?$Array@PEBUBVHNode@Gu@physx@@V?$InlineAllocator@$0IAA@VNamedAllocator@shdfnd@physx@@@shdfnd@3@@shdfnd@physx@@QEAAXI@Z 000000018004c4e0 f i GuBVHStructure.obj
 0001:0004b530       ?sweep@BVHStructure@Gu@physx@@UEBAIAEBVPxBounds3@3@AEBVPxVec3@3@MIPEIAI@Z 000000018004c530 f   GuBVHStructure.obj
 0001:0004b720       ?SweepAnyShapeHeightfield@Gu@physx@@YAMAEBUCCDShape@12@0AEBVPxTransform@2@111MAEAVPxVec3@2@2MAEAIM@Z 000000018004c720 f   GuCCDSweepConvexMesh.obj
 0001:0004c990       ?SweepAnyShapeMesh@Gu@physx@@YAMAEBUCCDShape@12@0AEBVPxTransform@2@111MAEAVPxVec3@2@2MAEAIM@Z 000000018004d990 f   GuCCDSweepConvexMesh.obj
 0001:0004e2f0       ?SweepEstimateAnyShapeHeightfield@Gu@physx@@YAMAEBUCCDShape@12@0AEBVPxTransform@2@111MM@Z 000000018004f2f0 f   GuCCDSweepConvexMesh.obj
 0001:0004ec40       ?SweepEstimateAnyShapeMesh@Gu@physx@@YAMAEBUCCDShape@12@0AEBVPxTransform@2@111MM@Z 000000018004fc40 f   GuCCDSweepConvexMesh.obj
 0001:0004ef00       ?allocate@?$Array@IV?$InlineAllocator@$0BAA@VNamedAllocator@shdfnd@physx@@@shdfnd@physx@@@shdfnd@physx@@IEAAPEAII@Z 000000018004ff00 f i GuCCDSweepConvexMesh.obj
 0001:0004fb10       ?growAndPushBack@?$Array@IV?$InlineAllocator@$0BAA@VNamedAllocator@shdfnd@physx@@@shdfnd@physx@@@shdfnd@physx@@IEAAAEAIAEBI@Z 0000000180050b10 f i GuCCDSweepConvexMesh.obj
 0001:00050200       ?recreate@?$Array@IV?$InlineAllocator@$0BAA@VNamedAllocator@shdfnd@physx@@@shdfnd@physx@@@shdfnd@physx@@IEAAXI@Z 0000000180051200 f i GuCCDSweepConvexMesh.obj
 0001:000502a0       ?resize@?$Array@IV?$InlineAllocator@$0BAA@VNamedAllocator@shdfnd@physx@@@shdfnd@physx@@@shdfnd@physx@@QEAAXIAEBI@Z 00000001800512a0 f i GuCCDSweepConvexMesh.obj
 0001:00050370       ?resize@?$Array@IVNamedAllocator@shdfnd@physx@@@shdfnd@physx@@QEAAXIAEBI@Z 0000000180051370 f i GuCCDSweepConvexMesh.obj
 0001:00050430       ?transformBoxOrthonormal@physx@@YA?AVBox@Gu@1@AEBV231@AEBVPxTransform@1@@Z 0000000180051430 f i GuCCDSweepConvexMesh.obj
 0001:000508c0       ?UnimplementedSweep@Gu@physx@@YAMAEBUCCDShape@12@0AEBVPxTransform@2@111MAEAVPxVec3@2@2MAEAIM@Z 00000001800518c0 f   GuCCDSweepPrimitives.obj
 0001:000508d0       ??$SweepGeomGeom@VCapsuleV@Gu@physx@@V123@@Gu@physx@@YAMAEBUCCDShape@01@0AEBVPxTransform@1@111MAEAVPxVec3@1@2MAEAIM@Z 00000001800518d0 f i GuCCDSweepPrimitives.obj
 0001:00050a00       ??$SweepGeomGeom@VCapsuleV@Gu@physx@@VBoxV@23@@Gu@physx@@YAMAEBUCCDShape@01@0AEBVPxTransform@1@111MAEAVPxVec3@1@2MAEAIM@Z 0000000180051a00 f i GuCCDSweepPrimitives.obj
 0001:00050b60       ??$SweepGeomGeom@VCapsuleV@Gu@physx@@VConvexHullV@23@@Gu@physx@@YAMAEBUCCDShape@01@0AEBVPxTransform@1@111MAEAVPxVec3@1@2MAEAIM@Z 0000000180051b60 f i GuCCDSweepPrimitives.obj
 0001:000510c0       ??$SweepGeomGeom@VBoxV@Gu@physx@@V123@@Gu@physx@@YAMAEBUCCDShape@01@0AEBVPxTransform@1@111MAEAVPxVec3@1@2MAEAIM@Z 00000001800520c0 f i GuCCDSweepPrimitives.obj
 0001:00051250       ??$SweepGeomGeom@VBoxV@Gu@physx@@VConvexHullV@23@@Gu@physx@@YAMAEBUCCDShape@01@0AEBVPxTransform@1@111MAEAVPxVec3@1@2MAEAIM@Z 0000000180052250 f i GuCCDSweepPrimitives.obj
 0001:000517d0       ??$SweepGeomGeom@VConvexHullV@Gu@physx@@V123@@Gu@physx@@YAMAEBUCCDShape@01@0AEBVPxTransform@1@111MAEAVPxVec3@1@2MAEAIM@Z 00000001800527d0 f i GuCCDSweepPrimitives.obj
 0001:000520f0       ?UnimplementedTriangleSweep@Gu@physx@@YAMAEBVGeometryUnion@12@0AEBVPxTransform@2@111MAEAVPxVec3@2@2AEBVFastVertex2ShapeScaling@Cm@2@AEAVTriangleV@12@M@Z 00000001800530f0 f   GuCCDSweepPrimitives.obj
 0001:00052100       ??$SweepGeomTriangles@VCapsuleV@Gu@physx@@@Gu@physx@@YAMAEBVGeometryUnion@01@0AEBVPxTransform@1@111MAEAVPxVec3@1@2AEBVFastVertex2ShapeScaling@Cm@1@AEAVTriangleV@01@M@Z 0000000180053100 f i GuCCDSweepPrimitives.obj
 0001:000521d0       ??$SweepGeomTriangles@VBoxV@Gu@physx@@@Gu@physx@@YAMAEBVGeometryUnion@01@0AEBVPxTransform@1@111MAEAVPxVec3@1@2AEBVFastVertex2ShapeScaling@Cm@1@AEAVTriangleV@01@M@Z 00000001800531d0 f i GuCCDSweepPrimitives.obj
 0001:000522d0       ??$SweepGeomTriangles@VConvexHullV@Gu@physx@@@Gu@physx@@YAMAEBVGeometryUnion@01@0AEBVPxTransform@1@111MAEAVPxVec3@1@2AEBVFastVertex2ShapeScaling@Cm@1@AEAVTriangleV@01@M@Z 00000001800532d0 f i GuCCDSweepPrimitives.obj
 0001:000527e0       ?supportPoint@?$RelativeConvex@VCapsuleV@Gu@physx@@@Gu@physx@@UEBA?AT__m128@@H@Z 00000001800537e0 f i GuCCDSweepPrimitives.obj
 0001:00052840       ?support@?$RelativeConvex@VCapsuleV@Gu@physx@@@Gu@physx@@UEBA?AT__m128@@AEBT4@@Z 0000000180053840 f i GuCCDSweepPrimitives.obj
 0001:000528f0       ?support@?$RelativeConvex@VCapsuleV@Gu@physx@@@Gu@physx@@UEBA?AT__m128@@AEBT4@AEAH@Z 00000001800538f0 f i GuCCDSweepPrimitives.obj
 0001:000529b0       ?supportPoint@?$RelativeConvex@VTriangleV@Gu@physx@@@Gu@physx@@UEBA?AT__m128@@H@Z 00000001800539b0 f i GuCCDSweepPrimitives.obj
 0001:00052a00       ?support@?$RelativeConvex@VTriangleV@Gu@physx@@@Gu@physx@@UEBA?AT__m128@@AEBT4@@Z 0000000180053a00 f i GuCCDSweepPrimitives.obj
 0001:00052b00       ?support@?$RelativeConvex@VTriangleV@Gu@physx@@@Gu@physx@@UEBA?AT__m128@@AEBT4@AEAH@Z 0000000180053b00 f i GuCCDSweepPrimitives.obj
 0001:00056a20       ??$gjkPenetration@U?$RelativeConvex@VCapsuleV@Gu@physx@@@Gu@physx@@U?$LocalConvex@VBoxV@Gu@physx@@@23@@Gu@physx@@YA?AW4GjkStatus@01@AEBU?$RelativeConvex@VCapsuleV@Gu@physx@@@01@AEBU?$LocalConvex@VBoxV@Gu@physx@@@01@AEBT__m128@@2_NPEIAE4AEAEAEAUGjkOutput@01@@Z 0000000180057a20 f i GuCCDSweepPrimitives.obj
 0001:00058010       ??$gjkPenetration@U?$RelativeConvex@VCapsuleV@Gu@physx@@@Gu@physx@@U?$LocalConvex@VCapsuleV@Gu@physx@@@23@@Gu@physx@@YA?AW4GjkStatus@01@AEBU?$RelativeConvex@VCapsuleV@Gu@physx@@@01@AEBU?$LocalConvex@VCapsuleV@Gu@physx@@@01@AEBT__m128@@2_NPEIAE4AEAEAEAUGjkOutput@01@@Z 0000000180059010 f i GuCCDSweepPrimitives.obj
 0001:00059630       ??$gjkPenetration@U?$RelativeConvex@VCapsuleV@Gu@physx@@@Gu@physx@@U?$LocalConvex@VConvexHullV@Gu@physx@@@23@@Gu@physx@@YA?AW4GjkStatus@01@AEBU?$RelativeConvex@VCapsuleV@Gu@physx@@@01@AEBU?$LocalConvex@VConvexHullV@Gu@physx@@@01@AEBT__m128@@2_NPEIAE4AEAEAEAUGjkOutput@01@@Z 000000018005a630 f i GuCCDSweepPrimitives.obj
 0001:0005acc0       ??$gjkPenetration@U?$RelativeConvex@VTriangleV@Gu@physx@@@Gu@physx@@U?$LocalConvex@VBoxV@Gu@physx@@@23@@Gu@physx@@YA?AW4GjkStatus@01@AEBU?$RelativeConvex@VTriangleV@Gu@physx@@@01@AEBU?$LocalConvex@VBoxV@Gu@physx@@@01@AEBT__m128@@2_NPEIAE4AEAEAEAUGjkOutput@01@@Z 000000018005bcc0 f i GuCCDSweepPrimitives.obj
 0001:0005c2f0       ??$gjkPenetration@U?$RelativeConvex@VTriangleV@Gu@physx@@@Gu@physx@@U?$LocalConvex@VCapsuleV@Gu@physx@@@23@@Gu@physx@@YA?AW4GjkStatus@01@AEBU?$RelativeConvex@VTriangleV@Gu@physx@@@01@AEBU?$LocalConvex@VCapsuleV@Gu@physx@@@01@AEBT__m128@@2_NPEIAE4AEAEAEAUGjkOutput@01@@Z 000000018005d2f0 f i GuCCDSweepPrimitives.obj
 0001:0005d8f0       ??$gjkPenetration@U?$RelativeConvex@VTriangleV@Gu@physx@@@Gu@physx@@U?$LocalConvex@VConvexHullV@Gu@physx@@@23@@Gu@physx@@YA?AW4GjkStatus@01@AEBU?$RelativeConvex@VTriangleV@Gu@physx@@@01@AEBU?$LocalConvex@VConvexHullV@Gu@physx@@@01@AEBT__m128@@2_NPEIAE4AEAEAEAUGjkOutput@01@@Z 000000018005e8f0 f i GuCCDSweepPrimitives.obj
 0001:0005ef80       ??$gjkRaycast@U?$RelativeConvex@VCapsuleV@Gu@physx@@@Gu@physx@@U?$LocalConvex@VBoxV@Gu@physx@@@23@@Gu@physx@@YA_NAEBU?$RelativeConvex@VCapsuleV@Gu@physx@@@01@AEBU?$LocalConvex@VBoxV@Gu@physx@@@01@AEBT__m128@@222AEAT4@33M@Z 000000018005ff80 f i GuCCDSweepPrimitives.obj
 0001:0005fc10       ??$gjkRaycast@U?$RelativeConvex@VCapsuleV@Gu@physx@@@Gu@physx@@U?$LocalConvex@VCapsuleV@Gu@physx@@@23@@Gu@physx@@YA_NAEBU?$RelativeConvex@VCapsuleV@Gu@physx@@@01@AEBU?$LocalConvex@VCapsuleV@Gu@physx@@@01@AEBT__m128@@222AEAT4@33M@Z 0000000180060c10 f i GuCCDSweepPrimitives.obj
 0001:00060920       ??$gjkRaycast@U?$RelativeConvex@VCapsuleV@Gu@physx@@@Gu@physx@@U?$LocalConvex@VConvexHullV@Gu@physx@@@23@@Gu@physx@@YA_NAEBU?$RelativeConvex@VCapsuleV@Gu@physx@@@01@AEBU?$LocalConvex@VConvexHullV@Gu@physx@@@01@AEBT__m128@@222AEAT4@33M@Z 0000000180061920 f i GuCCDSweepPrimitives.obj
 0001:00061750       ??$gjkRaycast@U?$RelativeConvex@VTriangleV@Gu@physx@@@Gu@physx@@U?$LocalConvex@VBoxV@Gu@physx@@@23@@Gu@physx@@YA_NAEBU?$RelativeConvex@VTriangleV@Gu@physx@@@01@AEBU?$LocalConvex@VBoxV@Gu@physx@@@01@AEBT__m128@@222AEAT4@33M@Z 0000000180062750 f i GuCCDSweepPrimitives.obj
 0001:000624a0       ??$gjkRaycast@U?$RelativeConvex@VTriangleV@Gu@physx@@@Gu@physx@@U?$LocalConvex@VCapsuleV@Gu@physx@@@23@@Gu@physx@@YA_NAEBU?$RelativeConvex@VTriangleV@Gu@physx@@@01@AEBU?$LocalConvex@VCapsuleV@Gu@physx@@@01@AEBT__m128@@222AEAT4@33M@Z 00000001800634a0 f i GuCCDSweepPrimitives.obj
 0001:00063230       ??$gjkRaycast@U?$RelativeConvex@VTriangleV@Gu@physx@@@Gu@physx@@U?$LocalConvex@VConvexHullV@Gu@physx@@@23@@Gu@physx@@YA_NAEBU?$RelativeConvex@VTriangleV@Gu@physx@@@01@AEBU?$LocalConvex@VConvexHullV@Gu@physx@@@01@AEBT__m128@@222AEAT4@33M@Z 0000000180064230 f i GuCCDSweepPrimitives.obj
 0001:00064100       ?SweepShapeShape@Gu@physx@@YAMAEBUCCDShape@12@0AEBVPxTransform@2@111MAEAVPxVec3@2@2MAEAIM@Z 0000000180065100 f   GuCCDSweepPrimitives.obj
 0001:00064120       ?SweepShapeTriangle@Gu@physx@@YAMAEBVGeometryUnion@12@0AEBVPxTransform@2@111MAEAVPxVec3@2@2AEBVFastVertex2ShapeScaling@Cm@2@AEAVTriangleV@12@M@Z 0000000180065120 f   GuCCDSweepPrimitives.obj
 0001:00064140       ?barycentricCoordinates@Gu@physx@@YAXAEBT__m128@@000AEAT3@1@Z 0000000180065140 f   GuBarycentricCoordinates.obj
 0001:00064290       ?barycentricCoordinates@Gu@physx@@YAXAEBT__m128@@00AEAT3@@Z 0000000180065290 f   GuBarycentricCoordinates.obj
 0001:00064300       ?addAxis@SeparatingAxes@Gu@physx@@QEAA_NAEBVPxVec3@3@@Z 0000000180065300 f   GuSeparatingAxes.obj
 0001:000643c0       ?contactBoxBox@Gu@physx@@YA_NAEBVGeometryUnion@12@0AEBVPxTransform@2@1AEBUNarrowPhaseParams@12@AEAUCache@12@AEAVContactBuffer@12@PEAVRenderOutput@Cm@2@@Z 00000001800653c0 f   GuContactBoxBox.obj
 0001:000682c0       ?contactCapsuleBox@Gu@physx@@YA_NAEBVGeometryUnion@12@0AEBVPxTransform@2@1AEBUNarrowPhaseParams@12@AEAUCache@12@AEAVContactBuffer@12@PEAVRenderOutput@Cm@2@@Z 00000001800692c0 f   GuContactCapsuleBox.obj
 0001:00068ad0       ?contactCapsuleCapsule@Gu@physx@@YA_NAEBVGeometryUnion@12@0AEBVPxTransform@2@1AEBUNarrowPhaseParams@12@AEAUCache@12@AEAVContactBuffer@12@PEAVRenderOutput@Cm@2@@Z 0000000180069ad0 f   GuContactCapsuleCapsule.obj
 0001:0006b4f0       ?contactCapsuleConvex@Gu@physx@@YA_NAEBVGeometryUnion@12@0AEBVPxTransform@2@1AEBUNarrowPhaseParams@12@AEAUCache@12@AEAVContactBuffer@12@PEAVRenderOutput@Cm@2@@Z 000000018006c4f0 f   GuContactCapsuleConvex.obj
 0001:0006da00       ?contactCapsuleHeightfield@Gu@physx@@YA_NAEBVGeometryUnion@12@0AEBVPxTransform@2@1AEBUNarrowPhaseParams@12@AEAUCache@12@AEAVContactBuffer@12@PEAVRenderOutput@Cm@2@@Z 000000018006ea00 f   GuContactCapsuleMesh.obj
 0001:0006e030       ?contactCapsuleMesh@Gu@physx@@YA_NAEBVGeometryUnion@12@0AEBVPxTransform@2@1AEBUNarrowPhaseParams@12@AEAUCache@12@AEAVContactBuffer@12@PEAVRenderOutput@Cm@2@@Z 000000018006f030 f   GuContactCapsuleMesh.obj
 0001:0006f150       ?transformFast@PxBounds3@physx@@SA?AV12@AEBVPxTransform@2@AEBV12@@Z 0000000180070150 f i GuContactCapsuleMesh.obj
 0001:0006f530       ?transformQueryBounds@FastVertex2ShapeScaling@Cm@physx@@QEBAXAEAVPxVec3@3@0AEAVPxMat33@3@@Z 0000000180070530 f i GuContactCapsuleMesh.obj
 0001:00073a50       ?contactBoxConvex@Gu@physx@@YA_NAEBVGeometryUnion@12@0AEBVPxTransform@2@1AEBUNarrowPhaseParams@12@AEAUCache@12@AEAVContactBuffer@12@PEAVRenderOutput@Cm@2@@Z 0000000180074a50 f   GuContactConvexConvex.obj
 0001:00073be0       ?contactConvexConvex@Gu@physx@@YA_NAEBVGeometryUnion@12@0AEBVPxTransform@2@1AEBUNarrowPhaseParams@12@AEAUCache@12@AEAVContactBuffer@12@PEAVRenderOutput@Cm@2@@Z 0000000180074be0 f   GuContactConvexConvex.obj
 0001:00074030       ?transformPlaneToShapeSpace@FastVertex2ShapeScaling@Cm@physx@@QEBAXAEBVPxVec3@3@MAEAV43@AEAM@Z 0000000180075030 f i GuContactConvexConvex.obj
 0001:00074120       ??0?$CacheMap@UCachedEdge@Gu@physx@@$0IA@@Gu@physx@@QEAA@XZ 0000000180075120 f i GuContactConvexMesh.obj
 0001:000741e0       ??0?$CacheMap@UCachedVertex@Gu@physx@@$0IA@@Gu@physx@@QEAA@XZ 00000001800751e0 f i GuContactConvexMesh.obj
 0001:000742a0       ??0?$InlineArray@I$0EEA@VNamedAllocator@shdfnd@physx@@@shdfnd@physx@@QEAA@AEBVNamedAllocator@12@@Z 00000001800752a0 f i GuContactConvexMesh.obj
 0001:00074880       ??_EConvexMeshContactGenerationCallback@@UEAAPEAXI@Z 0000000180075880 f i GuContactConvexMesh.obj
 0001:00074880       ??_GConvexMeshContactGenerationCallback@@UEAAPEAXI@Z 0000000180075880 f i GuContactConvexMesh.obj
 0001:000748e0       ?addData@?$CacheMap@UCachedEdge@Gu@physx@@$0IA@@Gu@physx@@QEAA_NAEBUCachedEdge@23@@Z 00000001800758e0 f i GuContactConvexMesh.obj
 0001:000749c0       ?addData@?$CacheMap@UCachedVertex@Gu@physx@@$0IA@@Gu@physx@@QEAA_NAEBUCachedVertex@23@@Z 00000001800759c0 f i GuContactConvexMesh.obj
 0001:00074a50       ?allocate@?$Array@IV?$InlineAllocator@$0BBAA@VNamedAllocator@shdfnd@physx@@@shdfnd@physx@@@shdfnd@physx@@IEAAPEAII@Z 0000000180075a50 f i GuContactConvexMesh.obj
 0001:00074e20       ?contactBoxHeightfield@Gu@physx@@YA_NAEBVGeometryUnion@12@0AEBVPxTransform@2@1AEBUNarrowPhaseParams@12@AEAUCache@12@AEAVContactBuffer@12@PEAVRenderOutput@Cm@2@@Z 0000000180075e20 f   GuContactConvexMesh.obj
 0001:00074f80       ?contactBoxMesh@Gu@physx@@YA_NAEBVGeometryUnion@12@0AEBVPxTransform@2@1AEBUNarrowPhaseParams@12@AEAUCache@12@AEAVContactBuffer@12@PEAVRenderOutput@Cm@2@@Z 0000000180075f80 f   GuContactConvexMesh.obj
 0001:00075130       ?contactConvexHeightfield@Gu@physx@@YA_NAEBVGeometryUnion@12@0AEBVPxTransform@2@1AEBUNarrowPhaseParams@12@AEAUCache@12@AEAVContactBuffer@12@PEAVRenderOutput@Cm@2@@Z 0000000180076130 f   GuContactConvexMesh.obj
 0001:00075260       ?contactConvexMesh@Gu@physx@@YA_NAEBVGeometryUnion@12@0AEBVPxTransform@2@1AEBUNarrowPhaseParams@12@AEAUCache@12@AEAVContactBuffer@12@PEAVRenderOutput@Cm@2@@Z 0000000180076260 f   GuContactConvexMesh.obj
 0001:00078960       ?processHit@ConvexMeshContactGenerationCallback@@UEAA_NAEBUPxRaycastHit@physx@@AEBVPxVec3@3@11AEAMPEBI@Z 0000000180079960 f i GuContactConvexMesh.obj
 0001:00079290       ?recreate@?$Array@IV?$InlineAllocator@$0BBAA@VNamedAllocator@shdfnd@physx@@@shdfnd@physx@@@shdfnd@physx@@IEAAXI@Z 000000018007a290 f i GuContactConvexMesh.obj
 0001:0007a2e0       ?contactPlaneBox@Gu@physx@@YA_NAEBVGeometryUnion@12@0AEBVPxTransform@2@1AEBUNarrowPhaseParams@12@AEAUCache@12@AEAVContactBuffer@12@PEAVRenderOutput@Cm@2@@Z 000000018007b2e0 f   GuContactPlaneBox.obj
 0001:0007af10       ?contactPlaneCapsule@Gu@physx@@YA_NAEBVGeometryUnion@12@0AEBVPxTransform@2@1AEBUNarrowPhaseParams@12@AEAUCache@12@AEAVContactBuffer@12@PEAVRenderOutput@Cm@2@@Z 000000018007bf10 f   GuContactPlaneCapsule.obj
 0001:0007b530       ?contactPlaneConvex@Gu@physx@@YA_NAEBVGeometryUnion@12@0AEBVPxTransform@2@1AEBUNarrowPhaseParams@12@AEAUCache@12@AEAVContactBuffer@12@PEAVRenderOutput@Cm@2@@Z 000000018007c530 f   GuContactPlaneConvex.obj
 0001:0007d260       ?contactPolygonPolygonExt@Gu@physx@@YA_NIPEBVPxVec3@2@PEBEAEBVMatrix34@Cm@2@AEBVPxPlane@2@AEBVPxMat33@2@I01234AEBV32@22IIAEAVContactBuffer@12@_N5M@Z 000000018007e260 f   GuContactPolygonPolygon.obj
 0001:0007e9c0       ?findRotationMatrixFromZ@Gu@physx@@YA?AVPxMat33@2@AEBVPxVec3@2@@Z 000000018007f9c0 f   GuContactPolygonPolygon.obj
 0001:0007f3e0       ?contactSphereBox@Gu@physx@@YA_NAEBVGeometryUnion@12@0AEBVPxTransform@2@1AEBUNarrowPhaseParams@12@AEAUCache@12@AEAVContactBuffer@12@PEAVRenderOutput@Cm@2@@Z 00000001800803e0 f   GuContactSphereBox.obj
 0001:0007f9a0       ?contactSphereCapsule@Gu@physx@@YA_NAEBVGeometryUnion@12@0AEBVPxTransform@2@1AEBUNarrowPhaseParams@12@AEAUCache@12@AEAVContactBuffer@12@PEAVRenderOutput@Cm@2@@Z 00000001800809a0 f   GuContactSphereCapsule.obj
 0001:00080770       ?contactSphereHeightfield@Gu@physx@@YA_NAEBVGeometryUnion@12@0AEBVPxTransform@2@1AEBUNarrowPhaseParams@12@AEAUCache@12@AEAVContactBuffer@12@PEAVRenderOutput@Cm@2@@Z 0000000180081770 f   GuContactSphereMesh.obj
 0001:00081190       ?contactSphereMesh@Gu@physx@@YA_NAEBVGeometryUnion@12@0AEBVPxTransform@2@1AEBUNarrowPhaseParams@12@AEAUCache@12@AEAVContactBuffer@12@PEAVRenderOutput@Cm@2@@Z 0000000180082190 f   GuContactSphereMesh.obj
 0001:000835b0       ?contactSpherePlane@Gu@physx@@YA_NAEBVGeometryUnion@12@0AEBVPxTransform@2@1AEBUNarrowPhaseParams@12@AEAUCache@12@AEAVContactBuffer@12@PEAVRenderOutput@Cm@2@@Z 00000001800845b0 f   GuContactSpherePlane.obj
 0001:000837b0       ?contactSphereSphere@Gu@physx@@YA_NAEBVGeometryUnion@12@0AEBVPxTransform@2@1AEBUNarrowPhaseParams@12@AEAUCache@12@AEAVContactBuffer@12@PEAVRenderOutput@Cm@2@@Z 00000001800847b0 f   GuContactSphereSphere.obj
 0001:00083920       ?selectNormal@Gu@physx@@YA_NEMM@Z 0000000180084920 f   GuFeatureCode.obj
 0001:000839a0       ??0BigConvexData@physx@@QEAA@XZ 00000001800849a0 f   GuBigConvexData.obj
 0001:000839c0       ??1BigConvexData@physx@@QEAA@XZ 00000001800849c0 f   GuBigConvexData.obj
 0001:00083a40       ?ComputeNearestOffset@BigConvexData@physx@@QEBAIAEBVPxVec3@2@@Z 0000000180084a40 f   GuBigConvexData.obj
 0001:00083b40       ?ComputeOffset@BigConvexData@physx@@QEBAIAEBVPxVec3@2@@Z 0000000180084b40 f   GuBigConvexData.obj
 0001:00083c40       ?CreateOffsets@BigConvexData@physx@@IEAAXXZ 0000000180084c40 f   GuBigConvexData.obj
 0001:00083c90       ?Load@BigConvexData@physx@@QEAA_NAEAVPxInputStream@2@@Z 0000000180084c90 f   GuBigConvexData.obj
 0001:00083db0       ?VLoad@BigConvexData@physx@@IEAA_NAEAVPxInputStream@2@@Z 0000000180084db0 f   GuBigConvexData.obj
 0001:00083f50       ?exportExtraData@BigConvexData@physx@@QEAAXAEAVPxSerializationContext@2@@Z 0000000180084f50 f   GuBigConvexData.obj
 0001:00083fd0       ?importExtraData@BigConvexData@physx@@QEAAXAEAVPxDeserializationContext@2@@Z 0000000180084fd0 f   GuBigConvexData.obj
 0001:00084040       ?findUniqueConvexEdges@Gu@physx@@YAIIPEIAUConvexEdge@12@IPEIBUHullPolygonData@12@PEIBE@Z 0000000180085040 f   GuConvexHelper.obj
 0001:00084180       ?getConvexData@Gu@physx@@YA_NAEBVGeometryUnion@12@AEAVFastVertex2ShapeScaling@Cm@2@AEAVPxBounds3@2@AEAUPolygonalData@12@@Z 0000000180085180 f   GuConvexHelper.obj
 0001:00084400       ?getScaledConvex@Gu@physx@@YAXAEAPEAVPxVec3@2@AEAPEAEPEAV32@PEAE_NPEBV32@PEBEIAEBVFastVertex2ShapeScaling@Cm@2@@Z 0000000180085400 f   GuConvexHelper.obj
 0001:00084530       ??0ConvexMesh@Gu@physx@@QEAA@AEAVGuMeshFactory@2@AEAUConvexHullInitData@12@@Z 0000000180085530 f   GuConvexMesh.obj
 0001:00084660       ??0ConvexMesh@Gu@physx@@QEAA@XZ 0000000180085660 f   GuConvexMesh.obj
 0001:00084700       ??1ConvexMesh@Gu@physx@@UEAA@XZ 0000000180085700 f   GuConvexMesh.obj
 0001:000847a0       ??_EConvexMesh@Gu@physx@@UEAAPEAXI@Z 00000001800857a0 f i GuConvexMesh.obj
 0001:000848b0       ??_EConvexMesh@Gu@physx@@WBA@EAAPEAXI@Z 00000001800858b0 f i GuConvexMesh.obj
 0001:000848c0       ??_EPxConvexMesh@physx@@MEAAPEAXI@Z 00000001800858c0 f i GuConvexMesh.obj
 0001:000848c0       ??_EPxHeightField@physx@@MEAAPEAXI@Z 00000001800858c0 f i GuHeightField.obj
 0001:00084950       ?acquireReference@ConvexMesh@Gu@physx@@UEAAXXZ 0000000180085950 f   GuConvexMesh.obj
 0001:00084950       ?acquireReference@HeightField@Gu@physx@@UEAAXXZ 0000000180085950 f   GuHeightField.obj
 0001:00084950       ?acquireReference@TriangleMesh@Gu@physx@@UEAAXXZ 0000000180085950 f   GuTriangleMesh.obj
 0001:00084de0       ?createObject@ConvexMesh@Gu@physx@@SAPEAV123@AEAPEAEAEAVPxDeserializationContext@3@@Z 0000000180085de0 f   GuConvexMesh.obj
 0001:00084e30       ?exportExtraData@ConvexMesh@Gu@physx@@UEAAXAEAVPxSerializationContext@3@@Z 0000000180085e30 f   GuConvexMesh.obj
 0001:00084f00       ?getLocalBounds@ConvexMesh@Gu@physx@@UEBA?AVPxBounds3@3@XZ 0000000180085f00 f   GuConvexMesh.obj
 0001:00084f90       ?getMassInformation@ConvexMesh@Gu@physx@@UEBAXAEAMAEAVPxMat33@3@AEAVPxVec3@3@@Z 0000000180085f90 f   GuConvexMesh.obj
 0001:00085000       ?getPolygonData@ConvexMesh@Gu@physx@@UEBA_NIAEAUPxHullPolygon@3@@Z 0000000180086000 f   GuConvexMesh.obj
 0001:00085050       ?getReferenceCount@ConvexMesh@Gu@physx@@UEBAIXZ 0000000180086050 f   GuConvexMesh.obj
 0001:00085050       ?getReferenceCount@HeightField@Gu@physx@@UEBAIXZ 0000000180086050 f   GuHeightField.obj
 0001:00085050       ?getReferenceCount@TriangleMesh@Gu@physx@@UEBAIXZ 0000000180086050 f   GuTriangleMesh.obj
 0001:00085060       ?importExtraData@ConvexMesh@Gu@physx@@QEAAXAEAVPxDeserializationContext@3@@Z 0000000180086060 f   GuConvexMesh.obj
 0001:00085120       ?isGpuCompatible@ConvexMesh@Gu@physx@@UEBA_NXZ 0000000180086120 f   GuConvexMesh.obj
 0001:00085140       ?load@ConvexMesh@Gu@physx@@QEAA_NAEAVPxInputStream@3@@Z 0000000180086140 f   GuConvexMesh.obj
 0001:00085400       ?onRefCountZero@ConvexMesh@Gu@physx@@UEAAXXZ 0000000180086400 f   GuConvexMesh.obj
 0001:000854f0       ??Dphysx@@YA?AVMatrix34@Cm@0@AEBVPxMeshScale@0@AEBV120@@Z 00000001800864f0 f i GuConvexUtilsInternal.obj
 0001:00085ac0       ?computeHullOBB@Gu@physx@@YAXAEAVBox@12@AEBVPxBounds3@2@MAEBVMatrix34@Cm@2@2AEBVFastVertex2ShapeScaling@62@_N@Z 0000000180086ac0 f   GuConvexUtilsInternal.obj
 0001:00085f70       ?computeOBBAroundConvex@Gu@physx@@YAXAEAVBox@12@AEBVPxConvexMeshGeometry@2@PEBVPxConvexMesh@2@AEBVPxTransform@2@@Z 0000000180086f70 f   GuConvexUtilsInternal.obj
 0001:00086880       ?computeVertexSpaceOBB@Gu@physx@@YAXAEAVBox@12@AEBV312@AEBVPxTransform@2@AEBVPxMeshScale@2@@Z 0000000180087880 f   GuConvexUtilsInternal.obj
 0001:00086c30       ?transform@physx@@YA?AVBox@Gu@1@AEBVMatrix34@Cm@1@AEBV231@@Z 0000000180087c30 f i GuConvexUtilsInternal.obj
 0001:00086e80       ?localSearch@physx@@YAXAEAIAEBVPxVec3@1@PEBV21@PEBUBigConvexRawData@Gu@1@@Z 0000000180087e80 f   GuHillClimbing.obj
 0001:00086fb0       ??0PCMPolygonalBox@Gu@physx@@QEAA@AEBVPxVec3@2@@Z 0000000180087fb0 f   GuPCMShapeConvex.obj
 0001:00086fb0       ??0PolygonalBox@Gu@physx@@QEAA@AEBVPxVec3@2@@Z 0000000180087fb0 f   GuShapeConvex.obj
 0001:00088470       ?getPolygonalData@PolygonalBox@Gu@physx@@QEBAXPEIAUPolygonalData@23@@Z 0000000180089470 f   GuShapeConvex.obj
 0001:000884d0       ?getPolygonalData_Convex@Gu@physx@@YAXPEIAUPolygonalData@12@PEIBUConvexHullData@12@AEBVFastVertex2ShapeScaling@Cm@2@@Z 00000001800894d0 f   GuShapeConvex.obj
 0001:00088630       ?distancePointBoxSquared@Gu@physx@@YAMAEBVPxVec3@2@00AEBVPxMat33@2@PEAV32@@Z 0000000180089630 f   GuDistancePointBox.obj
 0001:00088780       ?closestPtPointTriangle@Gu@physx@@YA?AVPxVec3@2@AEBV32@000AEAM1@Z 0000000180089780 f   GuDistancePointTriangle.obj
 0001:00088ca0       ?distancePointTriangleSquared@Gu@physx@@YA?AT__m128@@AEBT3@000AEAT3@11@Z 0000000180089ca0 f   GuDistancePointTriangle.obj
 0001:000899f0       ?distanceSegmentBoxSquared@Gu@physx@@YAMAEBVPxVec3@2@000AEBVPxMat33@2@PEAMPEAV32@@Z 000000018008a9f0 f   GuDistanceSegmentBox.obj
 0001:0008a270       ?distanceSegmentSegmentSquared4@Gu@physx@@YA?AT__m128@@AEBT3@000000000AEAT3@1@Z 000000018008b270 f   GuDistanceSegmentSegment.obj
 0001:0008a580       ?distanceSegmentSegmentSquared@Gu@physx@@YA?AT__m128@@AEBT3@000AEAT3@1@Z 000000018008b580 f   GuDistanceSegmentSegment.obj
 0001:0008a740       ?distanceSegmentSegmentSquared@Gu@physx@@YAMAEBVPxVec3@2@000PEAM1@Z 000000018008b740 f   GuDistanceSegmentSegment.obj
 0001:0008a9d0       ?distanceSegmentSegmentSquared@Gu@physx@@YAMAEBVPxVec3@2@0M00MPEAM1@Z 000000018008b9d0 f   GuDistanceSegmentSegment.obj
 0001:0008b110       ?distanceSegmentTriangleSquared@Gu@physx@@YA?AT__m128@@AEBT3@0000AEAT3@1@Z 000000018008c110 f   GuDistanceSegmentTriangle.obj
 0001:0008b850       ?distanceSegmentTriangleSquared@Gu@physx@@YAMAEBVPxVec3@2@0000PEAM11@Z 000000018008c850 f   GuDistanceSegmentTriangle.obj
 0001:0008cec0       ?PenetrationDepth@EPA@Gu@physx@@QEAA?AW4GjkStatus@23@AEBUGjkConvex@23@0PEIBT__m128@@1E_NT6@AEAUGjkOutput@23@@Z 000000018008dec0 f   GuEPA.obj
 0001:0008da00       ?addFacet@EPA@Gu@physx@@QEAAPEAVFacet@23@IIIAEBT__m128@@@Z 000000018008ea00 f   GuEPA.obj
 0001:0008de40       ?epaPenetration@Gu@physx@@YA?AW4GjkStatus@12@AEBUGjkConvex@12@0PEIBE1E_NT__m128@@AEAUGjkOutput@12@@Z 000000018008ee40 f   GuEPA.obj
 0001:0008dfb0       ?silhouette@Facet@Gu@physx@@QEAAXAEBT__m128@@PEIBT4@1AEAVEdgeBuffer@23@AEAV?$InlineDeferredIDPool@$0EA@@Cm@3@@Z 000000018008efb0 f   GuEPA.obj
 0001:0008e180       ?closestPtPointTetrahedron@Gu@physx@@YA?AT__m128@@PEIAT3@00AEAI@Z 000000018008f180 f   GuGJKSimplex.obj
 0001:0008e900       ?closestPtPointTetrahedron@Gu@physx@@YA?AT__m128@@PEIAT3@00PEIAH1AEAI@Z 000000018008f900 f   GuGJKSimplex.obj
 0001:000903b0       ??$gjk@UGjkConvex@Gu@physx@@U123@@Gu@physx@@YA?AW4GjkStatus@01@AEBUGjkConvex@01@0AEBT__m128@@1AEAT4@222@Z 00000001800913b0 f i GuGJKTest.obj
 0001:00090fd0       ??$gjkPenetration@UGjkConvex@Gu@physx@@U123@@Gu@physx@@YA?AW4GjkStatus@01@AEBUGjkConvex@01@0AEBT__m128@@1_NPEIAE3AEAEAEAUGjkOutput@01@@Z 0000000180091fd0 f i GuGJKTest.obj
 0001:000924c0       ?testEpaPenetration@Gu@physx@@YA?AW4GjkStatus@12@AEAUGjkConvex@12@0PEBE1EAEAUGjkOutput@12@@Z 00000001800934c0 f   GuGJKTest.obj
 0001:00092510       ?testGjk@Gu@physx@@YA?AW4GjkStatus@12@AEAUGjkConvex@12@0AEBT__m128@@1AEAT5@222@Z 0000000180093510 f   GuGJKTest.obj
 0001:00092520       ?testGjkPenetration@Gu@physx@@YA?AW4GjkStatus@12@AEAUGjkConvex@12@0AEBT__m128@@1PEAE2AEAEAEAUGjkOutput@12@@Z 0000000180093520 f   GuGJKTest.obj
 0001:00092570       ??0HeightField@Gu@physx@@QEAA@AEAVGuMeshFactory@2@AEAUHeightFieldData@12@@Z 0000000180093570 f   GuHeightField.obj
 0001:00092640       ??0HeightField@Gu@physx@@QEAA@PEAVGuMeshFactory@2@@Z 0000000180093640 f   GuHeightField.obj
 0001:000926b0       ??1HeightField@Gu@physx@@UEAA@XZ 00000001800936b0 f   GuHeightField.obj
 0001:00092720       ??_EHeightField@Gu@physx@@UEAAPEAXI@Z 0000000180093720 f i GuHeightField.obj
 0001:000928d8       ??_EHeightField@Gu@physx@@WBA@EAAPEAXI@Z 00000001800938d8 f i GuHeightField.obj
 0001:000928f0       ?computeCellCoordinates@HeightField@Gu@physx@@QEBAIMMAEAM0@Z 00000001800938f0 f   GuHeightField.obj
 0001:000929f0       ?createObject@HeightField@Gu@physx@@SAPEAV123@AEAPEAEAEAVPxDeserializationContext@3@@Z 00000001800939f0 f   GuHeightField.obj
 0001:00092a50       ?exportExtraData@HeightField@Gu@physx@@UEAAXAEAVPxSerializationContext@3@@Z 0000000180093a50 f   GuHeightField.obj
 0001:00092aa0       ?getEdgeTriangleIndices@physx@@YAIAEBVHeightField@Gu@1@AEBUEdgeData@1@PEIAI@Z 0000000180093aa0 f   GuHeightField.obj
 0001:00092bd0       ?getVertexEdgeIndices@physx@@YAIAEBVHeightField@Gu@1@IIIQEAUEdgeData@1@@Z 0000000180093bd0 f   GuHeightField.obj
 0001:00092db0       ?importExtraData@HeightField@Gu@physx@@QEAAXAEAVPxDeserializationContext@3@@Z 0000000180093db0 f   GuHeightField.obj
 0001:00092dd0       ?isCollisionVertexPreca@HeightField@Gu@physx@@QEBA_NIIIG@Z 0000000180093dd0 f   GuHeightField.obj
 0001:00092e70       ?isConvexVertex@HeightField@Gu@physx@@QEBA_NIII@Z 0000000180093e70 f i GuHeightField.obj
 0001:00092f40       ?isSolidVertex@HeightField@Gu@physx@@QEBA_NIIIGAEA_N@Z 0000000180093f40 f   GuHeightField.obj
 0001:000930c0       ?load@HeightField@Gu@physx@@QEAA_NAEAVPxInputStream@3@@Z 00000001800940c0 f   GuHeightField.obj
 0001:00093400       ?loadFromDesc@HeightField@Gu@physx@@QEAA_NAEBVPxHeightFieldDesc@3@@Z 0000000180094400 f   GuHeightField.obj
 0001:000936a0       ?modifySamples@HeightField@Gu@physx@@UEAA_NHHAEBVPxHeightFieldDesc@3@_N@Z 00000001800946a0 f   GuHeightField.obj
 0001:00093a50       ?onRefCountZero@HeightField@Gu@physx@@UEAAXXZ 0000000180094a50 f   GuHeightField.obj
 0001:00093ae0       ?parseTrianglesForCollisionVertices@HeightField@Gu@physx@@QEAAXG@Z 0000000180094ae0 f   GuHeightField.obj
 0001:00093fe0       ?releaseMemory@HeightField@Gu@physx@@QEAAXXZ 0000000180094fe0 f   GuHeightField.obj
 0001:00094030       ?resizeAndClear@?$BitMapBase@VNonTrackingAllocator@shdfnd@physx@@@Cm@physx@@QEAAXI@Z 0000000180095030 f i GuHeightField.obj
 0001:000940e0       ?saveCells@HeightField@Gu@physx@@UEBAIPEAXI@Z 00000001800950e0 f   GuHeightField.obj
 0001:00094120       ?computeLocalBounds@HeightFieldUtil@Gu@physx@@QEBAXAEAVPxBounds3@3@@Z 0000000180095120 f   GuHeightFieldUtil.obj
 0001:000941f0       ?findClosestPointOnEdge@HeightFieldUtil@Gu@physx@@QEBAMIIIIAEBVPxVec3@3@AEAV43@@Z 00000001800951f0 f   GuHeightFieldUtil.obj
 0001:000944f0       ?findClosestPointsOnCell@HeightFieldUtil@Gu@physx@@QEBAIIIVPxVec3@3@PEIAV43@PEIAI_N33@Z 00000001800954f0 f   GuHeightFieldUtil.obj
 0001:00094c80       ?findProjectionOnTriangle@HeightFieldUtil@Gu@physx@@QEBA_NIIIAEBVPxVec3@3@AEAV43@@Z 0000000180095c80 f   GuHeightFieldUtil.obj
 0001:00094f30       ?getEdge@HeightFieldUtil@Gu@physx@@QEBAXIIIIAEAVPxVec3@3@0@Z 0000000180095f30 f   GuHeightFieldUtil.obj
 0001:00095170       ?getEdgeFaceIndex@HeightFieldUtil@Gu@physx@@QEBAII@Z 0000000180096170 f   GuHeightFieldUtil.obj
 0001:00095350       ?getEdgeFaceIndex@HeightFieldUtil@Gu@physx@@QEBAIIIII@Z 0000000180096350 f   GuHeightFieldUtil.obj
 0001:000954f0       ?getEdgeFaceIndex@HeightFieldUtil@Gu@physx@@QEBAIIIPEIBI@Z 00000001800964f0 f   GuHeightFieldUtil.obj
 0001:000955a0       ?getFaceIndexAtShapePoint@HeightFieldUtil@Gu@physx@@QEBAIMM@Z 00000001800965a0 f   GuHeightFieldUtil.obj
 0001:000956b0       ?getTriangle@HeightFieldUtil@Gu@physx@@QEBAIAEBVPxTransform@3@AEAVPxTriangle@3@PEAI2I_N3@Z 00000001800966b0 f   GuHeightFieldUtil.obj
 0001:00095ed0       ?getTriangleAdjacencyIndices@HeightField@Gu@physx@@QEBAXIIIIAEAI00@Z 0000000180096ed0 f i GuHeightFieldUtil.obj
 0001:00096080       ?getTriangleVertexIndices@HeightField@Gu@physx@@QEBAXIAEAI00@Z 0000000180097080 f i GuHeightFieldUtil.obj
 0001:00096140       ?getVertexFaceIndex@HeightFieldUtil@Gu@physx@@QEBAIIII@Z 0000000180097140 f   GuHeightFieldUtil.obj
 0001:000963a0       ?getVertexNormal@HeightFieldUtil@Gu@physx@@QEBA?AVPxVec3@3@III@Z 00000001800973a0 f   GuHeightFieldUtil.obj
 0001:00096700       ?overlapAABBTriangles@HeightFieldUtil@Gu@physx@@QEBA_NAEBVPxTransform@3@AEBVPxBounds3@3@IPEAV?$EntityReport@I@23@@Z 0000000180097700 f   GuHeightFieldUtil.obj
 0001:00096d40       ??$traceSegment@UTriggerTraceSegmentCallback@Gu@physx@@$0A@$0A@@HeightFieldTraceUtil@Gu@physx@@QEBAXAEBVPxVec3@2@0MPEAUTriggerTraceSegmentCallback@12@AEBVPxBounds3@2@_NPEBV32@@Z 0000000180097d40 f i GuOverlapTestsHF.obj
 0001:00097d80       ?GeomOverlapCallback_BoxHeightfield@@YA_NAEBVPxGeometry@physx@@AEBVPxTransform@2@01PEAUTriggerCache@Gu@2@@Z 0000000180098d80 f   GuOverlapTestsHF.obj
 0001:000980f0       ?GeomOverlapCallback_CapsuleHeightfield@@YA_NAEBVPxGeometry@physx@@AEBVPxTransform@2@01PEAUTriggerCache@Gu@2@@Z 00000001800990f0 f   GuOverlapTestsHF.obj
 0001:00098330       ?GeomOverlapCallback_ConvexHeightfield@@YA_NAEBVPxGeometry@physx@@AEBVPxTransform@2@01PEAUTriggerCache@Gu@2@@Z 0000000180099330 f   GuOverlapTestsHF.obj
 0001:000983a0       ?GeomOverlapCallback_SphereHeightfield@@YA_NAEBVPxGeometry@physx@@AEBVPxTransform@2@01PEAUTriggerCache@Gu@2@@Z 00000001800993a0 f   GuOverlapTestsHF.obj
 0001:00098570       ?checkOverlapAABB_heightFieldGeom@Gu@physx@@YA_NAEBVPxGeometry@2@AEBVPxTransform@2@AEBVPxBounds3@2@@Z 0000000180099570 f   GuOverlapTestsHF.obj
 0001:0009b800       ??$gjkRaycast@U?$LocalConvex@VTriangleV@Gu@physx@@@Gu@physx@@U?$LocalConvex@VConvexHullV@Gu@physx@@@23@@Gu@physx@@YA_NAEBU?$LocalConvex@VTriangleV@Gu@physx@@@01@AEBU?$LocalConvex@VConvexHullV@Gu@physx@@@01@AEBT__m128@@222AEAT4@33M@Z 000000018009c800 f i GuSweepsHF.obj
 0001:0009c600       ??$traceSegment@VBoxTraceSegmentReport@@$0A@$00@HeightFieldTraceUtil@Gu@physx@@QEBAXAEBVPxVec3@2@0MPEAVBoxTraceSegmentReport@@AEBVPxBounds3@2@_NPEBV32@@Z 000000018009d600 f i GuSweepsHF.obj
 0001:0009c600       ??$traceSegment@VCapsuleTraceSegmentReport@@$0A@$00@HeightFieldTraceUtil@Gu@physx@@QEBAXAEBVPxVec3@2@0MPEAVCapsuleTraceSegmentReport@@AEBVPxBounds3@2@_NPEBV32@@Z 000000018009d600 f i GuSweepsHF.obj
 0001:0009c600       ??$traceSegment@VConvexTraceSegmentReport@@$0A@$00@HeightFieldTraceUtil@Gu@physx@@QEBAXAEBVPxVec3@2@0MPEAVConvexTraceSegmentReport@@AEBVPxBounds3@2@_NPEBV32@@Z 000000018009d600 f i GuSweepsHF.obj
 0001:0009ce20       ??0ConvexTraceSegmentReport@@QEAA@AEBVHeightFieldUtil@Gu@physx@@AEBUConvexHullData@23@AEBVPxMeshScale@3@AEBVPxTransform@3@3AEBVPxVec3@3@MV?$PxFlags@W4Enum@PxHitFlag@physx@@G@3@M@Z 000000018009de20 f i GuSweepsHF.obj
 0001:0009d7c0       ??_EBoxTraceSegmentReport@@UEAAPEAXI@Z 000000018009e7c0 f i GuSweepsHF.obj
 0001:0009d7c0       ??_GBoxTraceSegmentReport@@UEAAPEAXI@Z 000000018009e7c0 f i GuSweepsHF.obj
 0001:0009d7f0       ??_ECapsuleTraceSegmentReport@@UEAAPEAXI@Z 000000018009e7f0 f i GuSweepsHF.obj
 0001:0009d7f0       ??_GCapsuleTraceSegmentReport@@UEAAPEAXI@Z 000000018009e7f0 f i GuSweepsHF.obj
 0001:0009d820       ??_EConvexTraceSegmentReport@@UEAAPEAXI@Z 000000018009e820 f i GuSweepsHF.obj
 0001:0009d820       ??_GConvexTraceSegmentReport@@UEAAPEAXI@Z 000000018009e820 f i GuSweepsHF.obj
 0001:0009d850       ??_EHeightFieldTraceSegmentReport@@UEAAPEAXI@Z 000000018009e850 f i GuSweepsHF.obj
 0001:0009d850       ??_GHeightFieldTraceSegmentReport@@UEAAPEAXI@Z 000000018009e850 f i GuSweepsHF.obj
 0001:0009d880       ?finalizeHit@ConvexTraceSegmentReport@@QEAA_NAEAUPxSweepHit@physx@@AEBVPxHeightFieldGeometry@3@AEBVPxTransform@3@AEBVPxConvexMeshGeometry@3@2AEBVPxVec3@3@M@Z 000000018009e880 f i GuSweepsHF.obj
 0001:0009dad0       ?onEvent@BoxTraceSegmentReport@@UEAA_NIPEAI@Z 000000018009ead0 f i GuSweepsHF.obj
 0001:0009df40       ?onEvent@CapsuleTraceSegmentReport@@UEAA_NIPEAI@Z 000000018009ef40 f i GuSweepsHF.obj
 0001:0009e190       ?onEvent@ConvexTraceSegmentReport@@UEAA_NIPEAI@Z 000000018009f190 f i GuSweepsHF.obj
 0001:0009e750       ?prepare@?$OverlapTraceSegment@VBoxTraceSegmentReport@@@HeightFieldTraceUtil@Gu@physx@@QEAAXAEBVPxVec3@4@00AEAM1@Z 000000018009f750 f i GuSweepsHF.obj
 0001:0009e750       ?prepare@?$OverlapTraceSegment@VCapsuleTraceSegmentReport@@@HeightFieldTraceUtil@Gu@physx@@QEAAXAEBVPxVec3@4@00AEAM1@Z 000000018009f750 f i GuSweepsHF.obj
 0001:0009e750       ?prepare@?$OverlapTraceSegment@VConvexTraceSegmentReport@@@HeightFieldTraceUtil@Gu@physx@@QEAAXAEBVPxVec3@4@00AEAM1@Z 000000018009f750 f i GuSweepsHF.obj
 0001:0009ea10       ?sweepBox_HeightFieldGeom@@YA_NAEBVPxGeometry@physx@@AEBVPxTransform@2@AEBVPxBoxGeometry@2@1AEBVBox@Gu@2@AEBVPxVec3@2@MAEAUPxSweepHit@2@V?$PxFlags@W4Enum@PxHitFlag@physx@@G@2@M@Z 000000018009fa10 f   GuSweepsHF.obj
 0001:0009f870       ?sweepCapsule_HeightFieldGeom@@YA_NAEBVPxGeometry@physx@@AEBVPxTransform@2@AEBVPxCapsuleGeometry@2@1AEBVCapsule@Gu@2@AEBVPxVec3@2@MAEAUPxSweepHit@2@V?$PxFlags@W4Enum@PxHitFlag@physx@@G@2@M@Z 00000001800a0870 f   GuSweepsHF.obj
 0001:000a01d0       ?sweepConvex_HeightFieldGeom@@YA_NAEBVPxGeometry@physx@@AEBVPxTransform@2@AEBVPxConvexMeshGeometry@2@1AEBVPxVec3@2@MAEAUPxSweepHit@2@V?$PxFlags@W4Enum@PxHitFlag@physx@@G@2@M@Z 00000001800a11d0 f   GuSweepsHF.obj
 0001:000a0bb0       ?testVertexIndex@?$OverlapTraceSegment@VBoxTraceSegmentReport@@@HeightFieldTraceUtil@Gu@physx@@QEAA_NI@Z 00000001800a1bb0 f i GuSweepsHF.obj
 0001:000a0bb0       ?testVertexIndex@?$OverlapTraceSegment@VCapsuleTraceSegmentReport@@@HeightFieldTraceUtil@Gu@physx@@QEAA_NI@Z 00000001800a1bb0 f i GuSweepsHF.obj
 0001:000a0bb0       ?testVertexIndex@?$OverlapTraceSegment@VConvexTraceSegmentReport@@@HeightFieldTraceUtil@Gu@physx@@QEAA_NI@Z 00000001800a1bb0 f i GuSweepsHF.obj
 0001:000a0d10       ?visitCells@?$OverlapTraceSegment@VBoxTraceSegmentReport@@@HeightFieldTraceUtil@Gu@physx@@QEAA_NAEBUOverlapRectangle@1234@@Z 00000001800a1d10 f i GuSweepsHF.obj
 0001:000a0d10       ?visitCells@?$OverlapTraceSegment@VCapsuleTraceSegmentReport@@@HeightFieldTraceUtil@Gu@physx@@QEAA_NAEBUOverlapRectangle@1234@@Z 00000001800a1d10 f i GuSweepsHF.obj
 0001:000a0d10       ?visitCells@?$OverlapTraceSegment@VConvexTraceSegmentReport@@@HeightFieldTraceUtil@Gu@physx@@QEAA_NAEBUOverlapRectangle@1234@@Z 00000001800a1d10 f i GuSweepsHF.obj
 0001:000a0f00       ?intersectOBBOBB@Gu@physx@@YA_NAEBVPxVec3@2@0AEBVPxMat33@2@001_N@Z 00000001800a1f00 f   GuIntersectionBoxBox.obj
 0001:000a1550       ?intersectCapsuleTriangle@Gu@physx@@YA_NAEBVPxVec3@2@000AEBVCapsule@12@AEBUCapsuleTriangleOverlapData@12@@Z 00000001800a2550 f   GuIntersectionCapsuleTriangle.obj
 0001:000a2140       ?intersectEdgeEdge@Gu@physx@@YA_NAEBVPxVec3@2@0000AEAMAEAV32@@Z 00000001800a3140 f   GuIntersectionEdgeEdge.obj
 0001:000a2460       ?intersectRayAABB2@Gu@physx@@YA_NAEBT__m128@@0000AEAT3@1@Z 00000001800a3460 f   GuIntersectionRayBox.obj
 0001:000a2520       ?intersectRayAABB2@Gu@physx@@YA_NAEBVPxVec3@2@000MAEAM1@Z 00000001800a3520 f   GuIntersectionRayBox.obj
 0001:000a26d0       ?intersectRayAABB@Gu@physx@@YAHAEBVPxVec3@2@000AEAM1@Z 00000001800a36d0 f   GuIntersectionRayBox.obj
 0001:000a27e0       ?rayAABBIntersect2@Gu@physx@@YAIAEBVPxVec3@2@000AEAV32@AEAM@Z 00000001800a37e0 f   GuIntersectionRayBox.obj
 0001:000a29e0       ?intersectRayCapsuleInternal@Gu@physx@@YAIAEBVPxVec3@2@000MQEAM@Z 00000001800a39e0 f   GuIntersectionRayCapsule.obj
 0001:000a3260       ?intersectRaySphere@Gu@physx@@YA_NAEBVPxVec3@2@0M0MAEAMPEAV32@@Z 00000001800a4260 f   GuIntersectionRaySphere.obj
 0001:000a3350       ?intersectRaySphereBasic@Gu@physx@@YA_NAEBVPxVec3@2@0M0MAEAMPEAV32@@Z 00000001800a4350 f   GuIntersectionRaySphere.obj
 0001:000a34b0       ?intersectSphereBox@Gu@physx@@YA_NAEBVSphere@12@AEBVBox@12@@Z 00000001800a44b0 f   GuIntersectionSphereBox.obj
 0001:000a36e0       ?intersectTriangleBox@Gu@physx@@YAHAEBVBoxPadded@12@AEBVPxVec3@2@11@Z 00000001800a46e0 f   GuIntersectionTriangleBox.obj
 0001:000a3cb0       ?intersectTriangleBoxBV4@@YAHAEBVPxVec3@physx@@00AEBVPxMat33@2@00@Z 00000001800a4cb0 f   GuIntersectionTriangleBox.obj
 0001:000a40f0       ?intersectTriangleBox_ReferenceCode@Gu@physx@@YAHAEBVPxVec3@2@0000@Z 00000001800a50f0 f   GuIntersectionTriangleBox.obj
 0001:000a48c0       ?intersectTriangleBox_Unsafe@Gu@physx@@YAHAEBVPxVec3@2@0000@Z 00000001800a58c0 f   GuIntersectionTriangleBox.obj
 0001:000a4c90       ??0BV4Tree@Gu@physx@@QEAA@PEAVSourceMesh@12@AEBVPxBounds3@2@@Z 00000001800a5c90 f   GuBV4.obj
 0001:000a4d50       ??0BV4Tree@Gu@physx@@QEAA@W4PxEMPTY@2@@Z 00000001800a5d50 f   GuBV4.obj
 0001:000a4d60       ??0BV4Tree@Gu@physx@@QEAA@XZ 00000001800a5d60 f   GuBV4.obj
 0001:000a4d90       ??0SourceMesh@Gu@physx@@QEAA@XZ 00000001800a5d90 f   GuBV4.obj
 0001:000a4db0       ??0SourceMeshBase@Gu@physx@@QEAA@XZ 00000001800a5db0 f   GuBV4.obj
 0001:000a4dc0       ??1BV4Tree@Gu@physx@@QEAA@XZ 00000001800a5dc0 f   GuBV4.obj
 0001:000a4e20       ??1SourceMesh@Gu@physx@@QEAA@XZ 00000001800a5e20 f   GuBV4.obj
 0001:000a4e20       ??1SourceMeshBase@Gu@physx@@QEAA@XZ 00000001800a5e20 f   GuBV4.obj
 0001:000a4e70       ??4BV4Tree@Gu@physx@@QEAAXAEAV012@@Z 00000001800a5e70 f   GuBV4.obj
 0001:000a4f00       ??4SourceMesh@Gu@physx@@QEAAXAEAV012@@Z 00000001800a5f00 f   GuBV4.obj
 0001:000a4f50       ?exportExtraData@BV4Tree@Gu@physx@@QEAAXAEAVPxSerializationContext@3@@Z 00000001800a5f50 f   GuBV4.obj
 0001:000a4fa0       ?importExtraData@BV4Tree@Gu@physx@@QEAAXAEAVPxDeserializationContext@3@@Z 00000001800a5fa0 f   GuBV4.obj
 0001:000a4fd0       ?init@BV32Tree@Gu@physx@@QEAA_NPEAVSourceMesh@23@AEBVPxBounds3@3@@Z 00000001800a5fd0 f   GuBV32.obj
 0001:000a4fd0       ?init@BV4Tree@Gu@physx@@QEAA_NPEAVSourceMesh@23@AEBVPxBounds3@3@@Z 00000001800a5fd0 f   GuBV4.obj
 0001:000a5070       ?load@BV4Tree@Gu@physx@@QEAA_NAEAVPxInputStream@3@_N@Z 00000001800a6070 f   GuBV4.obj
 0001:000a5290       ?remapTopology@SourceMesh@Gu@physx@@QEAAXPEBI@Z 00000001800a6290 f   GuBV4.obj
 0001:000a5580       ??0AABBTree@Gu@physx@@QEAA@XZ 00000001800a6580 f   GuBV4Build.obj
 0001:000a5590       ??0BVData@@QEAA@XZ         00000001800a6590 f   GuBV4Build.obj
 0001:000a55c0       ??1AABBTree@Gu@physx@@QEAA@XZ 00000001800a65c0 f   GuBV4Build.obj
 0001:000a55d0       ?BuildBV4Ex@Gu@physx@@YA_NAEAVBV4Tree@12@AEAVSourceMesh@12@MI@Z 00000001800a65d0 f   GuBV4Build.obj
 0001:000a6ab0       ?allocateNode@BV4BuildParams@@QEAAPEAUBV4Node@@XZ 00000001800a7ab0 f   GuBV4Build.obj
 0001:000a6bd0       ?buildFromMesh@AABBTree@Gu@physx@@QEAA_NAEAVSourceMesh@23@I@Z 00000001800a7bd0 f   GuBV4Build.obj
 0001:000a77a0       ?release@AABBTree@Gu@physx@@QEAAXXZ 00000001800a87a0 f   GuBV4Build.obj
 0001:000a7840       ?releaseNodes@BV4BuildParams@@QEAAXXZ 00000001800a8840 f   GuBV4Build.obj
 0001:000a7b10       ?walk@AABBTree@Gu@physx@@QEBAIP6A_NPEBVAABBTreeNode@23@IPEAX@Z1@Z 00000001800a8b10 f   GuBV4Build.obj
 0001:000a9d00       ?GenericSweep_AABB_CB@@YAXAEBVBox@Gu@physx@@AEBVPxVec3@3@MAEBVBV4Tree@23@P6A_NPEAX111IAEAM@Z3I@Z 00000001800aad00 f   GuBV4_AABBSweep.obj
 0001:000a9e30       ?Sweep_AABB_BV4@@YAHAEBVBox@Gu@physx@@AEBVPxVec3@3@MAEBVBV4Tree@23@PEIAVSweepHit@23@I@Z 00000001800aae30 f   GuBV4_AABBSweep.obj
 0001:000ae150       ?BV4_OverlapBoxAll@@YAIAEBVBox@Gu@physx@@AEBVBV4Tree@23@PEIBVPxMat44@3@PEAIIAEA_N@Z 00000001800af150 f   GuBV4_BoxOverlap.obj
 0001:000ae980       ?BV4_OverlapBoxAny@@YAHAEBVBox@Gu@physx@@AEBVBV4Tree@23@PEIBVPxMat44@3@@Z 00000001800af980 f   GuBV4_BoxOverlap.obj
 0001:000af160       ?BV4_OverlapBoxCB@@YAXAEBVBox@Gu@physx@@AEBVBV4Tree@23@P6A_NPEAXAEBVPxVec3@3@33IPEBI@Z2@Z 00000001800b0160 f   GuBV4_BoxOverlap.obj
 0001:000af620       ?BV4_OverlapCapsuleAll@@YAIAEBVCapsule@Gu@physx@@AEBVBV4Tree@23@PEIBVPxMat44@3@PEAIIAEA_N@Z 00000001800b0620 f   GuBV4_BoxOverlap.obj
 0001:000afd30       ?BV4_OverlapCapsuleAny@@YAHAEBVCapsule@Gu@physx@@AEBVBV4Tree@23@PEIBVPxMat44@3@@Z 00000001800b0d30 f   GuBV4_BoxOverlap.obj
 0001:000b1e70       ?BV4_CapsuleSweepSingle@@YAHAEBVCapsule@Gu@physx@@AEBVPxVec3@3@MAEBVBV4Tree@23@PEIAVSweepHit@23@I@Z 00000001800b2e70 f   GuBV4_CapsuleSweep.obj
 0001:000b5320       ?BV4_CapsuleSweepSingleAA@@YAHAEBVCapsule@Gu@physx@@AEBVPxVec3@3@MAEBVBV4Tree@23@PEIAVSweepHit@23@I@Z 00000001800b6320 f   GuBV4_CapsuleSweepAA.obj
 0001:000b9cb0       ?BV4_BoxSweepSingle@@YAHAEBVBox@Gu@physx@@AEBVPxVec3@3@MAEBVBV4Tree@23@PEIBVPxMat44@3@PEIAVSweepHit@23@I@Z 00000001800bacb0 f   GuBV4_OBBSweep.obj
 0001:000ba3e0       ?BV4_GenericSweepCB@@YAXAEBVBox@Gu@physx@@AEBVPxVec3@3@MAEBVBV4Tree@23@P6A_NPEAX111IAEAM@Z3_N@Z 00000001800bb3e0 f   GuBV4_OBBSweep.obj
 0001:000ba5d0       ?Sweep_OBB_BV4@@YAHAEBVBox@Gu@physx@@AEBVPxVec3@3@MAEBVBV4Tree@23@PEIAVSweepHit@23@I@Z 00000001800bb5d0 f   GuBV4_OBBSweep.obj
 0001:000bc5d0       ?BV4_RaycastCB@@YAXAEBVPxVec3@physx@@0AEBVBV4Tree@Gu@2@PEIBVPxMat44@2@MMIP6A?AW4HitCode@42@PEAX000IMMM@Z3@Z 00000001800bd5d0 f   GuBV4_Raycast.obj
 0001:000bc9f0       ?BV4_RaycastSingle@@YAHAEBVPxVec3@physx@@0AEBVBV4Tree@Gu@2@PEIBVPxMat44@2@PEIAUPxRaycastHit@2@MMIV?$PxFlags@W4Enum@PxHitFlag@physx@@G@2@@Z 00000001800bd9f0 f   GuBV4_Raycast.obj
 0001:000be750       ?BV4_OverlapSphereAll@@YAIAEBVSphere@Gu@physx@@AEBVBV4Tree@23@PEIBVPxMat44@3@PEAIIAEA_N@Z 00000001800bf750 f   GuBV4_SphereOverlap.obj
 0001:000bea70       ?BV4_OverlapSphereAny@@YAHAEBVSphere@Gu@physx@@AEBVBV4Tree@23@PEIBVPxMat44@3@@Z 00000001800bfa70 f   GuBV4_SphereOverlap.obj
 0001:000c0880       ?BV4_GenericSweepCB_Old@@YAXAEBVPxVec3@physx@@00MAEBVBV4Tree@Gu@2@PEIBVPxMat44@2@P6A_NPEAX000IAEAM@Z3@Z 00000001800c1880 f   GuBV4_SphereSweep.obj
 0001:000c0c80       ?BV4_SphereSweepSingle@@YAHAEBVSphere@Gu@physx@@AEBVPxVec3@3@MAEBVBV4Tree@23@PEIBVPxMat44@3@PEIAVSweepHit@23@I@Z 00000001800c1c80 f   GuBV4_SphereSweep.obj
 0001:000c1f30       ?computeSweepData@physx@@YAMAEBVPxTriangleMeshGeometry@1@AEAVPxVec3@1@11M@Z 00000001800c2f30 f i GuMidphaseBV4.obj
 0001:000c33d0       ?intersectBoxVsMesh_BV4@Gu@physx@@YA_NAEBVBox@12@AEBVTriangleMesh@12@AEBVPxTransform@2@AEBVPxMeshScale@2@PEAULimitedResults@12@@Z 00000001800c43d0 f   GuMidphaseBV4.obj
 0001:000c3ec0       ?intersectCapsuleVsMesh_BV4@Gu@physx@@YA_NAEBVCapsule@12@AEBVTriangleMesh@12@AEBVPxTransform@2@AEBVPxMeshScale@2@PEAULimitedResults@12@@Z 00000001800c4ec0 f   GuMidphaseBV4.obj
 0001:000c4700       ?intersectOBB_BV4@Gu@physx@@YAXPEBVTriangleMesh@12@AEBVBox@12@AEAU?$MeshHitCallback@UPxRaycastHit@physx@@@12@_N3@Z 00000001800c5700 f   GuMidphaseBV4.obj
 0001:000c4720       ?intersectSphereVsMesh_BV4@Gu@physx@@YA_NAEBVSphere@12@AEBVTriangleMesh@12@AEBVPxTransform@2@AEBVPxMeshScale@2@PEAULimitedResults@12@@Z 00000001800c5720 f   GuMidphaseBV4.obj
 0001:000c4e60       ?raycast_triangleMesh_BV4@Gu@physx@@YAIPEBVTriangleMesh@12@AEBVPxTriangleMeshGeometry@2@AEBVPxTransform@2@AEBVPxVec3@2@3MV?$PxFlags@W4Enum@PxHitFlag@physx@@G@2@IPEIAUPxRaycastHit@2@@Z 00000001800c5e60 f   GuMidphaseBV4.obj
 0001:000c5c40       ?sweepBox_MeshGeom_BV4@Gu@physx@@YA_NPEBVTriangleMesh@12@AEBVPxTriangleMeshGeometry@2@AEBVPxTransform@2@AEBVBox@12@AEBVPxVec3@2@MAEAUPxSweepHit@2@V?$PxFlags@W4Enum@PxHitFlag@physx@@G@2@M@Z 00000001800c6c40 f   GuMidphaseBV4.obj
 0001:000c7320       ?sweepCapsule_MeshGeom_BV4@Gu@physx@@YA_NPEBVTriangleMesh@12@AEBVPxTriangleMeshGeometry@2@AEBVPxTransform@2@AEBVCapsule@12@AEBVPxVec3@2@MAEAUPxSweepHit@2@V?$PxFlags@W4Enum@PxHitFlag@physx@@G@2@M@Z 00000001800c8320 f   GuMidphaseBV4.obj
 0001:000c7e30       ?sweepConvex_MeshGeom_BV4@Gu@physx@@YAXPEBVTriangleMesh@12@AEBVBox@12@AEBVPxVec3@2@MAEAUSweepConvexMeshHitCallback@12@_N@Z 00000001800c8e30 f   GuMidphaseBV4.obj
 0001:000c7e70       ?transform@PxMeshScale@physx@@QEBA?AVPxVec3@2@AEBV32@@Z 00000001800c8e70 f i GuMidphaseBV4.obj
 0001:000c80b0       ?findOverlapHeightField@PxMeshQuery@physx@@SAIAEBVPxGeometry@2@AEBVPxTransform@2@AEBVPxHeightFieldGeometry@2@1PEAIIIAEA_N@Z 00000001800c90b0 f   GuMeshQuery.obj
 0001:000c8780       ?findOverlapTriangleMesh@PxMeshQuery@physx@@SAIAEBVPxGeometry@2@AEBVPxTransform@2@AEBVPxTriangleMeshGeometry@2@1PEAIIIAEA_N@Z 00000001800c9780 f   GuMeshQuery.obj
 0001:000c8ac0       ?getTriangle@PxMeshQuery@physx@@SAXAEBVPxHeightFieldGeometry@2@AEBVPxTransform@2@IAEAVPxTriangle@2@PEAI3@Z 00000001800c9ac0 f   GuMeshQuery.obj
 0001:000c8b40       ?getTriangle@PxMeshQuery@physx@@SAXAEBVPxTriangleMeshGeometry@2@AEBVPxTransform@2@IAEAVPxTriangle@2@PEAI3@Z 00000001800c9b40 f   GuMeshQuery.obj
 0001:000c90b0       ?sweep@PxMeshQuery@physx@@SA_NAEBVPxVec3@2@MAEBVPxGeometry@2@AEBVPxTransform@2@IPEBVPxTriangle@2@AEAUPxSweepHit@2@V?$PxFlags@W4Enum@PxHitFlag@physx@@G@2@PEBIM_N@Z 00000001800ca0b0 f   GuMeshQuery.obj
 0001:000c9480       ??$collide@$00$00@MeshRayCollider@@SAXAEBVPxVec3@physx@@0M_NPEBVRTreeTriangleMesh@Gu@2@AEAU?$MeshHitCallback@UPxRaycastHit@physx@@@42@PEBV12@@Z 00000001800ca480 f i GuMidphaseRTree.obj
 0001:000c9800       ??$collide@$00$0A@@MeshRayCollider@@SAXAEBVPxVec3@physx@@0M_NPEBVRTreeTriangleMesh@Gu@2@AEAU?$MeshHitCallback@UPxRaycastHit@physx@@@42@PEBV12@@Z 00000001800ca800 f i GuMidphaseRTree.obj
 0001:000c9a40       ??$collide@$0A@$00@MeshRayCollider@@SAXAEBVPxVec3@physx@@0M_NPEBVRTreeTriangleMesh@Gu@2@AEAU?$MeshHitCallback@UPxRaycastHit@physx@@@42@PEBV12@@Z 00000001800caa40 f i GuMidphaseRTree.obj
 0001:000cbe10       ??0?$RayRTreeCallback@$00$0A@@@QEAA@MAEAU?$MeshHitCallback@UPxRaycastHit@physx@@@Gu@physx@@HPEBXPEBVPxVec3@3@AEBV43@3M_N2@Z 00000001800cce10 f i GuMidphaseRTree.obj
 0001:000cbf40       ??1?$RayRTreeCallback@$00$00@@UEAA@XZ 00000001800ccf40 f i GuMidphaseRTree.obj
 0001:000cbfd0       ??1?$RayRTreeCallback@$00$0A@@@UEAA@XZ 00000001800ccfd0 f i GuMidphaseRTree.obj
 0001:000cbfd0       ??1?$RayRTreeCallback@$0A@$0A@@@UEAA@XZ 00000001800ccfd0 f i GuMidphaseRTree.obj
 0001:000cc060       ??1?$RayRTreeCallback@$0A@$00@@UEAA@XZ 00000001800cd060 f i GuMidphaseRTree.obj
 0001:000cc0e8       ??_E?$RayRTreeCallback@$00$00@@W7EAAPEAXI@Z 00000001800cd0e8 f i GuMidphaseRTree.obj
 0001:000cc0f4       ??_E?$RayRTreeCallback@$00$0A@@@W7EAAPEAXI@Z 00000001800cd0f4 f i GuMidphaseRTree.obj
 0001:000cc0f4       ??_E?$RayRTreeCallback@$0A@$0A@@@W7EAAPEAXI@Z 00000001800cd0f4 f i GuMidphaseRTree.obj
 0001:000cc100       ??_E?$RayRTreeCallback@$0A@$00@@W7EAAPEAXI@Z 00000001800cd100 f i GuMidphaseRTree.obj
 0001:000cc170       ??_E?$RayRTreeCallback@$00$00@@UEAAPEAXI@Z 00000001800cd170 f i GuMidphaseRTree.obj
 0001:000cc170       ??_G?$RayRTreeCallback@$00$00@@UEAAPEAXI@Z 00000001800cd170 f i GuMidphaseRTree.obj
 0001:000cc1b0       ??_E?$RayRTreeCallback@$00$0A@@@UEAAPEAXI@Z 00000001800cd1b0 f i GuMidphaseRTree.obj
 0001:000cc1b0       ??_E?$RayRTreeCallback@$0A@$0A@@@UEAAPEAXI@Z 00000001800cd1b0 f i GuMidphaseRTree.obj
 0001:000cc1b0       ??_G?$RayRTreeCallback@$00$0A@@@UEAAPEAXI@Z 00000001800cd1b0 f i GuMidphaseRTree.obj
 0001:000cc1b0       ??_G?$RayRTreeCallback@$0A@$0A@@@UEAAPEAXI@Z 00000001800cd1b0 f i GuMidphaseRTree.obj
 0001:000cc1f0       ??_E?$RayRTreeCallback@$0A@$00@@UEAAPEAXI@Z 00000001800cd1f0 f i GuMidphaseRTree.obj
 0001:000cc1f0       ??_G?$RayRTreeCallback@$0A@$00@@UEAAPEAXI@Z 00000001800cd1f0 f i GuMidphaseRTree.obj
 0001:000cc230       ??_ECallback@RTree@Gu@physx@@UEAAPEAXI@Z 00000001800cd230 f i GuMidphaseRTree.obj
 0001:000cc230       ??_GCallback@RTree@Gu@physx@@UEAAPEAXI@Z 00000001800cd230 f i GuMidphaseRTree.obj
 0001:000cc260       ??_ECallbackRaycast@RTree@Gu@physx@@UEAAPEAXI@Z 00000001800cd260 f i GuMidphaseRTree.obj
 0001:000cc260       ??_ECallbackRefit@RTree@Gu@physx@@UEAAPEAXI@Z 00000001800cd260 f i GuTriangleMeshRTree.obj
 0001:000cc260       ??_GCallbackRaycast@RTree@Gu@physx@@UEAAPEAXI@Z 00000001800cd260 f i GuMidphaseRTree.obj
 0001:000cc260       ??_GCallbackRefit@RTree@Gu@physx@@UEAAPEAXI@Z 00000001800cd260 f i GuTriangleMeshRTree.obj
 0001:000cc290       ??_ERayMeshColliderCallback@@UEAAPEAXI@Z 00000001800cd290 f i GuMidphaseRTree.obj
 0001:000cc290       ??_GRayMeshColliderCallback@@UEAAPEAXI@Z 00000001800cd290 f i GuMidphaseRTree.obj
 0001:000cc2c0       ?collideOBB@MeshRayCollider@@SAXAEBVBox@Gu@physx@@_NPEBVRTreeTriangleMesh@34@AEAU?$MeshHitCallback@UPxRaycastHit@physx@@@34@1@Z 00000001800cd2c0 f   GuMidphaseRTree.obj
 0001:000cc790       ?intersectBoxVsMesh_RTREE@Gu@physx@@YA_NAEBVBox@12@AEBVTriangleMesh@12@AEBVPxTransform@2@AEBVPxMeshScale@2@PEAULimitedResults@12@@Z 00000001800cd790 f   GuMidphaseRTree.obj
 0001:000cc800       ?intersectCapsuleVsMesh_RTREE@Gu@physx@@YA_NAEBVCapsule@12@AEBVTriangleMesh@12@AEBVPxTransform@2@AEBVPxMeshScale@2@PEAULimitedResults@12@@Z 00000001800cd800 f   GuMidphaseRTree.obj
 0001:000cc880       ?intersectOBB_RTREE@Gu@physx@@YAXPEBVTriangleMesh@12@AEBVBox@12@AEAU?$MeshHitCallback@UPxRaycastHit@physx@@@12@_N3@Z 00000001800cd880 f   GuMidphaseRTree.obj
 0001:000cc8b0       ?intersectSphereVsMesh_RTREE@Gu@physx@@YA_NAEBVSphere@12@AEBVTriangleMesh@12@AEBVPxTransform@2@AEBVPxMeshScale@2@PEAULimitedResults@12@@Z 00000001800cd8b0 f   GuMidphaseRTree.obj
 0001:000cd6d0       ?processHit@RayMeshColliderCallback@@UEAA_NAEBUPxRaycastHit@physx@@AEBVPxVec3@3@11AEAMPEBI@Z 00000001800ce6d0 f i GuMidphaseRTree.obj
 0001:000cde50       ?processResults@?$RayRTreeCallback@$00$00@@UEAA_NIPEAI@Z 00000001800cee50 f i GuMidphaseRTree.obj
 0001:000ce200       ?processResults@?$RayRTreeCallback@$00$00@@UEAA_NIPEAIAEAM@Z 00000001800cf200 f i GuMidphaseRTree.obj
 0001:000ce5a0       ?processResults@?$RayRTreeCallback@$00$0A@@@UEAA_NIPEAI@Z 00000001800cf5a0 f i GuMidphaseRTree.obj
 0001:000ce5a0       ?processResults@?$RayRTreeCallback@$0A@$0A@@@UEAA_NIPEAI@Z 00000001800cf5a0 f i GuMidphaseRTree.obj
 0001:000ce830       ?processResults@?$RayRTreeCallback@$00$0A@@@UEAA_NIPEAIAEAM@Z 00000001800cf830 f i GuMidphaseRTree.obj
 0001:000ce830       ?processResults@?$RayRTreeCallback@$0A@$0A@@@UEAA_NIPEAIAEAM@Z 00000001800cf830 f i GuMidphaseRTree.obj
 0001:000ceaf0       ?processResults@?$RayRTreeCallback@$0A@$00@@UEAA_NIPEAI@Z 00000001800cfaf0 f i GuMidphaseRTree.obj
 0001:000cf160       ?processResults@?$RayRTreeCallback@$0A@$00@@UEAA_NIPEAIAEAM@Z 00000001800d0160 f i GuMidphaseRTree.obj
 0001:000cf7e0       ?raycast_triangleMesh_RTREE@Gu@physx@@YAIPEBVTriangleMesh@12@AEBVPxTriangleMeshGeometry@2@AEBVPxTransform@2@AEBVPxVec3@2@3MV?$PxFlags@W4Enum@PxHitFlag@physx@@G@2@IPEIAUPxRaycastHit@2@@Z 00000001800d07e0 f   GuMidphaseRTree.obj
 0001:000cff70       ?sweepBox_MeshGeom_RTREE@Gu@physx@@YA_NPEBVTriangleMesh@12@AEBVPxTriangleMeshGeometry@2@AEBVPxTransform@2@AEBVBox@12@AEBVPxVec3@2@MAEAUPxSweepHit@2@V?$PxFlags@W4Enum@PxHitFlag@physx@@G@2@M@Z 00000001800d0f70 f   GuMidphaseRTree.obj
 0001:000d1440       ?sweepCapsule_MeshGeom_RTREE@Gu@physx@@YA_NPEBVTriangleMesh@12@AEBVPxTriangleMeshGeometry@2@AEBVPxTransform@2@AEBVCapsule@12@AEBVPxVec3@2@MAEAUPxSweepHit@2@V?$PxFlags@W4Enum@PxHitFlag@physx@@G@2@M@Z 00000001800d2440 f   GuMidphaseRTree.obj
 0001:000d1c40       ?sweepConvex_MeshGeom_RTREE@Gu@physx@@YAXPEBVTriangleMesh@12@AEBVBox@12@AEBVPxVec3@2@MAEAUSweepConvexMeshHitCallback@12@_N@Z 00000001800d2c40 f   GuMidphaseRTree.obj
 0001:000d1c90       ??$gjk@U?$RelativeConvex@VTriangleV@Gu@physx@@@Gu@physx@@U?$LocalConvex@VConvexHullV@Gu@physx@@@23@@Gu@physx@@YA?AW4GjkStatus@01@AEBU?$RelativeConvex@VTriangleV@Gu@physx@@@01@AEBU?$LocalConvex@VConvexHullV@Gu@physx@@@01@AEBT__m128@@2AEAT5@333@Z 00000001800d2c90 f i GuOverlapTestsMesh.obj
 0001:000d2b20       ??0ConvexVsMeshOverlapCallback@@QEAA@AEBVConvexMesh@Gu@physx@@AEBVPxMeshScale@3@AEBVFastVertex2ShapeScaling@Cm@3@AEBVPxTransform@3@3_NAEBVBox@23@@Z 00000001800d3b20 f i GuOverlapTestsMesh.obj
 0001:000d33c0       ??_EConvexVsMeshOverlapCallback@@UEAAPEAXI@Z 00000001800d43c0 f i GuOverlapTestsMesh.obj
 0001:000d33c0       ??_GConvexVsMeshOverlapCallback@@UEAAPEAXI@Z 00000001800d43c0 f i GuOverlapTestsMesh.obj
 0001:000d33f0       ?GeomOverlapCallback_BoxMesh@@YA_NAEBVPxGeometry@physx@@AEBVPxTransform@2@01PEAUTriggerCache@Gu@2@@Z 00000001800d43f0 f   GuOverlapTestsMesh.obj
 0001:000d3500       ?GeomOverlapCallback_CapsuleMesh@@YA_NAEBVPxGeometry@physx@@AEBVPxTransform@2@01PEAUTriggerCache@Gu@2@@Z 00000001800d4500 f   GuOverlapTestsMesh.obj
 0001:000d3610       ?GeomOverlapCallback_ConvexMesh@@YA_NAEBVPxGeometry@physx@@AEBVPxTransform@2@01PEAUTriggerCache@Gu@2@@Z 00000001800d4610 f   GuOverlapTestsMesh.obj
 0001:000d3c00       ?GeomOverlapCallback_SphereMesh@@YA_NAEBVPxGeometry@physx@@AEBVPxTransform@2@01PEAUTriggerCache@Gu@2@@Z 00000001800d4c00 f   GuOverlapTestsMesh.obj
 0001:000d3c70       ?checkOverlapAABB_triangleGeom@Gu@physx@@YA_NAEBVPxGeometry@2@AEBVPxTransform@2@AEBVPxBounds3@2@@Z 00000001800d4c70 f   GuOverlapTestsMesh.obj
 0001:000d3d70       ?processHit@ConvexVsMeshOverlapCallback@@UEAA_NAEBUPxRaycastHit@physx@@AEBVPxVec3@3@11AEAMPEBI@Z 00000001800d4d70 f i GuOverlapTestsMesh.obj
 0001:000d40f0       ??0RTree@Gu@physx@@QEAA@W4PxEMPTY@2@@Z 00000001800d50f0 f   GuRTree.obj
 0001:000d4100       ?exportExtraData@RTree@Gu@physx@@QEAAXAEAVPxSerializationContext@3@@Z 00000001800d5100 f   GuRTree.obj
 0001:000d4140       ?importExtraData@RTree@Gu@physx@@QEAAXAEAVPxDeserializationContext@3@@Z 00000001800d5140 f   GuRTree.obj
 0001:000d4170       ?load@RTree@Gu@physx@@QEAA_NAEAVPxInputStream@3@I_N@Z 00000001800d5170 f   GuRTree.obj
 0001:000d4480       ?refitAllStaticTree@RTree@Gu@physx@@QEAAXAEAUCallbackRefit@123@PEAVPxBounds3@3@@Z 00000001800d5480 f   GuRTree.obj
 0001:000d49e0       ?validate@RTree@Gu@physx@@QEAAXPEAUCallbackRefit@123@@Z 00000001800d59e0 f   GuRTree.obj
 0001:000d4c20       ?validateRecursive@RTree@Gu@physx@@IEAAXIURTreeNodeQ@23@PEAURTreePage@23@PEAUCallbackRefit@123@@Z 00000001800d5c20 f   GuRTree.obj
 0001:000d4de0       ??$traverseRay@$00@RTree@Gu@physx@@QEBAXAEBVPxVec3@2@0IPEAIPEAUCallbackRaycast@012@PEBV32@M@Z 00000001800d5de0 f i GuRTreeQueries.obj
 0001:000d5180       ??$traverseRay@$0A@@RTree@Gu@physx@@QEBAXAEBVPxVec3@2@0IPEAIPEAUCallbackRaycast@012@PEBV32@M@Z 00000001800d6180 f i GuRTreeQueries.obj
 0001:000d54d0       ?traverseAABB@RTree@Gu@physx@@QEBAXAEBVPxVec3@3@0IPEAIPEAUCallback@123@@Z 00000001800d64d0 f   GuRTreeQueries.obj
 0001:000d5690       ?traverseOBB@RTree@Gu@physx@@QEBAXAEBVBox@23@IPEAIPEAUCallback@123@@Z 00000001800d6690 f   GuRTreeQueries.obj
 0001:000d5f70       ??0SweepBoxMeshHitCallback@Gu@physx@@QEAA@W4Enum@CallbackMode@12@AEBVMatrix34Padded@12@M_NAEBVBox@12@AEBVPxVec3@2@44AEBV?$PxFlags@W4Enum@PxHitFlag@physx@@G@2@M2M@Z 00000001800d6f70 f   GuSweepsMesh.obj
 0001:000d6080       ??0SweepCapsuleMeshHitCallback@Gu@physx@@QEAA@AEAUPxSweepHit@2@AEBVMatrix34@Cm@2@M_NAEBVCapsule@12@AEBVPxVec3@2@AEBV?$PxFlags@W4Enum@PxHitFlag@physx@@G@2@2M@Z 00000001800d7080 f   GuSweepsMesh.obj
 0001:000d6150       ??0SweepConvexMeshHitCallback@Gu@physx@@QEAA@AEBUConvexHullData@12@AEBVPxMeshScale@2@AEBVFastVertex2ShapeScaling@Cm@2@AEBVPxTransform@2@3AEBVPxVec3@2@MV?$PxFlags@W4Enum@PxHitFlag@physx@@G@2@_NM6M@Z 00000001800d7150 f   GuSweepsMesh.obj
 0001:000d6ad0       ??_ESweepBoxMeshHitCallback@Gu@physx@@UEAAPEAXI@Z 00000001800d7ad0 f i GuSweepsMesh.obj
 0001:000d6ad0       ??_GSweepBoxMeshHitCallback@Gu@physx@@UEAAPEAXI@Z 00000001800d7ad0 f i GuSweepsMesh.obj
 0001:000d6b00       ??_ESweepCapsuleMeshHitCallback@Gu@physx@@UEAAPEAXI@Z 00000001800d7b00 f i GuSweepsMesh.obj
 0001:000d6b00       ??_GSweepCapsuleMeshHitCallback@Gu@physx@@UEAAPEAXI@Z 00000001800d7b00 f i GuSweepsMesh.obj
 0001:000d6b30       ??_ESweepConvexMeshHitCallback@Gu@physx@@UEAAPEAXI@Z 00000001800d7b30 f i GuSweepsMesh.obj
 0001:000d6b30       ??_GSweepConvexMeshHitCallback@Gu@physx@@UEAAPEAXI@Z 00000001800d7b30 f i GuSweepsMesh.obj
 0001:000d6b60       ??_ESweepShapeMeshHitCallback@Gu@physx@@UEAAPEAXI@Z 00000001800d7b60 f i GuSweepsMesh.obj
 0001:000d6b60       ??_GSweepShapeMeshHitCallback@Gu@physx@@UEAAPEAXI@Z 00000001800d7b60 f i GuSweepsMesh.obj
 0001:000d6b90       ?finalizeHit@SweepBoxMeshHitCallback@Gu@physx@@QEBA_NAEAUPxSweepHit@3@AEBVPxTriangleMeshGeometry@3@AEBVPxTransform@3@2AEBVPxVec3@3@_N4@Z 00000001800d7b90 f   GuSweepsMesh.obj
 0001:000d7260       ?finalizeHit@SweepCapsuleMeshHitCallback@Gu@physx@@QEBA_NAEAUPxSweepHit@3@AEBVCapsule@23@AEBVPxTriangleMeshGeometry@3@AEBVPxTransform@3@_N@Z 00000001800d8260 f   GuSweepsMesh.obj
 0001:000d73f0       ?finalizeHit@SweepConvexMeshHitCallback@Gu@physx@@QEAA_NAEAUPxSweepHit@3@AEBVPxTriangleMeshGeometry@3@AEBVPxTransform@3@AEBVPxConvexMeshGeometry@3@2AEBVPxVec3@3@M_N555@Z 00000001800d83f0 f   GuSweepsMesh.obj
 0001:000d78d0       ?processHit@SweepBoxMeshHitCallback@Gu@physx@@UEAA_NAEBUPxRaycastHit@3@AEBVPxVec3@3@11AEAMPEBI@Z 00000001800d88d0 f   GuSweepsMesh.obj
 0001:000d80c0       ?processHit@SweepCapsuleMeshHitCallback@Gu@physx@@UEAA_NAEBUPxRaycastHit@3@AEBVPxVec3@3@11AEAMPEBI@Z 00000001800d90c0 f   GuSweepsMesh.obj
 0001:000d85f0       ?processHit@SweepConvexMeshHitCallback@Gu@physx@@UEAA_NAEBUPxRaycastHit@3@AEBVPxVec3@3@11AEAMPEBI@Z 00000001800d95f0 f   GuSweepsMesh.obj
 0001:000d8d50       ?sweepBox_MeshGeom@@YA_NAEBVPxGeometry@physx@@AEBVPxTransform@2@AEBVPxBoxGeometry@2@1AEBVBox@Gu@2@AEBVPxVec3@2@MAEAUPxSweepHit@2@V?$PxFlags@W4Enum@PxHitFlag@physx@@G@2@M@Z 00000001800d9d50 f   GuSweepsMesh.obj
 0001:000d8de0       ?sweepCapsule_MeshGeom@@YA_NAEBVPxGeometry@physx@@AEBVPxTransform@2@AEBVPxCapsuleGeometry@2@1AEBVCapsule@Gu@2@AEBVPxVec3@2@MAEAUPxSweepHit@2@V?$PxFlags@W4Enum@PxHitFlag@physx@@G@2@M@Z 00000001800d9de0 f   GuSweepsMesh.obj
 0001:000d8e70       ?sweepConvex_MeshGeom@@YA_NAEBVPxGeometry@physx@@AEBVPxTransform@2@AEBVPxConvexMeshGeometry@2@1AEBVPxVec3@2@MAEAUPxSweepHit@2@V?$PxFlags@W4Enum@PxHitFlag@physx@@G@2@M@Z 00000001800d9e70 f   GuSweepsMesh.obj
 0001:000d9ab0       ??0TriangleMesh@Gu@physx@@QEAA@AEAVGuMeshFactory@2@AEAVTriangleMeshData@12@@Z 00000001800daab0 f   GuTriangleMesh.obj
 0001:000d9c40       ??1TriangleMesh@Gu@physx@@UEAA@XZ 00000001800dac40 f   GuTriangleMesh.obj
 0001:000d9df4       ??_ETriangleMesh@Gu@physx@@WBA@EAAPEAXI@Z 00000001800dadf4 f i GuTriangleMesh.obj
 0001:000d9e00       ??_ETriangleMesh@Gu@physx@@UEAAPEAXI@Z 00000001800dae00 f i GuTriangleMesh.obj
 0001:000d9e00       ??_GTriangleMesh@Gu@physx@@UEAAPEAXI@Z 00000001800dae00 f i GuTriangleMesh.obj
 0001:000d9e70       ?exportExtraData@TriangleMesh@Gu@physx@@UEAAXAEAVPxSerializationContext@3@@Z 00000001800dae70 f   GuTriangleMesh.obj
 0001:000d9fb0       ?getLocalBounds@TriangleMesh@Gu@physx@@UEBA?AVPxBounds3@3@XZ 00000001800dafb0 f i GuTriangleMesh.obj
 0001:000da040       ?getNbVertices@TriangleMesh@Gu@physx@@UEBAIXZ 00000001800db040 f i GuTriangleMesh.obj
 0001:000da050       ?getTriangleMaterialIndex@TriangleMesh@Gu@physx@@UEBAGI@Z 00000001800db050 f i GuTriangleMesh.obj
 0001:000da070       ?getTriangleMeshFlags@TriangleMesh@Gu@physx@@UEBA?AV?$PxFlags@W4Enum@PxTriangleMeshFlag@physx@@E@3@XZ 00000001800db070 f i GuTriangleMesh.obj
 0001:000da080       ?getTrianglesRemap@TriangleMesh@Gu@physx@@UEBAPEBIXZ 00000001800db080 f i GuTriangleMesh.obj
 0001:000da090       ?getVertices@TriangleMesh@Gu@physx@@UEBAPEBVPxVec3@3@XZ 00000001800db090 f i GuTriangleMesh.obj
 0001:000da0a0       ?getVerticesForModification@TriangleMesh@Gu@physx@@UEAAPEAVPxVec3@3@XZ 00000001800db0a0 f   GuTriangleMesh.obj
 0001:000da0e0       ?importExtraData@TriangleMesh@Gu@physx@@QEAAXAEAVPxDeserializationContext@3@@Z 00000001800db0e0 f   GuTriangleMesh.obj
 0001:000da1f0       ?isKindOf@PxTriangleMesh@physx@@MEBA_NPEBD@Z 00000001800db1f0 f i GuTriangleMesh.obj
 0001:000da240       ?onRefCountZero@TriangleMesh@Gu@physx@@UEAAXXZ 00000001800db240 f   GuTriangleMesh.obj
 0001:000da2e0       ?refitBVH@TriangleMesh@Gu@physx@@UEAA?AVPxBounds3@3@XZ 00000001800db2e0 f   GuTriangleMesh.obj
 0001:000da3b0       ??0BV4TriangleMesh@Gu@physx@@QEAA@AEAVGuMeshFactory@2@AEAVTriangleMeshData@12@@Z 00000001800db3b0 f   GuTriangleMeshBV4.obj
 0001:000da444       ??_EBV4TriangleMesh@Gu@physx@@WBA@EAAPEAXI@Z 00000001800db444 f i GuTriangleMeshBV4.obj
 0001:000da450       ??_EBV4TriangleMesh@Gu@physx@@UEAAPEAXI@Z 00000001800db450 f i GuTriangleMeshBV4.obj
 0001:000da450       ??_GBV4TriangleMesh@Gu@physx@@UEAAPEAXI@Z 00000001800db450 f i GuTriangleMeshBV4.obj
 0001:000da4e0       ?createObject@BV4TriangleMesh@Gu@physx@@SAPEAVTriangleMesh@23@AEAPEAEAEAVPxDeserializationContext@3@@Z 00000001800db4e0 f   GuTriangleMeshBV4.obj
 0001:000da5b0       ?exportExtraData@BV4TriangleMesh@Gu@physx@@UEAAXAEAVPxSerializationContext@3@@Z 00000001800db5b0 f   GuTriangleMeshBV4.obj
 0001:000da5f0       ?getConcreteTypeName@BV4TriangleMesh@Gu@physx@@UEBAPEBDXZ 00000001800db5f0 f i GuTriangleMeshBV4.obj
 0001:000da600       ?getMidphaseID@BV4TriangleMesh@Gu@physx@@UEBA?AW4Enum@PxMeshMidPhase@3@XZ 00000001800db600 f i GuTriangleMeshBV4.obj
 0001:000da600       _get_startup_argv_mode     00000001800db600 f i MSVCRT:argv_mode.obj
 0001:000da610       ??0RTreeTriangleMesh@Gu@physx@@QEAA@AEAVGuMeshFactory@2@AEAVTriangleMeshData@12@@Z 00000001800db610 f   GuTriangleMeshRTree.obj
 0001:000da788       ??_ERTreeTriangleMesh@Gu@physx@@WBA@EAAPEAXI@Z 00000001800db788 f i GuTriangleMeshRTree.obj
 0001:000da7a0       ??_E?$RefitCallback@G@physx@@UEAAPEAXI@Z 00000001800db7a0 f i GuTriangleMeshRTree.obj
 0001:000da7a0       ??_E?$RefitCallback@I@physx@@UEAAPEAXI@Z 00000001800db7a0 f i GuTriangleMeshRTree.obj
 0001:000da7a0       ??_G?$RefitCallback@G@physx@@UEAAPEAXI@Z 00000001800db7a0 f i GuTriangleMeshRTree.obj
 0001:000da7a0       ??_G?$RefitCallback@I@physx@@UEAAPEAXI@Z 00000001800db7a0 f i GuTriangleMeshRTree.obj
 0001:000da7d0       ??_ERTreeTriangleMesh@Gu@physx@@UEAAPEAXI@Z 00000001800db7d0 f i GuTriangleMeshRTree.obj
 0001:000da7d0       ??_GRTreeTriangleMesh@Gu@physx@@UEAAPEAXI@Z 00000001800db7d0 f i GuTriangleMeshRTree.obj
 0001:000da890       ?createObject@RTreeTriangleMesh@Gu@physx@@SAPEAVTriangleMesh@23@AEAPEAEAEAVPxDeserializationContext@3@@Z 00000001800db890 f   GuTriangleMeshRTree.obj
 0001:000da910       ?exportExtraData@RTreeTriangleMesh@Gu@physx@@UEAAXAEAVPxSerializationContext@3@@Z 00000001800db910 f   GuTriangleMeshRTree.obj
 0001:000da950       ?getConcreteTypeName@RTreeTriangleMesh@Gu@physx@@UEBAPEBDXZ 00000001800db950 f i GuTriangleMeshRTree.obj
 0001:000da960       ?getMidphaseID@RTreeTriangleMesh@Gu@physx@@UEBA?AW4Enum@PxMeshMidPhase@3@XZ 00000001800db960 f i GuTriangleMeshRTree.obj
 0001:000da960       __scrt_stub_for_is_c_termination_complete 00000001800db960 f i MSVCRT:ucrt_stubs.obj
 0001:000da960       _is_c_termination_complete 00000001800db960 f i MSVCRT:ucrt_stubs.obj
 0001:000da970       ?getVerticesForModification@RTreeTriangleMesh@Gu@physx@@UEAAPEAVPxVec3@3@XZ 00000001800db970 f   GuTriangleMeshRTree.obj
 0001:000da980       ?recomputeBounds@?$RefitCallback@G@physx@@UEAAXIAEAT__m128@@0@Z 00000001800db980 f i GuTriangleMeshRTree.obj
 0001:000dacb0       ?recomputeBounds@?$RefitCallback@I@physx@@UEAAXIAEAT__m128@@0@Z 00000001800dbcb0 f i GuTriangleMeshRTree.obj
 0001:000dafd0       ?refitBVH@RTreeTriangleMesh@Gu@physx@@UEAA?AVPxBounds3@3@XZ 00000001800dbfd0 f   GuTriangleMeshRTree.obj
 0001:000db1f0       ??0BV32Tree@Gu@physx@@QEAA@PEAVSourceMesh@12@AEBVPxBounds3@2@@Z 00000001800dc1f0 f   GuBV32.obj
 0001:000db2b0       ??0BV32Tree@Gu@physx@@QEAA@XZ 00000001800dc2b0 f   GuBV32.obj
 0001:000db2e0       ??1BV32Tree@Gu@physx@@QEAA@XZ 00000001800dc2e0 f   GuBV32.obj
 0001:000db2f0       ?calculateLeafNode@BV32Tree@Gu@physx@@QEAAXAEAUBV32Data@23@@Z 00000001800dc2f0 f   GuBV32.obj
 0001:000db530       ?createSOAformatNode@BV32Tree@Gu@physx@@QEAAXAEAUBV32DataPacked@23@AEBUBV32Data@23@IAEAI2@Z 00000001800dc530 f   GuBV32.obj
 0001:000db980       ?load@BV32Tree@Gu@physx@@QEAA_NAEAVPxInputStream@3@_N@Z 00000001800dc980 f   GuBV32.obj
 0001:000dbbc0       ?release@BV32Tree@Gu@physx@@QEAAXXZ 00000001800dcbc0 f   GuBV32.obj
 0001:000dbc50       ??0BV32Node@@QEAA@XZ       00000001800dcc50 f i GuBV32Build.obj
 0001:000dbf70       ?BuildBV32Ex@Gu@physx@@YA_NAEAVBV32Tree@12@AEAVSourceMesh@12@MI@Z 00000001800dcf70 f   GuBV32Build.obj
 0001:000df6e0       ?pcmContactBoxBox@Gu@physx@@YA_NAEBVGeometryUnion@12@0AEBVPxTransform@2@1AEBUNarrowPhaseParams@12@AEAUCache@12@AEAVContactBuffer@12@PEAVRenderOutput@Cm@2@@Z 00000001800e06e0 f   GuPCMContactBoxBox.obj
 0001:000e04e0       ??$gjkPenetration@U?$RelativeConvex@VBoxV@Gu@physx@@@Gu@physx@@U?$LocalConvex@VConvexHullNoScaleV@Gu@physx@@@23@@Gu@physx@@YA?AW4GjkStatus@01@AEBU?$RelativeConvex@VBoxV@Gu@physx@@@01@AEBU?$LocalConvex@VConvexHullNoScaleV@Gu@physx@@@01@AEBT__m128@@2_NPEIAE4AEAEAEAUGjkOutput@01@@Z 00000001800e14e0 f i GuPCMContactBoxConvex.obj
 0001:000e2130       ?pcmContactBoxConvex@Gu@physx@@YA_NAEBVGeometryUnion@12@0AEBVPxTransform@2@1AEBUNarrowPhaseParams@12@AEAUCache@12@AEAVContactBuffer@12@PEAVRenderOutput@Cm@2@@Z 00000001800e3130 f   GuPCMContactBoxConvex.obj
 0001:000e2f50       ?support@?$LocalConvex@VConvexHullNoScaleV@Gu@physx@@@Gu@physx@@UEBA?AT__m128@@AEBT4@@Z 00000001800e3f50 f i GuPCMContactBoxConvex.obj
 0001:000e2fa0       ?support@?$LocalConvex@VConvexHullNoScaleV@Gu@physx@@@Gu@physx@@UEBA?AT__m128@@AEBT4@AEAH@Z 00000001800e3fa0 f i GuPCMContactBoxConvex.obj
 0001:000e3000       ?supportPoint@?$LocalConvex@VConvexHullNoScaleV@Gu@physx@@@Gu@physx@@UEBA?AT__m128@@H@Z 00000001800e4000 f i GuPCMContactBoxConvex.obj
 0001:000e3030       ?pcmContactCapsuleBox@Gu@physx@@YA_NAEBVGeometryUnion@12@0AEBVPxTransform@2@1AEBUNarrowPhaseParams@12@AEAUCache@12@AEAVContactBuffer@12@PEAVRenderOutput@Cm@2@@Z 00000001800e4030 f   GuPCMContactCapsuleBox.obj
 0001:000e3ea0       ?pcmContactCapsuleCapsule@Gu@physx@@YA_NAEBVGeometryUnion@12@0AEBVPxTransform@2@1AEBUNarrowPhaseParams@12@AEAUCache@12@AEAVContactBuffer@12@PEAVRenderOutput@Cm@2@@Z 00000001800e4ea0 f   GuPCMContactCapsuleCapsule.obj
 0001:000e4720       ??$gjkPenetration@U?$LocalConvex@VCapsuleV@Gu@physx@@@Gu@physx@@U?$LocalConvex@VConvexHullNoScaleV@Gu@physx@@@23@@Gu@physx@@YA?AW4GjkStatus@01@AEBU?$LocalConvex@VCapsuleV@Gu@physx@@@01@AEBU?$LocalConvex@VConvexHullNoScaleV@Gu@physx@@@01@AEBT__m128@@2_NPEIAE4AEAEAEAUGjkOutput@01@@Z 00000001800e5720 f i GuPCMContactCapsuleConvex.obj
 0001:000e5ef0       ?pcmContactCapsuleConvex@Gu@physx@@YA_NAEBVGeometryUnion@12@0AEBVPxTransform@2@1AEBUNarrowPhaseParams@12@AEAUCache@12@AEAVContactBuffer@12@PEAVRenderOutput@Cm@2@@Z 00000001800e6ef0 f   GuPCMContactCapsuleConvex.obj
 0001:000e7100       ??0PCMMeshContactGeneration@Gu@physx@@QEAA@AEBT__m128@@0AEBVPsTransformV@aos@shdfnd@2@1AEAVMultiplePersistentContactManifold@12@AEAVContactBuffer@12@PEAV?$InlineArray@I$0EEA@VNamedAllocator@shdfnd@physx@@@62@PEAVRenderOutput@Cm@2@@Z 00000001800e8100 f i GuPCMContactCapsuleHeightField.obj
 0001:000e7a10       ??_EPCMCapsuleVsHeightfieldContactGenerationCallback@physx@@UEAAPEAXI@Z 00000001800e8a10 f i GuPCMContactCapsuleHeightField.obj
 0001:000e7a10       ??_GPCMCapsuleVsHeightfieldContactGenerationCallback@physx@@UEAAPEAXI@Z 00000001800e8a10 f i GuPCMContactCapsuleHeightField.obj
 0001:000e7a40       ?onEvent@?$PCMHeightfieldContactGenerationCallback@UPCMCapsuleVsHeightfieldContactGenerationCallback@physx@@@Gu@physx@@UEAA_NIPEAI@Z 00000001800e8a40 f i GuPCMContactCapsuleHeightField.obj
 0001:000e7ff0       ?pcmContactCapsuleHeightField@Gu@physx@@YA_NAEBVGeometryUnion@12@0AEBVPxTransform@2@1AEBUNarrowPhaseParams@12@AEAUCache@12@AEAVContactBuffer@12@PEAVRenderOutput@Cm@2@@Z 00000001800e8ff0 f   GuPCMContactCapsuleHeightField.obj
 0001:000e8d20       ??$processTriangleCache@$0BA@@PCMCapsuleVsMeshContactGenerationCallback@physx@@QEAAXAEAU?$TriangleCache@$0BA@@Gu@1@@Z 00000001800e9d20 f i GuPCMContactCapsuleMesh.obj
 0001:000e8db0       ??_EPCMCapsuleVsMeshContactGenerationCallback@physx@@UEAAPEAXI@Z 00000001800e9db0 f i GuPCMContactCapsuleMesh.obj
 0001:000e8db0       ??_GPCMCapsuleVsMeshContactGenerationCallback@physx@@UEAAPEAXI@Z 00000001800e9db0 f i GuPCMContactCapsuleMesh.obj
 0001:000e8de0       ?pcmContactCapsuleMesh@Gu@physx@@YA_NAEBVGeometryUnion@12@0AEBVPxTransform@2@1AEBUNarrowPhaseParams@12@AEAUCache@12@AEAVContactBuffer@12@PEAVRenderOutput@Cm@2@@Z 00000001800e9de0 f   GuPCMContactCapsuleMesh.obj
 0001:000e9d10       ?processHit@?$PCMMeshContactGenerationCallback@UPCMCapsuleVsMeshContactGenerationCallback@physx@@@Gu@physx@@UEAA_NAEBUPxRaycastHit@3@AEBVPxVec3@3@11AEAMPEBI@Z 00000001800ead10 f i GuPCMContactCapsuleMesh.obj
 0001:000ea0e0       ??$sort@USortedTriangle@Gu@physx@@U?$Less@USortedTriangle@Gu@physx@@@shdfnd@3@VNamedAllocator@53@@shdfnd@physx@@YAXPEAUSortedTriangle@Gu@1@IAEBU?$Less@USortedTriangle@Gu@physx@@@01@AEBVNamedAllocator@01@I@Z 00000001800eb0e0 f i GuPCMContactConvexCommon.obj
 0001:000ea580       ?addContactsToPatch@PCMConvexVsMeshContactGeneration@Gu@physx@@QEAAXAEBT__m128@@I@Z 00000001800eb580 f   GuPCMContactConvexCommon.obj
 0001:000eaec0       ?addToPatch@PCMSphereVsMeshContactGeneration@Gu@physx@@QEAAXAEBT__m128@@0T4@I@Z 00000001800ebec0 f   GuPCMContactConvexCommon.obj
 0001:000eb580       ?allocate@?$Array@USortedTriangle@Gu@physx@@V?$InlineAllocator@$0IAA@VNamedAllocator@shdfnd@physx@@@shdfnd@3@@shdfnd@physx@@IEAAPEAUSortedTriangle@Gu@3@I@Z 00000001800ec580 f i GuPCMContactConvexCommon.obj
 0001:000eb610       ?doSupport@?$SupportLocalImpl@VTriangleV@Gu@physx@@@Gu@physx@@UEBA?AT__m128@@AEBT4@@Z 00000001800ec610 f i GuPCMContactConvexCommon.obj
 0001:000eb6a0       ?doSupport@?$SupportLocalImpl@VTriangleV@Gu@physx@@@Gu@physx@@UEBAXAEBT__m128@@AEAT4@1@Z 00000001800ec6a0 f i GuPCMContactConvexCommon.obj
 0001:000eb710       ?generateContacts@PCMCapsuleVsMeshContactGeneration@Gu@physx@@SA_NAEBT__m128@@0000I000PEAVMeshPersistentContact@23@AEAI@Z 00000001800ec710 f   GuPCMContactConvexCommon.obj
 0001:000ebb40       ?generateEE@PCMCapsuleVsMeshContactGeneration@Gu@physx@@QEAAXAEBT__m128@@000I00PEAVMeshPersistentContact@23@AEAI@Z 00000001800ecb40 f   GuPCMContactConvexCommon.obj
 0001:000ebdc0       ?generateEEMTD@PCMCapsuleVsMeshContactGeneration@Gu@physx@@SAXAEBT__m128@@000I00PEAVMeshPersistentContact@23@AEAI@Z 00000001800ecdc0 f   GuPCMContactConvexCommon.obj
 0001:000ec010       ?generateLastContacts@PCMConvexVsMeshContactGeneration@Gu@physx@@QEAAXXZ 00000001800ed010 f   GuPCMContactConvexCommon.obj
 0001:000ec570       ?generateLastContacts@PCMSphereVsMeshContactGeneration@Gu@physx@@QEAAXXZ 00000001800ed570 f   GuPCMContactConvexCommon.obj
 0001:000ec990       ?growAndPushBack@?$Array@USortedTriangle@Gu@physx@@V?$InlineAllocator@$0IAA@VNamedAllocator@shdfnd@physx@@@shdfnd@3@@shdfnd@physx@@IEAAAEAUSortedTriangle@Gu@3@AEBU453@@Z 00000001800ed990 f i GuPCMContactConvexCommon.obj
 0001:000ecfd0       ?pcmDistanceSegmentTriangleSquared@Gu@physx@@YA?AT__m128@@AEBT3@0000AEAT3@11@Z 00000001800edfd0 f   GuPCMContactConvexCommon.obj
 0001:000ed910       ?populateVerts@?$SupportLocalImpl@VTriangleV@Gu@physx@@@Gu@physx@@UEBAXPEBEIPEBVPxVec3@3@PEAT__m128@@@Z 00000001800ee910 f i GuPCMContactConvexCommon.obj
 0001:000eda50       ?processTriangle@PCMCapsuleVsMeshContactGeneration@Gu@physx@@QEAA_NPEBVPxVec3@3@IEPEBI@Z 00000001800eea50 f   GuPCMContactConvexCommon.obj
 0001:000ee640       ?processTriangle@PCMCapsuleVsMeshContactGeneration@Gu@physx@@SA_NAEBVTriangleV@23@IAEBVCapsuleV@23@AEBT__m128@@EPEAVMeshPersistentContact@23@AEAI@Z 00000001800ef640 f   GuPCMContactConvexCommon.obj
 0001:000ee980       ?processTriangle@PCMConvexVsMeshContactGeneration@Gu@physx@@QEAA_NPEBVPxVec3@3@IEPEBI@Z 00000001800ef980 f   GuPCMContactConvexCommon.obj
 0001:000eeed0       ?processTriangle@PCMConvexVsMeshContactGeneration@Gu@physx@@SA_NAEBUPolygonalData@23@PEAVSupportLocal@23@PEBVPxVec3@3@IEAEBT__m128@@_NAEBVPsTransformV@aos@shdfnd@3@AEBVPsMatTransformV@9shdfnd@3@PEAVMeshPersistentContact@23@AEAI@Z 00000001800efed0 f   GuPCMContactConvexCommon.obj
 0001:000ef150       ?processTriangle@PCMSphereVsMeshContactGeneration@Gu@physx@@QEAA_NPEBVPxVec3@3@IEPEBI@Z 00000001800f0150 f   GuPCMContactConvexCommon.obj
 0001:000ef560       ??$gjkPenetration@U?$RelativeConvex@VConvexHullNoScaleV@Gu@physx@@@Gu@physx@@U?$LocalConvex@VConvexHullNoScaleV@Gu@physx@@@23@@Gu@physx@@YA?AW4GjkStatus@01@AEBU?$RelativeConvex@VConvexHullNoScaleV@Gu@physx@@@01@AEBU?$LocalConvex@VConvexHullNoScaleV@Gu@physx@@@01@AEBT__m128@@2_NPEIAE4AEAEAEAUGjkOutput@01@@Z 00000001800f0560 f i GuPCMContactConvexConvex.obj
 0001:000f0b20       ??$gjkPenetration@U?$RelativeConvex@VConvexHullNoScaleV@Gu@physx@@@Gu@physx@@U?$LocalConvex@VConvexHullV@Gu@physx@@@23@@Gu@physx@@YA?AW4GjkStatus@01@AEBU?$RelativeConvex@VConvexHullNoScaleV@Gu@physx@@@01@AEBU?$LocalConvex@VConvexHullV@Gu@physx@@@01@AEBT__m128@@2_NPEIAE4AEAEAEAUGjkOutput@01@@Z 00000001800f1b20 f i GuPCMContactConvexConvex.obj
 0001:000f2190       ??$gjkPenetration@U?$RelativeConvex@VConvexHullV@Gu@physx@@@Gu@physx@@U?$LocalConvex@VConvexHullNoScaleV@Gu@physx@@@23@@Gu@physx@@YA?AW4GjkStatus@01@AEBU?$RelativeConvex@VConvexHullV@Gu@physx@@@01@AEBU?$LocalConvex@VConvexHullNoScaleV@Gu@physx@@@01@AEBT__m128@@2_NPEIAE4AEAEAEAUGjkOutput@01@@Z 00000001800f3190 f i GuPCMContactConvexConvex.obj
 0001:000f41f0       ?pcmContactConvexConvex@Gu@physx@@YA_NAEBVGeometryUnion@12@0AEBVPxTransform@2@1AEBUNarrowPhaseParams@12@AEAUCache@12@AEAVContactBuffer@12@PEAVRenderOutput@Cm@2@@Z 00000001800f51f0 f   GuPCMContactConvexConvex.obj
 0001:000f5350       ?support@?$RelativeConvex@VConvexHullNoScaleV@Gu@physx@@@Gu@physx@@UEBA?AT__m128@@AEBT4@@Z 00000001800f6350 f i GuPCMContactConvexConvex.obj
 0001:000f5400       ?support@?$RelativeConvex@VConvexHullNoScaleV@Gu@physx@@@Gu@physx@@UEBA?AT__m128@@AEBT4@AEAH@Z 00000001800f6400 f i GuPCMContactConvexConvex.obj
 0001:000f54c0       ?supportPoint@?$RelativeConvex@VConvexHullNoScaleV@Gu@physx@@@Gu@physx@@UEBA?AT__m128@@H@Z 00000001800f64c0 f i GuPCMContactConvexConvex.obj
 0001:000f5520       ??_EPCMConvexVsHeightfieldContactGenerationCallback@physx@@UEAAPEAXI@Z 00000001800f6520 f i GuPCMContactConvexHeightField.obj
 0001:000f5520       ??_GPCMConvexVsHeightfieldContactGenerationCallback@physx@@UEAAPEAXI@Z 00000001800f6520 f i GuPCMContactConvexHeightField.obj
 0001:000f5550       ?PCMContactConvexHeightfield@Gu@physx@@YA_NAEBUPolygonalData@12@PEAVSupportLocal@12@AEBT__m128@@AEBVPxBounds3@2@AEBVPxHeightFieldGeometry@2@AEBVPxTransform@2@5MAEAVContactBuffer@12@AEBVFastVertex2ShapeScaling@Cm@2@_NAEAVMultiplePersistentContactManifold@12@PEAVRenderOutput@Cm@2@@Z 00000001800f6550 f   GuPCMContactConvexHeightField.obj
 0001:000f60e0       ?onEvent@?$PCMHeightfieldContactGenerationCallback@UPCMConvexVsHeightfieldContactGenerationCallback@physx@@@Gu@physx@@UEAA_NIPEAI@Z 00000001800f70e0 f i GuPCMContactConvexHeightField.obj
 0001:000f6690       ?pcmContactBoxHeightField@Gu@physx@@YA_NAEBVGeometryUnion@12@0AEBVPxTransform@2@1AEBUNarrowPhaseParams@12@AEAUCache@12@AEAVContactBuffer@12@PEAVRenderOutput@Cm@2@@Z 00000001800f7690 f   GuPCMContactConvexHeightField.obj
 0001:000f6910       ?pcmContactConvexHeightField@Gu@physx@@YA_NAEBVGeometryUnion@12@0AEBVPxTransform@2@1AEBUNarrowPhaseParams@12@AEAUCache@12@AEAVContactBuffer@12@PEAVRenderOutput@Cm@2@@Z 00000001800f7910 f   GuPCMContactConvexHeightField.obj
 0001:000f6fb0       ??$processTriangleCache@$0BA@@PCMConvexVsMeshContactGenerationCallback@physx@@QEAAXAEAU?$TriangleCache@$0BA@@Gu@1@@Z 00000001800f7fb0 f i GuPCMContactConvexMesh.obj
 0001:000f7040       ??_EPCMConvexVsMeshContactGenerationCallback@physx@@UEAAPEAXI@Z 00000001800f8040 f i GuPCMContactConvexMesh.obj
 0001:000f7040       ??_GPCMConvexVsMeshContactGenerationCallback@physx@@UEAAPEAXI@Z 00000001800f8040 f i GuPCMContactConvexMesh.obj
 0001:000f7070       ?PCMContactConvexMesh@Gu@physx@@YA_NAEBUPolygonalData@12@PEAVSupportLocal@12@AEBT__m128@@AEBVPxBounds3@2@AEBUPxTriangleMeshGeometryLL@2@AEBVPxTransform@2@5MAEAVContactBuffer@12@AEBVFastVertex2ShapeScaling@Cm@2@7_N8AEAVMultiplePersistentContactManifold@12@PEAVRenderOutput@Cm@2@@Z 00000001800f8070 f   GuPCMContactConvexMesh.obj
 0001:000f7d00       ?pcmContactBoxMesh@Gu@physx@@YA_NAEBVGeometryUnion@12@0AEBVPxTransform@2@1AEBUNarrowPhaseParams@12@AEAUCache@12@AEAVContactBuffer@12@PEAVRenderOutput@Cm@2@@Z 00000001800f8d00 f   GuPCMContactConvexMesh.obj
 0001:000f8020       ?pcmContactConvexMesh@Gu@physx@@YA_NAEBVGeometryUnion@12@0AEBVPxTransform@2@1AEBUNarrowPhaseParams@12@AEAUCache@12@AEAVContactBuffer@12@PEAVRenderOutput@Cm@2@@Z 00000001800f9020 f   GuPCMContactConvexMesh.obj
 0001:000f87d0       ?processHit@?$PCMMeshContactGenerationCallback@UPCMConvexVsMeshContactGenerationCallback@physx@@@Gu@physx@@UEAA_NAEBUPxRaycastHit@3@AEBVPxVec3@3@11AEAMPEBI@Z 00000001800f97d0 f i GuPCMContactConvexMesh.obj
 0001:000f8c00       ?addGJKEPAContacts@Gu@physx@@YA_NPEBUGjkConvex@12@0AEBVPsMatTransformV@aos@shdfnd@2@W4GjkStatus@12@PEAVPersistentContact@12@T__m128@@4AEAUGjkOutput@12@AEAVPersistentContactManifold@12@@Z 00000001800f9c00 f   GuPCMContactGenBoxConvex.obj
 0001:000f8e00       ?buildPartialHull@Gu@physx@@YAXAEBUPolygonalData@12@PEAVSupportLocal@12@AEAVSeparatingAxes@12@AEBT__m128@@3@Z 00000001800f9e00 f   GuPCMContactGenBoxConvex.obj
 0001:000f90e0       ?computeMTD@Gu@physx@@YA_NAEAUPolygonalData@12@0PEAVSupportLocal@12@1AEAT__m128@@2@Z 00000001800fa0e0 f   GuPCMContactGenBoxConvex.obj
 0001:000f9740       ?generateFullContactManifold@Gu@physx@@YA_NAEAUPolygonalData@12@0PEAVSupportLocal@12@1PEAVPersistentContact@12@AEAIAEBT__m128@@444MM_NPEAVRenderOutput@Cm@2@M@Z 00000001800fa740 f   GuPCMContactGenBoxConvex.obj
 0001:000fafd0       ?generatedContacts@Gu@physx@@YAXAEAUPolygonalData@12@0AEBUHullPolygonData@12@1PEAVSupportLocal@12@2AEBVPsMatTransformV@aos@shdfnd@2@PEAVPersistentContact@12@AEAIAEBT__m128@@PEAVRenderOutput@Cm@2@@Z 00000001800fbfd0 f   GuPCMContactGenBoxConvex.obj
 0001:000fc6d0       ?computeMTD@Gu@physx@@YA_NAEBVCapsuleV@12@AEAUPolygonalData@12@PEAVSupportLocal@12@AEAT__m128@@3@Z 00000001800fd6d0 f   GuPCMContactGenSphereCapsule.obj
 0001:000fc7c0       ?generateCapsuleBoxFullContactManifold@Gu@physx@@YA_NAEBVCapsuleV@12@AEAUPolygonalData@12@PEAVSupportLocal@12@AEBVPsMatTransformV@aos@shdfnd@2@PEAVPersistentContact@12@AEAIAEBT__m128@@AEAT__m128@@6M_NMPEAVRenderOutput@Cm@2@@Z 00000001800fd7c0 f   GuPCMContactGenSphereCapsule.obj
 0001:000fd030       ?generateFullContactManifold@Gu@physx@@YA_NAEBVCapsuleV@12@AEAUPolygonalData@12@PEAVSupportLocal@12@AEBVPsMatTransformV@aos@shdfnd@2@PEAVPersistentContact@12@AEAIAEBT__m128@@AEAT__m128@@6M_NM@Z 00000001800fe030 f   GuPCMContactGenSphereCapsule.obj
 0001:000fd930       ?generateSphereFullContactManifold@Gu@physx@@YA_NAEBVCapsuleV@12@AEAUPolygonalData@12@PEAVSupportLocal@12@PEAVPersistentContact@12@AEAIAEBT__m128@@AEAT7@_N@Z 00000001800fe930 f   GuPCMContactGenSphereCapsule.obj
 0001:000fdd60       ?generatedCapsuleBoxFaceContacts@Gu@physx@@YAXAEBVCapsuleV@12@AEAUPolygonalData@12@AEBUHullPolygonData@12@PEAVSupportLocal@12@AEBVPsMatTransformV@aos@shdfnd@2@PEAVPersistentContact@12@AEAIAEBT__m128@@7@Z 00000001800fed60 f   GuPCMContactGenSphereCapsule.obj
 0001:000fe500       ?generatedContactsEEContacts@Gu@physx@@YAXAEBVCapsuleV@12@AEAUPolygonalData@12@AEBUHullPolygonData@12@PEAVSupportLocal@12@AEBVPsMatTransformV@aos@shdfnd@2@PEAVPersistentContact@12@AEAIAEBT__m128@@7@Z 00000001800ff500 f   GuPCMContactGenSphereCapsule.obj
 0001:000ff190       ?pcmContactPlaneBox@Gu@physx@@YA_NAEBVGeometryUnion@12@0AEBVPxTransform@2@1AEBUNarrowPhaseParams@12@AEAUCache@12@AEAVContactBuffer@12@PEAVRenderOutput@Cm@2@@Z 0000000180100190 f   GuPCMContactPlaneBox.obj
 0001:000ffd80       ?pcmContactPlaneCapsule@Gu@physx@@YA_NAEBVGeometryUnion@12@0AEBVPxTransform@2@1AEBUNarrowPhaseParams@12@AEAUCache@12@AEAVContactBuffer@12@PEAVRenderOutput@Cm@2@@Z 0000000180100d80 f   GuPCMContactPlaneCapsule.obj
 0001:00100520       ?pcmContactPlaneConvex@Gu@physx@@YA_NAEBVGeometryUnion@12@0AEBVPxTransform@2@1AEBUNarrowPhaseParams@12@AEAUCache@12@AEAVContactBuffer@12@PEAVRenderOutput@Cm@2@@Z 0000000180101520 f   GuPCMContactPlaneConvex.obj
 0001:00100e90       ?pcmContactSphereBox@Gu@physx@@YA_NAEBVGeometryUnion@12@0AEBVPxTransform@2@1AEBUNarrowPhaseParams@12@AEAUCache@12@AEAVContactBuffer@12@PEAVRenderOutput@Cm@2@@Z 0000000180101e90 f   GuPCMContactSphereBox.obj
 0001:00101300       ?pcmContactSphereCapsule@Gu@physx@@YA_NAEBVGeometryUnion@12@0AEBVPxTransform@2@1AEBUNarrowPhaseParams@12@AEAUCache@12@AEAVContactBuffer@12@PEAVRenderOutput@Cm@2@@Z 0000000180102300 f   GuPCMContactSphereCapsule.obj
 0001:00101750       ?pcmContactSphereConvex@Gu@physx@@YA_NAEBVGeometryUnion@12@0AEBVPxTransform@2@1AEBUNarrowPhaseParams@12@AEAUCache@12@AEAVContactBuffer@12@PEAVRenderOutput@Cm@2@@Z 0000000180102750 f   GuPCMContactSphereConvex.obj
 0001:00102430       ??1PCMSphereVsHeightfieldContactGenerationCallback@physx@@UEAA@XZ 0000000180103430 f i GuPCMContactSphereHeightField.obj
 0001:001024a0       ??_EPCMSphereVsHeightfieldContactGenerationCallback@physx@@UEAAPEAXI@Z 00000001801034a0 f i GuPCMContactSphereHeightField.obj
 0001:001024a0       ??_GPCMSphereVsHeightfieldContactGenerationCallback@physx@@UEAAPEAXI@Z 00000001801034a0 f i GuPCMContactSphereHeightField.obj
 0001:001024e0       ?onEvent@?$PCMHeightfieldContactGenerationCallback@UPCMSphereVsHeightfieldContactGenerationCallback@physx@@@Gu@physx@@UEAA_NIPEAI@Z 00000001801034e0 f i GuPCMContactSphereHeightField.obj
 0001:00102a90       ?pcmContactSphereHeightField@Gu@physx@@YA_NAEBVGeometryUnion@12@0AEBVPxTransform@2@1AEBUNarrowPhaseParams@12@AEAUCache@12@AEAVContactBuffer@12@PEAVRenderOutput@Cm@2@@Z 0000000180103a90 f   GuPCMContactSphereHeightField.obj
 0001:001036b0       ??$processTriangleCache@$0BA@@PCMSphereVsMeshContactGenerationCallback@physx@@QEAAXAEAU?$TriangleCache@$0BA@@Gu@1@@Z 00000001801046b0 f i GuPCMContactSphereMesh.obj
 0001:00103740       ??1PCMSphereVsMeshContactGenerationCallback@physx@@UEAA@XZ 0000000180104740 f i GuPCMContactSphereMesh.obj
 0001:001037b0       ??_EPCMSphereVsMeshContactGenerationCallback@physx@@UEAAPEAXI@Z 00000001801047b0 f i GuPCMContactSphereMesh.obj
 0001:001037b0       ??_GPCMSphereVsMeshContactGenerationCallback@physx@@UEAAPEAXI@Z 00000001801047b0 f i GuPCMContactSphereMesh.obj
 0001:001037f0       ?pcmContactSphereMesh@Gu@physx@@YA_NAEBVGeometryUnion@12@0AEBVPxTransform@2@1AEBUNarrowPhaseParams@12@AEAUCache@12@AEAVContactBuffer@12@PEAVRenderOutput@Cm@2@@Z 00000001801047f0 f   GuPCMContactSphereMesh.obj
 0001:00104570       ?processHit@?$PCMMeshContactGenerationCallback@UPCMSphereVsMeshContactGenerationCallback@physx@@@Gu@physx@@UEAA_NAEBUPxRaycastHit@3@AEBVPxVec3@3@11AEAMPEBI@Z 0000000180105570 f i GuPCMContactSphereMesh.obj
 0001:00104940       ?pcmContactSpherePlane@Gu@physx@@YA_NAEBVGeometryUnion@12@0AEBVPxTransform@2@1AEBUNarrowPhaseParams@12@AEAUCache@12@AEAVContactBuffer@12@PEAVRenderOutput@Cm@2@@Z 0000000180105940 f   GuPCMContactSpherePlane.obj
 0001:00104ad0       ?pcmContactSphereSphere@Gu@physx@@YA_NAEBVGeometryUnion@12@0AEBVPxTransform@2@1AEBUNarrowPhaseParams@12@AEAUCache@12@AEAVContactBuffer@12@PEAVRenderOutput@Cm@2@@Z 0000000180105ad0 f   GuPCMContactSphereSphere.obj
 0001:00104bb0       ?getPCMConvexData@Gu@physx@@YAXAEBVConvexHullV@12@_NAEAUPolygonalData@12@@Z 0000000180105bb0 f   GuPCMShapeConvex.obj
 0001:00104d10       ?getPCMConvexData@Gu@physx@@YA_NAEBVGeometryUnion@12@AEAVFastVertex2ShapeScaling@Cm@2@AEAVPxBounds3@2@AEAUPolygonalData@12@@Z 0000000180105d10 f   GuPCMShapeConvex.obj
 0001:001050d0       ?getPolygonalData@PCMPolygonalBox@Gu@physx@@QEBAXPEIAUPolygonalData@23@@Z 00000001801060d0 f   GuPCMShapeConvex.obj
 0001:00105120       ?generatePolyDataContactManifold@PCMConvexVsMeshContactGeneration@Gu@physx@@QEAA_NAEAVTriangleV@23@IIEPEAVMeshPersistentContact@23@AEAIAEBT__m128@@AEAT6@@Z 0000000180106120 f   GuPCMTriangleContactGen.obj
 0001:00105240       ?generateTriangleFullContactManifold@PCMConvexVsMeshContactGeneration@Gu@physx@@QEAA_NAEAVTriangleV@23@IPEBIEAEBUPolygonalData@23@PEAV?$SupportLocalImpl@VTriangleV@Gu@physx@@@23@PEAVSupportLocal@23@PEAVMeshPersistentContact@23@AEAIAEBT__m128@@AEAT9@@Z 0000000180106240 f   GuPCMTriangleContactGen.obj
 0001:00105b40       ?generateTriangleFullContactManifold@PCMConvexVsMeshContactGeneration@Gu@physx@@SA_NAEAVTriangleV@23@IEAEBUPolygonalData@23@PEAV?$SupportLocalImpl@VTriangleV@Gu@physx@@@23@PEAVSupportLocal@23@PEAVMeshPersistentContact@23@AEAIAEBT__m128@@AEAT9@PEAVRenderOutput@Cm@3@@Z 0000000180106b40 f   GuPCMTriangleContactGen.obj
 0001:00108290       ?addBatchManifoldContacts2@PersistentContactManifold@Gu@physx@@QEAAXPEBVPersistentContact@23@I@Z 0000000180109290 f   GuPersistentContactManifold.obj
 0001:00108300       ?addBatchManifoldContacts@PersistentContactManifold@Gu@physx@@QEAAXPEBVPersistentContact@23@IM@Z 0000000180109300 f   GuPersistentContactManifold.obj
 0001:00108380       ?addBatchManifoldContactsCluster@PersistentContactManifold@Gu@physx@@QEAAXPEBVPersistentContact@23@I@Z 0000000180109380 f   GuPersistentContactManifold.obj
 0001:00108600       ?addManifoldContactPoints@MultiplePersistentContactManifold@Gu@physx@@QEAAXPEAVMeshPersistentContact@23@IPEAPEAUPCMContactPatch@23@IAEBT__m128@@2E@Z 0000000180109600 f   GuPersistentContactManifold.obj
 0001:001089f0       ?addManifoldContactsToContactBuffer@MultiplePersistentContactManifold@Gu@physx@@QEAA_NAEAVContactBuffer@23@AEBVPsTransformV@aos@shdfnd@3@1AEBT__m128@@@Z 00000001801099f0 f   GuPersistentContactManifold.obj
 0001:00108cb0       ?addManifoldContactsToContactBuffer@MultiplePersistentContactManifold@Gu@physx@@QEAA_NAEAVContactBuffer@23@AEBVPsTransformV@aos@shdfnd@3@@Z 0000000180109cb0 f   GuPersistentContactManifold.obj
 0001:00108f40       ?addManifoldContactsToContactBuffer@PersistentContactManifold@Gu@physx@@QEAAXAEAVContactBuffer@23@AEBT__m128@@1AEBVPsTransformV@aos@shdfnd@3@11@Z 0000000180109f40 f   GuPersistentContactManifold.obj
 0001:001090d0       ?addManifoldContactsToContactBuffer@PersistentContactManifold@Gu@physx@@QEAAXAEAVContactBuffer@23@AEBT__m128@@AEBVPsMatTransformV@aos@shdfnd@3@@Z 000000018010a0d0 f   GuPersistentContactManifold.obj
 0001:00109170       ?addManifoldContactsToContactBuffer@PersistentContactManifold@Gu@physx@@QEAAXAEAVContactBuffer@23@AEBT__m128@@AEBVPsTransformV@aos@shdfnd@3@1@Z 000000018010a170 f   GuPersistentContactManifold.obj
 0001:001092d0       ?addManifoldPoint2@PersistentContactManifold@Gu@physx@@QEAAIAEBT__m128@@000@Z 000000018010a2d0 f   GuPersistentContactManifold.obj
 0001:00109400       ?addManifoldPoint@Gu@physx@@YAXPEAVPersistentContact@12@AEAVPersistentContactManifold@12@AEAUGjkOutput@12@AEBVPsMatTransformV@aos@shdfnd@2@T__m128@@@Z 000000018010a400 f   GuPersistentContactManifold.obj
 0001:001095b0       ?addManifoldPoint@PersistentContactManifold@Gu@physx@@QEAAIAEBT__m128@@000@Z 000000018010a5b0 f   GuPersistentContactManifold.obj
 0001:00109a00       ?drawLine@MultiplePersistentContactManifold@Gu@physx@@SAXAEAVRenderOutput@Cm@3@AEBT__m128@@1I@Z 000000018010aa00 f   GuPersistentContactManifold.obj
 0001:00109ac0       ?drawLine@MultiplePersistentContactManifold@Gu@physx@@SAXAEAVRenderOutput@Cm@3@VPxVec3@3@1I@Z 000000018010aac0 f   GuPersistentContactManifold.obj
 0001:00109b80       ?drawManifold@MultiplePersistentContactManifold@Gu@physx@@QEAAXAEAVRenderOutput@Cm@3@AEBVPsTransformV@aos@shdfnd@3@1@Z 000000018010ab80 f   GuPersistentContactManifold.obj
 0001:0010a330       ?drawPoint@MultiplePersistentContactManifold@Gu@physx@@SAXAEAVRenderOutput@Cm@3@AEBT__m128@@MI@Z 000000018010b330 f   GuPersistentContactManifold.obj
 0001:0010a510       ?drawPolygon@MultiplePersistentContactManifold@Gu@physx@@SAXAEAVRenderOutput@Cm@3@AEBVPsTransformV@aos@shdfnd@3@PEAT__m128@@II@Z 000000018010b510 f   GuPersistentContactManifold.obj
 0001:0010a780       ?findRotationMatrixFromZAxis@Gu@physx@@YA?AUMat33V@aos@shdfnd@2@AEBT__m128@@@Z 000000018010b780 f   GuPersistentContactManifold.obj
 0001:0010aa00       ?fromBuffer@MultiplePersistentContactManifold@Gu@physx@@QEAAXPEIAE@Z 000000018010ba00 f   GuPersistentContactManifold.obj
 0001:0010ab50       ?reduceBatchContacts2@PersistentContactManifold@Gu@physx@@QEAAXPEBVPersistentContact@23@I@Z 000000018010bb50 f   GuPersistentContactManifold.obj
 0001:0010ad50       ?reduceBatchContacts@PersistentContactManifold@Gu@physx@@QEAAXPEBVPersistentContact@23@IM@Z 000000018010bd50 f   GuPersistentContactManifold.obj
 0001:0010b220       ?reduceBatchContactsCapsule@SinglePersistentContactManifold@Gu@physx@@QEAA?AT__m128@@PEBVMeshPersistentContact@23@IAEAUPCMContactPatch@23@@Z 000000018010c220 f   GuPersistentContactManifold.obj
 0001:0010b4b0       ?reduceBatchContactsCluster@PersistentContactManifold@Gu@physx@@QEAAXPEBVPersistentContact@23@I@Z 000000018010c4b0 f   GuPersistentContactManifold.obj
 0001:0010b950       ?reduceBatchContactsConvex@SinglePersistentContactManifold@Gu@physx@@QEAA?AT__m128@@PEBVMeshPersistentContact@23@IAEAUPCMContactPatch@23@@Z 000000018010c950 f   GuPersistentContactManifold.obj
 0001:0010bf50       ?reduceContacts@SinglePersistentContactManifold@Gu@physx@@SAIPEAVMeshPersistentContact@23@I@Z 000000018010cf50 f   GuPersistentContactManifold.obj
 0001:0010c460       ?reduceContactsForPCM@PersistentContactManifold@Gu@physx@@QEAAIAEBT__m128@@00@Z 000000018010d460 f   GuPersistentContactManifold.obj
 0001:0010ca00       ?refreshContactPoints@SinglePersistentContactManifold@Gu@physx@@QEAA?AT__m128@@AEBVPsMatTransformV@aos@shdfnd@3@AEBT4@1@Z 000000018010da00 f   GuPersistentContactManifold.obj
 0001:0010cb50       ?replaceManifoldPoint@PersistentContactManifold@Gu@physx@@QEAA_NAEBT__m128@@000@Z 000000018010db50 f   GuPersistentContactManifold.obj
 0001:0010cc10       ?sweepBoxBox@Gu@physx@@YA_NAEBVBox@12@0AEBVPxVec3@2@MV?$PxFlags@W4Enum@PxHitFlag@physx@@G@2@AEAUPxSweepHit@2@@Z 000000018010dc10 f   GuSweepBoxBox.obj
 0001:0010e250       ?sweepBoxSphere@Gu@physx@@YA_NAEBVBox@12@MAEBVPxVec3@2@1MAEAMAEAV42@V?$PxFlags@W4Enum@PxHitFlag@physx@@G@2@@Z 000000018010f250 f   GuSweepBoxSphere.obj
 0001:0010ef10       ?sweepBoxTriangle@Gu@physx@@YA_NAEBVPxTriangle@2@AEBVPxBounds3@2@AEBVPxVec3@2@2AEAV52@3AEAM_N@Z 000000018010ff10 f   GuSweepBoxTriangle_FeatureBased.obj
 0001:00110630       ?triBoxSweepTestBoxSpace@Gu@physx@@YAHAEBVPxTriangle@2@AEBVPxVec3@2@11MAEAM_N@Z 0000000180111630 f   GuSweepBoxTriangle_SAT.obj
 0001:00111f30       ?sweepCapsuleBox@Gu@physx@@YA_NAEBVCapsule@12@AEBVPxTransform@2@AEBVPxVec3@2@2MAEAV52@AEAM3V?$PxFlags@W4Enum@PxHitFlag@physx@@G@2@@Z 0000000180112f30 f   GuSweepCapsuleBox.obj
 0001:001122b0       ?distancePointSegmentSquared@Gu@physx@@YAMAEBVSegment@12@AEBVPxVec3@2@PEAM@Z 00000001801132b0 f i GuSweepCapsuleCapsule.obj
 0001:00112630       ?sweepCapsuleCapsule@Gu@physx@@YA_NAEBVCapsule@12@0AEBVPxVec3@2@MAEAMAEAV42@3IAEAG@Z 0000000180113630 f   GuSweepCapsuleCapsule.obj
 0001:00113440       ?sweepCapsuleTriangles_Precise@Gu@physx@@YA_NIPEIBVPxTriangle@2@AEBVCapsule@12@AEBVPxVec3@2@MPEIBIAEAUPxSweepHit@2@AEAV52@V?$PxFlags@W4Enum@PxHitFlag@physx@@G@2@_NPEBVBoxPadded@12@@Z 0000000180114440 f   GuSweepCapsuleTriangle.obj
 0001:001155c0       ?sweepSphereCapsule@Gu@physx@@YA_NAEBVSphere@12@AEBVCapsule@12@AEBVPxVec3@2@MAEAMAEAV52@4V?$PxFlags@W4Enum@PxHitFlag@physx@@G@2@@Z 00000001801165c0 f   GuSweepSphereCapsule.obj
 0001:00115c60       ?sweepSphereSphere@Gu@physx@@YA_NAEBVPxVec3@2@M0M0AEAMAEAV32@@Z 0000000180116c60 f   GuSweepSphereSphere.obj
 0001:00115ed0       ?sweepSphereTriangles@Gu@physx@@YA_NIPEIBVPxTriangle@2@AEBVPxVec3@2@M1MPEIBIAEAUPxSweepHit@2@AEAV42@_N555@Z 0000000180116ed0 f   GuSweepSphereTriangle.obj
 0001:001167a0       ?sweepSphereVSQuad@Gu@physx@@YA_NPEIBVPxVec3@2@AEBV32@1M1AEAM@Z 00000001801177a0 f   GuSweepSphereTriangle.obj
 0001:00117d00       ?sweepSphereVSTri@Gu@physx@@YA_NPEIBVPxVec3@2@AEBV32@1M1AEAMAEA_N_N@Z 0000000180118d00 f   GuSweepSphereTriangle.obj
 0001:00118bd0       ??$gjk@U?$LocalConvex@VTriangleV@Gu@physx@@@Gu@physx@@U?$LocalConvex@VBoxV@Gu@physx@@@23@@Gu@physx@@YA?AW4GjkStatus@01@AEBU?$LocalConvex@VTriangleV@Gu@physx@@@01@AEBU?$LocalConvex@VBoxV@Gu@physx@@@01@AEBT__m128@@2AEAT5@333@Z 0000000180119bd0 f i GuSweepTriangleUtils.obj
 0001:001198c0       ?computeBoxTriImpactData@Gu@physx@@YAXAEAVPxVec3@2@0AEBV32@1AEBVPxTriangle@2@M@Z 000000018011a8c0 f   GuSweepTriangleUtils.obj
 0001:00119b50       ?computeEdgeEdgeNormal@Gu@physx@@YAXAEAVPxVec3@2@AEBV32@1111M@Z 000000018011ab50 f   GuSweepTriangleUtils.obj
 0001:00119e10       ?computeSphereTriImpactData@Gu@physx@@YAXAEAVPxVec3@2@0AEBV32@1MAEBVPxTriangle@2@@Z 000000018011ae10 f   GuSweepTriangleUtils.obj
 0001:0011a2ec       __imp_load_PxGetFoundation 000000018011b2ec f   PhysXFoundation_64:PhysXFoundation_64.dll
 0001:0011a2f8       __tailMerge_physxfoundation_64_dll 000000018011b2f8     PhysXFoundation_64:PhysXFoundation_64.dll
 0001:0011a371       __imp_load_?getAllocator@shdfnd@physx@@YAAEAVPxAllocatorCallback@2@XZ 000000018011b371 f   PhysXFoundation_64:PhysXFoundation_64.dll
 0001:0011a37d       __imp_load_?getInstance@Foundation@shdfnd@physx@@SAAEAV123@XZ 000000018011b37d f   PhysXFoundation_64:PhysXFoundation_64.dll
 0001:0011a389       __imp_load_?error@Foundation@shdfnd@physx@@QEAAXW4Enum@PxErrorCode@3@PEBDH1ZZ 000000018011b389 f   PhysXFoundation_64:PhysXFoundation_64.dll
 0001:0011a395       __imp_load_??0NamedAllocator@shdfnd@physx@@QEAA@PEBD@Z 000000018011b395 f   PhysXFoundation_64:PhysXFoundation_64.dll
 0001:0011a3a1       __imp_load_??1NamedAllocator@shdfnd@physx@@QEAA@XZ 000000018011b3a1 f   PhysXFoundation_64:PhysXFoundation_64.dll
 0001:0011a3ad       __imp_load_?allocate@NamedAllocator@shdfnd@physx@@QEAAPEAX_KPEBDH@Z 000000018011b3ad f   PhysXFoundation_64:PhysXFoundation_64.dll
 0001:0011a3b9       __imp_load_?deallocate@NamedAllocator@shdfnd@physx@@QEAAXPEAX@Z 000000018011b3b9 f   PhysXFoundation_64:PhysXFoundation_64.dll
 0001:0011a3c5       __imp_load_?vsnprintf@shdfnd@physx@@YAHPEAD_KPEBD0@Z 000000018011b3c5 f   PhysXFoundation_64:PhysXFoundation_64.dll
 0001:0011a3d1       __imp_load_??0NamedAllocator@shdfnd@physx@@QEAA@AEBV012@@Z 000000018011b3d1 f   PhysXFoundation_64:PhysXFoundation_64.dll
 0001:0011a3dd       __imp_load_??0MutexImpl@shdfnd@physx@@QEAA@XZ 000000018011b3dd f   PhysXFoundation_64:PhysXFoundation_64.dll
 0001:0011a3e9       __imp_load_??1MutexImpl@shdfnd@physx@@QEAA@XZ 000000018011b3e9 f   PhysXFoundation_64:PhysXFoundation_64.dll
 0001:0011a3f5       __imp_load_?lock@MutexImpl@shdfnd@physx@@QEAAXXZ 000000018011b3f5 f   PhysXFoundation_64:PhysXFoundation_64.dll
 0001:0011a401       __imp_load_?unlock@MutexImpl@shdfnd@physx@@QEAAXXZ 000000018011b401 f   PhysXFoundation_64:PhysXFoundation_64.dll
 0001:0011a40d       __imp_load_?getSize@MutexImpl@shdfnd@physx@@SAIXZ 000000018011b40d f   PhysXFoundation_64:PhysXFoundation_64.dll
 0001:0011a419       __imp_load_?atomicDecrement@shdfnd@physx@@YAHPECH@Z 000000018011b419 f   PhysXFoundation_64:PhysXFoundation_64.dll
 0001:0011a425       __imp_load_?PxTransformFromSegment@physx@@YA?AVPxTransform@1@AEBVPxVec3@1@0PEAM@Z 000000018011b425 f   PhysXFoundation_64:PhysXFoundation_64.dll
 0001:0011a431       __imp_load_?optimizeBoundingBox@shdfnd@physx@@YA?AVPxVec3@2@AEAVPxMat33@2@@Z 000000018011b431 f   PhysXFoundation_64:PhysXFoundation_64.dll
 0001:0011a43d       __imp_load_?allocate@TempAllocator@shdfnd@physx@@QEAAPEAX_KPEBDH@Z 000000018011b43d f   PhysXFoundation_64:PhysXFoundation_64.dll
 0001:0011a449       __imp_load_?deallocate@TempAllocator@shdfnd@physx@@QEAAXPEAX@Z 000000018011b449 f   PhysXFoundation_64:PhysXFoundation_64.dll
 0001:0011a455       __imp_load_?atomicIncrement@shdfnd@physx@@YAHPECH@Z 000000018011b455 f   PhysXFoundation_64:PhysXFoundation_64.dll
 0001:0011a461       __imp_load_PxGetProfilerCallback 000000018011b461 f   PhysXFoundation_64:PhysXFoundation_64.dll
 0001:0011a470       ?DloadAcquireSectionWriteAccess@@YAXXZ 000000018011b470 f i Delayimp:delayhlp.obj
 0001:0011a51c       ?DloadGetSRWLockFunctionPointers@@YAEXZ 000000018011b51c f i Delayimp:delayhlp.obj
 0001:0011a5bc       ?DloadMakePermanentImageCommit@@YAXPEAX_K@Z 000000018011b5bc f i Delayimp:delayhlp.obj
 0001:0011a654       ?DloadObtainSection@@YAPEAXPEAK0@Z 000000018011b654 f i Delayimp:delayhlp.obj
 0001:0011a6f0       ?DloadProtectSection@@YAXKPEAK@Z 000000018011b6f0 f i Delayimp:delayhlp.obj
 0001:0011a780       ?DloadReleaseSectionWriteAccess@@YAXXZ 000000018011b780 f i Delayimp:delayhlp.obj
 0001:0011a814       __delayLoadHelper2         000000018011b814 f   Delayimp:delayhlp.obj
 0001:0011aaec       ??3@YAXPEAX_K@Z            000000018011baec f   MSVCRT:delete_scalar_size.obj
 0001:0011aaec       ??_V@YAXPEAX@Z             000000018011baec f   MSVCRT:delete_array.obj
 0001:0011aaf4       ??_Etype_info@@UEAAPEAXI@Z 000000018011baf4 f i MSVCRT:std_type_info_static.obj
 0001:0011aaf4       ??_Gtype_info@@UEAAPEAXI@Z 000000018011baf4 f i MSVCRT:std_type_info_static.obj
 0001:0011ab20       ?__scrt_initialize_type_info@@YAXXZ 000000018011bb20 f   MSVCRT:tncleanup.obj
 0001:0011ab30       ?__scrt_uninitialize_type_info@@YAXXZ 000000018011bb30 f   MSVCRT:tncleanup.obj
 0001:0011ab50       __chkstk                   000000018011bb50 f   MSVCRT:chkstk.obj
 0001:0011ab50       _alloca_probe              000000018011bb50 f   MSVCRT:chkstk.obj
 0001:0011aba0       __vdecl_sinf4              000000018011bba0 f   MSVCRT:svml_ssinf4_dispatch.obj
 0001:0011abc0       __libm_sse2_sincosf_       000000018011bbc0 f   MSVCRT:svml_ssinf4_dispatch.obj
 0001:0011ac03       __libm_sse2_sincosf4_      000000018011bc03 f   MSVCRT:svml_ssinf4_dispatch.obj
 0001:0011ac10       ??3@YAXPEAX@Z              000000018011bc10 f   MSVCRT:delete_scalar.obj
 0001:0011af38       _DllMainCRTStartup         000000018011bf38 f   MSVCRT:dll_dllmain.obj
 0001:0011af78       __isa_available_init       000000018011bf78 f   MSVCRT:cpu_disp.obj
 0001:0011b130       __sse2_sinf4@@16           000000018011c130 f   MSVCRT:svml_ssinf4_sse2.obj
 0001:0011ba70       __sse4_sinf4@@16           000000018011ca70 f   MSVCRT:svml_ssinf4_sse4.obj
 0001:0011c1e4       __security_init_cookie     000000018011d1e4 f   MSVCRT:gs_support.obj
 0001:0011c290       DllMain                    000000018011d290 f   MSVCRT:dll_dllmain_stub.obj
 0001:0011c2b4       __local_stdio_printf_options 000000018011d2b4 f i MSVCRT:default_local_stdio_options.obj
 0001:0011c2bc       __local_stdio_scanf_options 000000018011d2bc f i MSVCRT:default_local_stdio_options.obj
 0001:0011c2c4       __scrt_initialize_default_local_stdio_options 000000018011d2c4 f   MSVCRT:default_local_stdio_options.obj
 0001:0011c2e0       __scrt_acquire_startup_lock 000000018011d2e0 f   MSVCRT:utility.obj
 0001:0011c31c       __scrt_dllmain_after_initialize_c 000000018011d31c f   MSVCRT:utility.obj
 0001:0011c350       __scrt_dllmain_before_initialize_c 000000018011d350 f   MSVCRT:utility.obj
 0001:0011c368       __scrt_dllmain_crt_thread_attach 000000018011d368 f   MSVCRT:utility.obj
 0001:0011c390       __scrt_dllmain_crt_thread_detach 000000018011d390 f   MSVCRT:utility.obj
 0001:0011c3a8       __scrt_dllmain_exception_filter 000000018011d3a8 f   MSVCRT:utility.obj
 0001:0011c408       __scrt_dllmain_uninitialize_c 000000018011d408 f   MSVCRT:utility.obj
 0001:0011c438       __scrt_dllmain_uninitialize_critical 000000018011d438 f   MSVCRT:utility.obj
 0001:0011c44c       __scrt_initialize_crt      000000018011d44c f   MSVCRT:utility.obj
 0001:0011c498       __scrt_initialize_onexit_tables 000000018011d498 f   MSVCRT:utility.obj
 0001:0011c524       __scrt_is_nonwritable_in_current_image 000000018011d524 f   MSVCRT:utility.obj
 0001:0011c5bc       __scrt_release_startup_lock 000000018011d5bc f   MSVCRT:utility.obj
 0001:0011c5e0       __scrt_uninitialize_crt    000000018011d5e0 f   MSVCRT:utility.obj
 0001:0011c60c       __scrt_get_dyn_tls_init_callback 000000018011d60c f   MSVCRT:dyn_tls_init.obj
 0001:0011c614       __crt_debugger_hook        000000018011d614 f   MSVCRT:utility_desktop.obj
 0001:0011c61c       __scrt_fastfail            000000018011d61c f   MSVCRT:utility_desktop.obj
 0001:0011c768       _RTC_Initialize            000000018011d768 f   MSVCRT:initsect.obj
 0001:0011c7a4       _RTC_Terminate             000000018011d7a4 f   MSVCRT:initsect.obj
 0001:0011c7e0       __common_ssin_cout_rare    000000018011d7e0 f   MSVCRT:svml_s_sin_cout.obj
 0001:0011c850       __scrt_is_ucrt_dll_in_use  000000018011d850 f   MSVCRT:ucrt_detection.obj
 0001:0011c85c       _purecall                  000000018011d85c f   vcruntime:VCRUNTIME140.dll
 0001:0011c862       __std_type_info_name       000000018011d862 f   vcruntime:VCRUNTIME140.dll
 0001:0011c868       memcpy                     000000018011d868 f   vcruntime:VCRUNTIME140.dll
 0001:0011c86e       memset                     000000018011d86e f   vcruntime:VCRUNTIME140.dll
 0001:0011c874       strstr                     000000018011d874 f   vcruntime:VCRUNTIME140.dll
 0001:0011c87a       __std_type_info_destroy_list 000000018011d87a f   vcruntime:VCRUNTIME140.dll
 0001:0011c880       __C_specific_handler       000000018011d880 f   vcruntime:VCRUNTIME140.dll
 0001:0011c886       tanf                       000000018011d886 f   ucrt:api-ms-win-crt-math-l1-1-0.dll
 0001:0011c88c       strcmp                     000000018011d88c f   ucrt:api-ms-win-crt-string-l1-1-0.dll
 0001:0011c892       acosf                      000000018011d892 f   ucrt:api-ms-win-crt-math-l1-1-0.dll
 0001:0011c898       free                       000000018011d898 f   ucrt:api-ms-win-crt-heap-l1-1-0.dll
 0001:0011c89e       _initterm                  000000018011d89e f   ucrt:api-ms-win-crt-runtime-l1-1-0.dll
 0001:0011c8a4       _initterm_e                000000018011d8a4 f   ucrt:api-ms-win-crt-runtime-l1-1-0.dll
 0001:0011c8aa       _seh_filter_dll            000000018011d8aa f   ucrt:api-ms-win-crt-runtime-l1-1-0.dll
 0001:0011c8b0       _configure_narrow_argv     000000018011d8b0 f   ucrt:api-ms-win-crt-runtime-l1-1-0.dll
 0001:0011c8b6       _initialize_narrow_environment 000000018011d8b6 f   ucrt:api-ms-win-crt-runtime-l1-1-0.dll
 0001:0011c8bc       _initialize_onexit_table   000000018011d8bc f   ucrt:api-ms-win-crt-runtime-l1-1-0.dll
 0001:0011c8c2       _execute_onexit_table      000000018011d8c2 f   ucrt:api-ms-win-crt-runtime-l1-1-0.dll
 0001:0011c8c8       _cexit                     000000018011d8c8 f   ucrt:api-ms-win-crt-runtime-l1-1-0.dll
 0001:0011c8d0       __acrt_initialize          000000018011d8d0 f   MSVCRT:ucrt_stubs.obj
 0001:0011c8d0       __acrt_thread_attach       000000018011d8d0 f   MSVCRT:ucrt_stubs.obj
 0001:0011c8d0       __acrt_thread_detach       000000018011d8d0 f   MSVCRT:ucrt_stubs.obj
 0001:0011c8d0       __acrt_uninitialize        000000018011d8d0 f   MSVCRT:ucrt_stubs.obj
 0001:0011c8d0       __acrt_uninitialize_critical 000000018011d8d0 f   MSVCRT:ucrt_stubs.obj
 0001:0011c8d0       __scrt_stub_for_acrt_initialize 000000018011d8d0 f   MSVCRT:ucrt_stubs.obj
 0001:0011c8d0       __scrt_stub_for_acrt_thread_attach 000000018011d8d0 f   MSVCRT:ucrt_stubs.obj
 0001:0011c8d0       __scrt_stub_for_acrt_thread_detach 000000018011d8d0 f   MSVCRT:ucrt_stubs.obj
 0001:0011c8d0       __scrt_stub_for_acrt_uninitialize 000000018011d8d0 f   MSVCRT:ucrt_stubs.obj
 0001:0011c8d0       __scrt_stub_for_acrt_uninitialize_critical 000000018011d8d0 f   MSVCRT:ucrt_stubs.obj
 0001:0011c8d0       __vcrt_initialize          000000018011d8d0 f   MSVCRT:ucrt_stubs.obj
 0001:0011c8d0       __vcrt_thread_attach       000000018011d8d0 f   MSVCRT:ucrt_stubs.obj
 0001:0011c8d0       __vcrt_thread_detach       000000018011d8d0 f   MSVCRT:ucrt_stubs.obj
 0001:0011c8d0       __vcrt_uninitialize        000000018011d8d0 f   MSVCRT:ucrt_stubs.obj
 0001:0011c8d0       __vcrt_uninitialize_critical 000000018011d8d0 f   MSVCRT:ucrt_stubs.obj
 0001:0011c8f0       _guard_dispatch_icall_nop  000000018011d8f0 f   MSVCRT:guard_dispatch.obj
 0001:0011c910       _guard_xfg_dispatch_icall_nop 000000018011d910 f   MSVCRT:guard_xfg_dispatch.obj
 0002:00000000       __imp_FreeLibrary          000000018011e000     kernel32:KERNEL32.dll
 0002:00000008       __imp_GetProcAddress       000000018011e008     kernel32:KERNEL32.dll
 0002:00000010       __imp_LoadLibraryA         000000018011e010     kernel32:KERNEL32.dll
 0002:00000018       __imp_SetUnhandledExceptionFilter 000000018011e018     kernel32:KERNEL32.dll
 0002:00000020       __imp_UnhandledExceptionFilter 000000018011e020     kernel32:KERNEL32.dll
 0002:00000028       __imp_IsDebuggerPresent    000000018011e028     kernel32:KERNEL32.dll
 0002:00000030       __imp_RtlVirtualUnwind     000000018011e030     kernel32:KERNEL32.dll
 0002:00000038       __imp_RtlLookupFunctionEntry 000000018011e038     kernel32:KERNEL32.dll
 0002:00000040       __imp_RtlCaptureContext    000000018011e040     kernel32:KERNEL32.dll
 0002:00000048       __imp_DisableThreadLibraryCalls 000000018011e048     kernel32:KERNEL32.dll
 0002:00000050       __imp_GetSystemTimeAsFileTime 000000018011e050     kernel32:KERNEL32.dll
 0002:00000058       __imp_GetCurrentThreadId   000000018011e058     kernel32:KERNEL32.dll
 0002:00000060       __imp_GetCurrentProcessId  000000018011e060     kernel32:KERNEL32.dll
 0002:00000068       __imp_QueryPerformanceCounter 000000018011e068     kernel32:KERNEL32.dll
 0002:00000070       __imp_InitializeSListHead  000000018011e070     kernel32:KERNEL32.dll
 0002:00000078       __imp_LoadLibraryExA       000000018011e078     kernel32:KERNEL32.dll
 0002:00000080       __imp_GetModuleHandleW     000000018011e080     kernel32:KERNEL32.dll
 0002:00000088       __imp_VirtualQuery         000000018011e088     kernel32:KERNEL32.dll
 0002:00000090       __imp_VirtualProtect       000000018011e090     kernel32:KERNEL32.dll
 0002:00000098       __imp_GetSystemInfo        000000018011e098     kernel32:KERNEL32.dll
 0002:000000a0       __imp_GetLastError         000000018011e0a0     kernel32:KERNEL32.dll
 0002:000000a8       __imp_RaiseException       000000018011e0a8     kernel32:KERNEL32.dll
 0002:000000b0       __imp_IsProcessorFeaturePresent 000000018011e0b0     kernel32:KERNEL32.dll
 0002:000000b8       \177KERNEL32_NULL_THUNK_DATA 000000018011e0b8     kernel32:KERNEL32.dll
 0002:000000c0       __imp_strstr               000000018011e0c0     vcruntime:VCRUNTIME140.dll
 0002:000000c8       __imp___std_type_info_destroy_list 000000018011e0c8     vcruntime:VCRUNTIME140.dll
 0002:000000d0       __imp___C_specific_handler 000000018011e0d0     vcruntime:VCRUNTIME140.dll
 0002:000000d8       __imp_memset               000000018011e0d8     vcruntime:VCRUNTIME140.dll
 0002:000000e0       __imp_memcpy               000000018011e0e0     vcruntime:VCRUNTIME140.dll
 0002:000000e8       __imp___std_type_info_name 000000018011e0e8     vcruntime:VCRUNTIME140.dll
 0002:000000f0       __imp__purecall            000000018011e0f0     vcruntime:VCRUNTIME140.dll
 0002:000000f8       \177VCRUNTIME140_NULL_THUNK_DATA 000000018011e0f8     vcruntime:VCRUNTIME140.dll
 0002:00000100       __imp_free                 000000018011e100     ucrt:api-ms-win-crt-heap-l1-1-0.dll
 0002:00000108       \177api-ms-win-crt-heap-l1-1-0_NULL_THUNK_DATA 000000018011e108     ucrt:api-ms-win-crt-heap-l1-1-0.dll
 0002:00000110       __imp_tanf                 000000018011e110     ucrt:api-ms-win-crt-math-l1-1-0.dll
 0002:00000118       __imp_acosf                000000018011e118     ucrt:api-ms-win-crt-math-l1-1-0.dll
 0002:00000120       __imp__fpclass             000000018011e120     ucrt:api-ms-win-crt-math-l1-1-0.dll
 0002:00000128       \177api-ms-win-crt-math-l1-1-0_NULL_THUNK_DATA 000000018011e128     ucrt:api-ms-win-crt-math-l1-1-0.dll
 0002:00000130       __imp__initterm            000000018011e130     ucrt:api-ms-win-crt-runtime-l1-1-0.dll
 0002:00000138       __imp__initterm_e          000000018011e138     ucrt:api-ms-win-crt-runtime-l1-1-0.dll
 0002:00000140       __imp__cexit               000000018011e140     ucrt:api-ms-win-crt-runtime-l1-1-0.dll
 0002:00000148       __imp__seh_filter_dll      000000018011e148     ucrt:api-ms-win-crt-runtime-l1-1-0.dll
 0002:00000150       __imp__execute_onexit_table 000000018011e150     ucrt:api-ms-win-crt-runtime-l1-1-0.dll
 0002:00000158       __imp__initialize_onexit_table 000000018011e158     ucrt:api-ms-win-crt-runtime-l1-1-0.dll
 0002:00000160       __imp__initialize_narrow_environment 000000018011e160     ucrt:api-ms-win-crt-runtime-l1-1-0.dll
 0002:00000168       __imp__configure_narrow_argv 000000018011e168     ucrt:api-ms-win-crt-runtime-l1-1-0.dll
 0002:00000170       \177api-ms-win-crt-runtime-l1-1-0_NULL_THUNK_DATA 000000018011e170     ucrt:api-ms-win-crt-runtime-l1-1-0.dll
 0002:00000178       __imp_strcmp               000000018011e178     ucrt:api-ms-win-crt-string-l1-1-0.dll
 0002:00000180       \177api-ms-win-crt-string-l1-1-0_NULL_THUNK_DATA 000000018011e180     ucrt:api-ms-win-crt-string-l1-1-0.dll
 0002:00000188       __guard_check_icall_fptr   000000018011e188     MSVCRT:guard_support.obj
 0002:00000190       __guard_xfg_check_icall_fptr 000000018011e190     MSVCRT:guard_support.obj
 0002:00000198       __guard_dispatch_icall_fptr 000000018011e198     MSVCRT:guard_support.obj
 0002:000001a0       __guard_xfg_dispatch_icall_fptr 000000018011e1a0     MSVCRT:guard_support.obj
 0002:000001a8       __guard_xfg_table_dispatch_icall_fptr 000000018011e1a8     MSVCRT:guard_support.obj
 0002:000001b0       __castguard_check_failure_os_handled_fptr 000000018011e1b0     MSVCRT:guard_support.obj
 0002:000001b8       __guard_memcpy_fptr        000000018011e1b8     vcruntime:softmemtag.obj
 0002:000001c0       __xc_a                     000000018011e1c0     MSVCRT:initializers.obj
 0002:000015f0       __xc_z                     000000018011f5f0     MSVCRT:initializers.obj
 0002:000015f8       __xi_a                     000000018011f5f8     MSVCRT:initializers.obj
 0002:00001600       __xi_z                     000000018011f600     MSVCRT:initializers.obj
 0002:00001608       __xp_a                     000000018011f608     MSVCRT:initializers.obj
 0002:00001610       __xp_z                     000000018011f610     MSVCRT:initializers.obj
 0002:00001618       __xt_a                     000000018011f618     MSVCRT:initializers.obj
 0002:00001620       __xt_z                     000000018011f620     MSVCRT:initializers.obj
 0002:00001630       ??_7PxCollection@physx@@6B@ 000000018011f630     CmCollection.obj
 0002:000016b0       ??_C@_0BA@DLCJDKDM@NonTrackedAlloc@ 000000018011f6b0     CmCollection.obj
 0002:000016c0       ??_7Collection@Cm@physx@@6B@ 000000018011f6c0     CmCollection.obj
 0002:00001740       ??_C@_0GE@GBACBMOC@PxCollection?3?3add?5called?5for?5an@ 000000018011f740     CmCollection.obj
 0002:000017a8       ??_C@_0DH@FBIALKPI@C?3?2_GIT?2PhysX?2physx?2source?2comm@ 000000018011f7a8     CmCollection.obj
 0002:000017e0       ??_C@_0EM@OMMGDOMK@PxCollection?3?3add?5called?5with?5a@ 000000018011f7e0     CmCollection.obj
 0002:00001830       ??_C@_0EL@CBFFIHFG@PxCollection?3?3remove?5called?5for@ 000000018011f830     CmCollection.obj
 0002:00001880       ??_C@_0EP@DBNENNLL@PxCollection?3?3addId?5called?5for?5@ 000000018011f880     CmCollection.obj
 0002:000018d0       ??_C@_0FL@DACPFKDD@PxCollection?3?3addId?5called?5with@ 000000018011f8d0     CmCollection.obj
 0002:00001930       ??_C@_0EP@GMPAMDKI@PxCollection?3?3addId?5called?5with@ 000000018011f930     CmCollection.obj
 0002:00001980       ??_C@_0FO@DIHIGAFD@PxCollection?3?3removeId?5called?5w@ 000000018011f980     CmCollection.obj
 0002:000019e0       ??_C@_0FF@MENHIPMD@PxCollection?3?3removeId?5called?5w@ 000000018011f9e0     CmCollection.obj
 0002:00001a40       ??_C@_0FK@BAFICJEM@PxCollection?3?3find?5called?5with?5@ 000000018011fa40     CmCollection.obj
 0002:00001aa0       ??_C@_0DF@CLGAFPLL@PxCollection?3?3add?$CIPxCollection?$CG@ 000000018011faa0     CmCollection.obj
 0002:00001ad8       ??_C@_0DN@DMJACFO@PxCollection?3?3add?$CIPxCollection?$CG@ 000000018011fad8     CmCollection.obj
 0002:00001b18       ??_C@_0DI@DICAIAPC@PxCollection?3?3remove?$CIPxCollecti@ 000000018011fb18     CmCollection.obj
 0002:00001b50       ??_C@_0DG@LOILDLGN@PxCollection?3?3getObjects?5called@ 000000018011fb50     CmCollection.obj
 0002:00001b88       ??_C@_0DD@GMICJLDJ@PxCollection?3?3getObjects?5called@ 000000018011fb88     CmCollection.obj
 0002:00001bc0       ??_C@_0DC@GILGGBAI@PxCollection?3?3getIds?5called?5wit@ 000000018011fbc0     CmCollection.obj
 0002:00001bf8       ??_C@_0CP@LFEKADKN@PxCollection?3?3getIds?5called?5wit@ 000000018011fbf8     CmCollection.obj
 0002:00001c30       ??_C@_0EA@FFGKAHOO@C?3?2_GIT?2PhysX?2physx?2source?2foun@ 000000018011fc30     CmCollection.obj
 0002:00001c70       ??_C@_0BM@OIFKLHDN@?$DMallocation?5names?5disabled?$DO@ 000000018011fc70     CmCollection.obj
 0002:00001c90       ??_C@_08MDGMHCHN@PtrTable@ 000000018011fc90     CmPtrTable.obj
 0002:00001c9c       ??_C@_04GKJNKENE@void@     000000018011fc9c     CmPtrTable.obj
 0002:00001ca8       ??_C@_07DFEBJDHE@mSingle@  000000018011fca8     CmPtrTable.obj
 0002:00001cb0       ??_C@_05NLHHBMOH@PxU16@    000000018011fcb0     CmPtrTable.obj
 0002:00001cb8       ??_C@_06EPKHJPIM@mCount@   000000018011fcb8     CmPtrTable.obj
 0002:00001cc0       ??_C@_04DDKJGDCM@bool@     000000018011fcc0     CmPtrTable.obj
 0002:00001cc8       ??_C@_0M@DAGELID@mOwnsMemory@ 000000018011fcc8     CmPtrTable.obj
 0002:00001cd8       ??_C@_0M@MMPOMMLP@mBufferUsed@ 000000018011fcd8     CmPtrTable.obj
 0002:00001ce8       ??_7RadixSort@Cm@physx@@6B@ 000000018011fce8     CmRadixSort.obj
 0002:00001cf0       __xmm@00000001000000010000000100000001 000000018011fcf0     CmRadixSort.obj
 0002:00001d00       __xmm@00000003000000020000000100000000 000000018011fd00     CmRadixSort.obj
 0002:00001d10       ??_7RadixSortBuffered@Cm@physx@@6B@ 000000018011fd10     CmRadixSortBuffered.obj
 0002:00001d18       ??_C@_0BJ@LFNCOACD@RadixSortBuffered?3mRanks@ 000000018011fd18     CmRadixSortBuffered.obj
 0002:00001d38       ??_C@_0DO@FKGDMALE@C?3?2_GIT?2PhysX?2physx?2source?2comm@ 000000018011fd38     CmRadixSortBuffered.obj
 0002:00001d78       ??_C@_0BK@EPKCPHOD@RadixSortBuffered?3mRanks2@ 000000018011fd78     CmRadixSortBuffered.obj
 0002:00001d94       ?sBufferSize@DebugText@Cm@physx@@2HB 000000018011fd94     CmRenderOutput.obj
 0002:00001d98       ??_C@_0DI@MNOGMMEK@C?3?2_GIT?2PhysX?2physx?2source?2foun@ 000000018011fd98     CmRenderOutput.obj
 0002:00001dd0       __real@3e19999a            000000018011fdd0     CmRenderOutput.obj
 0002:00001dd4       __real@3e800000            000000018011fdd4     CmRenderOutput.obj
 0002:00001dd8       __real@3f3504f3            000000018011fdd8     CmRenderOutput.obj
 0002:00001ddc       __real@3f800000            000000018011fddc     CmRenderOutput.obj
 0002:00001de0       __real@3fddb3d7            000000018011fde0     CmRenderOutput.obj
 0002:00001de4       __real@40c90fdb            000000018011fde4     CmRenderOutput.obj
 0002:00001df0       __xmm@7fffffff7fffffff7fffffff7fffffff 000000018011fdf0     CmRenderOutput.obj
 0002:00001e00       __xmm@80000000800000008000000080000000 000000018011fe00     CmRenderOutput.obj
 0002:00001e10       __real@3d4ccccd            000000018011fe10     CmVisualization.obj
 0002:00001e14       __real@3e490fdb            000000018011fe14     CmVisualization.obj
 0002:00001e18       __real@3e99999a            000000018011fe18     CmVisualization.obj
 0002:00001e1c       __real@3fc00000            000000018011fe1c     CmVisualization.obj
 0002:00001e20       __real@c0000000            000000018011fe20     CmVisualization.obj
 0002:00001e30       __xmm@3f800000000000000000000000000000 000000018011fe30     CmVisualization.obj
 0002:00001e40       ??_C@_0BB@CPDDPFKD@GetUpdatedModule@ 000000018011fe40     CmWindowsModuleUpdateLoader.obj
 0002:00001e58       ??_C@_0BA@EGLNOO@PhysXFoundation@ 000000018011fe58     CmWindowsDelayLoadHook.obj
 0002:00001e68       ??_C@_0M@ILKNCJKN@PhysXCommon@ 000000018011fe68     CmWindowsDelayLoadHook.obj
 0002:00001ea0       ??_C@_06EJKDJEDO@PxBase@   000000018011fea0     GuBounds.obj
 0002:00001ea8       ??_C@_0N@CDGINLLF@PxConvexMesh@ 000000018011fea8     GuBounds.obj
 0002:00001eb8       ??_C@_0O@PBAKPCEC@PxHeightField@ 000000018011feb8     GuBounds.obj
 0002:00001ec8       ??_7PxBase@physx@@6B@      000000018011fec8     GuBounds.obj
 0002:00001ef0       ??_C@_0DG@DFOCGHP@Gu?3?3GeometryUnion?3?3computeBound@ 000000018011fef0     GuBounds.obj
 0002:00001f28       ??_C@_0DG@CLODMOGO@C?3?2_GIT?2PhysX?2physx?2source?2geom@ 000000018011ff28     GuBounds.obj
 0002:00001f60       __real@358637bd            000000018011ff60     GuBounds.obj
 0002:00001f64       __real@3f000000            000000018011ff64     GuBounds.obj
 0002:00001f68       __real@3f400000            000000018011ff68     GuBounds.obj
 0002:00001f6c       __real@3f7fffef            000000018011ff6c     GuBounds.obj
 0002:00001f70       __real@3f8147ae            000000018011ff70     GuBounds.obj
 0002:00001f74       __real@7e7fffff            000000018011ff74     GuBounds.obj
 0002:00001f78       __real@7f7fffff            000000018011ff78     GuBounds.obj
 0002:00001f7c       __real@fe7fffff            000000018011ff7c     GuBounds.obj
 0002:00001f80       __xmm@000000003a83126f3a83126f3a83126f 000000018011ff80     GuBounds.obj
 0002:00001f90       __xmm@00000000ba83126fba83126fba83126f 000000018011ff90     GuBounds.obj
 0002:00001fa0       __xmm@3a83126f3a83126f3a83126f3a83126f 000000018011ffa0     GuBounds.obj
 0002:00001fb0       __xmm@3f0000003f0000003f0000003f000000 000000018011ffb0     GuBounds.obj
 0002:00001fc0       __xmm@3f8147ae3f8147ae3f8147ae3f8147ae 000000018011ffc0     GuBounds.obj
 0002:00001fd0       __xmm@ba83126fba83126fba83126fba83126f 000000018011ffd0     GuBounds.obj
 0002:00002000       __real@3f7ff972            0000000180120000     GuBox.obj
 0002:00002030       ??_7?$EntityReport@I@Gu@physx@@6B@ 0000000180120030     GuCCTSweepTests.obj
 0002:00002050       __real@3b03126f            0000000180120050     GuCCTSweepTests.obj
 0002:00002054       __real@40000000            0000000180120054     GuCCTSweepTests.obj
 0002:00002080       ??_C@_0CD@CGJJEFHC@Gu?3?3overlap?$CI?$CJ?3?5pose0?5is?5not?5val@ 0000000180120080     GuGeometryQuery.obj
 0002:000020a8       ??_C@_0DK@OFIFKHHN@C?3?2_GIT?2PhysX?2physx?2source?2geom@ 00000001801200a8     GuGeometryQuery.obj
 0002:000020e8       ??_C@_0CD@IIPBNEOD@Gu?3?3overlap?$CI?$CJ?3?5pose1?5is?5not?5val@ 00000001801200e8     GuGeometryQuery.obj
 0002:00002110       ??_C@_0CO@DGHGHPPJ@PxGeometryQuery?3?3sweep?$CI?$CJ?3?5pose0@ 0000000180120110     GuGeometryQuery.obj
 0002:00002140       ??_C@_0DN@KBDCCHIO@C?3?2_GIT?2PhysX?2physx?2source?2geom@ 0000000180120140     GuGeometryQuery.obj
 0002:00002180       ??_C@_0CO@JIBOOOGI@PxGeometryQuery?3?3sweep?$CI?$CJ?3?5pose1@ 0000000180120180     GuGeometryQuery.obj
 0002:000021b0       ??_C@_0DA@JEEBDBEM@PxGeometryQuery?3?3sweep?$CI?$CJ?3?5unitD@ 00000001801201b0     GuGeometryQuery.obj
 0002:000021e0       ??_C@_0DB@KCEKJBPE@PxGeometryQuery?3?3sweep?$CI?$CJ?3?5dista@ 00000001801201e0     GuGeometryQuery.obj
 0002:00002220       ??_C@_0FM@HAJNNJNC@PxGeometryQuery?3?3sweep?$CI?$CJ?3?5sweep@ 0000000180120220     GuGeometryQuery.obj
 0002:00002280       ??_C@_0CB@JDDBKCNL@Provided?5geometry?50?5is?5not?5vali@ 0000000180120280     GuGeometryQuery.obj
 0002:000022a8       ??_C@_0CB@CKMKHJDD@Provided?5geometry?51?5is?5not?5vali@ 00000001801202a8     GuGeometryQuery.obj
 0002:000022d0       ??_C@_0GL@GJKJELMB@PxGeometryQuery?3?3sweep?$CI?$CJ?3?5first@ 00000001801202d0     GuGeometryQuery.obj
 0002:00002340       ??_C@_0DB@OMDGMOND@PxGeometryQuery?3?3raycast?$CI?$CJ?3?5ray@ 0000000180120340     GuGeometryQuery.obj
 0002:00002378       ??_C@_0DE@MGFNMBNA@PxGeometryQuery?3?3raycast?$CI?$CJ?3?5ray@ 0000000180120378     GuGeometryQuery.obj
 0002:000023b0       ??_C@_0CP@NHLDPNEB@PxGeometryQuery?3?3raycast?$CI?$CJ?3?5pos@ 00000001801203b0     GuGeometryQuery.obj
 0002:000023e0       ??_C@_0DB@HPNPNEMP@PxGeometryQuery?3?3raycast?$CI?$CJ?3?5max@ 00000001801203e0     GuGeometryQuery.obj
 0002:00002418       ??_C@_0DC@BLMIOBO@PxGeometryQuery?3?3raycast?$CI?$CJ?3?5max@ 0000000180120418     GuGeometryQuery.obj
 0002:00002450       ??_C@_0DP@IPJGHFJE@PxGeometryQuery?3?3raycast?$CI?$CJ?3?5ray@ 0000000180120450     GuGeometryQuery.obj
 0002:00002490       ??_C@_0DF@BMEFDPAL@PxGeometryQuery?3?3pointDistance?$CI@ 0000000180120490     GuGeometryQuery.obj
 0002:000024d0       ??_C@_0GM@KKKGKIEH@PxGeometryQuery?3?3pointDistance?$CI@ 00000001801204d0     GuGeometryQuery.obj
 0002:00002540       ??_C@_0DG@IHHENNM@PxGeometryQuery?3?3getWorldBounds@ 0000000180120540     GuGeometryQuery.obj
 0002:00002578       ??_C@_0DL@LECAKFBF@PxGeometryQuery?3?3computePenetra@ 0000000180120578     GuGeometryQuery.obj
 0002:000025b8       ??_C@_0DL@BKEIDEIE@PxGeometryQuery?3?3computePenetra@ 00000001801205b8     GuGeometryQuery.obj
 0002:000025f4       __real@38d1b717            00000001801205f4     GuGeometryQuery.obj
 0002:000025f8       __real@49742400            00000001801205f8     GuGeometryQuery.obj
 0002:000025fc       __real@bf800000            00000001801205fc     GuGeometryQuery.obj
 0002:00002620       ??_C@_0CA@KJFNONEO@MaterialIndicesStruct?3?3allocate@ 0000000180120620     GuGeometryUnion.obj
 0002:00002640       ??_C@_0DL@KHOFCBKP@C?3?2_GIT?2PhysX?2physx?2source?2geom@ 0000000180120640     GuGeometryUnion.obj
 0002:000026c0       ??_7GuMeshFactory@physx@@6B@ 00000001801206c0     GuMeshFactory.obj
 0002:000026c8       ??_7MeshDataBase@Gu@physx@@6B@ 00000001801206c8     GuMeshFactory.obj
 0002:000026d0       ??_C@_06KDGGGLIJ@PxVec3@   00000001801206d0     GuMeshFactory.obj
 0002:000026d8       ??_C@_0DL@KBKAGOAF@C?3?2_GIT?2PhysX?2physx?2source?2geom@ 00000001801206d8     GuMeshFactory.obj
 0002:00002718       ??_7TriangleMeshData@Gu@physx@@6B@ 0000000180120718     GuMeshFactory.obj
 0002:00002720       ??_C@_0L@KBOFAKLO@mTriangles@ 0000000180120720     GuMeshFactory.obj
 0002:00002730       ??_C@_0BA@OCOIGPII@mGRB_triIndices@ 0000000180120730     GuMeshFactory.obj
 0002:00002740       ??_7RTreeTriangleData@Gu@physx@@6B@ 0000000180120740     GuMeshFactory.obj
 0002:00002748       ??_7BV4TriangleData@Gu@physx@@6B@ 0000000180120748     GuMeshFactory.obj
 0002:00002750       ??_C@_0BB@PAEMNLHP@FactoryListeners@ 0000000180120750     GuMeshFactory.obj
 0002:00002768       ??_C@_0DL@EPHGGAIC@C?3?2_GIT?2PhysX?2physx?2source?2geom@ 0000000180120768     GuMeshFactory.obj
 0002:000027b0       ??_C@_0GP@NHELMDAL@Loading?5triangle?5mesh?5failed?3?5D@ 00000001801207b0     GuMeshFactory.obj
 0002:00002820       ??_C@_0BP@CDOKDACA@RTree?5binary?5image?5load?5error?4@ 0000000180120820     GuMeshFactory.obj
 0002:00002840       ??_C@_0BN@MJPNIELF@BV4?5binary?5image?5load?5error?4@ 0000000180120840     GuMeshFactory.obj
 0002:00002860       ??_C@_0BO@JDPABAOF@BV32?5binary?5image?5load?5error?4@ 0000000180120860     GuMeshFactory.obj
 0002:00002880       ??_C@_0DI@MEILMFDD@C?3?2_GIT?2PhysX?2physx?2source?2foun@ 0000000180120880     GuMeshFactory.obj
 0002:000028c0       __xmm@cdcdcdcdcdcdcdcdcdcdcdcdcdcdcdcd 00000001801208c0     GuMeshFactory.obj
 0002:000028f0       ??_C@_0P@GGNFNHKF@PxTriangleMesh@ 00000001801208f0     GuMetaData.obj
 0002:00002900       ??_C@_07GFCEJNGM@Valency@  0000000180120900     GuMetaData.obj
 0002:00002908       ??_C@_07NHGKEEIN@mOffset@  0000000180120908     GuMetaData.obj
 0002:00002910       ??_C@_0BB@BAGHBMNJ@BigConvexRawData@ 0000000180120910     GuMetaData.obj
 0002:00002928       ??_C@_07PBDEJAAC@mSubdiv@  0000000180120928     GuMetaData.obj
 0002:00002930       ??_C@_0L@HNPACPGH@mNbSamples@ 0000000180120930     GuMetaData.obj
 0002:0000293c       ??_C@_04NCKNBPPK@PxU8@     000000018012093c     GuMetaData.obj
 0002:00002948       ??_C@_08DEPEKJNI@mSamples@ 0000000180120948     GuMetaData.obj
 0002:00002954       ??_C@_05LMJPANIN@PxU32@    0000000180120954     GuMetaData.obj
 0002:00002960       ??_C@_08IJDNJBMI@mNbVerts@ 0000000180120960     GuMetaData.obj
 0002:00002970       ??_C@_0M@MMKMIJAF@mNbAdjVerts@ 0000000180120970     GuMetaData.obj
 0002:00002980       ??_C@_0L@EOKMNILC@mValencies@ 0000000180120980     GuMetaData.obj
 0002:00002990       ??_C@_0P@DLGEAMHJ@mAdjacentVerts@ 0000000180120990     GuMetaData.obj
 0002:000029a0       ??_C@_0O@PFOPBKAM@BigConvexData@ 00000001801209a0     GuMetaData.obj
 0002:000029b0       ??_C@_05PLKALGFN@mData@    00000001801209b0     GuMetaData.obj
 0002:000029b8       ??_C@_08PEMCLHEM@mVBuffer@ 00000001801209b8     GuMetaData.obj
 0002:000029c8       ??_C@_09FBMAGD@Alignment@  00000001801209c8     GuMetaData.obj
 0002:000029d8       ??_C@_0BE@KFHIBEEA@InternalObjectsData@ 00000001801209d8     GuMetaData.obj
 0002:000029ec       ??_C@_06GIEBFILM@PxReal@   00000001801209ec     GuMetaData.obj
 0002:000029f8       ??_C@_07NKGFFIBH@mRadius@  00000001801209f8     GuMetaData.obj
 0002:00002a00       ??_C@_08EHFCACAE@mExtents@ 0000000180120a00     GuMetaData.obj
 0002:00002a10       ??_C@_0BA@LFMGGCBK@HullPolygonData@ 0000000180120a10     GuMetaData.obj
 0002:00002a20       ??_C@_06BOHHGLB@mPlane@    0000000180120a20     GuMetaData.obj
 0002:00002a28       ??_C@_06EHMLHGLN@mVRef8@   0000000180120a28     GuMetaData.obj
 0002:00002a30       ??_C@_09BAHHHINI@mMinIndex@ 0000000180120a30     GuMetaData.obj
 0002:00002a40       ??_C@_0P@GBLBPIPB@ConvexHullData@ 0000000180120a40     GuMetaData.obj
 0002:00002a50       ??_C@_09JDCJAPKD@PxBounds3@ 0000000180120a50     GuMetaData.obj
 0002:00002a5c       ??_C@_05NDNHIFA@mAABB@     0000000180120a5c     GuMetaData.obj
 0002:00002a68       ??_C@_0O@LNOGEMJI@mCenterOfMass@ 0000000180120a68     GuMetaData.obj
 0002:00002a78       ??_C@_09CNMCBBKH@mPolygons@ 0000000180120a78     GuMetaData.obj
 0002:00002a88       ??_C@_0BC@KKPDCFJC@mBigConvexRawData@ 0000000180120a88     GuMetaData.obj
 0002:00002aa0       ??_C@_08ELDMKGKH@mNbEdges@ 0000000180120aa0     GuMetaData.obj
 0002:00002ab0       ??_C@_0BA@CGLOHBAC@mNbHullVertices@ 0000000180120ab0     GuMetaData.obj
 0002:00002ac0       ??_C@_0M@HGFFLLDM@mNbPolygons@ 0000000180120ac0     GuMetaData.obj
 0002:00002ad0       ??_C@_09BHJEMDGO@mInternal@ 0000000180120ad0     GuMetaData.obj
 0002:00002ae0       ??_C@_0L@GMFHOMKA@ConvexMesh@ 0000000180120ae0     GuMetaData.obj
 0002:00002af0       ??_C@_0N@KECKKFLK@RefCountable@ 0000000180120af0     GuMetaData.obj
 0002:00002b00       ??_C@_09ILEBDLJH@mHullData@ 0000000180120b00     GuMetaData.obj
 0002:00002b0c       ??_C@_03DKDIKGNC@mNb@      0000000180120b0c     GuMetaData.obj
 0002:00002b10       ??_C@_0P@ENLHFHMD@mBigConvexData@ 0000000180120b10     GuMetaData.obj
 0002:00002b20       ??_C@_05ILALLCHK@mMass@    0000000180120b20     GuMetaData.obj
 0002:00002b28       ??_C@_07DBPDADGB@PxMat33@  0000000180120b28     GuMetaData.obj
 0002:00002b30       ??_C@_08FNBHNDBI@mInertia@ 0000000180120b30     GuMetaData.obj
 0002:00002b40       ??_C@_0O@FCKNKLMJ@GuMeshFactory@ 0000000180120b40     GuMetaData.obj
 0002:00002b50       ??_C@_0N@EGBCLMAK@mMeshFactory@ 0000000180120b50     GuMetaData.obj
 0002:00002b60       ??_C@_0BE@CJJAMAMK@PxHeightFieldSample@ 0000000180120b60     GuMetaData.obj
 0002:00002b74       ??_C@_05MBLIPEMA@PxI16@    0000000180120b74     GuMetaData.obj
 0002:00002b7c       ??_C@_06LNLHEAAG@height@   0000000180120b7c     GuMetaData.obj
 0002:00002b88       ??_C@_0N@HHDGHJN@PxBitAndByte@ 0000000180120b88     GuMetaData.obj
 0002:00002b98       ??_C@_0P@MBBMLBO@materialIndex0@ 0000000180120b98     GuMetaData.obj
 0002:00002ba8       ??_C@_0P@BFAKPKFP@materialIndex1@ 0000000180120ba8     GuMetaData.obj
 0002:00002bb8       ??_C@_0BD@EBLPJEOE@PxHeightFieldFlags@ 0000000180120bb8     GuMetaData.obj
 0002:00002bd0       ??_C@_0BK@FNNCFFCN@PxHeightFieldFormat?3?3Enum@ 0000000180120bd0     GuMetaData.obj
 0002:00002bf0       ??_C@_0BA@CLNFMAAA@HeightFieldData@ 0000000180120bf0     GuMetaData.obj
 0002:00002c00       ??_C@_04IMCGAIPI@rows@     0000000180120c00     GuMetaData.obj
 0002:00002c08       ??_C@_07HIFEPIJN@columns@  0000000180120c08     GuMetaData.obj
 0002:00002c10       ??_C@_08MOAGOABI@rowLimit@ 0000000180120c10     GuMetaData.obj
 0002:00002c20       ??_C@_08BAGEHOBO@colLimit@ 0000000180120c20     GuMetaData.obj
 0002:00002c30       ??_C@_09LKDBLADF@nbColumns@ 0000000180120c30     GuMetaData.obj
 0002:00002c40       ??_C@_07ODIFGGLK@samples@  0000000180120c40     GuMetaData.obj
 0002:00002c48       ??_C@_0BE@POHEGOJG@convexEdgeThreshold@ 0000000180120c48     GuMetaData.obj
 0002:00002c5c       ??_C@_05GECEPKB@flags@     0000000180120c5c     GuMetaData.obj
 0002:00002c64       ??_C@_06DLEPGFEF@format@   0000000180120c64     GuMetaData.obj
 0002:00002c70       ??_C@_0BF@MOGDNMPL@PxMaterialTableIndex@ 0000000180120c70     GuMetaData.obj
 0002:00002c88       ??_C@_0M@JMJICJJO@HeightField@ 0000000180120c88     GuMetaData.obj
 0002:00002c98       ??_C@_0O@ENGHMLJP@mSampleStride@ 0000000180120c98     GuMetaData.obj
 0002:00002ca8       ??_C@_0L@EBEEMFFB@mMinHeight@ 0000000180120ca8     GuMetaData.obj
 0002:00002cb8       ??_C@_0L@EAEIFPOF@mMaxHeight@ 0000000180120cb8     GuMetaData.obj
 0002:00002cc8       ??_C@_0N@FEFJOKKE@mModifyCount@ 0000000180120cc8     GuMetaData.obj
 0002:00002cd8       ??_C@_09PHDKHCK@RTreePage@ 0000000180120cd8     GuMetaData.obj
 0002:00002ce4       ??_C@_04LLPOBGED@minx@     0000000180120ce4     GuMetaData.obj
 0002:00002cec       ??_C@_04KCOFCHAC@miny@     0000000180120cec     GuMetaData.obj
 0002:00002cf4       ??_C@_04IJMIHEMB@minz@     0000000180120cf4     GuMetaData.obj
 0002:00002cfc       ??_C@_04GGOBOBGO@maxx@     0000000180120cfc     GuMetaData.obj
 0002:00002d04       ??_C@_04HPPKNACP@maxy@     0000000180120d04     GuMetaData.obj
 0002:00002d0c       ??_C@_04FENHIDOM@maxz@     0000000180120d0c     GuMetaData.obj
 0002:00002d14       ??_C@_04HHDFEJON@ptrs@     0000000180120d14     GuMetaData.obj
 0002:00002d1c       ??_C@_05FFEIGAJF@RTree@    0000000180120d1c     GuMetaData.obj
 0002:00002d24       ??_C@_06OMCHPNEO@PxVec4@   0000000180120d24     GuMetaData.obj
 0002:00002d30       ??_C@_0L@NBIFEFLN@mBoundsMin@ 0000000180120d30     GuMetaData.obj
 0002:00002d40       ??_C@_0L@MDAOKBNC@mBoundsMax@ 0000000180120d40     GuMetaData.obj
 0002:00002d50       ??_C@_0N@NJEHLCOF@mInvDiagonal@ 0000000180120d50     GuMetaData.obj
 0002:00002d60       ??_C@_0BA@BEFIGPFG@mDiagonalScaler@ 0000000180120d60     GuMetaData.obj
 0002:00002d70       ??_C@_09DICGGKGO@mPageSize@ 0000000180120d70     GuMetaData.obj
 0002:00002d80       ??_C@_0O@BOFFCNOL@mNumRootPages@ 0000000180120d80     GuMetaData.obj
 0002:00002d90       ??_C@_0L@JKLGBKAE@mNumLevels@ 0000000180120d90     GuMetaData.obj
 0002:00002da0       ??_C@_0M@PHDOHJGK@mTotalNodes@ 0000000180120da0     GuMetaData.obj
 0002:00002db0       ??_C@_0M@GDGHALAO@mTotalPages@ 0000000180120db0     GuMetaData.obj
 0002:00002dbc       ??_C@_06MHCBBJGP@mFlags@   0000000180120dbc     GuMetaData.obj
 0002:00002dc4       ??_C@_06MMNBLHOK@mPages@   0000000180120dc4     GuMetaData.obj
 0002:00002dd0       ??_C@_0L@LEOGNOEC@SourceMesh@ 0000000180120dd0     GuMetaData.obj
 0002:00002ddc       ??_C@_06JFCLJMNN@mVerts@   0000000180120ddc     GuMetaData.obj
 0002:00002de8       ??_C@_07MPIKOOAP@mNbTris@  0000000180120de8     GuMetaData.obj
 0002:00002df0       ??_C@_0N@FBMOMEHF@mTriangles32@ 0000000180120df0     GuMetaData.obj
 0002:00002e00       ??_C@_0N@DGCGNFBP@mTriangles16@ 0000000180120e00     GuMetaData.obj
 0002:00002e10       ??_C@_06DHAAKLFK@mRemap@   0000000180120e10     GuMetaData.obj
 0002:00002e18       ??_C@_0O@NLNHFNO@QuantizedAABB@ 0000000180120e18     GuMetaData.obj
 0002:00002e28       ??_C@_0BC@OOGBEMHH@mData?$FL0?$FN?4mExtents@ 0000000180120e28     GuMetaData.obj
 0002:00002e40       ??_C@_0BB@OCEDKIEF@mData?$FL0?$FN?4mCenter@ 0000000180120e40     GuMetaData.obj
 0002:00002e58       ??_C@_0BC@HFMEAABI@mData?$FL1?$FN?4mExtents@ 0000000180120e58     GuMetaData.obj
 0002:00002e70       ??_C@_0BB@CDMNHHIF@mData?$FL1?$FN?4mCenter@ 0000000180120e70     GuMetaData.obj
 0002:00002e88       ??_C@_0BC@CFKNCOI@mData?$FL2?$FN?4mExtents@ 0000000180120e88     GuMetaData.obj
 0002:00002ea0       ??_C@_0BB@LKCPBBIE@mData?$FL2?$FN?4mCenter@ 0000000180120ea0     GuMetaData.obj
 0002:00002eb8       ??_C@_0O@MJJKKPFN@BVDataPackedQ@ 0000000180120eb8     GuMetaData.obj
 0002:00002ec8       ??_C@_0M@PNCEBOG@LocalBounds@ 0000000180120ec8     GuMetaData.obj
 0002:00002ed8       ??_C@_07GNKDIIKJ@mCenter@  0000000180120ed8     GuMetaData.obj
 0002:00002ee0       ??_C@_05KNFBNCOH@float@    0000000180120ee0     GuMetaData.obj
 0002:00002ee8       ??_C@_0BC@LADJKHPL@mExtentsMagnitude@ 0000000180120ee8     GuMetaData.obj
 0002:00002f00       ??_C@_07HELIOLAF@BV4Tree@  0000000180120f00     GuMetaData.obj
 0002:00002f08       ??_C@_0P@EMMDNPMH@mMeshInterface@ 0000000180120f08     GuMetaData.obj
 0002:00002f18       ??_C@_0N@DCKMHLCL@mLocalBounds@ 0000000180120f18     GuMetaData.obj
 0002:00002f28       ??_C@_08EEJOMIJL@mNbNodes@ 0000000180120f28     GuMetaData.obj
 0002:00002f38       ??_C@_09FGKNPI@mInitData@  0000000180120f38     GuMetaData.obj
 0002:00002f48       ??_C@_0BC@CLDEHKCO@mCenterOrMinCoeff@ 0000000180120f48     GuMetaData.obj
 0002:00002f60       ??_C@_0BD@LAOLBNJ@mExtentsOrMaxCoeff@ 0000000180120f60     GuMetaData.obj
 0002:00002f78       ??_C@_0P@JEECKKBL@mUserAllocated@ 0000000180120f78     GuMetaData.obj
 0002:00002f88       ??_C@_0L@GLIMNECG@mQuantized@ 0000000180120f88     GuMetaData.obj
 0002:00002f98       ??_C@_08BNDBAGDH@mPadding@ 0000000180120f98     GuMetaData.obj
 0002:00002fa8       ??_C@_0N@OJNNNLIB@TriangleMesh@ 0000000180120fa8     GuMetaData.obj
 0002:00002fb8       ??_C@_0M@OGEDMEAL@mNbVertices@ 0000000180120fb8     GuMetaData.obj
 0002:00002fc8       ??_C@_0N@MGGDNHNI@mNbTriangles@ 0000000180120fc8     GuMetaData.obj
 0002:00002fd8       ??_C@_09LNNEGOJA@mVertices@ 0000000180120fd8     GuMetaData.obj
 0002:00002fe8       ??_C@_0P@MHDFIHLD@mExtraTrigData@ 0000000180120fe8     GuMetaData.obj
 0002:00002ff8       ??_C@_0N@MGIKKCI@mGeomEpsilon@ 0000000180120ff8     GuMetaData.obj
 0002:00003008       ??_C@_0BB@IFLOOCNA@mMaterialIndices@ 0000000180121008     GuMetaData.obj
 0002:00003020       ??_C@_0L@OPJMBFMI@mFaceRemap@ 0000000180121020     GuMetaData.obj
 0002:00003030       ??_C@_0N@BIOECAPM@mAdjacencies@ 0000000180121030     GuMetaData.obj
 0002:00003040       ??_C@_0BE@JPINNDAH@mGRB_triAdjacencies@ 0000000180121040     GuMetaData.obj
 0002:00003058       ??_C@_0P@EDFJJHEF@mGRB_faceRemap@ 0000000180121058     GuMetaData.obj
 0002:00003068       ??_C@_0O@CKMBAIFN@mGRB_BV32Tree@ 0000000180121068     GuMetaData.obj
 0002:00003078       ??_C@_0BC@IFGECKF@RTreeTriangleMesh@ 0000000180121078     GuMetaData.obj
 0002:0000308c       ??_C@_06JDIHDDGN@mRTree@   000000018012108c     GuMetaData.obj
 0002:00003098       ??_C@_0BA@LNNFPOKA@BV4TriangleMesh@ 0000000180121098     GuMetaData.obj
 0002:000030a8       ??_C@_08FKLPEGDB@mBV4Tree@ 00000001801210a8     GuMetaData.obj
 0002:000030b8       ??_C@_0BG@EAPGHGEI@MaterialIndicesStruct@ 00000001801210b8     GuMetaData.obj
 0002:000030d0       ??_C@_07OKCKIPNN@indices@  00000001801210d0     GuMetaData.obj
 0002:000030d8       ??_C@_0L@KCBHBGBP@numIndices@ 00000001801210d8     GuMetaData.obj
 0002:000030e4       ??_C@_03PNAAIPML@pad@      00000001801210e4     GuMetaData.obj
 0002:000030e8       ??_C@_05MOMFAHOB@pad64@    00000001801210e8     GuMetaData.obj
 0002:000030f0       ??_C@_0BK@GNJGHDGO@PxConvexMeshGeometryFlags@ 00000001801210f0     GuMetaData.obj
 0002:00003110       ??_C@_0BJ@LIOOOKID@ShadowConvexMeshGeometry@ 0000000180121110     GuMetaData.obj
 0002:00003130       ??_C@_0BF@PJFPGDNP@PxGeometryType?3?3Enum@ 0000000180121130     GuMetaData.obj
 0002:00003148       ??_C@_05GNIIDDHH@mType@    0000000180121148     GuMetaData.obj
 0002:00003150       ??_C@_0M@JFNDEGCE@PxMeshScale@ 0000000180121150     GuMetaData.obj
 0002:0000315c       ??_C@_05MHMEBBGO@scale@    000000018012115c     GuMetaData.obj
 0002:00003168       ??_C@_0L@OKMLGDHH@convexMesh@ 0000000180121168     GuMetaData.obj
 0002:00003178       ??_C@_09PLMNFMJI@meshFlags@ 0000000180121178     GuMetaData.obj
 0002:00003188       ??_C@_0BB@EINMAHMD@paddingFromFlags@ 0000000180121188     GuMetaData.obj
 0002:000031a0       ??_C@_08CICKEKCM@hullData@ 00000001801211a0     GuMetaData.obj
 0002:000031b0       ??_C@_0O@EOELHBFF@gpuCompatible@ 00000001801211b0     GuMetaData.obj
 0002:000031c0       ??_C@_0BE@FFPGAPHN@PxMeshGeometryFlags@ 00000001801211c0     GuMetaData.obj
 0002:000031d8       ??_C@_0BL@KABFLNEB@ShadowTriangleMeshGeometry@ 00000001801211d8     GuMetaData.obj
 0002:000031f8       ??_C@_0N@FKKDJAHE@triangleMesh@ 00000001801211f8     GuMetaData.obj
 0002:00003208       ??_C@_08BEABJAHJ@meshData@ 0000000180121208     GuMetaData.obj
 0002:00003218       ??_C@_0BA@NGIONHFJ@materialIndices@ 0000000180121218     GuMetaData.obj
 0002:00003228       ??_C@_09JGGNEAGH@materials@ 0000000180121228     GuMetaData.obj
 0002:00003238       ??_C@_0BK@OIFEOHNJ@ShadowHeightFieldGeometry@ 0000000180121238     GuMetaData.obj
 0002:00003258       ??_C@_0M@IEKJPCGG@heightField@ 0000000180121258     GuMetaData.obj
 0002:00003268       ??_C@_0M@LHLNPPJ@heightScale@ 0000000180121268     GuMetaData.obj
 0002:00003278       ??_C@_08GJPCBGLE@rowScale@ 0000000180121278     GuMetaData.obj
 0002:00003288       ??_C@_0M@HHBHEPCE@columnScale@ 0000000180121288     GuMetaData.obj
 0002:00003298       ??_C@_0BB@PMIIHDKK@heightFieldFlags@ 0000000180121298     GuMetaData.obj
 0002:000032b0       ??_C@_0BA@DMOKLLHN@heightFieldData@ 00000001801212b0     GuMetaData.obj
 0002:000032c0       ??_C@_0BE@IKADPPC@ShadowPlaneGeometry@ 00000001801212c0     GuMetaData.obj
 0002:000032d8       ??_C@_0BF@PIKLLBGN@ShadowSphereGeometry@ 00000001801212d8     GuMetaData.obj
 0002:000032f0       ??_C@_06KGHINEPG@radius@   00000001801212f0     GuMetaData.obj
 0002:000032f8       ??_C@_0BG@OBHJHKMO@ShadowCapsuleGeometry@ 00000001801212f8     GuMetaData.obj
 0002:00003310       ??_C@_0L@PMAANELH@halfHeight@ 0000000180121310     GuMetaData.obj
 0002:00003320       ??_C@_0BC@DMJNHLLO@ShadowBoxGeometry@ 0000000180121320     GuMetaData.obj
 0002:00003338       ??_C@_0M@CMAEPJOI@halfExtents@ 0000000180121338     GuMetaData.obj
 0002:00003348       ??_C@_0BH@PKALDLFA@PxConvexMeshGeometryLL@ 0000000180121348     GuMetaData.obj
 0002:00003360       ??_C@_0BJ@GAFBNAAE@PxTriangleMeshGeometryLL@ 0000000180121360     GuMetaData.obj
 0002:00003380       ??_C@_0BI@IIFLCNOC@PxHeightFieldGeometryLL@ 0000000180121380     GuMetaData.obj
 0002:00003398       ??_C@_0BA@NAHKMBFO@PxPlaneGeometry@ 0000000180121398     GuMetaData.obj
 0002:000033a8       ??_C@_0BB@CHBDIEFA@PxSphereGeometry@ 00000001801213a8     GuMetaData.obj
 0002:000033c0       ??_C@_0BC@LJMOIOOK@PxCapsuleGeometry@ 00000001801213c0     GuMetaData.obj
 0002:000033d8       ??_C@_0O@OEDJDNFP@PxBoxGeometry@ 00000001801213d8     GuMetaData.obj
 0002:000033e8       ??_C@_0BC@ICOOCLFG@Gu?3?3GeometryUnion@ 00000001801213e8     GuMetaData.obj
 0002:00003400       ??_7?$SupportLocalImpl@VBoxV@Gu@physx@@@Gu@physx@@6B@ 0000000180121400     GuMTD.obj
 0002:00003420       ??_7SupportLocal@Gu@physx@@6B@ 0000000180121420     GuMTD.obj
 0002:00003460       ??_7?$SupportLocalImpl@VConvexHullV@Gu@physx@@@Gu@physx@@6B@ 0000000180121460     GuMTD.obj
 0002:00003480       ??_7?$SupportLocalImpl@VConvexHullNoScaleV@Gu@physx@@@Gu@physx@@6B@ 0000000180121480     GuMTD.obj
 0002:000034a0       ?absMask@?1??FAbs@aos@shdfnd@physx@@YA?AT__m128@@T5@@Z@4QBIB 00000001801214a0     GuMTD.obj
 0002:000034b0       ??_7GjkConvexBase@Gu@physx@@6B@ 00000001801214b0     GuMTD.obj
 0002:000034e0       ??_7?$LocalConvex@VCapsuleV@Gu@physx@@@Gu@physx@@6B@ 00000001801214e0     GuMTD.obj
 0002:00003510       ??_7?$LocalConvex@VConvexHullV@Gu@physx@@@Gu@physx@@6B@ 0000000180121510     GuMTD.obj
 0002:00003540       __real@2edbe6ff            0000000180121540     GuMTD.obj
 0002:00003544       __real@3ccccccd            0000000180121544     GuMTD.obj
 0002:00003548       __real@3dcccccd            0000000180121548     GuMTD.obj
 0002:0000354c       __real@ff7fffff            000000018012154c     GuMTD.obj
 0002:00003550       __xmm@0000000000000000000000003f800000 0000000180121550     GuMTD.obj
 0002:00003560       __xmm@00000000000000003f80000000000000 0000000180121560     GuMTD.obj
 0002:00003570       __xmm@000000003f8000000000000000000000 0000000180121570     GuMTD.obj
 0002:00003580       __xmm@000000003f8000003f8000003f800000 0000000180121580     GuMTD.obj
 0002:00003590       __xmm@00000000ffffffffffffffffffffffff 0000000180121590     GuMTD.obj
 0002:000035a0       __xmm@34000000340000003400000034000000 00000001801215a0     GuMTD.obj
 0002:000035b0       __xmm@358637bd358637bd358637bd358637bd 00000001801215b0     GuMTD.obj
 0002:000035c0       __xmm@3dcccccd3dcccccd3dcccccd3dcccccd 00000001801215c0     GuMTD.obj
 0002:000035d0       __xmm@3e4ccccd3e4ccccd3e4ccccd3e4ccccd 00000001801215d0     GuMTD.obj
 0002:000035e0       __xmm@3f7ff1413f7ff1413f7ff1413f7ff141 00000001801215e0     GuMTD.obj
 0002:000035f0       __xmm@3f7ff2e53f7ff2e53f7ff2e53f7ff2e5 00000001801215f0     GuMTD.obj
 0002:00003600       __xmm@3f8000003f8000003f8000003f800000 0000000180121600     GuMTD.obj
 0002:00003610       __xmm@7f7fffff7f7fffff7f7fffff7f7fffff 0000000180121610     GuMTD.obj
 0002:00003620       __xmm@bf000000bf000000bf000000bf000000 0000000180121620     GuMTD.obj
 0002:00003650       ??_7?$RelativeConvex@VBoxV@Gu@physx@@@Gu@physx@@6B@ 0000000180121650     GuOverlapTests.obj
 0002:00003680       ??_7?$RelativeConvex@VConvexHullV@Gu@physx@@@Gu@physx@@6B@ 0000000180121680     GuOverlapTests.obj
 0002:000036b0       ??_C@_0EC@MLIJOGHA@Height?5Field?5Overlap?5test?5calle@ 00000001801216b0     GuOverlapTests.obj
 0002:000036f8       ??_C@_0DM@HOOMECNC@C?3?2_GIT?2PhysX?2physx?2source?2geom@ 00000001801216f8     GuOverlapTests.obj
 0002:00003740       ??_C@_0EC@GJLDADPE@Height?5Field?5Raycast?5test?5calle@ 0000000180121740     GuRaycastTests.obj
 0002:00003788       ??_C@_0DM@INCBDFHI@C?3?2_GIT?2PhysX?2physx?2source?2geom@ 0000000180121788     GuRaycastTests.obj
 0002:00003800       __real@1e3ce508            0000000180121800     GuRaycastTests.obj
 0002:00003804       __real@28800000            0000000180121804     GuRaycastTests.obj
 0002:00003808       __real@33d6bf95            0000000180121808     GuRaycastTests.obj
 0002:0000380c       __real@3727c5ac            000000018012180c     GuRaycastTests.obj
 0002:00003810       __real@3f0147ae            0000000180121810     GuRaycastTests.obj
 0002:00003814       __real@3f7ffffe            0000000180121814     GuRaycastTests.obj
 0002:00003818       __real@3f800347            0000000180121818     GuRaycastTests.obj
 0002:0000381c       __real@41200000            000000018012181c     GuRaycastTests.obj
 0002:00003820       __real@80000000            0000000180121820     GuRaycastTests.obj
 0002:00003824       __real@b3d6bf95            0000000180121824     GuRaycastTests.obj
 0002:00003828       __real@b8d1b717            0000000180121828     GuRaycastTests.obj
 0002:0000382c       __real@c1200000            000000018012182c     GuRaycastTests.obj
 0002:00003860       ??_7?$MeshHitCallback@UPxRaycastHit@physx@@@Gu@physx@@6B@ 0000000180121860     GuSweepMTD.obj
 0002:00003870       ??_7MeshMTDGenerationCallback@@6B@ 0000000180121870     GuSweepMTD.obj
 0002:00003880       ??_7MidPhaseQueryLocalReport@@6B@ 0000000180121880     GuSweepMTD.obj
 0002:00003890       __real@3f933333            0000000180121890     GuSweepMTD.obj
 0002:000038a0       __xmm@00000000000000003f8000003f800000 00000001801218a0     GuSweepMTD.obj
 0002:000038b0       __xmm@3e19999a3e19999a3e19999a3e19999a 00000001801218b0     GuSweepMTD.obj
 0002:000038c0       __xmm@3e8000003e8000003e8000003e800000 00000001801218c0     GuSweepMTD.obj
 0002:000038f0       __real@3c23d70a            00000001801218f0     GuSweepSharedTests.obj
 0002:000038f4       __real@42c80000            00000001801218f4     GuSweepSharedTests.obj
 0002:00003900       __xmm@ffffffffffffffffffffffffffffffff 0000000180121900     GuSweepSharedTests.obj
 0002:00003930       ??_C@_0EA@GNDJNJGB@Height?5Field?5Sweep?5test?5called?5@ 0000000180121930     GuSweepTests.obj
 0002:00003970       ??_C@_0DK@DJGFILLO@C?3?2_GIT?2PhysX?2physx?2source?2geom@ 0000000180121970     GuSweepTests.obj
 0002:000039b0       ??_7?$LocalConvex@VBoxV@Gu@physx@@@Gu@physx@@6B@ 00000001801219b0     GuSweepTests.obj
 0002:000039e0       ??_7?$LocalConvex@VTriangleV@Gu@physx@@@Gu@physx@@6B@ 00000001801219e0     GuSweepTests.obj
 0002:00003a10       __xmm@00000002000000020000000200000002 0000000180121a10     GuSweepTests.obj
 0002:00003a20       __xmm@3eaaaa9f3eaaaa9f3eaaaa9f3eaaaa9f 0000000180121a20     GuSweepTests.obj
 0002:00003a50       ??_C@_0DN@GJBCLLAL@C?3?2_GIT?2PhysX?2physx?2source?2geom@ 0000000180121a50     GuAABBTreeBuild.obj
 0002:00003a90       ??_C@_0BC@EHGLOIPG@AABB?5tree?5indices@ 0000000180121a90     GuAABBTreeBuild.obj
 0002:00003aa4       ??_C@_05BDNCCAMC@cache@    0000000180121aa4     GuAABBTreeBuild.obj
 0002:00003ad0       ??_7PxBVHStructure@physx@@6B@ 0000000180121ad0     GuBVHStructure.obj
 0002:00003b20       ??_C@_0P@CDPKBIIF@PxBVHStructure@ 0000000180121b20     GuBVHStructure.obj
 0002:00003b30       ??_7RefCountable@Cm@physx@@6B@ 0000000180121b30     GuBVHStructure.obj
 0002:00003b40       ??_7BVHStructure@Gu@physx@@6BPxBVHStructure@2@@ 0000000180121b40     GuBVHStructure.obj
 0002:00003b90       ??_7BVHStructure@Gu@physx@@6BRefCountable@Cm@2@@ 0000000180121b90     GuBVHStructure.obj
 0002:00003ba0       ??_C@_0M@LHBCGNCE@BVH?5indices@ 0000000180121ba0     GuBVHStructure.obj
 0002:00003bb0       ??_C@_0DM@PKLMLLDA@C?3?2_GIT?2PhysX?2physx?2source?2geom@ 0000000180121bb0     GuBVHStructure.obj
 0002:00003bf0       ??_C@_0L@HGOGJNHO@BVH?5bounds@ 0000000180121bf0     GuBVHStructure.obj
 0002:00003c00       ??_C@_09GFGBFFDA@BVH?5nodes@ 0000000180121c00     GuBVHStructure.obj
 0002:00003c10       ??_C@_0DF@GMOKOMPK@Gu?3?3BVHStructure?3?3release?3?5doub@ 0000000180121c10     GuBVHStructure.obj
 0002:00003c48       ??_C@_0BA@DMBHEKGP@BVH?5volume?5list@ 0000000180121c48     GuBVHStructure.obj
 0002:00003cc0       __real@00000000            0000000180121cc0     GuCCDSweepConvexMesh.obj
 0002:00003cc4       __real@3c343958            0000000180121cc4     GuCCDSweepConvexMesh.obj
 0002:00003cc8       __real@3ca3d70a            0000000180121cc8     GuCCDSweepConvexMesh.obj
 0002:00003ccc       __real@3f0ccccd            0000000180121ccc     GuCCDSweepConvexMesh.obj
 0002:00003cd0       __real@3f8ccccd            0000000180121cd0     GuCCDSweepConvexMesh.obj
 0002:00003cd4       __real@b58637bd            0000000180121cd4     GuCCDSweepConvexMesh.obj
 0002:00003ce0       __xmm@000000000000000000000000fe7fffff 0000000180121ce0     GuCCDSweepConvexMesh.obj
 0002:00003cf0       __xmm@fe7ffffffe7fffff7e7fffff7e7fffff 0000000180121cf0     GuCCDSweepConvexMesh.obj
 0002:00003d20       ??_7?$RelativeConvex@VCapsuleV@Gu@physx@@@Gu@physx@@6B@ 0000000180121d20     GuCCDSweepPrimitives.obj
 0002:00003d50       ??_7?$RelativeConvex@VTriangleV@Gu@physx@@@Gu@physx@@6B@ 0000000180121d50     GuCCDSweepPrimitives.obj
 0002:00003d80       __real@3ba3d70a            0000000180121d80     GuCCDSweepPrimitives.obj
 0002:00003d84       __real@501502f9            0000000180121d84     GuCCDSweepPrimitives.obj
 0002:00003e90       __real@3f7fbe77            0000000180121e90     GuContactBoxBox.obj
 0002:00003ee0       __real@3a83126f            0000000180121ee0     GuContactCapsuleCapsule.obj
 0002:00003ee4       __real@3f7ff2e5            0000000180121ee4     GuContactCapsuleCapsule.obj
 0002:00003ee8       __real@40800000            0000000180121ee8     GuContactCapsuleCapsule.obj
 0002:00003f70       __real@358637be            0000000180121f70     GuContactCapsuleMesh.obj
 0002:00003f74       __real@3eaaaaab            0000000180121f74     GuContactCapsuleMesh.obj
 0002:00003f78       __real@3f8020c5            0000000180121f78     GuContactCapsuleMesh.obj
 0002:00003f7c       __real@ba83126f            0000000180121f7c     GuContactCapsuleMesh.obj
 0002:00003fd0       ??_7ConvexMeshContactGenerationCallback@@6B@ 0000000180121fd0     GuContactConvexMesh.obj
 0002:00004050       __real@3ec90fdb            0000000180122050     GuContactPolygonPolygon.obj
 0002:00004054       __real@3f490fdb            0000000180122054     GuContactPolygonPolygon.obj
 0002:00004058       __real@3f96cbe4            0000000180122058     GuContactPolygonPolygon.obj
 0002:0000405c       __real@3fc90fdb            000000018012205c     GuContactPolygonPolygon.obj
 0002:00004060       __real@3ffb53d2            0000000180122060     GuContactPolygonPolygon.obj
 0002:00004064       __real@4016cbe4            0000000180122064     GuContactPolygonPolygon.obj
 0002:00004068       __real@402feddf            0000000180122068     GuContactPolygonPolygon.obj
 0002:000040e0       ??_C@_0DL@OAFGOMGB@Dropping?5contacts?5in?5sphere?5vs?5@ 00000001801220e0     GuContactSphereMesh.obj
 0002:00004120       ??_C@_0EJ@DJINHHLF@C?3?2_GIT?2PhysX?2physx?2source?2geom@ 0000000180122120     GuContactSphereMesh.obj
 0002:000041a0       ??_C@_0DH@JFLNNLCG@C?3?2_GIT?2PhysX?2physx?2source?2foun@ 00000001801221a0     GuContactSphereMesh.obj
 0002:00004220       __real@bf000000            0000000180122220     GuContactSphereSphere.obj
 0002:00004228       ??_C@_0BD@PGLLAGCI@BigConvexData?5data@ 0000000180122228     GuBigConvexData.obj
 0002:00004240       ??_C@_0EE@GIPCAOIC@C?3?2_GIT?2PhysX?2physx?2source?2geom@ 0000000180122240     GuBigConvexData.obj
 0002:00004288       ??_C@_0BH@NIMDLCCM@BigConvex?5Samples?5Data@ 0000000180122288     GuBigConvexData.obj
 0002:000042c0       ??_7PxConvexMesh@physx@@6B@ 00000001801222c0     GuConvexMesh.obj
 0002:00004338       ??_7ConvexMesh@Gu@physx@@6BPxConvexMesh@2@@ 0000000180122338     GuConvexMesh.obj
 0002:000043c0       ??_7ConvexMesh@Gu@physx@@6BRefCountable@Cm@2@@ 00000001801223c0     GuConvexMesh.obj
 0002:000043d0       ??_C@_0BE@EJGGFHND@ConvexHullData?5data@ 00000001801223d0     GuConvexMesh.obj
 0002:000043f0       ??_C@_0EB@KNOOCFKG@C?3?2_GIT?2PhysX?2physx?2source?2geom@ 00000001801223f0     GuConvexMesh.obj
 0002:00004438       ??_C@_0DM@NEJKOFIP@Loading?5convex?5mesh?5failed?3?5Dep@ 0000000180122438     GuConvexMesh.obj
 0002:00004478       ??_C@_0DD@GDAMDLJL@Gu?3?3ConvexMesh?3?3release?3?5double@ 0000000180122478     GuConvexMesh.obj
 0002:000044d0       __xmm@000000000000000000000000ffffffff 00000001801224d0     GuConvexSupportTable.obj
 0002:000044e0       __xmm@0000000000000000ffffffff00000000 00000001801224e0     GuConvexSupportTable.obj
 0002:000044f0       __xmm@0000000000000000ffffffffffffffff 00000001801224f0     GuConvexSupportTable.obj
 0002:00004500       __xmm@00000000ffffffff0000000000000000 0000000180122500     GuConvexSupportTable.obj
 0002:00004510       __xmm@00000000ffffffff00000000ffffffff 0000000180122510     GuConvexSupportTable.obj
 0002:00004520       __xmm@00000000ffffffffffffffff00000000 0000000180122520     GuConvexSupportTable.obj
 0002:000045d0       __real@2b8cbccc            00000001801225d0     GuDistanceSegmentTriangle.obj
 0002:000045e0       __xmm@3f8000013f8000013f8000013f800001 00000001801225e0     GuDistanceSegmentTriangle.obj
 0002:000045f0       __xmm@b4000000b4000000b4000000b4000000 00000001801225f0     GuDistanceSegmentTriangle.obj
 0002:00004650       __xmm@38d1b71738d1b71738d1b71738d1b717 0000000180122650     GuGJKSimplex.obj
 0002:00004660       __xmm@b58637bdb58637bdb58637bdb58637bd 0000000180122660     GuGJKSimplex.obj
 0002:00004690       ??_7PxHeightField@physx@@6B@ 0000000180122690     GuHeightField.obj
 0002:00004730       ??_7HeightField@Gu@physx@@6BPxHeightField@2@@ 0000000180122730     GuHeightField.obj
 0002:000047e0       ??_7HeightField@Gu@physx@@6BRefCountable@Cm@2@@ 00000001801227e0     GuHeightField.obj
 0002:000047f0       ??_C@_0DL@DNGFPCEG@Gu?3?3HeightField?3?3onRefCountZero@ 00000001801227f0     GuHeightField.obj
 0002:00004830       ??_C@_0DO@GKGCONDK@C?3?2_GIT?2PhysX?2physx?2source?2geom@ 0000000180122830     GuHeightField.obj
 0002:00004870       ??_C@_0DF@LLAFPPKJ@Gu?3?3HeightField?3?3modifySamples?3@ 0000000180122870     GuHeightField.obj
 0002:000048a8       ??_C@_0CI@DMKEKGNK@Gu?3?3HeightField?3?3load?3?5PX_ALLOC@ 00000001801228a8     GuHeightField.obj
 0002:000048d0       ??_C@_0DG@LACOBMDE@Gu?3?3HeightField?3?3loadFromDesc?3?5@ 00000001801228d0     GuHeightField.obj
 0002:00004908       ??_C@_0DB@OLBNLHJP@C?3?2_GIT?2PhysX?2physx?2source?2comm@ 0000000180122908     GuHeightField.obj
 0002:00004960       ??_C@_0DH@EJDJIMCB@HeightFieldShape?3?3getTriangle?3?5@ 0000000180122960     GuHeightFieldUtil.obj
 0002:000049a0       ??_C@_0EC@GKHGHMLM@C?3?2_GIT?2PhysX?2physx?2source?2geom@ 00000001801229a0     GuHeightFieldUtil.obj
 0002:000049e4       __real@3a03126f            00000001801229e4     GuHeightFieldUtil.obj
 0002:000049e8       __real@3f19999a            00000001801229e8     GuHeightFieldUtil.obj
 0002:00004a50       ??_7HeightFieldTraceSegmentReport@@6B@ 0000000180122a50     GuSweepsHF.obj
 0002:00004a60       ??_7CapsuleTraceSegmentReport@@6B@ 0000000180122a60     GuSweepsHF.obj
 0002:00004a70       ??_7ConvexTraceSegmentReport@@6B@ 0000000180122a70     GuSweepsHF.obj
 0002:00004a80       ??_7BoxTraceSegmentReport@@6B@ 0000000180122a80     GuSweepsHF.obj
 0002:00004a90       __real@aedbe6ff            0000000180122a90     GuSweepsHF.obj
 0002:00004ac0       __real@3089705f            0000000180122ac0     GuIntersectionRayBox.obj
 0002:00004ac4       __real@34000000            0000000180122ac4     GuIntersectionRayBox.obj
 0002:00004ac8       __real@b4000000            0000000180122ac8     GuIntersectionRayBox.obj
 0002:00004ad0       __xmm@000000003089705f3089705f3089705f 0000000180122ad0     GuIntersectionRayBox.obj
 0002:00004ae0       __xmm@00000000bf800000bf800000bf800000 0000000180122ae0     GuIntersectionRayBox.obj
 0002:00004b30       ??_C@_0DI@GMKFICFL@C?3?2_GIT?2PhysX?2physx?2source?2geom@ 0000000180122b30     GuBV4.obj
 0002:00004b68       ??_C@_04LHNPKPDA@OPC2@     0000000180122b68     GuBV4.obj
 0002:00004b70       ??_C@_09JOJONBOP@BV4?5nodes@ 0000000180122b70     GuBV4.obj
 0002:00004ba0       ??_C@_03DMLNBBKA@BV4@      0000000180122ba0     GuBV4Build.obj
 0002:00004ba8       ??_C@_0DN@HGCKKNJH@C?3?2_GIT?2PhysX?2physx?2source?2geom@ 0000000180122ba8     GuBV4Build.obj
 0002:00004be8       ??_C@_0M@FLGHAIDC@BV4?5indices@ 0000000180122be8     GuBV4Build.obj
 0002:00004bf4       __real@38000100            0000000180122bf4     GuBV4Build.obj
 0002:00004bf8       __real@3e93cd3a            0000000180122bf8     GuBV4Build.obj
 0002:00004bfc       __real@46fffe00            0000000180122bfc     GuBV4Build.obj
 0002:00004c00       __real@be93cd3a            0000000180122c00     GuBV4Build.obj
 0002:00004c30       __xmm@0000ffff0000ffff0000ffff0000ffff 0000000180122c30     GuBV4_AABBSweep.obj
 0002:00004c40       __xmm@3089705f3089705f3089705f3089705f 0000000180122c40     GuBV4_AABBSweep.obj
 0002:00004c50       __xmm@33d6bf9533d6bf9533d6bf9533d6bf95 0000000180122c50     GuBV4_AABBSweep.obj
 0002:00004c60       __xmm@40000000400000004000000040000000 0000000180122c60     GuBV4_AABBSweep.obj
 0002:00004d70       __xmm@00000000000000007f7fffff00000000 0000000180122d70     GuMidphaseBV4.obj
 0002:00004de0       ??_C@_0DK@FFHPKGEP@PxMeshQuery?3?3getTriangle?3?5trian@ 0000000180122de0     GuMeshQuery.obj
 0002:00004e20       ??_C@_0DO@GJIKBFFB@C?3?2_GIT?2PhysX?2physx?2source?2geom@ 0000000180122e20     GuMeshQuery.obj
 0002:00004e60       ??_C@_0FD@EHCCILIF@Adjacency?5information?5not?5creat@ 0000000180122e60     GuMeshQuery.obj
 0002:00004ec0       ??_C@_0FA@MCAAGAGM@findOverlapTriangleMesh?3?5Only?5b@ 0000000180122ec0     GuMeshQuery.obj
 0002:00004f10       ??_C@_0EM@BEFNLPHI@findOverlapHeightField?3?5Only?5bo@ 0000000180122f10     GuMeshQuery.obj
 0002:00004f60       ??_C@_0CJ@NLNHIMDM@PxMeshQuery?3?3sweep?$CI?$CJ?3?5pose?5is?5n@ 0000000180122f60     GuMeshQuery.obj
 0002:00004f90       ??_C@_0CM@BFKJPOOO@PxMeshQuery?3?3sweep?$CI?$CJ?3?5unitDir?5i@ 0000000180122f90     GuMeshQuery.obj
 0002:00004fc0       ??_C@_0CN@JKBDLLPP@PxMeshQuery?3?3sweep?$CI?$CJ?3?5distance?5@ 0000000180122fc0     GuMeshQuery.obj
 0002:00004ff0       ??_C@_0DN@DPNNFGGF@PxMeshQuery?3?3sweep?$CI?$CJ?3?5sweep?5dis@ 0000000180122ff0     GuMeshQuery.obj
 0002:00005030       ??_C@_0BA@MBAFFELP@MeshQuery?4sweep@ 0000000180123030     GuMeshQuery.obj
 0002:00005040       ??_C@_0FJ@GNAHJJCM@PxMeshQuery?3?3sweep?$CI?$CJ?3?5geometry?5@ 0000000180123040     GuMeshQuery.obj
 0002:0000509c       __real@4cbebc20            000000018012309c     GuMeshQuery.obj
 0002:000050c0       ??_7Callback@RTree@Gu@physx@@6B@ 00000001801230c0     GuMidphaseRTree.obj
 0002:000050d8       ??_7CallbackRaycast@RTree@Gu@physx@@6B@ 00000001801230d8     GuMidphaseRTree.obj
 0002:000050d8       ??_7CallbackRefit@RTree@Gu@physx@@6B@ 00000001801230d8     GuTriangleMeshRTree.obj
 0002:000050e8       ??_7?$RayRTreeCallback@$00$0A@@@6BCallbackRaycast@RTree@Gu@physx@@@ 00000001801230e8     GuMidphaseRTree.obj
 0002:000050e8       ??_7?$RayRTreeCallback@$0A@$0A@@@6BCallbackRaycast@RTree@Gu@physx@@@ 00000001801230e8     GuMidphaseRTree.obj
 0002:000050f8       ??_7?$RayRTreeCallback@$00$0A@@@6BCallback@RTree@Gu@physx@@@ 00000001801230f8     GuMidphaseRTree.obj
 0002:000050f8       ??_7?$RayRTreeCallback@$0A@$0A@@@6BCallback@RTree@Gu@physx@@@ 00000001801230f8     GuMidphaseRTree.obj
 0002:00005110       ??_7RayMeshColliderCallback@@6B@ 0000000180123110     GuMidphaseRTree.obj
 0002:00005120       ??_7?$RayRTreeCallback@$0A@$00@@6BCallbackRaycast@RTree@Gu@physx@@@ 0000000180123120     GuMidphaseRTree.obj
 0002:00005130       ??_7?$RayRTreeCallback@$0A@$00@@6BCallback@RTree@Gu@physx@@@ 0000000180123130     GuMidphaseRTree.obj
 0002:00005148       ??_7?$RayRTreeCallback@$00$00@@6BCallbackRaycast@RTree@Gu@physx@@@ 0000000180123148     GuMidphaseRTree.obj
 0002:00005158       ??_7?$RayRTreeCallback@$00$00@@6BCallback@RTree@Gu@physx@@@ 0000000180123158     GuMidphaseRTree.obj
 0002:00005230       ??_7ConvexVsMeshOverlapCallback@@6B@ 0000000180123230     GuOverlapTestsMesh.obj
 0002:00005260       ?MN@RTreePage@Gu@physx@@2MB 0000000180123260     GuRTree.obj
 0002:00005264       ?MX@RTreePage@Gu@physx@@2MB 0000000180123264     GuRTree.obj
 0002:00005268       ??_C@_0DK@JCEHDCNB@C?3?2_GIT?2PhysX?2physx?2source?2geom@ 0000000180123268     GuRTree.obj
 0002:00005320       ??_7SweepShapeMeshHitCallback@Gu@physx@@6B@ 0000000180123320     GuSweepsMesh.obj
 0002:00005330       ??_7SweepCapsuleMeshHitCallback@Gu@physx@@6B@ 0000000180123330     GuSweepsMesh.obj
 0002:00005340       ??_7SweepBoxMeshHitCallback@Gu@physx@@6B@ 0000000180123340     GuSweepsMesh.obj
 0002:00005350       ??_7SweepConvexMeshHitCallback@Gu@physx@@6B@ 0000000180123350     GuSweepsMesh.obj
 0002:00005380       ??_7PxTriangleMesh@physx@@6B@ 0000000180123380     GuTriangleMesh.obj
 0002:00005408       ??_7TriangleMesh@Gu@physx@@6BPxTriangleMesh@2@@ 0000000180123408     GuTriangleMesh.obj
 0002:000054a8       ??_7TriangleMesh@Gu@physx@@6BRefCountable@Cm@2@@ 00000001801234a8     GuTriangleMesh.obj
 0002:000054b8       ??_C@_0DF@DNLKAHAL@Gu?3?3TriangleMesh?3?3release?3?5doub@ 00000001801234b8     GuTriangleMesh.obj
 0002:000054f0       ??_C@_0EB@JDLOIKEH@C?3?2_GIT?2PhysX?2physx?2source?2geom@ 00000001801234f0     GuTriangleMesh.obj
 0002:00005540       ??_C@_0GH@IGKFPLIJ@PxTriangleMesh?3?3getVerticesForM@ 0000000180123540     GuTriangleMesh.obj
 0002:000055b0       ??_C@_0FF@LHAOBIMM@PxTriangleMesh?3?3refitBVH?$CI?$CJ?5is?5o@ 00000001801235b0     GuTriangleMesh.obj
 0002:00005630       ??_C@_0BE@CNJKIINO@PxBVH34TriangleMesh@ 0000000180123630     GuTriangleMeshBV4.obj
 0002:00005648       ??_7BV4TriangleMesh@Gu@physx@@6BPxTriangleMesh@2@@ 0000000180123648     GuTriangleMeshBV4.obj
 0002:000056e8       ??_7BV4TriangleMesh@Gu@physx@@6BRefCountable@Cm@2@@ 00000001801236e8     GuTriangleMeshBV4.obj
 0002:00005720       ??_C@_0BE@EIFHCCBO@PxBVH33TriangleMesh@ 0000000180123720     GuTriangleMeshRTree.obj
 0002:00005738       ??_7RTreeTriangleMesh@Gu@physx@@6BPxTriangleMesh@2@@ 0000000180123738     GuTriangleMeshRTree.obj
 0002:000057d8       ??_7RTreeTriangleMesh@Gu@physx@@6BRefCountable@Cm@2@@ 00000001801237d8     GuTriangleMeshRTree.obj
 0002:000057e8       ??_7?$RefitCallback@G@physx@@6B@ 00000001801237e8     GuTriangleMeshRTree.obj
 0002:000057f8       ??_7?$RefitCallback@I@physx@@6B@ 00000001801237f8     GuTriangleMeshRTree.obj
 0002:00005810       __xmm@38383838383838383838383838383838 0000000180123810     GuTriangleMeshRTree.obj
 0002:00005820       ??_C@_0P@KDMGEHMF@BV32DataPacked@ 0000000180123820     GuBV32.obj
 0002:00005830       ??_C@_0DJ@IAJGMMOP@C?3?2_GIT?2PhysX?2physx?2source?2geom@ 0000000180123830     GuBV32.obj
 0002:00005890       ??_C@_0DO@DMEAMLGE@C?3?2_GIT?2PhysX?2physx?2source?2geom@ 0000000180123890     GuBV32Build.obj
 0002:000058d0       ??_C@_04DONFFMAN@BV32@     00000001801238d0     GuBV32Build.obj
 0002:00005900       __xmm@00000000358637bd358637bd358637bd 0000000180123900     GuPCMContactBoxBox.obj
 0002:00005910       __xmm@3d4ccccd3d4ccccd3d4ccccd3d4ccccd 0000000180123910     GuPCMContactBoxBox.obj
 0002:00005920       __xmm@3f4ccccd3f4ccccd3f4ccccd3f4ccccd 0000000180123920     GuPCMContactBoxBox.obj
 0002:00005930       __xmm@ffffffff00000000ffffffffffffffff 0000000180123930     GuPCMContactBoxBox.obj
 0002:00005960       ??_7?$LocalConvex@VConvexHullNoScaleV@Gu@physx@@@Gu@physx@@6B@ 0000000180123960     GuPCMContactBoxConvex.obj
 0002:00005990       __xmm@3f3504f33f3504f33f3504f33f3504f3 0000000180123990     GuPCMContactBoxConvex.obj
 0002:000059e0       __xmm@ffffffffffffffffffffffff00000000 00000001801239e0     GuPCMContactCapsuleCapsule.obj
 0002:00005a10       __xmm@3fa000003fa000003fa000003fa00000 0000000180123a10     GuPCMContactCapsuleConvex.obj
 0002:00005a40       ??_7PCMCapsuleVsHeightfieldContactGenerationCallback@physx@@6B@ 0000000180123a40     GuPCMContactCapsuleHeightField.obj
 0002:00005a50       __real@3f7f3b64            0000000180123a50     GuPCMContactCapsuleHeightField.obj
 0002:00005a60       __xmm@3f7ef9db3f7ef9db3f7ef9db3f7ef9db 0000000180123a60     GuPCMContactCapsuleHeightField.obj
 0002:00005aa0       ??_7PCMCapsuleVsMeshContactGenerationCallback@physx@@6B@ 0000000180123aa0     GuPCMContactCapsuleMesh.obj
 0002:00005ad0       ??_7?$SupportLocalImpl@VTriangleV@Gu@physx@@@Gu@physx@@6B@ 0000000180123ad0     GuPCMContactConvexCommon.obj
 0002:00005af0       ??_C@_0EA@LHFHPEOP@C?3?2_GIT?2PhysX?2physx?2source?2foun@ 0000000180123af0     GuPCMContactConvexCommon.obj
 0002:00005b30       __xmm@3cf5c2803cf5c2803cf5c2803cf5c280 0000000180123b30     GuPCMContactConvexCommon.obj
 0002:00005b40       __xmm@3f7851ec3f7851ec3f7851ec3f7851ec 0000000180123b40     GuPCMContactConvexCommon.obj
 0002:00005b50       __xmm@3f7ff9723f7ff9723f7ff9723f7ff972 0000000180123b50     GuPCMContactConvexCommon.obj
 0002:00005b60       __xmm@3f7fffef3f7fffef3f7fffef3f7fffef 0000000180123b60     GuPCMContactConvexCommon.obj
 0002:00005b90       ??_7?$RelativeConvex@VConvexHullNoScaleV@Gu@physx@@@Gu@physx@@6B@ 0000000180123b90     GuPCMContactConvexConvex.obj
 0002:00005be0       ??_7PCMConvexVsHeightfieldContactGenerationCallback@physx@@6B@ 0000000180123be0     GuPCMContactConvexHeightField.obj
 0002:00005bf0       __xmm@3f19999a3f19999a3f19999a3f19999a 0000000180123bf0     GuPCMContactConvexHeightField.obj
 0002:00005c30       ??_7PCMConvexVsMeshContactGenerationCallback@physx@@6B@ 0000000180123c30     GuPCMContactConvexMesh.obj
 0002:00005c60       __xmm@3f34fdf43f34fdf43f34fdf43f34fdf4 0000000180123c60     GuPCMContactGenBoxConvex.obj
 0002:00005c90       __xmm@3f80a3d73f80a3d73f80a3d73f80a3d7 0000000180123c90     GuPCMContactGenSphereCapsule.obj
 0002:00005ca0       __xmm@bba3d70abba3d70abba3d70abba3d70a 0000000180123ca0     GuPCMContactGenSphereCapsule.obj
 0002:00005cf0       __real@3b23d70b            0000000180123cf0     GuPCMContactPlaneCapsule.obj
 0002:00005d00       __xmm@3ca3d70a3ca3d70a3ca3d70a3ca3d70a 0000000180123d00     GuPCMContactPlaneCapsule.obj
 0002:00005db0       ??_7PCMSphereVsHeightfieldContactGenerationCallback@physx@@6B@ 0000000180123db0     GuPCMContactSphereHeightField.obj
 0002:00005df0       ??_7PCMSphereVsMeshContactGenerationCallback@physx@@6B@ 0000000180123df0     GuPCMContactSphereMesh.obj
 0002:00005e40       __xmm@3727c5ac3727c5ac3727c5ac3727c5ac 0000000180123e40     GuPCMContactSphereSphere.obj
 0002:00005e50       ?gPCMBoxPolygonData@Gu@physx@@3QBEB 0000000180123e50     GuPCMShapeConvex.obj
 0002:00005eb0       ?invalidateThresholds@Gu@physx@@3QBMB 0000000180123eb0     GuPersistentContactManifold.obj
 0002:00005ec8       ?invalidateQuatThresholds@Gu@physx@@3QBMB 0000000180123ec8     GuPersistentContactManifold.obj
 0002:00005ee0       ?invalidateThresholds2@Gu@physx@@3QBMB 0000000180123ee0     GuPersistentContactManifold.obj
 0002:00005ef0       ?invalidateQuatThresholds2@Gu@physx@@3QBMB 0000000180123ef0     GuPersistentContactManifold.obj
 0002:00005f20       __xmm@000000003f8000003f80000000000000 0000000180123f20     GuPersistentContactManifold.obj
 0002:00005f30       __xmm@00000000bf8000003f80000000000000 0000000180123f30     GuPersistentContactManifold.obj
 0002:00005f40       __xmm@ff7fffffff7fffffff7fffffff7fffff 0000000180123f40     GuPersistentContactManifold.obj
 0002:00005f50       __xmm@ffffffffffffffff00000000ffffffff 0000000180123f50     GuPersistentContactManifold.obj
 0002:00005fa0       __real@b727c5ac            0000000180123fa0     GuSweepBoxSphere.obj
 0002:00006010       ??_C@_0EF@FJIMBKIE@C?3?2_GIT?2PhysX?2physx?2source?2geom@ 0000000180124010     GuSweepCapsuleBox.obj
 0002:00006080       __real@3f7fff58            0000000180124080     GuSweepCapsuleTriangle.obj
 0002:000060d0       __sz_PhysXFoundation_64_dll 00000001801240d0     PhysXFoundation_64:PhysXFoundation_64.dll
 0002:000060e8       ??_C@_1BK@DBDEIDLH@?$AAK?$AAE?$AAR?$AAN?$AAE?$AAL?$AA3?$AA2?$AA?4?$AAD?$AAL?$AAL@ 00000001801240e8     Delayimp:delayhlp.obj
 0002:00006108       ??_C@_0BI@OMNLIJDB@AcquireSRWLockExclusive@ 0000000180124108     Delayimp:delayhlp.obj
 0002:00006120       ??_C@_0BI@HMIEPCNJ@ReleaseSRWLockExclusive@ 0000000180124120     Delayimp:delayhlp.obj
 0002:00006138       __pfnDliFailureHook2       0000000180124138     Delayimp:delayhk1.obj
 0002:00006148       ??_7type_info@@6B@         0000000180124148     MSVCRT:std_type_info_static.obj
 0002:000061b0       _pDefaultRawDllMain        00000001801241b0     MSVCRT:dll_dllmain.obj
 0002:000061b0       _pRawDllMain               00000001801241b0     MSVCRT:dll_dllmain.obj
 0002:000061c0       _load_config_used          00000001801241c0     MSVCRT:loadcfg.obj
 0002:00006380       ??_R4type_info@@6B@        0000000180124380     MSVCRT:std_type_info_static.obj
 0002:000063a8       ??_R3type_info@@8          00000001801243a8     MSVCRT:std_type_info_static.obj
 0002:000063c0       ??_R2type_info@@8          00000001801243c0     MSVCRT:std_type_info_static.obj
 0002:000063d0       ??_R1A@?0A@EA@type_info@@8 00000001801243d0     MSVCRT:std_type_info_static.obj
 0002:000063f4       __volatile_metadata        00000001801243f4     <linker-defined>
 0002:000068b0       __rtc_iaa                  00000001801248b0     MSVCRT:initsect.obj
 0002:000068b8       __rtc_izz                  00000001801248b8     MSVCRT:initsect.obj
 0002:000068c0       __rtc_taa                  00000001801248c0     MSVCRT:initsect.obj
 0002:000068c8       __rtc_tzz                  00000001801248c8     MSVCRT:initsect.obj
 0002:00011e98       __DELAY_IMPORT_DESCRIPTOR_physxfoundation_64_dll 000000018012fe98     PhysXFoundation_64:PhysXFoundation_64.dll
 0002:00011eb8       __NULL_DELAY_IMPORT_DESCRIPTOR 000000018012feb8     PhysXFoundation_64:PhysXFoundation_64.dll
 0002:00011f88       \177PhysXFoundation_64_NULL_THUNK_DATA_DLN 000000018012ff88     PhysXFoundation_64:PhysXFoundation_64.dll
 0002:000123c8       \177PhysXFoundation_64_NULL_THUNK_DATA_DLB 00000001801303c8     PhysXFoundation_64:PhysXFoundation_64.dll
 0002:0001c55c       __IMPORT_DESCRIPTOR_KERNEL32 000000018013a55c     kernel32:KERNEL32.dll
 0002:0001c570       __IMPORT_DESCRIPTOR_VCRUNTIME140 000000018013a570     vcruntime:VCRUNTIME140.dll
 0002:0001c584       __IMPORT_DESCRIPTOR_api-ms-win-crt-math-l1-1-0 000000018013a584     ucrt:api-ms-win-crt-math-l1-1-0.dll
 0002:0001c598       __IMPORT_DESCRIPTOR_api-ms-win-crt-string-l1-1-0 000000018013a598     ucrt:api-ms-win-crt-string-l1-1-0.dll
 0002:0001c5ac       __IMPORT_DESCRIPTOR_api-ms-win-crt-heap-l1-1-0 000000018013a5ac     ucrt:api-ms-win-crt-heap-l1-1-0.dll
 0002:0001c5c0       __IMPORT_DESCRIPTOR_api-ms-win-crt-runtime-l1-1-0 000000018013a5c0     ucrt:api-ms-win-crt-runtime-l1-1-0.dll
 0002:0001c5d4       __NULL_IMPORT_DESCRIPTOR   000000018013a5d4     kernel32:KERNEL32.dll
 0003:00000000       __pfnDliNotifyHook2        000000018013b000     CmWindowsDelayLoadHook.obj
 0003:00000020       ?gGeomMTDMethodTable@@3PAY06P6A_NAEAVPxVec3@physx@@AEAMAEBVPxGeometry@2@AEBVPxTransform@2@23@ZA 000000018013b020     GuMTD.obj
 0003:000001b0       ?gGeomOverlapMethodTable@@3PAY06P6A_NAEBVPxGeometry@physx@@AEBVPxTransform@2@01PEAUTriggerCache@Gu@2@@ZA 000000018013b1b0     GuOverlapTests.obj
 0003:00000338       ?gRaycastMap@@3PAP6AIAEBVPxGeometry@physx@@AEBVPxTransform@2@AEBVPxVec3@2@2MV?$PxFlags@W4Enum@PxHitFlag@physx@@G@2@IPEIAUPxRaycastHit@2@@ZA 000000018013b338     GuRaycastTests.obj
 0003:00000370       ?gGeomSweepFuncs@@3UGeomSweepFuncs@Gu@physx@@A 000000018013b370     GuSweepTests.obj
 0003:00000490       ?g_SweepMethodTable@Gu@physx@@3PAY06P6AMAEBUCCDShape@12@0AEBVPxTransform@2@111MAEAVPxVec3@2@2MAEAIM@ZA 000000018013b490     GuCCDSweepPrimitives.obj
 0003:00000618       ?g_TriangleSweepMethodTable@Gu@physx@@3PAP6AMAEBVGeometryUnion@12@0AEBVPxTransform@2@111MAEAVPxVec3@2@2AEBVFastVertex2ShapeScaling@Cm@2@AEAVTriangleV@12@M@ZA 000000018013b618     GuCCDSweepPrimitives.obj
 0003:00000a14       _fltused                   000000018013ba14     MSVCRT:fltused.obj
 0003:00000a20       __isa_available            000000018013ba20     MSVCRT:cpu_disp.obj
 0003:00000a24       __isa_enabled              000000018013ba24     MSVCRT:cpu_disp.obj
 0003:00000a28       __memset_fast_string_threshold 000000018013ba28     MSVCRT:cpu_disp.obj
 0003:00000a30       __memset_nt_threshold      000000018013ba30     MSVCRT:cpu_disp.obj
 0003:00000a40       __scrt_native_dllmain_reason 000000018013ba40     MSVCRT:utility.obj
 0003:00000a48       __security_cookie_complement 000000018013ba48     MSVCRT:gs_cookie.obj
 0003:00000a50       __security_cookie          000000018013ba50     MSVCRT:gs_cookie.obj
 0003:00000a60       __scrt_ucrt_dll_is_in_use  000000018013ba60     MSVCRT:ucrt_stubs.obj
 0003:00000a70       ??_R0?AVCollection@Cm@physx@@@8 000000018013ba70     CmCollection.obj
 0003:00000aa0       ??_R0?AVBVHStructure@Gu@physx@@@8 000000018013baa0     GuMeshFactory.obj
 0003:00000ad0       ??_R0?AVHeightField@Gu@physx@@@8 000000018013bad0     GuMeshFactory.obj
 0003:00000b00       ??_R0?AVConvexMesh@Gu@physx@@@8 000000018013bb00     GuMeshFactory.obj
 0003:00000b30       ??_R0?AVBV4TriangleMesh@Gu@physx@@@8 000000018013bb30     GuMeshFactory.obj
 0003:00000b60       ??_R0?AVRTreeTriangleMesh@Gu@physx@@@8 000000018013bb60     GuMeshFactory.obj
 0003:00000b98       ??_R0?AVMutexImpl@shdfnd@physx@@@8 000000018013bb98     GuMeshFactory.obj
 0003:00000bc8       ??_R0?AVBV32Tree@Gu@physx@@@8 000000018013bbc8     GuMeshFactory.obj
 0003:00000bf0       ??_R0?AVBV4TriangleData@Gu@physx@@@8 000000018013bbf0     GuMeshFactory.obj
 0003:00000c20       ??_R0?AVRTreeTriangleData@Gu@physx@@@8 000000018013bc20     GuMeshFactory.obj
 0003:00000c58       ??_R0E@8                   000000018013bc58     GuMeshFactory.obj
 0003:00000c70       ??_R0G@8                   000000018013bc70     GuMeshFactory.obj
 0003:00000c88       ??_R0I@8                   000000018013bc88     GuMeshFactory.obj
 0003:00000ca0       ??_R0?AVAABBTreeBuildNode@Gu@physx@@@8 000000018013bca0     GuAABBTreeBuild.obj
 0003:00000cd8       ??_R0?AVBigConvexData@physx@@@8 000000018013bcd8     GuConvexMesh.obj
 0003:00000d08       ??_R0?AVIndTri16@Gu@physx@@@8 000000018013bd08     GuBV4.obj
 0003:00000d30       ??_R0?AVIndTri32@Gu@physx@@@8 000000018013bd30     GuBV4.obj
 0003:00000d60       ??_R0?AU?$BVDataPackedT@VQuantizedAABB@Gu@physx@@@Gu@physx@@@8 000000018013bd60     GuBV4Build.obj
 0003:00000db0       ??_R0?AUSlab@BV4BuildParams@@@8 000000018013bdb0     GuBV4Build.obj
 0003:00000de0       ??_R0?AVAABBTreeNode@Gu@physx@@@8 000000018013bde0     GuBV4Build.obj
 0003:00000e10       ??_R0?AUBV32Data@Gu@physx@@@8 000000018013be10     GuBV32Build.obj
 0003:00000e38       ??_R0?AUBV32Node@@@8       000000018013be38     GuBV32Build.obj
 0003:00000e58       ??_R0?AVtype_info@@@8      000000018013be58     MSVCRT:std_type_info_static.obj
 0003:00000e78       __imp_PxGetFoundation      000000018013be78     PhysXFoundation_64:PhysXFoundation_64.dll
 0003:00000e80       __imp_?atomicIncrement@shdfnd@physx@@YAHPECH@Z 000000018013be80     PhysXFoundation_64:PhysXFoundation_64.dll
 0003:00000e88       __imp_?getAllocator@shdfnd@physx@@YAAEAVPxAllocatorCallback@2@XZ 000000018013be88     PhysXFoundation_64:PhysXFoundation_64.dll
 0003:00000e90       __imp_?getInstance@Foundation@shdfnd@physx@@SAAEAV123@XZ 000000018013be90     PhysXFoundation_64:PhysXFoundation_64.dll
 0003:00000e98       __imp_?error@Foundation@shdfnd@physx@@QEAAXW4Enum@PxErrorCode@3@PEBDH1ZZ 000000018013be98     PhysXFoundation_64:PhysXFoundation_64.dll
 0003:00000ea0       __imp_??0NamedAllocator@shdfnd@physx@@QEAA@PEBD@Z 000000018013bea0     PhysXFoundation_64:PhysXFoundation_64.dll
 0003:00000ea8       __imp_??1NamedAllocator@shdfnd@physx@@QEAA@XZ 000000018013bea8     PhysXFoundation_64:PhysXFoundation_64.dll
 0003:00000eb0       __imp_?allocate@NamedAllocator@shdfnd@physx@@QEAAPEAX_KPEBDH@Z 000000018013beb0     PhysXFoundation_64:PhysXFoundation_64.dll
 0003:00000eb8       __imp_?deallocate@NamedAllocator@shdfnd@physx@@QEAAXPEAX@Z 000000018013beb8     PhysXFoundation_64:PhysXFoundation_64.dll
 0003:00000ec0       __imp_?vsnprintf@shdfnd@physx@@YAHPEAD_KPEBD0@Z 000000018013bec0     PhysXFoundation_64:PhysXFoundation_64.dll
 0003:00000ec8       __imp_??0NamedAllocator@shdfnd@physx@@QEAA@AEBV012@@Z 000000018013bec8     PhysXFoundation_64:PhysXFoundation_64.dll
 0003:00000ed0       __imp_??0MutexImpl@shdfnd@physx@@QEAA@XZ 000000018013bed0     PhysXFoundation_64:PhysXFoundation_64.dll
 0003:00000ed8       __imp_??1MutexImpl@shdfnd@physx@@QEAA@XZ 000000018013bed8     PhysXFoundation_64:PhysXFoundation_64.dll
 0003:00000ee0       __imp_?lock@MutexImpl@shdfnd@physx@@QEAAXXZ 000000018013bee0     PhysXFoundation_64:PhysXFoundation_64.dll
 0003:00000ee8       __imp_?unlock@MutexImpl@shdfnd@physx@@QEAAXXZ 000000018013bee8     PhysXFoundation_64:PhysXFoundation_64.dll
 0003:00000ef0       __imp_?getSize@MutexImpl@shdfnd@physx@@SAIXZ 000000018013bef0     PhysXFoundation_64:PhysXFoundation_64.dll
 0003:00000ef8       __imp_?atomicDecrement@shdfnd@physx@@YAHPECH@Z 000000018013bef8     PhysXFoundation_64:PhysXFoundation_64.dll
 0003:00000f00       __imp_?PxTransformFromSegment@physx@@YA?AVPxTransform@1@AEBVPxVec3@1@0PEAM@Z 000000018013bf00     PhysXFoundation_64:PhysXFoundation_64.dll
 0003:00000f08       __imp_?optimizeBoundingBox@shdfnd@physx@@YA?AVPxVec3@2@AEAVPxMat33@2@@Z 000000018013bf08     PhysXFoundation_64:PhysXFoundation_64.dll
 0003:00000f10       __imp_?allocate@TempAllocator@shdfnd@physx@@QEAAPEAX_KPEBDH@Z 000000018013bf10     PhysXFoundation_64:PhysXFoundation_64.dll
 0003:00000f18       __imp_?deallocate@TempAllocator@shdfnd@physx@@QEAAXPEAX@Z 000000018013bf18     PhysXFoundation_64:PhysXFoundation_64.dll
 0003:00000f20       __imp_PxGetProfilerCallback 000000018013bf20     PhysXFoundation_64:PhysXFoundation_64.dll
 0003:00000f28       \177PhysXFoundation_64_NULL_THUNK_DATA_DLA 000000018013bf28     PhysXFoundation_64:PhysXFoundation_64.dll
 0003:00001cc0       ?boxVertexTable@physx@@3QBT__m128@@B 000000018013ccc0     GuConvexSupportTable.obj
 0003:00003810       __hmod__PhysXFoundation_64_dll 000000018013e810     PhysXFoundation_64:PhysXFoundation_64.dll
 0003:00003818       ?DloadKernel32@@3PEAUHINSTANCE__@@EA 000000018013e818     Delayimp:delayhlp.obj
 0003:00003820       ?DloadAcquireSRWLockExclusive@@3P6AXPEA_K@ZEA 000000018013e820     Delayimp:delayhlp.obj
 0003:00003828       ?DloadReleaseSRWLockExclusive@@3P6AXPEA_K@ZEA 000000018013e828     Delayimp:delayhlp.obj
 0003:00003830       ?DloadSrwLock@@3_KA        000000018013e830     Delayimp:delayhlp.obj
 0003:00003838       ?DloadSectionLockCount@@3KA 000000018013e838     Delayimp:delayhlp.obj
 0003:0000383c       ?DloadSectionOldProtection@@3KA 000000018013e83c     Delayimp:delayhlp.obj
 0003:00003840       ?DloadSectionCommitPermanent@@3KA 000000018013e840     Delayimp:delayhlp.obj
 0003:00003850       ?__type_info_root_node@@3U__type_info_node@@A 000000018013e850     MSVCRT:tncleanup.obj
 0003:00003864       __favor                    000000018013e864     MSVCRT:cpu_disp.obj
 0003:00003868       ?_OptionsStorage@?1??__local_stdio_printf_options@@9@4_KA 000000018013e868     MSVCRT:default_local_stdio_options.obj
 0003:00003870       ?_OptionsStorage@?1??__local_stdio_scanf_options@@9@4_KA 000000018013e870     MSVCRT:default_local_stdio_options.obj
 0003:00003878       __scrt_current_native_startup_state 000000018013e878     MSVCRT:utility.obj
 0003:00003880       __scrt_native_startup_lock 000000018013e880     MSVCRT:utility.obj
 0003:000038c0       __scrt_debugger_hook_flag  000000018013e8c0     MSVCRT:utility_desktop.obj
 0003:000038c8       __dyn_tls_init_callback    000000018013e8c8     <common>
 0005:00000100       __common_ssin_reduction_data 0000000180145100     MSVCRT:svml_s_sin_data.obj
 0005:00000d00       __common_ssin_data         0000000180145d00     MSVCRT:svml_s_sin_data.obj

 entry point at        0001:0011af38

 Static symbols

 0000:ffeb5000       .debug$S                   0000000180000000     PhysXCommon_64.exp
 0000:ffeb5000       .debug$S                   0000000180000000     ucrt:api-ms-win-crt-heap-l1-1-0.dll
 0000:ffeb5000       .debug$S                   0000000180000000     ucrt:api-ms-win-crt-math-l1-1-0.dll
 0000:ffeb5000       .debug$S                   0000000180000000     ucrt:api-ms-win-crt-math-l1-1-0.dll
 0000:ffeb5000       .debug$S                   0000000180000000     ucrt:api-ms-win-crt-math-l1-1-0.dll
 0000:ffeb5000       .debug$S                   0000000180000000     ucrt:api-ms-win-crt-math-l1-1-0.dll
 0000:ffeb5000       .debug$S                   0000000180000000     ucrt:api-ms-win-crt-math-l1-1-0.dll
 0000:ffeb5000       .debug$S                   0000000180000000     ucrt:api-ms-win-crt-runtime-l1-1-0.dll
 0000:ffeb5000       .debug$S                   0000000180000000     ucrt:api-ms-win-crt-runtime-l1-1-0.dll
 0000:ffeb5000       .debug$S                   0000000180000000     ucrt:api-ms-win-crt-runtime-l1-1-0.dll
 0000:ffeb5000       .debug$S                   0000000180000000     ucrt:api-ms-win-crt-runtime-l1-1-0.dll
 0000:ffeb5000       .debug$S                   0000000180000000     ucrt:api-ms-win-crt-runtime-l1-1-0.dll
 0000:ffeb5000       .debug$S                   0000000180000000     ucrt:api-ms-win-crt-runtime-l1-1-0.dll
 0000:ffeb5000       .debug$S                   0000000180000000     ucrt:api-ms-win-crt-runtime-l1-1-0.dll
 0000:ffeb5000       .debug$S                   0000000180000000     ucrt:api-ms-win-crt-runtime-l1-1-0.dll
 0000:ffeb5000       .debug$S                   0000000180000000     ucrt:api-ms-win-crt-runtime-l1-1-0.dll
 0000:ffeb5000       .debug$S                   0000000180000000     ucrt:api-ms-win-crt-runtime-l1-1-0.dll
 0000:ffeb5000       .debug$S                   0000000180000000     ucrt:api-ms-win-crt-runtime-l1-1-0.dll
 0000:ffeb5000       .debug$S                   0000000180000000     ucrt:api-ms-win-crt-runtime-l1-1-0.dll
 0000:ffeb5000       .debug$S                   0000000180000000     ucrt:api-ms-win-crt-string-l1-1-0.dll
 0000:ffeb5000       .debug$S                   0000000180000000     kernel32:KERNEL32.dll
 0000:ffeb5000       .debug$S                   0000000180000000     kernel32:KERNEL32.dll
 0000:ffeb5000       .debug$S                   0000000180000000     kernel32:KERNEL32.dll
 0000:ffeb5000       .debug$S                   0000000180000000     kernel32:KERNEL32.dll
 0000:ffeb5000       .debug$S                   0000000180000000     kernel32:KERNEL32.dll
 0000:ffeb5000       .debug$S                   0000000180000000     kernel32:KERNEL32.dll
 0000:ffeb5000       .debug$S                   0000000180000000     kernel32:KERNEL32.dll
 0000:ffeb5000       .debug$S                   0000000180000000     kernel32:KERNEL32.dll
 0000:ffeb5000       .debug$S                   0000000180000000     kernel32:KERNEL32.dll
 0000:ffeb5000       .debug$S                   0000000180000000     kernel32:KERNEL32.dll
 0000:ffeb5000       .debug$S                   0000000180000000     kernel32:KERNEL32.dll
 0000:ffeb5000       .debug$S                   0000000180000000     kernel32:KERNEL32.dll
 0000:ffeb5000       .debug$S                   0000000180000000     kernel32:KERNEL32.dll
 0000:ffeb5000       .debug$S                   0000000180000000     kernel32:KERNEL32.dll
 0000:ffeb5000       .debug$S                   0000000180000000     kernel32:KERNEL32.dll
 0000:ffeb5000       .debug$S                   0000000180000000     kernel32:KERNEL32.dll
 0000:ffeb5000       .debug$S                   0000000180000000     kernel32:KERNEL32.dll
 0000:ffeb5000       .debug$S                   0000000180000000     kernel32:KERNEL32.dll
 0000:ffeb5000       .debug$S                   0000000180000000     kernel32:KERNEL32.dll
 0000:ffeb5000       .debug$S                   0000000180000000     kernel32:KERNEL32.dll
 0000:ffeb5000       .debug$S                   0000000180000000     kernel32:KERNEL32.dll
 0000:ffeb5000       .debug$S                   0000000180000000     kernel32:KERNEL32.dll
 0000:ffeb5000       .debug$S                   0000000180000000     kernel32:KERNEL32.dll
 0000:ffeb5000       .debug$S                   0000000180000000     kernel32:KERNEL32.dll
 0000:ffeb5000       .debug$S                   0000000180000000     vcruntime:VCRUNTIME140.dll
 0000:ffeb5000       .debug$S                   0000000180000000     vcruntime:VCRUNTIME140.dll
 0000:ffeb5000       .debug$S                   0000000180000000     vcruntime:VCRUNTIME140.dll
 0000:ffeb5000       .debug$S                   0000000180000000     vcruntime:VCRUNTIME140.dll
 0000:ffeb5000       .debug$S                   0000000180000000     vcruntime:VCRUNTIME140.dll
 0000:ffeb5000       .debug$S                   0000000180000000     vcruntime:VCRUNTIME140.dll
 0000:ffeb5000       .debug$S                   0000000180000000     vcruntime:VCRUNTIME140.dll
 0000:ffeb5000       .debug$S                   0000000180000000     vcruntime:VCRUNTIME140.dll
 0000:ffeb5000       .debug$S                   0000000180000000     vcruntime:VCRUNTIME140.dll
 0000:ffeb5000       .debug$S                   0000000180000000     PhysXFoundation_64:PhysXFoundation_64.dll
 0000:ffeb5000       .debug$S                   0000000180000000     PhysXFoundation_64:PhysXFoundation_64.dll
 0000:ffeb5000       .debug$S                   0000000180000000     PhysXFoundation_64:PhysXFoundation_64.dll
 0000:ffeb5000       .debug$S                   0000000180000000     PhysXFoundation_64:PhysXFoundation_64.dll
 0000:ffeb5000       .debug$S                   0000000180000000     PhysXFoundation_64:PhysXFoundation_64.dll
 0000:ffeb5000       .debug$S                   0000000180000000     PhysXFoundation_64:PhysXFoundation_64.dll
 0000:ffeb5000       .debug$S                   0000000180000000     PhysXFoundation_64:PhysXFoundation_64.dll
 0000:ffeb5000       .debug$S                   0000000180000000     PhysXFoundation_64:PhysXFoundation_64.dll
 0000:ffeb5000       .debug$S                   0000000180000000     PhysXFoundation_64:PhysXFoundation_64.dll
 0000:ffeb5000       .debug$S                   0000000180000000     PhysXFoundation_64:PhysXFoundation_64.dll
 0000:ffeb5000       .debug$S                   0000000180000000     PhysXFoundation_64:PhysXFoundation_64.dll
 0000:ffeb5000       .debug$S                   0000000180000000     PhysXFoundation_64:PhysXFoundation_64.dll
 0000:ffeb5000       .debug$S                   0000000180000000     PhysXFoundation_64:PhysXFoundation_64.dll
 0000:ffeb5000       .debug$S                   0000000180000000     PhysXFoundation_64:PhysXFoundation_64.dll
 0000:ffeb5000       .debug$S                   0000000180000000     PhysXFoundation_64:PhysXFoundation_64.dll
 0000:ffeb5000       .debug$S                   0000000180000000     PhysXFoundation_64:PhysXFoundation_64.dll
 0000:ffeb5000       .debug$S                   0000000180000000     PhysXFoundation_64:PhysXFoundation_64.dll
 0000:ffeb5000       .debug$S                   0000000180000000     PhysXFoundation_64:PhysXFoundation_64.dll
 0000:ffeb5000       .debug$S                   0000000180000000     PhysXFoundation_64:PhysXFoundation_64.dll
 0000:ffeb5000       .debug$S                   0000000180000000     PhysXFoundation_64:PhysXFoundation_64.dll
 0000:ffeb5000       .debug$S                   0000000180000000     PhysXFoundation_64:PhysXFoundation_64.dll
 0000:ffeb5000       .debug$S                   0000000180000000     PhysXFoundation_64:PhysXFoundation_64.dll
 0001:00000000       ??__EmaxFError@_VecMathTests@aos@shdfnd@physx@@YAXXZ 0000000180001000 f   GuBounds.obj
 0001:00000010       ??__EmaxV3Error@_VecMathTests@aos@shdfnd@physx@@YAXXZ 0000000180001010 f   GuBounds.obj
 0001:00000020       ??__EmaxV4Error@_VecMathTests@aos@shdfnd@physx@@YAXXZ 0000000180001020 f   GuBounds.obj
 0001:00000030       ??__EminFError@_VecMathTests@aos@shdfnd@physx@@YAXXZ 0000000180001030 f   GuBounds.obj
 0001:00000040       ??__EminV3Error@_VecMathTests@aos@shdfnd@physx@@YAXXZ 0000000180001040 f   GuBounds.obj
 0001:00000050       ??__EminV4Error@_VecMathTests@aos@shdfnd@physx@@YAXXZ 0000000180001050 f   GuBounds.obj
 0001:00000060       ??__EmaxFError@_VecMathTests@aos@shdfnd@physx@@YAXXZ 0000000180001060 f   GuBox.obj
 0001:00000070       ??__EmaxV3Error@_VecMathTests@aos@shdfnd@physx@@YAXXZ 0000000180001070 f   GuBox.obj
 0001:00000080       ??__EmaxV4Error@_VecMathTests@aos@shdfnd@physx@@YAXXZ 0000000180001080 f   GuBox.obj
 0001:00000090       ??__EminFError@_VecMathTests@aos@shdfnd@physx@@YAXXZ 0000000180001090 f   GuBox.obj
 0001:000000a0       ??__EminV3Error@_VecMathTests@aos@shdfnd@physx@@YAXXZ 00000001800010a0 f   GuBox.obj
 0001:000000b0       ??__EminV4Error@_VecMathTests@aos@shdfnd@physx@@YAXXZ 00000001800010b0 f   GuBox.obj
 0001:000000c0       ??__EmaxFError@_VecMathTests@aos@shdfnd@physx@@YAXXZ 00000001800010c0 f   GuCCTSweepTests.obj
 0001:000000d0       ??__EmaxV3Error@_VecMathTests@aos@shdfnd@physx@@YAXXZ 00000001800010d0 f   GuCCTSweepTests.obj
 0001:000000e0       ??__EmaxV4Error@_VecMathTests@aos@shdfnd@physx@@YAXXZ 00000001800010e0 f   GuCCTSweepTests.obj
 0001:000000f0       ??__EminFError@_VecMathTests@aos@shdfnd@physx@@YAXXZ 00000001800010f0 f   GuCCTSweepTests.obj
 0001:00000100       ??__EminV3Error@_VecMathTests@aos@shdfnd@physx@@YAXXZ 0000000180001100 f   GuCCTSweepTests.obj
 0001:00000110       ??__EminV4Error@_VecMathTests@aos@shdfnd@physx@@YAXXZ 0000000180001110 f   GuCCTSweepTests.obj
 0001:00000120       ??__EmaxFError@_VecMathTests@aos@shdfnd@physx@@YAXXZ 0000000180001120 f   GuGeometryQuery.obj
 0001:00000130       ??__EmaxV3Error@_VecMathTests@aos@shdfnd@physx@@YAXXZ 0000000180001130 f   GuGeometryQuery.obj
 0001:00000140       ??__EmaxV4Error@_VecMathTests@aos@shdfnd@physx@@YAXXZ 0000000180001140 f   GuGeometryQuery.obj
 0001:00000150       ??__EminFError@_VecMathTests@aos@shdfnd@physx@@YAXXZ 0000000180001150 f   GuGeometryQuery.obj
 0001:00000160       ??__EminV3Error@_VecMathTests@aos@shdfnd@physx@@YAXXZ 0000000180001160 f   GuGeometryQuery.obj
 0001:00000170       ??__EminV4Error@_VecMathTests@aos@shdfnd@physx@@YAXXZ 0000000180001170 f   GuGeometryQuery.obj
 0001:00000180       ??__EmaxFError@_VecMathTests@aos@shdfnd@physx@@YAXXZ 0000000180001180 f   GuGeometryUnion.obj
 0001:00000190       ??__EmaxV3Error@_VecMathTests@aos@shdfnd@physx@@YAXXZ 0000000180001190 f   GuGeometryUnion.obj
 0001:000001a0       ??__EmaxV4Error@_VecMathTests@aos@shdfnd@physx@@YAXXZ 00000001800011a0 f   GuGeometryUnion.obj
 0001:000001b0       ??__EminFError@_VecMathTests@aos@shdfnd@physx@@YAXXZ 00000001800011b0 f   GuGeometryUnion.obj
 0001:000001c0       ??__EminV3Error@_VecMathTests@aos@shdfnd@physx@@YAXXZ 00000001800011c0 f   GuGeometryUnion.obj
 0001:000001d0       ??__EminV4Error@_VecMathTests@aos@shdfnd@physx@@YAXXZ 00000001800011d0 f   GuGeometryUnion.obj
 0001:000001e0       ??__EmaxFError@_VecMathTests@aos@shdfnd@physx@@YAXXZ 00000001800011e0 f   GuInternal.obj
 0001:000001f0       ??__EmaxV3Error@_VecMathTests@aos@shdfnd@physx@@YAXXZ 00000001800011f0 f   GuInternal.obj
 0001:00000200       ??__EmaxV4Error@_VecMathTests@aos@shdfnd@physx@@YAXXZ 0000000180001200 f   GuInternal.obj
 0001:00000210       ??__EminFError@_VecMathTests@aos@shdfnd@physx@@YAXXZ 0000000180001210 f   GuInternal.obj
 0001:00000220       ??__EminV3Error@_VecMathTests@aos@shdfnd@physx@@YAXXZ 0000000180001220 f   GuInternal.obj
 0001:00000230       ??__EminV4Error@_VecMathTests@aos@shdfnd@physx@@YAXXZ 0000000180001230 f   GuInternal.obj
 0001:00000240       ??__EmaxFError@_VecMathTests@aos@shdfnd@physx@@YAXXZ 0000000180001240 f   GuMeshFactory.obj
 0001:00000250       ??__EmaxV3Error@_VecMathTests@aos@shdfnd@physx@@YAXXZ 0000000180001250 f   GuMeshFactory.obj
 0001:00000260       ??__EmaxV4Error@_VecMathTests@aos@shdfnd@physx@@YAXXZ 0000000180001260 f   GuMeshFactory.obj
 0001:00000270       ??__EminFError@_VecMathTests@aos@shdfnd@physx@@YAXXZ 0000000180001270 f   GuMeshFactory.obj
 0001:00000280       ??__EminV3Error@_VecMathTests@aos@shdfnd@physx@@YAXXZ 0000000180001280 f   GuMeshFactory.obj
 0001:00000290       ??__EminV4Error@_VecMathTests@aos@shdfnd@physx@@YAXXZ 0000000180001290 f   GuMeshFactory.obj
 0001:000002a0       ??__EmaxFError@_VecMathTests@aos@shdfnd@physx@@YAXXZ 00000001800012a0 f   GuMetaData.obj
 0001:000002b0       ??__EmaxV3Error@_VecMathTests@aos@shdfnd@physx@@YAXXZ 00000001800012b0 f   GuMetaData.obj
 0001:000002c0       ??__EmaxV4Error@_VecMathTests@aos@shdfnd@physx@@YAXXZ 00000001800012c0 f   GuMetaData.obj
 0001:000002d0       ??__EminFError@_VecMathTests@aos@shdfnd@physx@@YAXXZ 00000001800012d0 f   GuMetaData.obj
 0001:000002e0       ??__EminV3Error@_VecMathTests@aos@shdfnd@physx@@YAXXZ 00000001800012e0 f   GuMetaData.obj
 0001:000002f0       ??__EminV4Error@_VecMathTests@aos@shdfnd@physx@@YAXXZ 00000001800012f0 f   GuMetaData.obj
 0001:00000300       ??__EmaxFError@_VecMathTests@aos@shdfnd@physx@@YAXXZ 0000000180001300 f   GuMTD.obj
 0001:00000310       ??__EmaxV3Error@_VecMathTests@aos@shdfnd@physx@@YAXXZ 0000000180001310 f   GuMTD.obj
 0001:00000320       ??__EmaxV4Error@_VecMathTests@aos@shdfnd@physx@@YAXXZ 0000000180001320 f   GuMTD.obj
 0001:00000330       ??__EminFError@_VecMathTests@aos@shdfnd@physx@@YAXXZ 0000000180001330 f   GuMTD.obj
 0001:00000340       ??__EminV3Error@_VecMathTests@aos@shdfnd@physx@@YAXXZ 0000000180001340 f   GuMTD.obj
 0001:00000350       ??__EminV4Error@_VecMathTests@aos@shdfnd@physx@@YAXXZ 0000000180001350 f   GuMTD.obj
 0001:00000360       ??__EmaxFError@_VecMathTests@aos@shdfnd@physx@@YAXXZ 0000000180001360 f   GuOverlapTests.obj
 0001:00000370       ??__EmaxV3Error@_VecMathTests@aos@shdfnd@physx@@YAXXZ 0000000180001370 f   GuOverlapTests.obj
 0001:00000380       ??__EmaxV4Error@_VecMathTests@aos@shdfnd@physx@@YAXXZ 0000000180001380 f   GuOverlapTests.obj
 0001:00000390       ??__EminFError@_VecMathTests@aos@shdfnd@physx@@YAXXZ 0000000180001390 f   GuOverlapTests.obj
 0001:000003a0       ??__EminV3Error@_VecMathTests@aos@shdfnd@physx@@YAXXZ 00000001800013a0 f   GuOverlapTests.obj
 0001:000003b0       ??__EminV4Error@_VecMathTests@aos@shdfnd@physx@@YAXXZ 00000001800013b0 f   GuOverlapTests.obj
 0001:000003c0       ??__EmaxFError@_VecMathTests@aos@shdfnd@physx@@YAXXZ 00000001800013c0 f   GuRaycastTests.obj
 0001:000003d0       ??__EmaxV3Error@_VecMathTests@aos@shdfnd@physx@@YAXXZ 00000001800013d0 f   GuRaycastTests.obj
 0001:000003e0       ??__EmaxV4Error@_VecMathTests@aos@shdfnd@physx@@YAXXZ 00000001800013e0 f   GuRaycastTests.obj
 0001:000003f0       ??__EminFError@_VecMathTests@aos@shdfnd@physx@@YAXXZ 00000001800013f0 f   GuRaycastTests.obj
 0001:00000400       ??__EminV3Error@_VecMathTests@aos@shdfnd@physx@@YAXXZ 0000000180001400 f   GuRaycastTests.obj
 0001:00000410       ??__EminV4Error@_VecMathTests@aos@shdfnd@physx@@YAXXZ 0000000180001410 f   GuRaycastTests.obj
 0001:00000420       ??__EmaxFError@_VecMathTests@aos@shdfnd@physx@@YAXXZ 0000000180001420 f   GuSweepMTD.obj
 0001:00000430       ??__EmaxV3Error@_VecMathTests@aos@shdfnd@physx@@YAXXZ 0000000180001430 f   GuSweepMTD.obj
 0001:00000440       ??__EmaxV4Error@_VecMathTests@aos@shdfnd@physx@@YAXXZ 0000000180001440 f   GuSweepMTD.obj
 0001:00000450       ??__EminFError@_VecMathTests@aos@shdfnd@physx@@YAXXZ 0000000180001450 f   GuSweepMTD.obj
 0001:00000460       ??__EminV3Error@_VecMathTests@aos@shdfnd@physx@@YAXXZ 0000000180001460 f   GuSweepMTD.obj
 0001:00000470       ??__EminV4Error@_VecMathTests@aos@shdfnd@physx@@YAXXZ 0000000180001470 f   GuSweepMTD.obj
 0001:00000480       ??__EmaxFError@_VecMathTests@aos@shdfnd@physx@@YAXXZ 0000000180001480 f   GuSweepSharedTests.obj
 0001:00000490       ??__EmaxV3Error@_VecMathTests@aos@shdfnd@physx@@YAXXZ 0000000180001490 f   GuSweepSharedTests.obj
 0001:000004a0       ??__EmaxV4Error@_VecMathTests@aos@shdfnd@physx@@YAXXZ 00000001800014a0 f   GuSweepSharedTests.obj
 0001:000004b0       ??__EminFError@_VecMathTests@aos@shdfnd@physx@@YAXXZ 00000001800014b0 f   GuSweepSharedTests.obj
 0001:000004c0       ??__EminV3Error@_VecMathTests@aos@shdfnd@physx@@YAXXZ 00000001800014c0 f   GuSweepSharedTests.obj
 0001:000004d0       ??__EminV4Error@_VecMathTests@aos@shdfnd@physx@@YAXXZ 00000001800014d0 f   GuSweepSharedTests.obj
 0001:000004e0       ??__EmaxFError@_VecMathTests@aos@shdfnd@physx@@YAXXZ 00000001800014e0 f   GuSweepTests.obj
 0001:000004f0       ??__EmaxV3Error@_VecMathTests@aos@shdfnd@physx@@YAXXZ 00000001800014f0 f   GuSweepTests.obj
 0001:00000500       ??__EmaxV4Error@_VecMathTests@aos@shdfnd@physx@@YAXXZ 0000000180001500 f   GuSweepTests.obj
 0001:00000510       ??__EminFError@_VecMathTests@aos@shdfnd@physx@@YAXXZ 0000000180001510 f   GuSweepTests.obj
 0001:00000520       ??__EminV3Error@_VecMathTests@aos@shdfnd@physx@@YAXXZ 0000000180001520 f   GuSweepTests.obj
 0001:00000530       ??__EminV4Error@_VecMathTests@aos@shdfnd@physx@@YAXXZ 0000000180001530 f   GuSweepTests.obj
 0001:00000540       ??__EmaxFError@_VecMathTests@aos@shdfnd@physx@@YAXXZ 0000000180001540 f   GuAABBTreeBuild.obj
 0001:00000550       ??__EmaxV3Error@_VecMathTests@aos@shdfnd@physx@@YAXXZ 0000000180001550 f   GuAABBTreeBuild.obj
 0001:00000560       ??__EmaxV4Error@_VecMathTests@aos@shdfnd@physx@@YAXXZ 0000000180001560 f   GuAABBTreeBuild.obj
 0001:00000570       ??__EminFError@_VecMathTests@aos@shdfnd@physx@@YAXXZ 0000000180001570 f   GuAABBTreeBuild.obj
 0001:00000580       ??__EminV3Error@_VecMathTests@aos@shdfnd@physx@@YAXXZ 0000000180001580 f   GuAABBTreeBuild.obj
 0001:00000590       ??__EminV4Error@_VecMathTests@aos@shdfnd@physx@@YAXXZ 0000000180001590 f   GuAABBTreeBuild.obj
 0001:000005a0       ??__EmaxFError@_VecMathTests@aos@shdfnd@physx@@YAXXZ 00000001800015a0 f   GuBVHStructure.obj
 0001:000005b0       ??__EmaxV3Error@_VecMathTests@aos@shdfnd@physx@@YAXXZ 00000001800015b0 f   GuBVHStructure.obj
 0001:000005c0       ??__EmaxV4Error@_VecMathTests@aos@shdfnd@physx@@YAXXZ 00000001800015c0 f   GuBVHStructure.obj
 0001:000005d0       ??__EminFError@_VecMathTests@aos@shdfnd@physx@@YAXXZ 00000001800015d0 f   GuBVHStructure.obj
 0001:000005e0       ??__EminV3Error@_VecMathTests@aos@shdfnd@physx@@YAXXZ 00000001800015e0 f   GuBVHStructure.obj
 0001:000005f0       ??__EminV4Error@_VecMathTests@aos@shdfnd@physx@@YAXXZ 00000001800015f0 f   GuBVHStructure.obj
 0001:00000600       ??__EmaxFError@_VecMathTests@aos@shdfnd@physx@@YAXXZ 0000000180001600 f   GuCCDSweepConvexMesh.obj
 0001:00000610       ??__EmaxV3Error@_VecMathTests@aos@shdfnd@physx@@YAXXZ 0000000180001610 f   GuCCDSweepConvexMesh.obj
 0001:00000620       ??__EmaxV4Error@_VecMathTests@aos@shdfnd@physx@@YAXXZ 0000000180001620 f   GuCCDSweepConvexMesh.obj
 0001:00000630       ??__EminFError@_VecMathTests@aos@shdfnd@physx@@YAXXZ 0000000180001630 f   GuCCDSweepConvexMesh.obj
 0001:00000640       ??__EminV3Error@_VecMathTests@aos@shdfnd@physx@@YAXXZ 0000000180001640 f   GuCCDSweepConvexMesh.obj
 0001:00000650       ??__EminV4Error@_VecMathTests@aos@shdfnd@physx@@YAXXZ 0000000180001650 f   GuCCDSweepConvexMesh.obj
 0001:00000660       ??__EmaxFError@_VecMathTests@aos@shdfnd@physx@@YAXXZ 0000000180001660 f   GuCCDSweepPrimitives.obj
 0001:00000670       ??__EmaxV3Error@_VecMathTests@aos@shdfnd@physx@@YAXXZ 0000000180001670 f   GuCCDSweepPrimitives.obj
 0001:00000680       ??__EmaxV4Error@_VecMathTests@aos@shdfnd@physx@@YAXXZ 0000000180001680 f   GuCCDSweepPrimitives.obj
 0001:00000690       ??__EminFError@_VecMathTests@aos@shdfnd@physx@@YAXXZ 0000000180001690 f   GuCCDSweepPrimitives.obj
 0001:000006a0       ??__EminV3Error@_VecMathTests@aos@shdfnd@physx@@YAXXZ 00000001800016a0 f   GuCCDSweepPrimitives.obj
 0001:000006b0       ??__EminV4Error@_VecMathTests@aos@shdfnd@physx@@YAXXZ 00000001800016b0 f   GuCCDSweepPrimitives.obj
 0001:000006c0       ??__EmaxFError@_VecMathTests@aos@shdfnd@physx@@YAXXZ 00000001800016c0 f   GuBarycentricCoordinates.obj
 0001:000006d0       ??__EmaxV3Error@_VecMathTests@aos@shdfnd@physx@@YAXXZ 00000001800016d0 f   GuBarycentricCoordinates.obj
 0001:000006e0       ??__EmaxV4Error@_VecMathTests@aos@shdfnd@physx@@YAXXZ 00000001800016e0 f   GuBarycentricCoordinates.obj
 0001:000006f0       ??__EminFError@_VecMathTests@aos@shdfnd@physx@@YAXXZ 00000001800016f0 f   GuBarycentricCoordinates.obj
 0001:00000700       ??__EminV3Error@_VecMathTests@aos@shdfnd@physx@@YAXXZ 0000000180001700 f   GuBarycentricCoordinates.obj
 0001:00000710       ??__EminV4Error@_VecMathTests@aos@shdfnd@physx@@YAXXZ 0000000180001710 f   GuBarycentricCoordinates.obj
 0001:00000720       ??__EmaxFError@_VecMathTests@aos@shdfnd@physx@@YAXXZ 0000000180001720 f   GuContactBoxBox.obj
 0001:00000730       ??__EmaxV3Error@_VecMathTests@aos@shdfnd@physx@@YAXXZ 0000000180001730 f   GuContactBoxBox.obj
 0001:00000740       ??__EmaxV4Error@_VecMathTests@aos@shdfnd@physx@@YAXXZ 0000000180001740 f   GuContactBoxBox.obj
 0001:00000750       ??__EminFError@_VecMathTests@aos@shdfnd@physx@@YAXXZ 0000000180001750 f   GuContactBoxBox.obj
 0001:00000760       ??__EminV3Error@_VecMathTests@aos@shdfnd@physx@@YAXXZ 0000000180001760 f   GuContactBoxBox.obj
 0001:00000770       ??__EminV4Error@_VecMathTests@aos@shdfnd@physx@@YAXXZ 0000000180001770 f   GuContactBoxBox.obj
 0001:00000780       ??__EmaxFError@_VecMathTests@aos@shdfnd@physx@@YAXXZ 0000000180001780 f   GuContactCapsuleBox.obj
 0001:00000790       ??__EmaxV3Error@_VecMathTests@aos@shdfnd@physx@@YAXXZ 0000000180001790 f   GuContactCapsuleBox.obj
 0001:000007a0       ??__EmaxV4Error@_VecMathTests@aos@shdfnd@physx@@YAXXZ 00000001800017a0 f   GuContactCapsuleBox.obj
 0001:000007b0       ??__EminFError@_VecMathTests@aos@shdfnd@physx@@YAXXZ 00000001800017b0 f   GuContactCapsuleBox.obj
 0001:000007c0       ??__EminV3Error@_VecMathTests@aos@shdfnd@physx@@YAXXZ 00000001800017c0 f   GuContactCapsuleBox.obj
 0001:000007d0       ??__EminV4Error@_VecMathTests@aos@shdfnd@physx@@YAXXZ 00000001800017d0 f   GuContactCapsuleBox.obj
 0001:000007e0       ??__EmaxFError@_VecMathTests@aos@shdfnd@physx@@YAXXZ 00000001800017e0 f   GuContactCapsuleCapsule.obj
 0001:000007f0       ??__EmaxV3Error@_VecMathTests@aos@shdfnd@physx@@YAXXZ 00000001800017f0 f   GuContactCapsuleCapsule.obj
 0001:00000800       ??__EmaxV4Error@_VecMathTests@aos@shdfnd@physx@@YAXXZ 0000000180001800 f   GuContactCapsuleCapsule.obj
 0001:00000810       ??__EminFError@_VecMathTests@aos@shdfnd@physx@@YAXXZ 0000000180001810 f   GuContactCapsuleCapsule.obj
 0001:00000820       ??__EminV3Error@_VecMathTests@aos@shdfnd@physx@@YAXXZ 0000000180001820 f   GuContactCapsuleCapsule.obj
 0001:00000830       ??__EminV4Error@_VecMathTests@aos@shdfnd@physx@@YAXXZ 0000000180001830 f   GuContactCapsuleCapsule.obj
 0001:00000840       ??__EmaxFError@_VecMathTests@aos@shdfnd@physx@@YAXXZ 0000000180001840 f   GuContactCapsuleConvex.obj
 0001:00000850       ??__EmaxV3Error@_VecMathTests@aos@shdfnd@physx@@YAXXZ 0000000180001850 f   GuContactCapsuleConvex.obj
 0001:00000860       ??__EmaxV4Error@_VecMathTests@aos@shdfnd@physx@@YAXXZ 0000000180001860 f   GuContactCapsuleConvex.obj
 0001:00000870       ??__EminFError@_VecMathTests@aos@shdfnd@physx@@YAXXZ 0000000180001870 f   GuContactCapsuleConvex.obj
 0001:00000880       ??__EminV3Error@_VecMathTests@aos@shdfnd@physx@@YAXXZ 0000000180001880 f   GuContactCapsuleConvex.obj
 0001:00000890       ??__EminV4Error@_VecMathTests@aos@shdfnd@physx@@YAXXZ 0000000180001890 f   GuContactCapsuleConvex.obj
 0001:000008a0       ??__EmaxFError@_VecMathTests@aos@shdfnd@physx@@YAXXZ 00000001800018a0 f   GuContactCapsuleMesh.obj
 0001:000008b0       ??__EmaxV3Error@_VecMathTests@aos@shdfnd@physx@@YAXXZ 00000001800018b0 f   GuContactCapsuleMesh.obj
 0001:000008c0       ??__EmaxV4Error@_VecMathTests@aos@shdfnd@physx@@YAXXZ 00000001800018c0 f   GuContactCapsuleMesh.obj
 0001:000008d0       ??__EminFError@_VecMathTests@aos@shdfnd@physx@@YAXXZ 00000001800018d0 f   GuContactCapsuleMesh.obj
 0001:000008e0       ??__EminV3Error@_VecMathTests@aos@shdfnd@physx@@YAXXZ 00000001800018e0 f   GuContactCapsuleMesh.obj
 0001:000008f0       ??__EminV4Error@_VecMathTests@aos@shdfnd@physx@@YAXXZ 00000001800018f0 f   GuContactCapsuleMesh.obj
 0001:00000900       ??__EmaxFError@_VecMathTests@aos@shdfnd@physx@@YAXXZ 0000000180001900 f   GuContactConvexConvex.obj
 0001:00000910       ??__EmaxV3Error@_VecMathTests@aos@shdfnd@physx@@YAXXZ 0000000180001910 f   GuContactConvexConvex.obj
 0001:00000920       ??__EmaxV4Error@_VecMathTests@aos@shdfnd@physx@@YAXXZ 0000000180001920 f   GuContactConvexConvex.obj
 0001:00000930       ??__EminFError@_VecMathTests@aos@shdfnd@physx@@YAXXZ 0000000180001930 f   GuContactConvexConvex.obj
 0001:00000940       ??__EminV3Error@_VecMathTests@aos@shdfnd@physx@@YAXXZ 0000000180001940 f   GuContactConvexConvex.obj
 0001:00000950       ??__EminV4Error@_VecMathTests@aos@shdfnd@physx@@YAXXZ 0000000180001950 f   GuContactConvexConvex.obj
 0001:00000960       ??__EmaxFError@_VecMathTests@aos@shdfnd@physx@@YAXXZ 0000000180001960 f   GuContactConvexMesh.obj
 0001:00000970       ??__EmaxV3Error@_VecMathTests@aos@shdfnd@physx@@YAXXZ 0000000180001970 f   GuContactConvexMesh.obj
 0001:00000980       ??__EmaxV4Error@_VecMathTests@aos@shdfnd@physx@@YAXXZ 0000000180001980 f   GuContactConvexMesh.obj
 0001:00000990       ??__EminFError@_VecMathTests@aos@shdfnd@physx@@YAXXZ 0000000180001990 f   GuContactConvexMesh.obj
 0001:000009a0       ??__EminV3Error@_VecMathTests@aos@shdfnd@physx@@YAXXZ 00000001800019a0 f   GuContactConvexMesh.obj
 0001:000009b0       ??__EminV4Error@_VecMathTests@aos@shdfnd@physx@@YAXXZ 00000001800019b0 f   GuContactConvexMesh.obj
 0001:000009c0       ??__EmaxFError@_VecMathTests@aos@shdfnd@physx@@YAXXZ 00000001800019c0 f   GuContactPlaneBox.obj
 0001:000009d0       ??__EmaxV3Error@_VecMathTests@aos@shdfnd@physx@@YAXXZ 00000001800019d0 f   GuContactPlaneBox.obj
 0001:000009e0       ??__EmaxV4Error@_VecMathTests@aos@shdfnd@physx@@YAXXZ 00000001800019e0 f   GuContactPlaneBox.obj
 0001:000009f0       ??__EminFError@_VecMathTests@aos@shdfnd@physx@@YAXXZ 00000001800019f0 f   GuContactPlaneBox.obj
 0001:00000a00       ??__EminV3Error@_VecMathTests@aos@shdfnd@physx@@YAXXZ 0000000180001a00 f   GuContactPlaneBox.obj
 0001:00000a10       ??__EminV4Error@_VecMathTests@aos@shdfnd@physx@@YAXXZ 0000000180001a10 f   GuContactPlaneBox.obj
 0001:00000a20       ??__EmaxFError@_VecMathTests@aos@shdfnd@physx@@YAXXZ 0000000180001a20 f   GuContactPlaneCapsule.obj
 0001:00000a30       ??__EmaxV3Error@_VecMathTests@aos@shdfnd@physx@@YAXXZ 0000000180001a30 f   GuContactPlaneCapsule.obj
 0001:00000a40       ??__EmaxV4Error@_VecMathTests@aos@shdfnd@physx@@YAXXZ 0000000180001a40 f   GuContactPlaneCapsule.obj
 0001:00000a50       ??__EminFError@_VecMathTests@aos@shdfnd@physx@@YAXXZ 0000000180001a50 f   GuContactPlaneCapsule.obj
 0001:00000a60       ??__EminV3Error@_VecMathTests@aos@shdfnd@physx@@YAXXZ 0000000180001a60 f   GuContactPlaneCapsule.obj
 0001:00000a70       ??__EminV4Error@_VecMathTests@aos@shdfnd@physx@@YAXXZ 0000000180001a70 f   GuContactPlaneCapsule.obj
 0001:00000a80       ??__EmaxFError@_VecMathTests@aos@shdfnd@physx@@YAXXZ 0000000180001a80 f   GuContactPlaneConvex.obj
 0001:00000a90       ??__EmaxV3Error@_VecMathTests@aos@shdfnd@physx@@YAXXZ 0000000180001a90 f   GuContactPlaneConvex.obj
 0001:00000aa0       ??__EmaxV4Error@_VecMathTests@aos@shdfnd@physx@@YAXXZ 0000000180001aa0 f   GuContactPlaneConvex.obj
 0001:00000ab0       ??__EminFError@_VecMathTests@aos@shdfnd@physx@@YAXXZ 0000000180001ab0 f   GuContactPlaneConvex.obj
 0001:00000ac0       ??__EminV3Error@_VecMathTests@aos@shdfnd@physx@@YAXXZ 0000000180001ac0 f   GuContactPlaneConvex.obj
 0001:00000ad0       ??__EminV4Error@_VecMathTests@aos@shdfnd@physx@@YAXXZ 0000000180001ad0 f   GuContactPlaneConvex.obj
 0001:00000ae0       ??__EmaxFError@_VecMathTests@aos@shdfnd@physx@@YAXXZ 0000000180001ae0 f   GuContactSphereBox.obj
 0001:00000af0       ??__EmaxV3Error@_VecMathTests@aos@shdfnd@physx@@YAXXZ 0000000180001af0 f   GuContactSphereBox.obj
 0001:00000b00       ??__EmaxV4Error@_VecMathTests@aos@shdfnd@physx@@YAXXZ 0000000180001b00 f   GuContactSphereBox.obj
 0001:00000b10       ??__EminFError@_VecMathTests@aos@shdfnd@physx@@YAXXZ 0000000180001b10 f   GuContactSphereBox.obj
 0001:00000b20       ??__EminV3Error@_VecMathTests@aos@shdfnd@physx@@YAXXZ 0000000180001b20 f   GuContactSphereBox.obj
 0001:00000b30       ??__EminV4Error@_VecMathTests@aos@shdfnd@physx@@YAXXZ 0000000180001b30 f   GuContactSphereBox.obj
 0001:00000b40       ??__EmaxFError@_VecMathTests@aos@shdfnd@physx@@YAXXZ 0000000180001b40 f   GuContactSphereCapsule.obj
 0001:00000b50       ??__EmaxV3Error@_VecMathTests@aos@shdfnd@physx@@YAXXZ 0000000180001b50 f   GuContactSphereCapsule.obj
 0001:00000b60       ??__EmaxV4Error@_VecMathTests@aos@shdfnd@physx@@YAXXZ 0000000180001b60 f   GuContactSphereCapsule.obj
 0001:00000b70       ??__EminFError@_VecMathTests@aos@shdfnd@physx@@YAXXZ 0000000180001b70 f   GuContactSphereCapsule.obj
 0001:00000b80       ??__EminV3Error@_VecMathTests@aos@shdfnd@physx@@YAXXZ 0000000180001b80 f   GuContactSphereCapsule.obj
 0001:00000b90       ??__EminV4Error@_VecMathTests@aos@shdfnd@physx@@YAXXZ 0000000180001b90 f   GuContactSphereCapsule.obj
 0001:00000ba0       ??__EmaxFError@_VecMathTests@aos@shdfnd@physx@@YAXXZ 0000000180001ba0 f   GuContactSphereMesh.obj
 0001:00000bb0       ??__EmaxV3Error@_VecMathTests@aos@shdfnd@physx@@YAXXZ 0000000180001bb0 f   GuContactSphereMesh.obj
 0001:00000bc0       ??__EmaxV4Error@_VecMathTests@aos@shdfnd@physx@@YAXXZ 0000000180001bc0 f   GuContactSphereMesh.obj
 0001:00000bd0       ??__EminFError@_VecMathTests@aos@shdfnd@physx@@YAXXZ 0000000180001bd0 f   GuContactSphereMesh.obj
 0001:00000be0       ??__EminV3Error@_VecMathTests@aos@shdfnd@physx@@YAXXZ 0000000180001be0 f   GuContactSphereMesh.obj
 0001:00000bf0       ??__EminV4Error@_VecMathTests@aos@shdfnd@physx@@YAXXZ 0000000180001bf0 f   GuContactSphereMesh.obj
 0001:00000c00       ??__EmaxFError@_VecMathTests@aos@shdfnd@physx@@YAXXZ 0000000180001c00 f   GuContactSpherePlane.obj
 0001:00000c10       ??__EmaxV3Error@_VecMathTests@aos@shdfnd@physx@@YAXXZ 0000000180001c10 f   GuContactSpherePlane.obj
 0001:00000c20       ??__EmaxV4Error@_VecMathTests@aos@shdfnd@physx@@YAXXZ 0000000180001c20 f   GuContactSpherePlane.obj
 0001:00000c30       ??__EminFError@_VecMathTests@aos@shdfnd@physx@@YAXXZ 0000000180001c30 f   GuContactSpherePlane.obj
 0001:00000c40       ??__EminV3Error@_VecMathTests@aos@shdfnd@physx@@YAXXZ 0000000180001c40 f   GuContactSpherePlane.obj
 0001:00000c50       ??__EminV4Error@_VecMathTests@aos@shdfnd@physx@@YAXXZ 0000000180001c50 f   GuContactSpherePlane.obj
 0001:00000c60       ??__EmaxFError@_VecMathTests@aos@shdfnd@physx@@YAXXZ 0000000180001c60 f   GuContactSphereSphere.obj
 0001:00000c70       ??__EmaxV3Error@_VecMathTests@aos@shdfnd@physx@@YAXXZ 0000000180001c70 f   GuContactSphereSphere.obj
 0001:00000c80       ??__EmaxV4Error@_VecMathTests@aos@shdfnd@physx@@YAXXZ 0000000180001c80 f   GuContactSphereSphere.obj
 0001:00000c90       ??__EminFError@_VecMathTests@aos@shdfnd@physx@@YAXXZ 0000000180001c90 f   GuContactSphereSphere.obj
 0001:00000ca0       ??__EminV3Error@_VecMathTests@aos@shdfnd@physx@@YAXXZ 0000000180001ca0 f   GuContactSphereSphere.obj
 0001:00000cb0       ??__EminV4Error@_VecMathTests@aos@shdfnd@physx@@YAXXZ 0000000180001cb0 f   GuContactSphereSphere.obj
 0001:00000cc0       ??__EmaxFError@_VecMathTests@aos@shdfnd@physx@@YAXXZ 0000000180001cc0 f   GuConvexHelper.obj
 0001:00000cd0       ??__EmaxV3Error@_VecMathTests@aos@shdfnd@physx@@YAXXZ 0000000180001cd0 f   GuConvexHelper.obj
 0001:00000ce0       ??__EmaxV4Error@_VecMathTests@aos@shdfnd@physx@@YAXXZ 0000000180001ce0 f   GuConvexHelper.obj
 0001:00000cf0       ??__EminFError@_VecMathTests@aos@shdfnd@physx@@YAXXZ 0000000180001cf0 f   GuConvexHelper.obj
 0001:00000d00       ??__EminV3Error@_VecMathTests@aos@shdfnd@physx@@YAXXZ 0000000180001d00 f   GuConvexHelper.obj
 0001:00000d10       ??__EminV4Error@_VecMathTests@aos@shdfnd@physx@@YAXXZ 0000000180001d10 f   GuConvexHelper.obj
 0001:00000d20       ??__EboxVertexTable@physx@@YAXXZ 0000000180001d20 f   GuConvexSupportTable.obj
 0001:00000da0       ??__EmaxFError@_VecMathTests@aos@shdfnd@physx@@YAXXZ 0000000180001da0 f   GuConvexSupportTable.obj
 0001:00000db0       ??__EmaxV3Error@_VecMathTests@aos@shdfnd@physx@@YAXXZ 0000000180001db0 f   GuConvexSupportTable.obj
 0001:00000dc0       ??__EmaxV4Error@_VecMathTests@aos@shdfnd@physx@@YAXXZ 0000000180001dc0 f   GuConvexSupportTable.obj
 0001:00000dd0       ??__EminFError@_VecMathTests@aos@shdfnd@physx@@YAXXZ 0000000180001dd0 f   GuConvexSupportTable.obj
 0001:00000de0       ??__EminV3Error@_VecMathTests@aos@shdfnd@physx@@YAXXZ 0000000180001de0 f   GuConvexSupportTable.obj
 0001:00000df0       ??__EminV4Error@_VecMathTests@aos@shdfnd@physx@@YAXXZ 0000000180001df0 f   GuConvexSupportTable.obj
 0001:00000e00       ??__EmaxFError@_VecMathTests@aos@shdfnd@physx@@YAXXZ 0000000180001e00 f   GuConvexUtilsInternal.obj
 0001:00000e10       ??__EmaxV3Error@_VecMathTests@aos@shdfnd@physx@@YAXXZ 0000000180001e10 f   GuConvexUtilsInternal.obj
 0001:00000e20       ??__EmaxV4Error@_VecMathTests@aos@shdfnd@physx@@YAXXZ 0000000180001e20 f   GuConvexUtilsInternal.obj
 0001:00000e30       ??__EminFError@_VecMathTests@aos@shdfnd@physx@@YAXXZ 0000000180001e30 f   GuConvexUtilsInternal.obj
 0001:00000e40       ??__EminV3Error@_VecMathTests@aos@shdfnd@physx@@YAXXZ 0000000180001e40 f   GuConvexUtilsInternal.obj
 0001:00000e50       ??__EminV4Error@_VecMathTests@aos@shdfnd@physx@@YAXXZ 0000000180001e50 f   GuConvexUtilsInternal.obj
 0001:00000e60       ??__EmaxFError@_VecMathTests@aos@shdfnd@physx@@YAXXZ 0000000180001e60 f   GuDistancePointTriangle.obj
 0001:00000e70       ??__EmaxV3Error@_VecMathTests@aos@shdfnd@physx@@YAXXZ 0000000180001e70 f   GuDistancePointTriangle.obj
 0001:00000e80       ??__EmaxV4Error@_VecMathTests@aos@shdfnd@physx@@YAXXZ 0000000180001e80 f   GuDistancePointTriangle.obj
 0001:00000e90       ??__EminFError@_VecMathTests@aos@shdfnd@physx@@YAXXZ 0000000180001e90 f   GuDistancePointTriangle.obj
 0001:00000ea0       ??__EminV3Error@_VecMathTests@aos@shdfnd@physx@@YAXXZ 0000000180001ea0 f   GuDistancePointTriangle.obj
 0001:00000eb0       ??__EminV4Error@_VecMathTests@aos@shdfnd@physx@@YAXXZ 0000000180001eb0 f   GuDistancePointTriangle.obj
 0001:00000ec0       ??__EmaxFError@_VecMathTests@aos@shdfnd@physx@@YAXXZ 0000000180001ec0 f   GuDistanceSegmentSegment.obj
 0001:00000ed0       ??__EmaxV3Error@_VecMathTests@aos@shdfnd@physx@@YAXXZ 0000000180001ed0 f   GuDistanceSegmentSegment.obj
 0001:00000ee0       ??__EmaxV4Error@_VecMathTests@aos@shdfnd@physx@@YAXXZ 0000000180001ee0 f   GuDistanceSegmentSegment.obj
 0001:00000ef0       ??__EminFError@_VecMathTests@aos@shdfnd@physx@@YAXXZ 0000000180001ef0 f   GuDistanceSegmentSegment.obj
 0001:00000f00       ??__EminV3Error@_VecMathTests@aos@shdfnd@physx@@YAXXZ 0000000180001f00 f   GuDistanceSegmentSegment.obj
 0001:00000f10       ??__EminV4Error@_VecMathTests@aos@shdfnd@physx@@YAXXZ 0000000180001f10 f   GuDistanceSegmentSegment.obj
 0001:00000f20       ??__EmaxFError@_VecMathTests@aos@shdfnd@physx@@YAXXZ 0000000180001f20 f   GuDistanceSegmentTriangle.obj
 0001:00000f30       ??__EmaxV3Error@_VecMathTests@aos@shdfnd@physx@@YAXXZ 0000000180001f30 f   GuDistanceSegmentTriangle.obj
 0001:00000f40       ??__EmaxV4Error@_VecMathTests@aos@shdfnd@physx@@YAXXZ 0000000180001f40 f   GuDistanceSegmentTriangle.obj
 0001:00000f50       ??__EminFError@_VecMathTests@aos@shdfnd@physx@@YAXXZ 0000000180001f50 f   GuDistanceSegmentTriangle.obj
 0001:00000f60       ??__EminV3Error@_VecMathTests@aos@shdfnd@physx@@YAXXZ 0000000180001f60 f   GuDistanceSegmentTriangle.obj
 0001:00000f70       ??__EminV4Error@_VecMathTests@aos@shdfnd@physx@@YAXXZ 0000000180001f70 f   GuDistanceSegmentTriangle.obj
 0001:00000f80       ??__EmaxFError@_VecMathTests@aos@shdfnd@physx@@YAXXZ 0000000180001f80 f   GuEPA.obj
 0001:00000f90       ??__EmaxV3Error@_VecMathTests@aos@shdfnd@physx@@YAXXZ 0000000180001f90 f   GuEPA.obj
 0001:00000fa0       ??__EmaxV4Error@_VecMathTests@aos@shdfnd@physx@@YAXXZ 0000000180001fa0 f   GuEPA.obj
 0001:00000fb0       ??__EminFError@_VecMathTests@aos@shdfnd@physx@@YAXXZ 0000000180001fb0 f   GuEPA.obj
 0001:00000fc0       ??__EminV3Error@_VecMathTests@aos@shdfnd@physx@@YAXXZ 0000000180001fc0 f   GuEPA.obj
 0001:00000fd0       ??__EminV4Error@_VecMathTests@aos@shdfnd@physx@@YAXXZ 0000000180001fd0 f   GuEPA.obj
 0001:00000fe0       ??__EmaxFError@_VecMathTests@aos@shdfnd@physx@@YAXXZ 0000000180001fe0 f   GuGJKSimplex.obj
 0001:00000ff0       ??__EmaxV3Error@_VecMathTests@aos@shdfnd@physx@@YAXXZ 0000000180001ff0 f   GuGJKSimplex.obj
 0001:00001000       ??__EmaxV4Error@_VecMathTests@aos@shdfnd@physx@@YAXXZ 0000000180002000 f   GuGJKSimplex.obj
 0001:00001010       ??__EminFError@_VecMathTests@aos@shdfnd@physx@@YAXXZ 0000000180002010 f   GuGJKSimplex.obj
 0001:00001020       ??__EminV3Error@_VecMathTests@aos@shdfnd@physx@@YAXXZ 0000000180002020 f   GuGJKSimplex.obj
 0001:00001030       ??__EminV4Error@_VecMathTests@aos@shdfnd@physx@@YAXXZ 0000000180002030 f   GuGJKSimplex.obj
 0001:00001040       ??__EmaxFError@_VecMathTests@aos@shdfnd@physx@@YAXXZ 0000000180002040 f   GuGJKTest.obj
 0001:00001050       ??__EmaxV3Error@_VecMathTests@aos@shdfnd@physx@@YAXXZ 0000000180002050 f   GuGJKTest.obj
 0001:00001060       ??__EmaxV4Error@_VecMathTests@aos@shdfnd@physx@@YAXXZ 0000000180002060 f   GuGJKTest.obj
 0001:00001070       ??__EminFError@_VecMathTests@aos@shdfnd@physx@@YAXXZ 0000000180002070 f   GuGJKTest.obj
 0001:00001080       ??__EminV3Error@_VecMathTests@aos@shdfnd@physx@@YAXXZ 0000000180002080 f   GuGJKTest.obj
 0001:00001090       ??__EminV4Error@_VecMathTests@aos@shdfnd@physx@@YAXXZ 0000000180002090 f   GuGJKTest.obj
 0001:000010a0       ??__EmaxFError@_VecMathTests@aos@shdfnd@physx@@YAXXZ 00000001800020a0 f   GuHeightFieldUtil.obj
 0001:000010b0       ??__EmaxV3Error@_VecMathTests@aos@shdfnd@physx@@YAXXZ 00000001800020b0 f   GuHeightFieldUtil.obj
 0001:000010c0       ??__EmaxV4Error@_VecMathTests@aos@shdfnd@physx@@YAXXZ 00000001800020c0 f   GuHeightFieldUtil.obj
 0001:000010d0       ??__EminFError@_VecMathTests@aos@shdfnd@physx@@YAXXZ 00000001800020d0 f   GuHeightFieldUtil.obj
 0001:000010e0       ??__EminV3Error@_VecMathTests@aos@shdfnd@physx@@YAXXZ 00000001800020e0 f   GuHeightFieldUtil.obj
 0001:000010f0       ??__EminV4Error@_VecMathTests@aos@shdfnd@physx@@YAXXZ 00000001800020f0 f   GuHeightFieldUtil.obj
 0001:00001100       ??__EmaxFError@_VecMathTests@aos@shdfnd@physx@@YAXXZ 0000000180002100 f   GuOverlapTestsHF.obj
 0001:00001110       ??__EmaxV3Error@_VecMathTests@aos@shdfnd@physx@@YAXXZ 0000000180002110 f   GuOverlapTestsHF.obj
 0001:00001120       ??__EmaxV4Error@_VecMathTests@aos@shdfnd@physx@@YAXXZ 0000000180002120 f   GuOverlapTestsHF.obj
 0001:00001130       ??__EminFError@_VecMathTests@aos@shdfnd@physx@@YAXXZ 0000000180002130 f   GuOverlapTestsHF.obj
 0001:00001140       ??__EminV3Error@_VecMathTests@aos@shdfnd@physx@@YAXXZ 0000000180002140 f   GuOverlapTestsHF.obj
 0001:00001150       ??__EminV4Error@_VecMathTests@aos@shdfnd@physx@@YAXXZ 0000000180002150 f   GuOverlapTestsHF.obj
 0001:00001160       ??__EmaxFError@_VecMathTests@aos@shdfnd@physx@@YAXXZ 0000000180002160 f   GuSweepsHF.obj
 0001:00001170       ??__EmaxV3Error@_VecMathTests@aos@shdfnd@physx@@YAXXZ 0000000180002170 f   GuSweepsHF.obj
 0001:00001180       ??__EmaxV4Error@_VecMathTests@aos@shdfnd@physx@@YAXXZ 0000000180002180 f   GuSweepsHF.obj
 0001:00001190       ??__EminFError@_VecMathTests@aos@shdfnd@physx@@YAXXZ 0000000180002190 f   GuSweepsHF.obj
 0001:000011a0       ??__EminV3Error@_VecMathTests@aos@shdfnd@physx@@YAXXZ 00000001800021a0 f   GuSweepsHF.obj
 0001:000011b0       ??__EminV4Error@_VecMathTests@aos@shdfnd@physx@@YAXXZ 00000001800021b0 f   GuSweepsHF.obj
 0001:000011c0       ??__EmaxFError@_VecMathTests@aos@shdfnd@physx@@YAXXZ 00000001800021c0 f   GuIntersectionRayBox.obj
 0001:000011d0       ??__EmaxV3Error@_VecMathTests@aos@shdfnd@physx@@YAXXZ 00000001800021d0 f   GuIntersectionRayBox.obj
 0001:000011e0       ??__EmaxV4Error@_VecMathTests@aos@shdfnd@physx@@YAXXZ 00000001800021e0 f   GuIntersectionRayBox.obj
 0001:000011f0       ??__EminFError@_VecMathTests@aos@shdfnd@physx@@YAXXZ 00000001800021f0 f   GuIntersectionRayBox.obj
 0001:00001200       ??__EminV3Error@_VecMathTests@aos@shdfnd@physx@@YAXXZ 0000000180002200 f   GuIntersectionRayBox.obj
 0001:00001210       ??__EminV4Error@_VecMathTests@aos@shdfnd@physx@@YAXXZ 0000000180002210 f   GuIntersectionRayBox.obj
 0001:00001220       ??__EmaxFError@_VecMathTests@aos@shdfnd@physx@@YAXXZ 0000000180002220 f   GuIntersectionTriangleBox.obj
 0001:00001230       ??__EmaxV3Error@_VecMathTests@aos@shdfnd@physx@@YAXXZ 0000000180002230 f   GuIntersectionTriangleBox.obj
 0001:00001240       ??__EmaxV4Error@_VecMathTests@aos@shdfnd@physx@@YAXXZ 0000000180002240 f   GuIntersectionTriangleBox.obj
 0001:00001250       ??__EminFError@_VecMathTests@aos@shdfnd@physx@@YAXXZ 0000000180002250 f   GuIntersectionTriangleBox.obj
 0001:00001260       ??__EminV3Error@_VecMathTests@aos@shdfnd@physx@@YAXXZ 0000000180002260 f   GuIntersectionTriangleBox.obj
 0001:00001270       ??__EminV4Error@_VecMathTests@aos@shdfnd@physx@@YAXXZ 0000000180002270 f   GuIntersectionTriangleBox.obj
 0001:00001280       ??__EsignV@@YAXXZ          0000000180002280 f   GuIntersectionTriangleBox.obj
 0001:000012c0       ??__EmaxFError@_VecMathTests@aos@shdfnd@physx@@YAXXZ 00000001800022c0 f   GuBV4.obj
 0001:000012d0       ??__EmaxV3Error@_VecMathTests@aos@shdfnd@physx@@YAXXZ 00000001800022d0 f   GuBV4.obj
 0001:000012e0       ??__EmaxV4Error@_VecMathTests@aos@shdfnd@physx@@YAXXZ 00000001800022e0 f   GuBV4.obj
 0001:000012f0       ??__EminFError@_VecMathTests@aos@shdfnd@physx@@YAXXZ 00000001800022f0 f   GuBV4.obj
 0001:00001300       ??__EminV3Error@_VecMathTests@aos@shdfnd@physx@@YAXXZ 0000000180002300 f   GuBV4.obj
 0001:00001310       ??__EminV4Error@_VecMathTests@aos@shdfnd@physx@@YAXXZ 0000000180002310 f   GuBV4.obj
 0001:00001320       ??__EmaxFError@_VecMathTests@aos@shdfnd@physx@@YAXXZ 0000000180002320 f   GuBV4Build.obj
 0001:00001330       ??__EmaxV3Error@_VecMathTests@aos@shdfnd@physx@@YAXXZ 0000000180002330 f   GuBV4Build.obj
 0001:00001340       ??__EmaxV4Error@_VecMathTests@aos@shdfnd@physx@@YAXXZ 0000000180002340 f   GuBV4Build.obj
 0001:00001350       ??__EminFError@_VecMathTests@aos@shdfnd@physx@@YAXXZ 0000000180002350 f   GuBV4Build.obj
 0001:00001360       ??__EminV3Error@_VecMathTests@aos@shdfnd@physx@@YAXXZ 0000000180002360 f   GuBV4Build.obj
 0001:00001370       ??__EminV4Error@_VecMathTests@aos@shdfnd@physx@@YAXXZ 0000000180002370 f   GuBV4Build.obj
 0001:00001380       ??__EepsFloat4@?A0x788c2204@@YAXXZ 0000000180002380 f   GuBV4_AABBSweep.obj
 0001:00001390       ??__EepsInflateFloat4@?A0x788c2204@@YAXXZ 0000000180002390 f   GuBV4_AABBSweep.obj
 0001:000013a0       ??__EmaxFError@_VecMathTests@aos@shdfnd@physx@@YAXXZ 00000001800023a0 f   GuBV4_AABBSweep.obj
 0001:000013b0       ??__EmaxV3Error@_VecMathTests@aos@shdfnd@physx@@YAXXZ 00000001800023b0 f   GuBV4_AABBSweep.obj
 0001:000013c0       ??__EmaxV4Error@_VecMathTests@aos@shdfnd@physx@@YAXXZ 00000001800023c0 f   GuBV4_AABBSweep.obj
 0001:000013d0       ??__EminFError@_VecMathTests@aos@shdfnd@physx@@YAXXZ 00000001800023d0 f   GuBV4_AABBSweep.obj
 0001:000013e0       ??__EminV3Error@_VecMathTests@aos@shdfnd@physx@@YAXXZ 00000001800023e0 f   GuBV4_AABBSweep.obj
 0001:000013f0       ??__EminV4Error@_VecMathTests@aos@shdfnd@physx@@YAXXZ 00000001800023f0 f   GuBV4_AABBSweep.obj
 0001:00001400       ??__EsignMask@?A0x788c2204@@YAXXZ 0000000180002400 f   GuBV4_AABBSweep.obj
 0001:00001440       ??__Etwos@?A0x788c2204@@YAXXZ 0000000180002440 f   GuBV4_AABBSweep.obj
 0001:00001450       ??__Ezeroes@?A0x788c2204@@YAXXZ 0000000180002450 f   GuBV4_AABBSweep.obj
 0001:00001460       ??__EmaxFError@_VecMathTests@aos@shdfnd@physx@@YAXXZ 0000000180002460 f   GuBV4_BoxOverlap.obj
 0001:00001470       ??__EmaxV3Error@_VecMathTests@aos@shdfnd@physx@@YAXXZ 0000000180002470 f   GuBV4_BoxOverlap.obj
 0001:00001480       ??__EmaxV4Error@_VecMathTests@aos@shdfnd@physx@@YAXXZ 0000000180002480 f   GuBV4_BoxOverlap.obj
 0001:00001490       ??__EminFError@_VecMathTests@aos@shdfnd@physx@@YAXXZ 0000000180002490 f   GuBV4_BoxOverlap.obj
 0001:000014a0       ??__EminV3Error@_VecMathTests@aos@shdfnd@physx@@YAXXZ 00000001800024a0 f   GuBV4_BoxOverlap.obj
 0001:000014b0       ??__EminV4Error@_VecMathTests@aos@shdfnd@physx@@YAXXZ 00000001800024b0 f   GuBV4_BoxOverlap.obj
 0001:000014c0       ??__EmaxFError@_VecMathTests@aos@shdfnd@physx@@YAXXZ 00000001800024c0 f   GuBV4_CapsuleSweep.obj
 0001:000014d0       ??__EmaxV3Error@_VecMathTests@aos@shdfnd@physx@@YAXXZ 00000001800024d0 f   GuBV4_CapsuleSweep.obj
 0001:000014e0       ??__EmaxV4Error@_VecMathTests@aos@shdfnd@physx@@YAXXZ 00000001800024e0 f   GuBV4_CapsuleSweep.obj
 0001:000014f0       ??__EminFError@_VecMathTests@aos@shdfnd@physx@@YAXXZ 00000001800024f0 f   GuBV4_CapsuleSweep.obj
 0001:00001500       ??__EminV3Error@_VecMathTests@aos@shdfnd@physx@@YAXXZ 0000000180002500 f   GuBV4_CapsuleSweep.obj
 0001:00001510       ??__EminV4Error@_VecMathTests@aos@shdfnd@physx@@YAXXZ 0000000180002510 f   GuBV4_CapsuleSweep.obj
 0001:00001520       ??__EepsFloat4@?A0xf567e8b1@@YAXXZ 0000000180002520 f   GuBV4_CapsuleSweepAA.obj
 0001:00001530       ??__EepsInflateFloat4@?A0xf567e8b1@@YAXXZ 0000000180002530 f   GuBV4_CapsuleSweepAA.obj
 0001:00001540       ??__EmaxFError@_VecMathTests@aos@shdfnd@physx@@YAXXZ 0000000180002540 f   GuBV4_CapsuleSweepAA.obj
 0001:00001550       ??__EmaxV3Error@_VecMathTests@aos@shdfnd@physx@@YAXXZ 0000000180002550 f   GuBV4_CapsuleSweepAA.obj
 0001:00001560       ??__EmaxV4Error@_VecMathTests@aos@shdfnd@physx@@YAXXZ 0000000180002560 f   GuBV4_CapsuleSweepAA.obj
 0001:00001570       ??__EminFError@_VecMathTests@aos@shdfnd@physx@@YAXXZ 0000000180002570 f   GuBV4_CapsuleSweepAA.obj
 0001:00001580       ??__EminV3Error@_VecMathTests@aos@shdfnd@physx@@YAXXZ 0000000180002580 f   GuBV4_CapsuleSweepAA.obj
 0001:00001590       ??__EminV4Error@_VecMathTests@aos@shdfnd@physx@@YAXXZ 0000000180002590 f   GuBV4_CapsuleSweepAA.obj
 0001:000015a0       ??__EsignMask@?A0xf567e8b1@@YAXXZ 00000001800025a0 f   GuBV4_CapsuleSweepAA.obj
 0001:000015e0       ??__Etwos@?A0xf567e8b1@@YAXXZ 00000001800025e0 f   GuBV4_CapsuleSweepAA.obj
 0001:000015f0       ??__Ezeroes@?A0xf567e8b1@@YAXXZ 00000001800025f0 f   GuBV4_CapsuleSweepAA.obj
 0001:00001600       ??__EmaxFError@_VecMathTests@aos@shdfnd@physx@@YAXXZ 0000000180002600 f   GuBV4_OBBSweep.obj
 0001:00001610       ??__EmaxV3Error@_VecMathTests@aos@shdfnd@physx@@YAXXZ 0000000180002610 f   GuBV4_OBBSweep.obj
 0001:00001620       ??__EmaxV4Error@_VecMathTests@aos@shdfnd@physx@@YAXXZ 0000000180002620 f   GuBV4_OBBSweep.obj
 0001:00001630       ??__EminFError@_VecMathTests@aos@shdfnd@physx@@YAXXZ 0000000180002630 f   GuBV4_OBBSweep.obj
 0001:00001640       ??__EminV3Error@_VecMathTests@aos@shdfnd@physx@@YAXXZ 0000000180002640 f   GuBV4_OBBSweep.obj
 0001:00001650       ??__EminV4Error@_VecMathTests@aos@shdfnd@physx@@YAXXZ 0000000180002650 f   GuBV4_OBBSweep.obj
 0001:00001660       ??__EepsFloat4@?A0xdeb1923c@@YAXXZ 0000000180002660 f   GuBV4_Raycast.obj
 0001:00001670       ??__EepsInflateFloat4@?A0xdeb1923c@@YAXXZ 0000000180002670 f   GuBV4_Raycast.obj
 0001:00001680       ??__EmaxFError@_VecMathTests@aos@shdfnd@physx@@YAXXZ 0000000180002680 f   GuBV4_Raycast.obj
 0001:00001690       ??__EmaxV3Error@_VecMathTests@aos@shdfnd@physx@@YAXXZ 0000000180002690 f   GuBV4_Raycast.obj
 0001:000016a0       ??__EmaxV4Error@_VecMathTests@aos@shdfnd@physx@@YAXXZ 00000001800026a0 f   GuBV4_Raycast.obj
 0001:000016b0       ??__EminFError@_VecMathTests@aos@shdfnd@physx@@YAXXZ 00000001800026b0 f   GuBV4_Raycast.obj
 0001:000016c0       ??__EminV3Error@_VecMathTests@aos@shdfnd@physx@@YAXXZ 00000001800026c0 f   GuBV4_Raycast.obj
 0001:000016d0       ??__EminV4Error@_VecMathTests@aos@shdfnd@physx@@YAXXZ 00000001800026d0 f   GuBV4_Raycast.obj
 0001:000016e0       ??__EsignMask@?A0xdeb1923c@@YAXXZ 00000001800026e0 f   GuBV4_Raycast.obj
 0001:00001720       ??__Etwos@?A0xdeb1923c@@YAXXZ 0000000180002720 f   GuBV4_Raycast.obj
 0001:00001730       ??__Ezeroes@?A0xdeb1923c@@YAXXZ 0000000180002730 f   GuBV4_Raycast.obj
 0001:00001740       ??__EmaxFError@_VecMathTests@aos@shdfnd@physx@@YAXXZ 0000000180002740 f   GuBV4_SphereOverlap.obj
 0001:00001750       ??__EmaxV3Error@_VecMathTests@aos@shdfnd@physx@@YAXXZ 0000000180002750 f   GuBV4_SphereOverlap.obj
 0001:00001760       ??__EmaxV4Error@_VecMathTests@aos@shdfnd@physx@@YAXXZ 0000000180002760 f   GuBV4_SphereOverlap.obj
 0001:00001770       ??__EminFError@_VecMathTests@aos@shdfnd@physx@@YAXXZ 0000000180002770 f   GuBV4_SphereOverlap.obj
 0001:00001780       ??__EminV3Error@_VecMathTests@aos@shdfnd@physx@@YAXXZ 0000000180002780 f   GuBV4_SphereOverlap.obj
 0001:00001790       ??__EminV4Error@_VecMathTests@aos@shdfnd@physx@@YAXXZ 0000000180002790 f   GuBV4_SphereOverlap.obj
 0001:000017a0       ??__EepsFloat4@?A0x0ebb234c@@YAXXZ 00000001800027a0 f   GuBV4_SphereSweep.obj
 0001:000017b0       ??__EepsInflateFloat4@?A0x0ebb234c@@YAXXZ 00000001800027b0 f   GuBV4_SphereSweep.obj
 0001:000017c0       ??__EmaxFError@_VecMathTests@aos@shdfnd@physx@@YAXXZ 00000001800027c0 f   GuBV4_SphereSweep.obj
 0001:000017d0       ??__EmaxV3Error@_VecMathTests@aos@shdfnd@physx@@YAXXZ 00000001800027d0 f   GuBV4_SphereSweep.obj
 0001:000017e0       ??__EmaxV4Error@_VecMathTests@aos@shdfnd@physx@@YAXXZ 00000001800027e0 f   GuBV4_SphereSweep.obj
 0001:000017f0       ??__EminFError@_VecMathTests@aos@shdfnd@physx@@YAXXZ 00000001800027f0 f   GuBV4_SphereSweep.obj
 0001:00001800       ??__EminV3Error@_VecMathTests@aos@shdfnd@physx@@YAXXZ 0000000180002800 f   GuBV4_SphereSweep.obj
 0001:00001810       ??__EminV4Error@_VecMathTests@aos@shdfnd@physx@@YAXXZ 0000000180002810 f   GuBV4_SphereSweep.obj
 0001:00001820       ??__EsignMask@?A0x0ebb234c@@YAXXZ 0000000180002820 f   GuBV4_SphereSweep.obj
 0001:00001860       ??__Etwos@?A0x0ebb234c@@YAXXZ 0000000180002860 f   GuBV4_SphereSweep.obj
 0001:00001870       ??__Ezeroes@?A0x0ebb234c@@YAXXZ 0000000180002870 f   GuBV4_SphereSweep.obj
 0001:00001880       ??__EmaxFError@_VecMathTests@aos@shdfnd@physx@@YAXXZ 0000000180002880 f   GuMidphaseBV4.obj
 0001:00001890       ??__EmaxV3Error@_VecMathTests@aos@shdfnd@physx@@YAXXZ 0000000180002890 f   GuMidphaseBV4.obj
 0001:000018a0       ??__EmaxV4Error@_VecMathTests@aos@shdfnd@physx@@YAXXZ 00000001800028a0 f   GuMidphaseBV4.obj
 0001:000018b0       ??__EminFError@_VecMathTests@aos@shdfnd@physx@@YAXXZ 00000001800028b0 f   GuMidphaseBV4.obj
 0001:000018c0       ??__EminV3Error@_VecMathTests@aos@shdfnd@physx@@YAXXZ 00000001800028c0 f   GuMidphaseBV4.obj
 0001:000018d0       ??__EminV4Error@_VecMathTests@aos@shdfnd@physx@@YAXXZ 00000001800028d0 f   GuMidphaseBV4.obj
 0001:000018e0       ??__EmaxFError@_VecMathTests@aos@shdfnd@physx@@YAXXZ 00000001800028e0 f   GuMeshQuery.obj
 0001:000018f0       ??__EmaxV3Error@_VecMathTests@aos@shdfnd@physx@@YAXXZ 00000001800028f0 f   GuMeshQuery.obj
 0001:00001900       ??__EmaxV4Error@_VecMathTests@aos@shdfnd@physx@@YAXXZ 0000000180002900 f   GuMeshQuery.obj
 0001:00001910       ??__EminFError@_VecMathTests@aos@shdfnd@physx@@YAXXZ 0000000180002910 f   GuMeshQuery.obj
 0001:00001920       ??__EminV3Error@_VecMathTests@aos@shdfnd@physx@@YAXXZ 0000000180002920 f   GuMeshQuery.obj
 0001:00001930       ??__EminV4Error@_VecMathTests@aos@shdfnd@physx@@YAXXZ 0000000180002930 f   GuMeshQuery.obj
 0001:00001940       ??__EmaxFError@_VecMathTests@aos@shdfnd@physx@@YAXXZ 0000000180002940 f   GuMidphaseRTree.obj
 0001:00001950       ??__EmaxV3Error@_VecMathTests@aos@shdfnd@physx@@YAXXZ 0000000180002950 f   GuMidphaseRTree.obj
 0001:00001960       ??__EmaxV4Error@_VecMathTests@aos@shdfnd@physx@@YAXXZ 0000000180002960 f   GuMidphaseRTree.obj
 0001:00001970       ??__EminFError@_VecMathTests@aos@shdfnd@physx@@YAXXZ 0000000180002970 f   GuMidphaseRTree.obj
 0001:00001980       ??__EminV3Error@_VecMathTests@aos@shdfnd@physx@@YAXXZ 0000000180002980 f   GuMidphaseRTree.obj
 0001:00001990       ??__EminV4Error@_VecMathTests@aos@shdfnd@physx@@YAXXZ 0000000180002990 f   GuMidphaseRTree.obj
 0001:000019a0       ??__EmaxFError@_VecMathTests@aos@shdfnd@physx@@YAXXZ 00000001800029a0 f   GuOverlapTestsMesh.obj
 0001:000019b0       ??__EmaxV3Error@_VecMathTests@aos@shdfnd@physx@@YAXXZ 00000001800029b0 f   GuOverlapTestsMesh.obj
 0001:000019c0       ??__EmaxV4Error@_VecMathTests@aos@shdfnd@physx@@YAXXZ 00000001800029c0 f   GuOverlapTestsMesh.obj
 0001:000019d0       ??__EminFError@_VecMathTests@aos@shdfnd@physx@@YAXXZ 00000001800029d0 f   GuOverlapTestsMesh.obj
 0001:000019e0       ??__EminV3Error@_VecMathTests@aos@shdfnd@physx@@YAXXZ 00000001800029e0 f   GuOverlapTestsMesh.obj
 0001:000019f0       ??__EminV4Error@_VecMathTests@aos@shdfnd@physx@@YAXXZ 00000001800029f0 f   GuOverlapTestsMesh.obj
 0001:00001a00       ??__EmaxFError@_VecMathTests@aos@shdfnd@physx@@YAXXZ 0000000180002a00 f   GuRTree.obj
 0001:00001a10       ??__EmaxV3Error@_VecMathTests@aos@shdfnd@physx@@YAXXZ 0000000180002a10 f   GuRTree.obj
 0001:00001a20       ??__EmaxV4Error@_VecMathTests@aos@shdfnd@physx@@YAXXZ 0000000180002a20 f   GuRTree.obj
 0001:00001a30       ??__EminFError@_VecMathTests@aos@shdfnd@physx@@YAXXZ 0000000180002a30 f   GuRTree.obj
 0001:00001a40       ??__EminV3Error@_VecMathTests@aos@shdfnd@physx@@YAXXZ 0000000180002a40 f   GuRTree.obj
 0001:00001a50       ??__EminV4Error@_VecMathTests@aos@shdfnd@physx@@YAXXZ 0000000180002a50 f   GuRTree.obj
 0001:00001a60       ??__EepsFloat4@?A0x28b72d2e@@YAXXZ 0000000180002a60 f   GuRTreeQueries.obj
 0001:00001a70       ??__EepsInflateFloat4@?A0x28b72d2e@@YAXXZ 0000000180002a70 f   GuRTreeQueries.obj
 0001:00001a80       ??__EmaxFError@_VecMathTests@aos@shdfnd@physx@@YAXXZ 0000000180002a80 f   GuRTreeQueries.obj
 0001:00001a90       ??__EmaxV3Error@_VecMathTests@aos@shdfnd@physx@@YAXXZ 0000000180002a90 f   GuRTreeQueries.obj
 0001:00001aa0       ??__EmaxV4Error@_VecMathTests@aos@shdfnd@physx@@YAXXZ 0000000180002aa0 f   GuRTreeQueries.obj
 0001:00001ab0       ??__EminFError@_VecMathTests@aos@shdfnd@physx@@YAXXZ 0000000180002ab0 f   GuRTreeQueries.obj
 0001:00001ac0       ??__EminV3Error@_VecMathTests@aos@shdfnd@physx@@YAXXZ 0000000180002ac0 f   GuRTreeQueries.obj
 0001:00001ad0       ??__EminV4Error@_VecMathTests@aos@shdfnd@physx@@YAXXZ 0000000180002ad0 f   GuRTreeQueries.obj
 0001:00001ae0       ??__EsignMask@?A0x28b72d2e@@YAXXZ 0000000180002ae0 f   GuRTreeQueries.obj
 0001:00001b20       ??__Etwos@?A0x28b72d2e@@YAXXZ 0000000180002b20 f   GuRTreeQueries.obj
 0001:00001b30       ??__Ezeroes@?A0x28b72d2e@@YAXXZ 0000000180002b30 f   GuRTreeQueries.obj
 0001:00001b40       ??__EmaxFError@_VecMathTests@aos@shdfnd@physx@@YAXXZ 0000000180002b40 f   GuSweepsMesh.obj
 0001:00001b50       ??__EmaxV3Error@_VecMathTests@aos@shdfnd@physx@@YAXXZ 0000000180002b50 f   GuSweepsMesh.obj
 0001:00001b60       ??__EmaxV4Error@_VecMathTests@aos@shdfnd@physx@@YAXXZ 0000000180002b60 f   GuSweepsMesh.obj
 0001:00001b70       ??__EminFError@_VecMathTests@aos@shdfnd@physx@@YAXXZ 0000000180002b70 f   GuSweepsMesh.obj
 0001:00001b80       ??__EminV3Error@_VecMathTests@aos@shdfnd@physx@@YAXXZ 0000000180002b80 f   GuSweepsMesh.obj
 0001:00001b90       ??__EminV4Error@_VecMathTests@aos@shdfnd@physx@@YAXXZ 0000000180002b90 f   GuSweepsMesh.obj
 0001:00001ba0       ??__EmaxFError@_VecMathTests@aos@shdfnd@physx@@YAXXZ 0000000180002ba0 f   GuTriangleMesh.obj
 0001:00001bb0       ??__EmaxV3Error@_VecMathTests@aos@shdfnd@physx@@YAXXZ 0000000180002bb0 f   GuTriangleMesh.obj
 0001:00001bc0       ??__EmaxV4Error@_VecMathTests@aos@shdfnd@physx@@YAXXZ 0000000180002bc0 f   GuTriangleMesh.obj
 0001:00001bd0       ??__EminFError@_VecMathTests@aos@shdfnd@physx@@YAXXZ 0000000180002bd0 f   GuTriangleMesh.obj
 0001:00001be0       ??__EminV3Error@_VecMathTests@aos@shdfnd@physx@@YAXXZ 0000000180002be0 f   GuTriangleMesh.obj
 0001:00001bf0       ??__EminV4Error@_VecMathTests@aos@shdfnd@physx@@YAXXZ 0000000180002bf0 f   GuTriangleMesh.obj
 0001:00001c00       ??__EmaxFError@_VecMathTests@aos@shdfnd@physx@@YAXXZ 0000000180002c00 f   GuTriangleMeshBV4.obj
 0001:00001c10       ??__EmaxV3Error@_VecMathTests@aos@shdfnd@physx@@YAXXZ 0000000180002c10 f   GuTriangleMeshBV4.obj
 0001:00001c20       ??__EmaxV4Error@_VecMathTests@aos@shdfnd@physx@@YAXXZ 0000000180002c20 f   GuTriangleMeshBV4.obj
 0001:00001c30       ??__EminFError@_VecMathTests@aos@shdfnd@physx@@YAXXZ 0000000180002c30 f   GuTriangleMeshBV4.obj
 0001:00001c40       ??__EminV3Error@_VecMathTests@aos@shdfnd@physx@@YAXXZ 0000000180002c40 f   GuTriangleMeshBV4.obj
 0001:00001c50       ??__EminV4Error@_VecMathTests@aos@shdfnd@physx@@YAXXZ 0000000180002c50 f   GuTriangleMeshBV4.obj
 0001:00001c60       ??__EmaxFError@_VecMathTests@aos@shdfnd@physx@@YAXXZ 0000000180002c60 f   GuTriangleMeshRTree.obj
 0001:00001c70       ??__EmaxV3Error@_VecMathTests@aos@shdfnd@physx@@YAXXZ 0000000180002c70 f   GuTriangleMeshRTree.obj
 0001:00001c80       ??__EmaxV4Error@_VecMathTests@aos@shdfnd@physx@@YAXXZ 0000000180002c80 f   GuTriangleMeshRTree.obj
 0001:00001c90       ??__EminFError@_VecMathTests@aos@shdfnd@physx@@YAXXZ 0000000180002c90 f   GuTriangleMeshRTree.obj
 0001:00001ca0       ??__EminV3Error@_VecMathTests@aos@shdfnd@physx@@YAXXZ 0000000180002ca0 f   GuTriangleMeshRTree.obj
 0001:00001cb0       ??__EminV4Error@_VecMathTests@aos@shdfnd@physx@@YAXXZ 0000000180002cb0 f   GuTriangleMeshRTree.obj
 0001:00001cc0       ??__EmaxFError@_VecMathTests@aos@shdfnd@physx@@YAXXZ 0000000180002cc0 f   GuBV32Build.obj
 0001:00001cd0       ??__EmaxV3Error@_VecMathTests@aos@shdfnd@physx@@YAXXZ 0000000180002cd0 f   GuBV32Build.obj
 0001:00001ce0       ??__EmaxV4Error@_VecMathTests@aos@shdfnd@physx@@YAXXZ 0000000180002ce0 f   GuBV32Build.obj
 0001:00001cf0       ??__EminFError@_VecMathTests@aos@shdfnd@physx@@YAXXZ 0000000180002cf0 f   GuBV32Build.obj
 0001:00001d00       ??__EminV3Error@_VecMathTests@aos@shdfnd@physx@@YAXXZ 0000000180002d00 f   GuBV32Build.obj
 0001:00001d10       ??__EminV4Error@_VecMathTests@aos@shdfnd@physx@@YAXXZ 0000000180002d10 f   GuBV32Build.obj
 0001:00001d20       ??__EmaxFError@_VecMathTests@aos@shdfnd@physx@@YAXXZ 0000000180002d20 f   GuPCMContactBoxBox.obj
 0001:00001d30       ??__EmaxV3Error@_VecMathTests@aos@shdfnd@physx@@YAXXZ 0000000180002d30 f   GuPCMContactBoxBox.obj
 0001:00001d40       ??__EmaxV4Error@_VecMathTests@aos@shdfnd@physx@@YAXXZ 0000000180002d40 f   GuPCMContactBoxBox.obj
 0001:00001d50       ??__EminFError@_VecMathTests@aos@shdfnd@physx@@YAXXZ 0000000180002d50 f   GuPCMContactBoxBox.obj
 0001:00001d60       ??__EminV3Error@_VecMathTests@aos@shdfnd@physx@@YAXXZ 0000000180002d60 f   GuPCMContactBoxBox.obj
 0001:00001d70       ??__EminV4Error@_VecMathTests@aos@shdfnd@physx@@YAXXZ 0000000180002d70 f   GuPCMContactBoxBox.obj
 0001:00001d80       ??__EmaxFError@_VecMathTests@aos@shdfnd@physx@@YAXXZ 0000000180002d80 f   GuPCMContactBoxConvex.obj
 0001:00001d90       ??__EmaxV3Error@_VecMathTests@aos@shdfnd@physx@@YAXXZ 0000000180002d90 f   GuPCMContactBoxConvex.obj
 0001:00001da0       ??__EmaxV4Error@_VecMathTests@aos@shdfnd@physx@@YAXXZ 0000000180002da0 f   GuPCMContactBoxConvex.obj
 0001:00001db0       ??__EminFError@_VecMathTests@aos@shdfnd@physx@@YAXXZ 0000000180002db0 f   GuPCMContactBoxConvex.obj
 0001:00001dc0       ??__EminV3Error@_VecMathTests@aos@shdfnd@physx@@YAXXZ 0000000180002dc0 f   GuPCMContactBoxConvex.obj
 0001:00001dd0       ??__EminV4Error@_VecMathTests@aos@shdfnd@physx@@YAXXZ 0000000180002dd0 f   GuPCMContactBoxConvex.obj
 0001:00001de0       ??__EmaxFError@_VecMathTests@aos@shdfnd@physx@@YAXXZ 0000000180002de0 f   GuPCMContactCapsuleBox.obj
 0001:00001df0       ??__EmaxV3Error@_VecMathTests@aos@shdfnd@physx@@YAXXZ 0000000180002df0 f   GuPCMContactCapsuleBox.obj
 0001:00001e00       ??__EmaxV4Error@_VecMathTests@aos@shdfnd@physx@@YAXXZ 0000000180002e00 f   GuPCMContactCapsuleBox.obj
 0001:00001e10       ??__EminFError@_VecMathTests@aos@shdfnd@physx@@YAXXZ 0000000180002e10 f   GuPCMContactCapsuleBox.obj
 0001:00001e20       ??__EminV3Error@_VecMathTests@aos@shdfnd@physx@@YAXXZ 0000000180002e20 f   GuPCMContactCapsuleBox.obj
 0001:00001e30       ??__EminV4Error@_VecMathTests@aos@shdfnd@physx@@YAXXZ 0000000180002e30 f   GuPCMContactCapsuleBox.obj
 0001:00001e40       ??__EmaxFError@_VecMathTests@aos@shdfnd@physx@@YAXXZ 0000000180002e40 f   GuPCMContactCapsuleCapsule.obj
 0001:00001e50       ??__EmaxV3Error@_VecMathTests@aos@shdfnd@physx@@YAXXZ 0000000180002e50 f   GuPCMContactCapsuleCapsule.obj
 0001:00001e60       ??__EmaxV4Error@_VecMathTests@aos@shdfnd@physx@@YAXXZ 0000000180002e60 f   GuPCMContactCapsuleCapsule.obj
 0001:00001e70       ??__EminFError@_VecMathTests@aos@shdfnd@physx@@YAXXZ 0000000180002e70 f   GuPCMContactCapsuleCapsule.obj
 0001:00001e80       ??__EminV3Error@_VecMathTests@aos@shdfnd@physx@@YAXXZ 0000000180002e80 f   GuPCMContactCapsuleCapsule.obj
 0001:00001e90       ??__EminV4Error@_VecMathTests@aos@shdfnd@physx@@YAXXZ 0000000180002e90 f   GuPCMContactCapsuleCapsule.obj
 0001:00001ea0       ??__EmaxFError@_VecMathTests@aos@shdfnd@physx@@YAXXZ 0000000180002ea0 f   GuPCMContactCapsuleConvex.obj
 0001:00001eb0       ??__EmaxV3Error@_VecMathTests@aos@shdfnd@physx@@YAXXZ 0000000180002eb0 f   GuPCMContactCapsuleConvex.obj
 0001:00001ec0       ??__EmaxV4Error@_VecMathTests@aos@shdfnd@physx@@YAXXZ 0000000180002ec0 f   GuPCMContactCapsuleConvex.obj
 0001:00001ed0       ??__EminFError@_VecMathTests@aos@shdfnd@physx@@YAXXZ 0000000180002ed0 f   GuPCMContactCapsuleConvex.obj
 0001:00001ee0       ??__EminV3Error@_VecMathTests@aos@shdfnd@physx@@YAXXZ 0000000180002ee0 f   GuPCMContactCapsuleConvex.obj
 0001:00001ef0       ??__EminV4Error@_VecMathTests@aos@shdfnd@physx@@YAXXZ 0000000180002ef0 f   GuPCMContactCapsuleConvex.obj
 0001:00001f00       ??__EmaxFError@_VecMathTests@aos@shdfnd@physx@@YAXXZ 0000000180002f00 f   GuPCMContactCapsuleHeightField.obj
 0001:00001f10       ??__EmaxV3Error@_VecMathTests@aos@shdfnd@physx@@YAXXZ 0000000180002f10 f   GuPCMContactCapsuleHeightField.obj
 0001:00001f20       ??__EmaxV4Error@_VecMathTests@aos@shdfnd@physx@@YAXXZ 0000000180002f20 f   GuPCMContactCapsuleHeightField.obj
 0001:00001f30       ??__EminFError@_VecMathTests@aos@shdfnd@physx@@YAXXZ 0000000180002f30 f   GuPCMContactCapsuleHeightField.obj
 0001:00001f40       ??__EminV3Error@_VecMathTests@aos@shdfnd@physx@@YAXXZ 0000000180002f40 f   GuPCMContactCapsuleHeightField.obj
 0001:00001f50       ??__EminV4Error@_VecMathTests@aos@shdfnd@physx@@YAXXZ 0000000180002f50 f   GuPCMContactCapsuleHeightField.obj
 0001:00001f60       ??__EmaxFError@_VecMathTests@aos@shdfnd@physx@@YAXXZ 0000000180002f60 f   GuPCMContactCapsuleMesh.obj
 0001:00001f70       ??__EmaxV3Error@_VecMathTests@aos@shdfnd@physx@@YAXXZ 0000000180002f70 f   GuPCMContactCapsuleMesh.obj
 0001:00001f80       ??__EmaxV4Error@_VecMathTests@aos@shdfnd@physx@@YAXXZ 0000000180002f80 f   GuPCMContactCapsuleMesh.obj
 0001:00001f90       ??__EminFError@_VecMathTests@aos@shdfnd@physx@@YAXXZ 0000000180002f90 f   GuPCMContactCapsuleMesh.obj
 0001:00001fa0       ??__EminV3Error@_VecMathTests@aos@shdfnd@physx@@YAXXZ 0000000180002fa0 f   GuPCMContactCapsuleMesh.obj
 0001:00001fb0       ??__EminV4Error@_VecMathTests@aos@shdfnd@physx@@YAXXZ 0000000180002fb0 f   GuPCMContactCapsuleMesh.obj
 0001:00001fc0       ??__EmaxFError@_VecMathTests@aos@shdfnd@physx@@YAXXZ 0000000180002fc0 f   GuPCMContactConvexCommon.obj
 0001:00001fd0       ??__EmaxV3Error@_VecMathTests@aos@shdfnd@physx@@YAXXZ 0000000180002fd0 f   GuPCMContactConvexCommon.obj
 0001:00001fe0       ??__EmaxV4Error@_VecMathTests@aos@shdfnd@physx@@YAXXZ 0000000180002fe0 f   GuPCMContactConvexCommon.obj
 0001:00001ff0       ??__EminFError@_VecMathTests@aos@shdfnd@physx@@YAXXZ 0000000180002ff0 f   GuPCMContactConvexCommon.obj
 0001:00002000       ??__EminV3Error@_VecMathTests@aos@shdfnd@physx@@YAXXZ 0000000180003000 f   GuPCMContactConvexCommon.obj
 0001:00002010       ??__EminV4Error@_VecMathTests@aos@shdfnd@physx@@YAXXZ 0000000180003010 f   GuPCMContactConvexCommon.obj
 0001:00002020       ??__EmaxFError@_VecMathTests@aos@shdfnd@physx@@YAXXZ 0000000180003020 f   GuPCMContactConvexConvex.obj
 0001:00002030       ??__EmaxV3Error@_VecMathTests@aos@shdfnd@physx@@YAXXZ 0000000180003030 f   GuPCMContactConvexConvex.obj
 0001:00002040       ??__EmaxV4Error@_VecMathTests@aos@shdfnd@physx@@YAXXZ 0000000180003040 f   GuPCMContactConvexConvex.obj
 0001:00002050       ??__EminFError@_VecMathTests@aos@shdfnd@physx@@YAXXZ 0000000180003050 f   GuPCMContactConvexConvex.obj
 0001:00002060       ??__EminV3Error@_VecMathTests@aos@shdfnd@physx@@YAXXZ 0000000180003060 f   GuPCMContactConvexConvex.obj
 0001:00002070       ??__EminV4Error@_VecMathTests@aos@shdfnd@physx@@YAXXZ 0000000180003070 f   GuPCMContactConvexConvex.obj
 0001:00002080       ??__EmaxFError@_VecMathTests@aos@shdfnd@physx@@YAXXZ 0000000180003080 f   GuPCMContactConvexHeightField.obj
 0001:00002090       ??__EmaxV3Error@_VecMathTests@aos@shdfnd@physx@@YAXXZ 0000000180003090 f   GuPCMContactConvexHeightField.obj
 0001:000020a0       ??__EmaxV4Error@_VecMathTests@aos@shdfnd@physx@@YAXXZ 00000001800030a0 f   GuPCMContactConvexHeightField.obj
 0001:000020b0       ??__EminFError@_VecMathTests@aos@shdfnd@physx@@YAXXZ 00000001800030b0 f   GuPCMContactConvexHeightField.obj
 0001:000020c0       ??__EminV3Error@_VecMathTests@aos@shdfnd@physx@@YAXXZ 00000001800030c0 f   GuPCMContactConvexHeightField.obj
 0001:000020d0       ??__EminV4Error@_VecMathTests@aos@shdfnd@physx@@YAXXZ 00000001800030d0 f   GuPCMContactConvexHeightField.obj
 0001:000020e0       ??__EmaxFError@_VecMathTests@aos@shdfnd@physx@@YAXXZ 00000001800030e0 f   GuPCMContactConvexMesh.obj
 0001:000020f0       ??__EmaxV3Error@_VecMathTests@aos@shdfnd@physx@@YAXXZ 00000001800030f0 f   GuPCMContactConvexMesh.obj
 0001:00002100       ??__EmaxV4Error@_VecMathTests@aos@shdfnd@physx@@YAXXZ 0000000180003100 f   GuPCMContactConvexMesh.obj
 0001:00002110       ??__EminFError@_VecMathTests@aos@shdfnd@physx@@YAXXZ 0000000180003110 f   GuPCMContactConvexMesh.obj
 0001:00002120       ??__EminV3Error@_VecMathTests@aos@shdfnd@physx@@YAXXZ 0000000180003120 f   GuPCMContactConvexMesh.obj
 0001:00002130       ??__EminV4Error@_VecMathTests@aos@shdfnd@physx@@YAXXZ 0000000180003130 f   GuPCMContactConvexMesh.obj
 0001:00002140       ??__EmaxFError@_VecMathTests@aos@shdfnd@physx@@YAXXZ 0000000180003140 f   GuPCMContactGenBoxConvex.obj
 0001:00002150       ??__EmaxV3Error@_VecMathTests@aos@shdfnd@physx@@YAXXZ 0000000180003150 f   GuPCMContactGenBoxConvex.obj
 0001:00002160       ??__EmaxV4Error@_VecMathTests@aos@shdfnd@physx@@YAXXZ 0000000180003160 f   GuPCMContactGenBoxConvex.obj
 0001:00002170       ??__EminFError@_VecMathTests@aos@shdfnd@physx@@YAXXZ 0000000180003170 f   GuPCMContactGenBoxConvex.obj
 0001:00002180       ??__EminV3Error@_VecMathTests@aos@shdfnd@physx@@YAXXZ 0000000180003180 f   GuPCMContactGenBoxConvex.obj
 0001:00002190       ??__EminV4Error@_VecMathTests@aos@shdfnd@physx@@YAXXZ 0000000180003190 f   GuPCMContactGenBoxConvex.obj
 0001:000021a0       ??__EmaxFError@_VecMathTests@aos@shdfnd@physx@@YAXXZ 00000001800031a0 f   GuPCMContactGenSphereCapsule.obj
 0001:000021b0       ??__EmaxV3Error@_VecMathTests@aos@shdfnd@physx@@YAXXZ 00000001800031b0 f   GuPCMContactGenSphereCapsule.obj
 0001:000021c0       ??__EmaxV4Error@_VecMathTests@aos@shdfnd@physx@@YAXXZ 00000001800031c0 f   GuPCMContactGenSphereCapsule.obj
 0001:000021d0       ??__EminFError@_VecMathTests@aos@shdfnd@physx@@YAXXZ 00000001800031d0 f   GuPCMContactGenSphereCapsule.obj
 0001:000021e0       ??__EminV3Error@_VecMathTests@aos@shdfnd@physx@@YAXXZ 00000001800031e0 f   GuPCMContactGenSphereCapsule.obj
 0001:000021f0       ??__EminV4Error@_VecMathTests@aos@shdfnd@physx@@YAXXZ 00000001800031f0 f   GuPCMContactGenSphereCapsule.obj
 0001:00002200       ??__EmaxFError@_VecMathTests@aos@shdfnd@physx@@YAXXZ 0000000180003200 f   GuPCMContactPlaneBox.obj
 0001:00002210       ??__EmaxV3Error@_VecMathTests@aos@shdfnd@physx@@YAXXZ 0000000180003210 f   GuPCMContactPlaneBox.obj
 0001:00002220       ??__EmaxV4Error@_VecMathTests@aos@shdfnd@physx@@YAXXZ 0000000180003220 f   GuPCMContactPlaneBox.obj
 0001:00002230       ??__EminFError@_VecMathTests@aos@shdfnd@physx@@YAXXZ 0000000180003230 f   GuPCMContactPlaneBox.obj
 0001:00002240       ??__EminV3Error@_VecMathTests@aos@shdfnd@physx@@YAXXZ 0000000180003240 f   GuPCMContactPlaneBox.obj
 0001:00002250       ??__EminV4Error@_VecMathTests@aos@shdfnd@physx@@YAXXZ 0000000180003250 f   GuPCMContactPlaneBox.obj
 0001:00002260       ??__EmaxFError@_VecMathTests@aos@shdfnd@physx@@YAXXZ 0000000180003260 f   GuPCMContactPlaneCapsule.obj
 0001:00002270       ??__EmaxV3Error@_VecMathTests@aos@shdfnd@physx@@YAXXZ 0000000180003270 f   GuPCMContactPlaneCapsule.obj
 0001:00002280       ??__EmaxV4Error@_VecMathTests@aos@shdfnd@physx@@YAXXZ 0000000180003280 f   GuPCMContactPlaneCapsule.obj
 0001:00002290       ??__EminFError@_VecMathTests@aos@shdfnd@physx@@YAXXZ 0000000180003290 f   GuPCMContactPlaneCapsule.obj
 0001:000022a0       ??__EminV3Error@_VecMathTests@aos@shdfnd@physx@@YAXXZ 00000001800032a0 f   GuPCMContactPlaneCapsule.obj
 0001:000022b0       ??__EminV4Error@_VecMathTests@aos@shdfnd@physx@@YAXXZ 00000001800032b0 f   GuPCMContactPlaneCapsule.obj
 0001:000022c0       ??__EmaxFError@_VecMathTests@aos@shdfnd@physx@@YAXXZ 00000001800032c0 f   GuPCMContactPlaneConvex.obj
 0001:000022d0       ??__EmaxV3Error@_VecMathTests@aos@shdfnd@physx@@YAXXZ 00000001800032d0 f   GuPCMContactPlaneConvex.obj
 0001:000022e0       ??__EmaxV4Error@_VecMathTests@aos@shdfnd@physx@@YAXXZ 00000001800032e0 f   GuPCMContactPlaneConvex.obj
 0001:000022f0       ??__EminFError@_VecMathTests@aos@shdfnd@physx@@YAXXZ 00000001800032f0 f   GuPCMContactPlaneConvex.obj
 0001:00002300       ??__EminV3Error@_VecMathTests@aos@shdfnd@physx@@YAXXZ 0000000180003300 f   GuPCMContactPlaneConvex.obj
 0001:00002310       ??__EminV4Error@_VecMathTests@aos@shdfnd@physx@@YAXXZ 0000000180003310 f   GuPCMContactPlaneConvex.obj
 0001:00002320       ??__EmaxFError@_VecMathTests@aos@shdfnd@physx@@YAXXZ 0000000180003320 f   GuPCMContactSphereBox.obj
 0001:00002330       ??__EmaxV3Error@_VecMathTests@aos@shdfnd@physx@@YAXXZ 0000000180003330 f   GuPCMContactSphereBox.obj
 0001:00002340       ??__EmaxV4Error@_VecMathTests@aos@shdfnd@physx@@YAXXZ 0000000180003340 f   GuPCMContactSphereBox.obj
 0001:00002350       ??__EminFError@_VecMathTests@aos@shdfnd@physx@@YAXXZ 0000000180003350 f   GuPCMContactSphereBox.obj
 0001:00002360       ??__EminV3Error@_VecMathTests@aos@shdfnd@physx@@YAXXZ 0000000180003360 f   GuPCMContactSphereBox.obj
 0001:00002370       ??__EminV4Error@_VecMathTests@aos@shdfnd@physx@@YAXXZ 0000000180003370 f   GuPCMContactSphereBox.obj
 0001:00002380       ??__EmaxFError@_VecMathTests@aos@shdfnd@physx@@YAXXZ 0000000180003380 f   GuPCMContactSphereCapsule.obj
 0001:00002390       ??__EmaxV3Error@_VecMathTests@aos@shdfnd@physx@@YAXXZ 0000000180003390 f   GuPCMContactSphereCapsule.obj
 0001:000023a0       ??__EmaxV4Error@_VecMathTests@aos@shdfnd@physx@@YAXXZ 00000001800033a0 f   GuPCMContactSphereCapsule.obj
 0001:000023b0       ??__EminFError@_VecMathTests@aos@shdfnd@physx@@YAXXZ 00000001800033b0 f   GuPCMContactSphereCapsule.obj
 0001:000023c0       ??__EminV3Error@_VecMathTests@aos@shdfnd@physx@@YAXXZ 00000001800033c0 f   GuPCMContactSphereCapsule.obj
 0001:000023d0       ??__EminV4Error@_VecMathTests@aos@shdfnd@physx@@YAXXZ 00000001800033d0 f   GuPCMContactSphereCapsule.obj
 0001:000023e0       ??__EmaxFError@_VecMathTests@aos@shdfnd@physx@@YAXXZ 00000001800033e0 f   GuPCMContactSphereConvex.obj
 0001:000023f0       ??__EmaxV3Error@_VecMathTests@aos@shdfnd@physx@@YAXXZ 00000001800033f0 f   GuPCMContactSphereConvex.obj
 0001:00002400       ??__EmaxV4Error@_VecMathTests@aos@shdfnd@physx@@YAXXZ 0000000180003400 f   GuPCMContactSphereConvex.obj
 0001:00002410       ??__EminFError@_VecMathTests@aos@shdfnd@physx@@YAXXZ 0000000180003410 f   GuPCMContactSphereConvex.obj
 0001:00002420       ??__EminV3Error@_VecMathTests@aos@shdfnd@physx@@YAXXZ 0000000180003420 f   GuPCMContactSphereConvex.obj
 0001:00002430       ??__EminV4Error@_VecMathTests@aos@shdfnd@physx@@YAXXZ 0000000180003430 f   GuPCMContactSphereConvex.obj
 0001:00002440       ??__EmaxFError@_VecMathTests@aos@shdfnd@physx@@YAXXZ 0000000180003440 f   GuPCMContactSphereHeightField.obj
 0001:00002450       ??__EmaxV3Error@_VecMathTests@aos@shdfnd@physx@@YAXXZ 0000000180003450 f   GuPCMContactSphereHeightField.obj
 0001:00002460       ??__EmaxV4Error@_VecMathTests@aos@shdfnd@physx@@YAXXZ 0000000180003460 f   GuPCMContactSphereHeightField.obj
 0001:00002470       ??__EminFError@_VecMathTests@aos@shdfnd@physx@@YAXXZ 0000000180003470 f   GuPCMContactSphereHeightField.obj
 0001:00002480       ??__EminV3Error@_VecMathTests@aos@shdfnd@physx@@YAXXZ 0000000180003480 f   GuPCMContactSphereHeightField.obj
 0001:00002490       ??__EminV4Error@_VecMathTests@aos@shdfnd@physx@@YAXXZ 0000000180003490 f   GuPCMContactSphereHeightField.obj
 0001:000024a0       ??__EmaxFError@_VecMathTests@aos@shdfnd@physx@@YAXXZ 00000001800034a0 f   GuPCMContactSphereMesh.obj
 0001:000024b0       ??__EmaxV3Error@_VecMathTests@aos@shdfnd@physx@@YAXXZ 00000001800034b0 f   GuPCMContactSphereMesh.obj
 0001:000024c0       ??__EmaxV4Error@_VecMathTests@aos@shdfnd@physx@@YAXXZ 00000001800034c0 f   GuPCMContactSphereMesh.obj
 0001:000024d0       ??__EminFError@_VecMathTests@aos@shdfnd@physx@@YAXXZ 00000001800034d0 f   GuPCMContactSphereMesh.obj
 0001:000024e0       ??__EminV3Error@_VecMathTests@aos@shdfnd@physx@@YAXXZ 00000001800034e0 f   GuPCMContactSphereMesh.obj
 0001:000024f0       ??__EminV4Error@_VecMathTests@aos@shdfnd@physx@@YAXXZ 00000001800034f0 f   GuPCMContactSphereMesh.obj
 0001:00002500       ??__EmaxFError@_VecMathTests@aos@shdfnd@physx@@YAXXZ 0000000180003500 f   GuPCMContactSpherePlane.obj
 0001:00002510       ??__EmaxV3Error@_VecMathTests@aos@shdfnd@physx@@YAXXZ 0000000180003510 f   GuPCMContactSpherePlane.obj
 0001:00002520       ??__EmaxV4Error@_VecMathTests@aos@shdfnd@physx@@YAXXZ 0000000180003520 f   GuPCMContactSpherePlane.obj
 0001:00002530       ??__EminFError@_VecMathTests@aos@shdfnd@physx@@YAXXZ 0000000180003530 f   GuPCMContactSpherePlane.obj
 0001:00002540       ??__EminV3Error@_VecMathTests@aos@shdfnd@physx@@YAXXZ 0000000180003540 f   GuPCMContactSpherePlane.obj
 0001:00002550       ??__EminV4Error@_VecMathTests@aos@shdfnd@physx@@YAXXZ 0000000180003550 f   GuPCMContactSpherePlane.obj
 0001:00002560       ??__EmaxFError@_VecMathTests@aos@shdfnd@physx@@YAXXZ 0000000180003560 f   GuPCMContactSphereSphere.obj
 0001:00002570       ??__EmaxV3Error@_VecMathTests@aos@shdfnd@physx@@YAXXZ 0000000180003570 f   GuPCMContactSphereSphere.obj
 0001:00002580       ??__EmaxV4Error@_VecMathTests@aos@shdfnd@physx@@YAXXZ 0000000180003580 f   GuPCMContactSphereSphere.obj
 0001:00002590       ??__EminFError@_VecMathTests@aos@shdfnd@physx@@YAXXZ 0000000180003590 f   GuPCMContactSphereSphere.obj
 0001:000025a0       ??__EminV3Error@_VecMathTests@aos@shdfnd@physx@@YAXXZ 00000001800035a0 f   GuPCMContactSphereSphere.obj
 0001:000025b0       ??__EminV4Error@_VecMathTests@aos@shdfnd@physx@@YAXXZ 00000001800035b0 f   GuPCMContactSphereSphere.obj
 0001:000025c0       ??__EmaxFError@_VecMathTests@aos@shdfnd@physx@@YAXXZ 00000001800035c0 f   GuPCMShapeConvex.obj
 0001:000025d0       ??__EmaxV3Error@_VecMathTests@aos@shdfnd@physx@@YAXXZ 00000001800035d0 f   GuPCMShapeConvex.obj
 0001:000025e0       ??__EmaxV4Error@_VecMathTests@aos@shdfnd@physx@@YAXXZ 00000001800035e0 f   GuPCMShapeConvex.obj
 0001:000025f0       ??__EminFError@_VecMathTests@aos@shdfnd@physx@@YAXXZ 00000001800035f0 f   GuPCMShapeConvex.obj
 0001:00002600       ??__EminV3Error@_VecMathTests@aos@shdfnd@physx@@YAXXZ 0000000180003600 f   GuPCMShapeConvex.obj
 0001:00002610       ??__EminV4Error@_VecMathTests@aos@shdfnd@physx@@YAXXZ 0000000180003610 f   GuPCMShapeConvex.obj
 0001:00002620       ??__EmaxFError@_VecMathTests@aos@shdfnd@physx@@YAXXZ 0000000180003620 f   GuPCMTriangleContactGen.obj
 0001:00002630       ??__EmaxV3Error@_VecMathTests@aos@shdfnd@physx@@YAXXZ 0000000180003630 f   GuPCMTriangleContactGen.obj
 0001:00002640       ??__EmaxV4Error@_VecMathTests@aos@shdfnd@physx@@YAXXZ 0000000180003640 f   GuPCMTriangleContactGen.obj
 0001:00002650       ??__EminFError@_VecMathTests@aos@shdfnd@physx@@YAXXZ 0000000180003650 f   GuPCMTriangleContactGen.obj
 0001:00002660       ??__EminV3Error@_VecMathTests@aos@shdfnd@physx@@YAXXZ 0000000180003660 f   GuPCMTriangleContactGen.obj
 0001:00002670       ??__EminV4Error@_VecMathTests@aos@shdfnd@physx@@YAXXZ 0000000180003670 f   GuPCMTriangleContactGen.obj
 0001:00002680       ??__EmaxFError@_VecMathTests@aos@shdfnd@physx@@YAXXZ 0000000180003680 f   GuPersistentContactManifold.obj
 0001:00002690       ??__EmaxV3Error@_VecMathTests@aos@shdfnd@physx@@YAXXZ 0000000180003690 f   GuPersistentContactManifold.obj
 0001:000026a0       ??__EmaxV4Error@_VecMathTests@aos@shdfnd@physx@@YAXXZ 00000001800036a0 f   GuPersistentContactManifold.obj
 0001:000026b0       ??__EminFError@_VecMathTests@aos@shdfnd@physx@@YAXXZ 00000001800036b0 f   GuPersistentContactManifold.obj
 0001:000026c0       ??__EminV3Error@_VecMathTests@aos@shdfnd@physx@@YAXXZ 00000001800036c0 f   GuPersistentContactManifold.obj
 0001:000026d0       ??__EminV4Error@_VecMathTests@aos@shdfnd@physx@@YAXXZ 00000001800036d0 f   GuPersistentContactManifold.obj
 0001:000026e0       ??__EmaxFError@_VecMathTests@aos@shdfnd@physx@@YAXXZ 00000001800036e0 f   GuSweepBoxBox.obj
 0001:000026f0       ??__EmaxV3Error@_VecMathTests@aos@shdfnd@physx@@YAXXZ 00000001800036f0 f   GuSweepBoxBox.obj
 0001:00002700       ??__EmaxV4Error@_VecMathTests@aos@shdfnd@physx@@YAXXZ 0000000180003700 f   GuSweepBoxBox.obj
 0001:00002710       ??__EminFError@_VecMathTests@aos@shdfnd@physx@@YAXXZ 0000000180003710 f   GuSweepBoxBox.obj
 0001:00002720       ??__EminV3Error@_VecMathTests@aos@shdfnd@physx@@YAXXZ 0000000180003720 f   GuSweepBoxBox.obj
 0001:00002730       ??__EminV4Error@_VecMathTests@aos@shdfnd@physx@@YAXXZ 0000000180003730 f   GuSweepBoxBox.obj
 0001:00002740       ??__EmaxFError@_VecMathTests@aos@shdfnd@physx@@YAXXZ 0000000180003740 f   GuSweepBoxSphere.obj
 0001:00002750       ??__EmaxV3Error@_VecMathTests@aos@shdfnd@physx@@YAXXZ 0000000180003750 f   GuSweepBoxSphere.obj
 0001:00002760       ??__EmaxV4Error@_VecMathTests@aos@shdfnd@physx@@YAXXZ 0000000180003760 f   GuSweepBoxSphere.obj
 0001:00002770       ??__EminFError@_VecMathTests@aos@shdfnd@physx@@YAXXZ 0000000180003770 f   GuSweepBoxSphere.obj
 0001:00002780       ??__EminV3Error@_VecMathTests@aos@shdfnd@physx@@YAXXZ 0000000180003780 f   GuSweepBoxSphere.obj
 0001:00002790       ??__EminV4Error@_VecMathTests@aos@shdfnd@physx@@YAXXZ 0000000180003790 f   GuSweepBoxSphere.obj
 0001:000027a0       ??__EmaxFError@_VecMathTests@aos@shdfnd@physx@@YAXXZ 00000001800037a0 f   GuSweepBoxTriangle_FeatureBased.obj
 0001:000027b0       ??__EmaxV3Error@_VecMathTests@aos@shdfnd@physx@@YAXXZ 00000001800037b0 f   GuSweepBoxTriangle_FeatureBased.obj
 0001:000027c0       ??__EmaxV4Error@_VecMathTests@aos@shdfnd@physx@@YAXXZ 00000001800037c0 f   GuSweepBoxTriangle_FeatureBased.obj
 0001:000027d0       ??__EminFError@_VecMathTests@aos@shdfnd@physx@@YAXXZ 00000001800037d0 f   GuSweepBoxTriangle_FeatureBased.obj
 0001:000027e0       ??__EminV3Error@_VecMathTests@aos@shdfnd@physx@@YAXXZ 00000001800037e0 f   GuSweepBoxTriangle_FeatureBased.obj
 0001:000027f0       ??__EminV4Error@_VecMathTests@aos@shdfnd@physx@@YAXXZ 00000001800037f0 f   GuSweepBoxTriangle_FeatureBased.obj
 0001:00002800       ??__EmaxFError@_VecMathTests@aos@shdfnd@physx@@YAXXZ 0000000180003800 f   GuSweepBoxTriangle_SAT.obj
 0001:00002810       ??__EmaxV3Error@_VecMathTests@aos@shdfnd@physx@@YAXXZ 0000000180003810 f   GuSweepBoxTriangle_SAT.obj
 0001:00002820       ??__EmaxV4Error@_VecMathTests@aos@shdfnd@physx@@YAXXZ 0000000180003820 f   GuSweepBoxTriangle_SAT.obj
 0001:00002830       ??__EminFError@_VecMathTests@aos@shdfnd@physx@@YAXXZ 0000000180003830 f   GuSweepBoxTriangle_SAT.obj
 0001:00002840       ??__EminV3Error@_VecMathTests@aos@shdfnd@physx@@YAXXZ 0000000180003840 f   GuSweepBoxTriangle_SAT.obj
 0001:00002850       ??__EminV4Error@_VecMathTests@aos@shdfnd@physx@@YAXXZ 0000000180003850 f   GuSweepBoxTriangle_SAT.obj
 0001:00002860       ??__EmaxFError@_VecMathTests@aos@shdfnd@physx@@YAXXZ 0000000180003860 f   GuSweepCapsuleBox.obj
 0001:00002870       ??__EmaxV3Error@_VecMathTests@aos@shdfnd@physx@@YAXXZ 0000000180003870 f   GuSweepCapsuleBox.obj
 0001:00002880       ??__EmaxV4Error@_VecMathTests@aos@shdfnd@physx@@YAXXZ 0000000180003880 f   GuSweepCapsuleBox.obj
 0001:00002890       ??__EminFError@_VecMathTests@aos@shdfnd@physx@@YAXXZ 0000000180003890 f   GuSweepCapsuleBox.obj
 0001:000028a0       ??__EminV3Error@_VecMathTests@aos@shdfnd@physx@@YAXXZ 00000001800038a0 f   GuSweepCapsuleBox.obj
 0001:000028b0       ??__EminV4Error@_VecMathTests@aos@shdfnd@physx@@YAXXZ 00000001800038b0 f   GuSweepCapsuleBox.obj
 0001:000028c0       ??__EmaxFError@_VecMathTests@aos@shdfnd@physx@@YAXXZ 00000001800038c0 f   GuSweepCapsuleTriangle.obj
 0001:000028d0       ??__EmaxV3Error@_VecMathTests@aos@shdfnd@physx@@YAXXZ 00000001800038d0 f   GuSweepCapsuleTriangle.obj
 0001:000028e0       ??__EmaxV4Error@_VecMathTests@aos@shdfnd@physx@@YAXXZ 00000001800038e0 f   GuSweepCapsuleTriangle.obj
 0001:000028f0       ??__EminFError@_VecMathTests@aos@shdfnd@physx@@YAXXZ 00000001800038f0 f   GuSweepCapsuleTriangle.obj
 0001:00002900       ??__EminV3Error@_VecMathTests@aos@shdfnd@physx@@YAXXZ 0000000180003900 f   GuSweepCapsuleTriangle.obj
 0001:00002910       ??__EminV4Error@_VecMathTests@aos@shdfnd@physx@@YAXXZ 0000000180003910 f   GuSweepCapsuleTriangle.obj
 0001:00002920       ??__EmaxFError@_VecMathTests@aos@shdfnd@physx@@YAXXZ 0000000180003920 f   GuSweepSphereTriangle.obj
 0001:00002930       ??__EmaxV3Error@_VecMathTests@aos@shdfnd@physx@@YAXXZ 0000000180003930 f   GuSweepSphereTriangle.obj
 0001:00002940       ??__EmaxV4Error@_VecMathTests@aos@shdfnd@physx@@YAXXZ 0000000180003940 f   GuSweepSphereTriangle.obj
 0001:00002950       ??__EminFError@_VecMathTests@aos@shdfnd@physx@@YAXXZ 0000000180003950 f   GuSweepSphereTriangle.obj
 0001:00002960       ??__EminV3Error@_VecMathTests@aos@shdfnd@physx@@YAXXZ 0000000180003960 f   GuSweepSphereTriangle.obj
 0001:00002970       ??__EminV4Error@_VecMathTests@aos@shdfnd@physx@@YAXXZ 0000000180003970 f   GuSweepSphereTriangle.obj
 0001:00002980       ??__EmaxFError@_VecMathTests@aos@shdfnd@physx@@YAXXZ 0000000180003980 f   GuSweepTriangleUtils.obj
 0001:00002990       ??__EmaxV3Error@_VecMathTests@aos@shdfnd@physx@@YAXXZ 0000000180003990 f   GuSweepTriangleUtils.obj
 0001:000029a0       ??__EmaxV4Error@_VecMathTests@aos@shdfnd@physx@@YAXXZ 00000001800039a0 f   GuSweepTriangleUtils.obj
 0001:000029b0       ??__EminFError@_VecMathTests@aos@shdfnd@physx@@YAXXZ 00000001800039b0 f   GuSweepTriangleUtils.obj
 0001:000029c0       ??__EminV3Error@_VecMathTests@aos@shdfnd@physx@@YAXXZ 00000001800039c0 f   GuSweepTriangleUtils.obj
 0001:000029d0       ??__EminV4Error@_VecMathTests@aos@shdfnd@physx@@YAXXZ 00000001800039d0 f   GuSweepTriangleUtils.obj
 0001:000094d0       $LN24                      000000018000a4d0     CmWindowsDelayLoadHook.obj
 0001:0000a7b4       $LN727                     000000018000b7b4     GuBounds.obj
 0001:0000a988       $LN78                      000000018000b988     GuBounds.obj
 0001:0000a9f0       ?computeMeshBounds@@YAXAEBVPxVec3@physx@@AEBVPxMat33Padded@Gu@2@PEIBVCenterExtentsPadded@42@AEBVPxMeshScale@2@AEAVVec3p@42@4@Z 000000018000b9f0 f   GuBounds.obj
 0001:0000b1b0       ?computePlaneBounds@@YAXAEAVPxBounds3@physx@@AEBVPxTransform@2@MM@Z 000000018000c1b0 f   GuBounds.obj
 0001:0000b460       ?computeScaledMatrix@@YAXAEAVPxMat33Padded@Gu@physx@@AEBVPxMeshScale@3@@Z 000000018000c460 f   GuBounds.obj
 0001:0000c9f0       ??_GLocalReport@?1??sweepBox_HeightFieldGeom_Precise@@YA_NAEBVPxGeometry@physx@@AEBVPxTransform@3@AEBVPxBoxGeometry@3@1AEBVBox@Gu@3@AEBVPxVec3@3@MAEAUPxSweepHit@3@V?$PxFlags@W4Enum@PxHitFlag@physx@@G@3@M@Z@UEAAPEAXI@Z 000000018000d9f0 f   GuCCTSweepTests.obj
 0001:0000c9f0       ??_GHfTrianglesEntityReport2@?A0x53027822@@UEAAPEAXI@Z 000000018000d9f0 f   GuMeshQuery.obj
 0001:0000d630       ?onEvent@LocalReport@?1??sweepBox_HeightFieldGeom_Precise@@YA_NAEBVPxGeometry@physx@@AEBVPxTransform@4@AEBVPxBoxGeometry@4@1AEBVBox@Gu@4@AEBVPxVec3@4@MAEAUPxSweepHit@4@V?$PxFlags@W4Enum@PxHitFlag@physx@@G@4@M@Z@UEAA_NIPEAI@Z 000000018000e630 f   GuCCTSweepTests.obj
 0001:0000d920       ?sweepBoxVsTriangles@@YA_NIPEBVPxTriangle@physx@@AEBVBox@Gu@2@AEBVPxVec3@2@MAEAUPxSweepHit@2@V?$PxFlags@W4Enum@PxHitFlag@physx@@G@2@_NPEBI@Z 000000018000e920 f   GuCCTSweepTests.obj
 0001:000106c4       $LN269                     00000001800116c4     GuGeometryQuery.obj
 0001:00011030       $LN226                     0000000180012030     GuGeometryQuery.obj
 0001:00011360       $LN46                      0000000180012360     GuGeometryUnion.obj
 0001:00013700       ?loadMeshData@@YAPEAVTriangleMeshData@Gu@physx@@AEAVPxInputStream@3@@Z 0000000180014700 f   GuMeshFactory.obj
 0001:00016ab0       ?getBinaryMetaData@ShadowConvexMeshGeometry@?1??0GeometryUnion@Gu@physx@@SAXAEAVPxOutputStream@4@@Z@SAX0@Z 0000000180017ab0 f   GuMetaData.obj
 0001:00016d20       ?getBinaryMetaData@ShadowHeightFieldGeometry@?1??0GeometryUnion@Gu@physx@@SAXAEAVPxOutputStream@4@@Z@SAX0@Z 0000000180017d20 f   GuMetaData.obj
 0001:00016fc0       ?getBinaryMetaData@ShadowTriangleMeshGeometry@?1??0GeometryUnion@Gu@physx@@SAXAEAVPxOutputStream@4@@Z@SAX0@Z 0000000180017fc0 f   GuMetaData.obj
 0001:00017a90       ?getBinaryMetaData_BVDataPackedQ@@YAXAEAVPxOutputStream@physx@@@Z 0000000180018a90 f   GuMetaData.obj
 0001:00017d10       ?getBinaryMetaData_BigConvexRawData@@YAXAEAVPxOutputStream@physx@@@Z 0000000180018d10 f   GuMetaData.obj
 0001:00017f40       ?getBinaryMetaData_ConvexHullData@@YAXAEAVPxOutputStream@physx@@@Z 0000000180018f40 f   GuMetaData.obj
 0001:000181b0       ?getBinaryMetaData_HeightFieldData@@YAXAEAVPxOutputStream@physx@@@Z 00000001800191b0 f   GuMetaData.obj
 0001:000184e0       ?getBinaryMetaData_RTreePage@@YAXAEAVPxOutputStream@physx@@@Z 00000001800194e0 f   GuMetaData.obj
 0001:000187d0       ?GeomMTDCallback_NotSupported@@YA_NAEAVPxVec3@physx@@AEAMAEBVPxGeometry@2@AEBVPxTransform@2@23@Z 00000001800197d0 f   GuMTD.obj
 0001:000187d0       ?GeomOverlapCallback_NotSupported@@YA_NAEBVPxGeometry@physx@@AEBVPxTransform@2@01PEAUTriggerCache@Gu@2@@Z 00000001800197d0 f   GuOverlapTests.obj
 0001:000187e0       ?GeomMTDCallback_SphereSphere@@YA_NAEAVPxVec3@physx@@AEAMAEBVPxGeometry@2@AEBVPxTransform@2@23@Z 00000001800197e0 f   GuMTD.obj
 0001:000188c0       ?GeomMTDCallback_SpherePlane@@YA_NAEAVPxVec3@physx@@AEAMAEBVPxGeometry@2@AEBVPxTransform@2@23@Z 00000001800198c0 f   GuMTD.obj
 0001:000189c0       ?GeomMTDCallback_SphereCapsule@@YA_NAEAVPxVec3@physx@@AEAMAEBVPxGeometry@2@AEBVPxTransform@2@23@Z 00000001800199c0 f   GuMTD.obj
 0001:00018b00       ?GeomMTDCallback_SphereBox@@YA_NAEAVPxVec3@physx@@AEAMAEBVPxGeometry@2@AEBVPxTransform@2@23@Z 0000000180019b00 f   GuMTD.obj
 0001:00018c30       ?GeomMTDCallback_SphereConvex@@YA_NAEAVPxVec3@physx@@AEAMAEBVPxGeometry@2@AEBVPxTransform@2@23@Z 0000000180019c30 f   GuMTD.obj
 0001:00018c90       ?GeomMTDCallback_SphereMesh@@YA_NAEAVPxVec3@physx@@AEAMAEBVPxGeometry@2@AEBVPxTransform@2@23@Z 0000000180019c90 f   GuMTD.obj
 0001:00018e00       ?GeomMTDCallback_PlaneCapsule@@YA_NAEAVPxVec3@physx@@AEAMAEBVPxGeometry@2@AEBVPxTransform@2@23@Z 0000000180019e00 f   GuMTD.obj
 0001:00018fe0       ?GeomMTDCallback_PlaneBox@@YA_NAEAVPxVec3@physx@@AEAMAEBVPxGeometry@2@AEBVPxTransform@2@23@Z 0000000180019fe0 f   GuMTD.obj
 0001:000192e0       ?GeomMTDCallback_PlaneConvex@@YA_NAEAVPxVec3@physx@@AEAMAEBVPxGeometry@2@AEBVPxTransform@2@23@Z 000000018001a2e0 f   GuMTD.obj
 0001:00019330       ?GeomMTDCallback_CapsuleCapsule@@YA_NAEAVPxVec3@physx@@AEAMAEBVPxGeometry@2@AEBVPxTransform@2@23@Z 000000018001a330 f   GuMTD.obj
 0001:00019510       ?GeomMTDCallback_CapsuleBox@@YA_NAEAVPxVec3@physx@@AEAMAEBVPxGeometry@2@AEBVPxTransform@2@23@Z 000000018001a510 f   GuMTD.obj
 0001:000196f0       ?GeomMTDCallback_CapsuleConvex@@YA_NAEAVPxVec3@physx@@AEAMAEBVPxGeometry@2@AEBVPxTransform@2@23@Z 000000018001a6f0 f   GuMTD.obj
 0001:00019800       ?GeomMTDCallback_CapsuleMesh@@YA_NAEAVPxVec3@physx@@AEAMAEBVPxGeometry@2@AEBVPxTransform@2@23@Z 000000018001a800 f   GuMTD.obj
 0001:00019a10       ?GeomMTDCallback_BoxBox@@YA_NAEAVPxVec3@physx@@AEAMAEBVPxGeometry@2@AEBVPxTransform@2@23@Z 000000018001aa10 f   GuMTD.obj
 0001:00019bf0       ?GeomMTDCallback_BoxConvex@@YA_NAEAVPxVec3@physx@@AEAMAEBVPxGeometry@2@AEBVPxTransform@2@23@Z 000000018001abf0 f   GuMTD.obj
 0001:00019cf0       ?GeomMTDCallback_BoxMesh@@YA_NAEAVPxVec3@physx@@AEAMAEBVPxGeometry@2@AEBVPxTransform@2@23@Z 000000018001acf0 f   GuMTD.obj
 0001:00019f60       ?GeomMTDCallback_ConvexConvex@@YA_NAEAVPxVec3@physx@@AEAMAEBVPxGeometry@2@AEBVPxTransform@2@23@Z 000000018001af60 f   GuMTD.obj
 0001:00019f70       ?GeomMTDCallback_ConvexMesh@@YA_NAEAVPxVec3@physx@@AEAMAEBVPxGeometry@2@AEBVPxTransform@2@23@Z 000000018001af70 f   GuMTD.obj
 0001:0001a080       ?GeomMTDCallback_SphereHeightField@@YA_NAEAVPxVec3@physx@@AEAMAEBVPxGeometry@2@AEBVPxTransform@2@23@Z 000000018001b080 f   GuMTD.obj
 0001:0001a1f0       ?GeomMTDCallback_CapsuleHeightField@@YA_NAEAVPxVec3@physx@@AEAMAEBVPxGeometry@2@AEBVPxTransform@2@23@Z 000000018001b1f0 f   GuMTD.obj
 0001:0001a400       ?GeomMTDCallback_BoxHeightField@@YA_NAEAVPxVec3@physx@@AEAMAEBVPxGeometry@2@AEBVPxTransform@2@23@Z 000000018001b400 f   GuMTD.obj
 0001:0001a670       ?GeomMTDCallback_ConvexHeightField@@YA_NAEAVPxVec3@physx@@AEAMAEBVPxGeometry@2@AEBVPxTransform@2@23@Z 000000018001b670 f   GuMTD.obj
 0001:0001c3c0       ?PxcCapsuleOBBOverlap3@@YA_NAEBVSegment@Gu@physx@@MAEBVBox@23@PEAMPEAVPxVec3@3@@Z 000000018001d3c0 f   GuMTD.obj
 0001:0001c780       ?PxcTestAxis@@YA_NAEBVPxVec3@physx@@AEBVBox@Gu@2@1AEAM@Z 000000018001d780 f   GuMTD.obj
 0001:0001c970       ?GuTestAxis@@YA_NAEBVPxVec3@physx@@AEBVSegment@Gu@2@MAEBVBox@42@AEAM@Z 000000018001d970 f   GuContactCapsuleBox.obj
 0001:0001c970       ?PxcTestAxis@@YA_NAEBVPxVec3@physx@@AEBVSegment@Gu@2@MAEBVBox@42@AEAM@Z 000000018001d970 f   GuMTD.obj
 0001:0001cb70       ?computeMTD_BoxBox@@YA_NAEAVPxVec3@physx@@AEAMAEBVBox@Gu@2@2@Z 000000018001db70 f   GuMTD.obj
 0001:0001cfa0       ?computeMTD_BoxConvex@@YA_NAEAVPxVec3@physx@@AEAMAEBVBox@Gu@2@AEBVPxConvexMeshGeometry@2@AEBVPxTransform@2@@Z 000000018001dfa0 f   GuMTD.obj
 0001:0001d750       ?computeMTD_CapsuleBox@@YA_NAEAVPxVec3@physx@@AEAMAEBVCapsule@Gu@2@AEBVBox@42@@Z 000000018001e750 f   GuMTD.obj
 0001:0001d970       ?computeMTD_CapsuleCapsule@@YA_NAEAVPxVec3@physx@@AEAMAEBVCapsule@Gu@2@2@Z 000000018001e970 f   GuMTD.obj
 0001:0001db90       ?computeMTD_CapsuleConvex@@YA_NAEAVPxVec3@physx@@AEAMAEBVCapsule@Gu@2@AEBVPxTransform@2@AEBVPxConvexMeshGeometry@2@3@Z 000000018001eb90 f   GuMTD.obj
 0001:0001e430       ?computeMTD_ConvexConvex@@YA_NAEAVPxVec3@physx@@AEAMAEBVPxConvexMeshGeometry@2@AEBVPxTransform@2@23@Z 000000018001f430 f   GuMTD.obj
 0001:0001ee80       ?computeMTD_PlaneConvex@@YA_NAEAVPxVec3@physx@@AEAMAEBVPxPlane@2@AEBVPxConvexMeshGeometry@2@AEBVPxTransform@2@@Z 000000018001fe80 f   GuMTD.obj
 0001:0001f850       ?computeMTD_SphereBox@@YA_NAEAVPxVec3@physx@@AEAMAEBVSphere@Gu@2@AEBVBox@42@@Z 0000000180020850 f   GuMTD.obj
 0001:0001fde0       ?computeMTD_SphereCapsule@@YA_NAEAVPxVec3@physx@@AEAMAEBVSphere@Gu@2@AEBVCapsule@42@@Z 0000000180020de0 f   GuMTD.obj
 0001:00020040       ?computeMTD_SphereConvex@@YA_NAEAVPxVec3@physx@@AEAMAEBVSphere@Gu@2@AEBVPxConvexMeshGeometry@2@AEBVPxTransform@2@@Z 0000000180021040 f   GuMTD.obj
 0001:00021320       ?processContacts@@YA_NAEAVPxVec3@physx@@AEAMIPEBUContactPoint@Gu@2@@Z 0000000180022320 f   GuMTD.obj
 0001:00022280       ?GeomOverlapCallback_SphereSphere@@YA_NAEBVPxGeometry@physx@@AEBVPxTransform@2@01PEAUTriggerCache@Gu@2@@Z 0000000180023280 f   GuOverlapTests.obj
 0001:000222d0       ?GeomOverlapCallback_SpherePlane@@YA_NAEBVPxGeometry@physx@@AEBVPxTransform@2@01PEAUTriggerCache@Gu@2@@Z 00000001800232d0 f   GuOverlapTests.obj
 0001:00022330       ?GeomOverlapCallback_SphereCapsule@@YA_NAEBVPxGeometry@physx@@AEBVPxTransform@2@01PEAUTriggerCache@Gu@2@@Z 0000000180023330 f   GuOverlapTests.obj
 0001:00022500       ?GeomOverlapCallback_SphereBox@@YA_NAEBVPxGeometry@physx@@AEBVPxTransform@2@01PEAUTriggerCache@Gu@2@@Z 0000000180023500 f   GuOverlapTests.obj
 0001:00022610       ?GeomOverlapCallback_SphereConvex@@YA_NAEBVPxGeometry@physx@@AEBVPxTransform@2@01PEAUTriggerCache@Gu@2@@Z 0000000180023610 f   GuOverlapTests.obj
 0001:000226d0       ?GeomOverlapCallback_PlaneCapsule@@YA_NAEBVPxGeometry@physx@@AEBVPxTransform@2@01PEAUTriggerCache@Gu@2@@Z 00000001800236d0 f   GuOverlapTests.obj
 0001:00022850       ?GeomOverlapCallback_PlaneBox@@YA_NAEBVPxGeometry@physx@@AEBVPxTransform@2@01PEAUTriggerCache@Gu@2@@Z 0000000180023850 f   GuOverlapTests.obj
 0001:00022b10       ?GeomOverlapCallback_PlaneConvex@@YA_NAEBVPxGeometry@physx@@AEBVPxTransform@2@01PEAUTriggerCache@Gu@2@@Z 0000000180023b10 f   GuOverlapTests.obj
 0001:00023130       ?GeomOverlapCallback_CapsuleCapsule@@YA_NAEBVPxGeometry@physx@@AEBVPxTransform@2@01PEAUTriggerCache@Gu@2@@Z 0000000180024130 f   GuOverlapTests.obj
 0001:00023350       ?GeomOverlapCallback_CapsuleBox@@YA_NAEBVPxGeometry@physx@@AEBVPxTransform@2@01PEAUTriggerCache@Gu@2@@Z 0000000180024350 f   GuOverlapTests.obj
 0001:00023630       ?GeomOverlapCallback_CapsuleConvex@@YA_NAEBVPxGeometry@physx@@AEBVPxTransform@2@01PEAUTriggerCache@Gu@2@@Z 0000000180024630 f   GuOverlapTests.obj
 0001:000236e0       ?GeomOverlapCallback_BoxBox@@YA_NAEBVPxGeometry@physx@@AEBVPxTransform@2@01PEAUTriggerCache@Gu@2@@Z 00000001800246e0 f   GuOverlapTests.obj
 0001:00023840       ?GeomOverlapCallback_BoxConvex@@YA_NAEBVPxGeometry@physx@@AEBVPxTransform@2@01PEAUTriggerCache@Gu@2@@Z 0000000180024840 f   GuOverlapTests.obj
 0001:000238f0       ?GeomOverlapCallback_ConvexConvex@@YA_NAEBVPxGeometry@physx@@AEBVPxTransform@2@01PEAUTriggerCache@Gu@2@@Z 00000001800248f0 f   GuOverlapTests.obj
 0001:000246c0       ?GeomOverlapCallback_HeightfieldUnregistered@@YA_NAEBVPxGeometry@physx@@AEBVPxTransform@2@01PEAUTriggerCache@Gu@2@@Z 00000001800256c0 f   GuOverlapTests.obj
 0001:00026460       ?intersectBoxConvex@@YA_NAEBVPxBoxGeometry@physx@@AEBVPxTransform@2@AEBVConvexMesh@Gu@2@AEBVPxMeshScale@2@1PEAVPxVec3@2@@Z 0000000180027460 f   GuOverlapTests.obj
 0001:00026d10       ?intersectCapsuleConvex@@YA_NAEBVPxCapsuleGeometry@physx@@AEBVPxTransform@2@AEBVConvexMesh@Gu@2@AEBVPxMeshScale@2@1PEAVPxVec3@2@@Z 0000000180027d10 f   GuOverlapTests.obj
 0001:00027530       ?intersectSphereConvex@@YA_NAEBVPxTransform@physx@@MAEBVConvexMesh@Gu@2@AEBVPxMeshScale@2@0PEAVPxVec3@2@@Z 0000000180028530 f   GuOverlapTests.obj
 0001:00027c00       ?projectHull_@@YA?AVPxVec3@physx@@AEBUConvexHullData@Gu@2@AEAM1AEBV12@AEBVPxMat33@2@@Z 0000000180028c00 f   GuOverlapTests.obj
 0001:00029200       ?raycast_heightField_unregistered@@YAIAEBVPxGeometry@physx@@AEBVPxTransform@2@AEBVPxVec3@2@2MV?$PxFlags@W4Enum@PxHitFlag@physx@@G@2@IPEIAUPxRaycastHit@2@@Z 000000018002a200 f   GuRaycastTests.obj
 0001:00029a00       ??$traceSegment@UHFTraceSegmentCallback@?A0x02500555@@$0A@$0A@@HeightFieldTraceUtil@Gu@physx@@QEBAXAEBVPxVec3@2@0MPEAUHFTraceSegmentCallback@?A0x02500555@@AEBVPxBounds3@2@_NPEBV32@@Z 000000018002aa00 f   GuRaycastTests.obj
 0001:0002b3b0       ?faceHit@HFTraceSegmentCallback@?A0x02500555@@QEAA_NAEBVHeightFieldUtil@Gu@physx@@AEBVPxVec3@5@IMM@Z 000000018002c3b0 f   GuRaycastTests.obj
 0001:0003b570       ?computeSweepConvexPlane@@YAIAEBVPxConvexMeshGeometry@physx@@PEAUConvexHullData@Gu@2@AEBIAEBVPxTransform@2@AEBVPxVec3@2@4@Z 000000018003c570 f   GuSweepSharedTests.obj
 0001:00042ca0       ?sweepCapsule_HeightfieldUnregistered@@YA_NAEBVPxGeometry@physx@@AEBVPxTransform@2@AEBVPxCapsuleGeometry@2@1AEBVCapsule@Gu@2@AEBVPxVec3@2@MAEAUPxSweepHit@2@V?$PxFlags@W4Enum@PxHitFlag@physx@@G@2@M@Z 0000000180043ca0 f   GuSweepTests.obj
 0001:00042ce0       ?sweepBox_HeightfieldUnregistered@@YA_NAEBVPxGeometry@physx@@AEBVPxTransform@2@AEBVPxBoxGeometry@2@1AEBVBox@Gu@2@AEBVPxVec3@2@MAEAUPxSweepHit@2@V?$PxFlags@W4Enum@PxHitFlag@physx@@G@2@M@Z 0000000180043ce0 f   GuSweepTests.obj
 0001:00042d20       ?sweepConvex_HeightfieldUnregistered@@YA_NAEBVPxGeometry@physx@@AEBVPxTransform@2@AEBVPxConvexMeshGeometry@2@1AEBVPxVec3@2@MAEAUPxSweepHit@2@V?$PxFlags@W4Enum@PxHitFlag@physx@@G@2@M@Z 0000000180043d20 f   GuSweepTests.obj
 0001:00049750       ?split@@YAIAEBVPxBounds3@physx@@IQEIAIIAEBVAABBTreeBuildParams@Gu@2@@Z 000000018004a750 f   GuAABBTreeBuild.obj
 0001:0004b690       ??_GAccumCallback@?A0x58bf8b61@Gu@physx@@UEAAPEAXI@Z 000000018004c690 f   GuCCDSweepConvexMesh.obj
 0001:0004b6c0       ??_GCB@?1??SweepEstimateAnyShapeMesh@Gu@physx@@YAMAEBUCCDShape@23@0AEBVPxTransform@3@111MM@Z@UEAAPEAXI@Z 000000018004c6c0 f   GuCCDSweepConvexMesh.obj
 0001:0004b6c0       ??_G?$IntersectCapsuleVsMeshCallback@$00@?A0xa8ceae12@@UEAAPEAXI@Z 000000018004c6c0 f   GuMidphaseRTree.obj
 0001:0004b6c0       ??_G?$IntersectCapsuleVsMeshCallback@$0A@@?A0xa8ceae12@@UEAAPEAXI@Z 000000018004c6c0 f   GuMidphaseRTree.obj
 0001:0004b6f0       ??_GEntityReportContainerCallback@?A0x58bf8b61@Gu@physx@@UEAAPEAXI@Z 000000018004c6f0 f   GuCCDSweepConvexMesh.obj
 0001:0004ef90       ?calcCenterAndBounds@ConvexTriangles@?A0x58bf8b61@Gu@physx@@AEBAXAEBVPxTransform@4@@Z 000000018004ff90 f   GuCCDSweepConvexMesh.obj
 0001:0004f740       ?getPolygonNormal@ConvexTriangles@?A0x58bf8b61@Gu@physx@@QEBA?AVPxVec3@4@I@Z 0000000180050740 f   GuCCDSweepConvexMesh.obj
 0001:0004fbf0       ?onEvent@EntityReportContainerCallback@?A0x58bf8b61@Gu@physx@@UEAA_NIPEAI@Z 0000000180050bf0 f   GuCCDSweepConvexMesh.obj
 0001:0004fc70       ?processHit@AccumCallback@?A0x58bf8b61@Gu@physx@@UEAA_NAEBUPxRaycastHit@4@AEBVPxVec3@4@11AEAMPEBI@Z 0000000180050c70 f   GuCCDSweepConvexMesh.obj
 0001:0004fcd0       ?processHit@CB@?1??SweepEstimateAnyShapeMesh@Gu@physx@@YAMAEBUCCDShape@34@0AEBVPxTransform@4@111MM@Z@UEAA_NAEBUPxRaycastHit@4@AEBVPxVec3@4@33AEAMPEBI@Z 0000000180050cd0 f   GuCCDSweepConvexMesh.obj
 0001:00052c40       ??$CCDSweep@VBoxV@Gu@physx@@V123@@Gu@physx@@YAMAEAVBoxV@01@0AEBVPxTransform@1@111AEBT__m128@@AEAVPxVec3@1@3M@Z 0000000180053c40 f   GuCCDSweepPrimitives.obj
 0001:00053320       ??$CCDSweep@VBoxV@Gu@physx@@VConvexHullV@23@@Gu@physx@@YAMAEAVBoxV@01@AEAVConvexHullV@01@AEBVPxTransform@1@222AEBT__m128@@AEAVPxVec3@1@4M@Z 0000000180054320 f   GuCCDSweepPrimitives.obj
 0001:00053a00       ??$CCDSweep@VCapsuleV@Gu@physx@@V123@@Gu@physx@@YAMAEAVCapsuleV@01@0AEBVPxTransform@1@111AEBT__m128@@AEAVPxVec3@1@3M@Z 0000000180054a00 f   GuCCDSweepPrimitives.obj
 0001:000540e0       ??$CCDSweep@VCapsuleV@Gu@physx@@VBoxV@23@@Gu@physx@@YAMAEAVCapsuleV@01@AEAVBoxV@01@AEBVPxTransform@1@222AEBT__m128@@AEAVPxVec3@1@4M@Z 00000001800550e0 f   GuCCDSweepPrimitives.obj
 0001:000547c0       ??$CCDSweep@VCapsuleV@Gu@physx@@VConvexHullV@23@@Gu@physx@@YAMAEAVCapsuleV@01@AEAVConvexHullV@01@AEBVPxTransform@1@222AEBT__m128@@AEAVPxVec3@1@4M@Z 00000001800557c0 f   GuCCDSweepPrimitives.obj
 0001:00054ea0       ??$CCDSweep@VConvexHullV@Gu@physx@@V123@@Gu@physx@@YAMAEAVConvexHullV@01@0AEBVPxTransform@1@111AEBT__m128@@AEAVPxVec3@1@3M@Z 0000000180055ea0 f   GuCCDSweepPrimitives.obj
 0001:00055580       ??$CCDSweep@VTriangleV@Gu@physx@@VBoxV@23@@Gu@physx@@YAMAEAVTriangleV@01@AEAVBoxV@01@AEBVPxTransform@1@222AEBT__m128@@AEAVPxVec3@1@4M@Z 0000000180056580 f   GuCCDSweepPrimitives.obj
 0001:00055c60       ??$CCDSweep@VTriangleV@Gu@physx@@VCapsuleV@23@@Gu@physx@@YAMAEAVTriangleV@01@AEAVCapsuleV@01@AEBVPxTransform@1@222AEBT__m128@@AEAVPxVec3@1@4M@Z 0000000180056c60 f   GuCCDSweepPrimitives.obj
 0001:00056340       ??$CCDSweep@VTriangleV@Gu@physx@@VConvexHullV@23@@Gu@physx@@YAMAEAVTriangleV@01@AEAVConvexHullV@01@AEBVPxTransform@1@222AEBT__m128@@AEAVPxVec3@1@4M@Z 0000000180057340 f   GuCCDSweepPrimitives.obj
 0001:000646b0       ?doBoxBoxContactGeneration@@YAHAEAVContactBuffer@Gu@physx@@AEBVPxVec3@3@1AEAIAEBVMatrix34@Cm@3@3M@Z 00000001800656b0 f   GuContactBoxBox.obj
 0001:00065aec       $LN541                     0000000180066aec     GuContactBoxBox.obj
 0001:00065b10       ?generateContacts@@YAHAEAVContactBuffer@Gu@physx@@AEBVPxVec3@3@MM1AEBVMatrix34@Cm@3@2M@Z 0000000180066b10 f   GuContactBoxBox.obj
 0001:00067000       ?GuCapsuleOBBOverlap3@@YA_NAEBVSegment@Gu@physx@@MAEBVBox@23@PEAMPEAVPxVec3@3@@Z 0000000180068000 f   GuContactCapsuleBox.obj
 0001:000673b0       ?GuGenerateEEContacts2@@YAXAEAVContactBuffer@Gu@physx@@AEBVSegment@23@MAEBVBox@23@AEBVPxVec3@3@M@Z 00000001800683b0 f   GuContactCapsuleBox.obj
 0001:00067c40       ?GuGenerateEEContacts@@YAXAEAVContactBuffer@Gu@physx@@AEBVSegment@23@MAEBVBox@23@AEBVPxVec3@3@@Z 0000000180068c40 f   GuContactCapsuleBox.obj
 0001:00068020       ?GuGenerateVFContacts@@YAXAEAVContactBuffer@Gu@physx@@AEBVSegment@23@MAEBVBox@23@AEBVPxVec3@3@M@Z 0000000180069020 f   GuContactCapsuleBox.obj
 0001:00068870       ?intersectEdgeEdgePreca@@YA_NAEBVPxVec3@physx@@00AEBVPxPlane@2@IIM000AEAMAEAV12@@Z 0000000180069870 f   GuContactCapsuleBox.obj
 0001:000694d0       ?GuCapsuleConvexOverlap@@YA_NAEBVSegment@Gu@physx@@MAEBUPolygonalData@23@AEBVFastVertex2ShapeScaling@Cm@3@AEBVPxTransform@3@PEAMPEAVPxVec3@3@_N@Z 000000018006a4d0 f   GuContactCapsuleConvex.obj
 0001:00069d90       ?GuGenerateEEContacts2b@@YAXAEAVContactBuffer@Gu@physx@@AEBVSegment@23@MAEBVMatrix34@Cm@3@AEBUPolygonalData@23@AEBVFastVertex2ShapeScaling@63@AEBVPxVec3@3@M@Z 000000018006ad90 f   GuContactCapsuleConvex.obj
 0001:0006a680       ?GuGenerateEEContacts@@YAXAEAVContactBuffer@Gu@physx@@AEBVSegment@23@MMAEBUPolygonalData@23@AEBVPxTransform@3@AEBVFastVertex2ShapeScaling@Cm@3@AEBVPxVec3@3@@Z 000000018006b680 f   GuContactCapsuleConvex.obj
 0001:0006af70       ?GuGenerateVFContacts2@@YAXAEAVContactBuffer@Gu@physx@@AEBVPxTransform@3@AEBUPolygonalData@23@AEBVPxMeshScale@3@IPEIBVPxVec3@3@MAEBV73@M@Z 000000018006bf70 f   GuContactCapsuleConvex.obj
 0001:0006c3a0       ??0CapsuleMeshContactGeneration@?A0xd0a6ead9@@QEAA@AEAVContactBuffer@Gu@physx@@AEBVPxTransform@4@AEBVSegment@34@MMM@Z 000000018006d3a0 f   GuContactCapsuleMesh.obj
 0001:0006c5f0       ??_GCapsuleHeightfieldContactGenerationCallback@?A0xd0a6ead9@@UEAAPEAXI@Z 000000018006d5f0 f   GuContactCapsuleMesh.obj
 0001:0006c620       ??_GCapsuleMeshContactGenerationCallback_NoScale@?A0xd0a6ead9@@UEAAPEAXI@Z 000000018006d620 f   GuContactCapsuleMesh.obj
 0001:0006c650       ??_GCapsuleMeshContactGenerationCallback_Scale@?A0xd0a6ead9@@UEAAPEAXI@Z 000000018006d650 f   GuContactCapsuleMesh.obj
 0001:0006c680       ?PxcCapsuleTriOverlap3@@YA_NEAEBVSegment@Gu@physx@@MPEIBVPxVec3@3@PEIAMPEIAV43@@Z 000000018006d680 f   GuContactCapsuleMesh.obj
 0001:0006cb70       ?PxcGenerateEEContacts2@@YAXAEBVMatrix34@Cm@physx@@AEAVContactBuffer@Gu@3@AEBVSegment@53@MPEIBVPxVec3@3@AEBV73@IM@Z 000000018006db70 f   GuContactCapsuleMesh.obj
 0001:0006cf60       ?PxcGenerateEEContacts@@YAXAEBVMatrix34@Cm@physx@@AEAVContactBuffer@Gu@3@AEBVSegment@53@MPEIBVPxVec3@3@AEBV73@I@Z 000000018006df60 f   GuContactCapsuleMesh.obj
 0001:0006d370       ?PxcGenerateVFContacts@@YAXAEBVMatrix34@Cm@physx@@AEAVContactBuffer@Gu@3@AEBVSegment@53@MPEIBVPxVec3@3@AEBV73@IM@Z 000000018006e370 f   GuContactCapsuleMesh.obj
 0001:0006d8c0       ?PxcTestAxis@@YA_NAEBVPxVec3@physx@@AEBVSegment@Gu@2@MPEIBV12@AEAM@Z 000000018006e8c0 f   GuContactCapsuleMesh.obj
 0001:0006e560       ?onEvent@CapsuleHeightfieldContactGenerationCallback@?A0xd0a6ead9@@UEAA_NIPEAI@Z 000000018006f560 f   GuContactCapsuleMesh.obj
 0001:0006e970       ?processHit@CapsuleMeshContactGenerationCallback_NoScale@?A0xd0a6ead9@@UEAA_NAEBUPxRaycastHit@physx@@AEBVPxVec3@4@11AEAMPEBI@Z 000000018006f970 f   GuContactCapsuleMesh.obj
 0001:0006ea30       ?processHit@CapsuleMeshContactGenerationCallback_Scale@?A0xd0a6ead9@@UEAA_NAEBUPxRaycastHit@physx@@AEBVPxVec3@4@11AEAMPEBI@Z 000000018006fa30 f   GuContactCapsuleMesh.obj
 0001:0006ec70       ?processTriangle@CapsuleMeshContactGeneration@?A0xd0a6ead9@@QEAAXIAEBVTrianglePadded@Gu@physx@@E@Z 000000018006fc70 f   GuContactCapsuleMesh.obj
 0001:0006f770       ?GuContactHullHull@@YA_NAEBUPolygonalData@Gu@physx@@0AEBVPxBounds3@3@1AEBVPxTransform@3@2AEBUNarrowPhaseParams@23@AEAVContactBuffer@23@AEBVFastVertex2ShapeScaling@Cm@3@5_N6@Z 0000000180070770 f   GuContactConvexConvex.obj
 0001:00071790       ?GuTestFacesSepAxesBackfaceRoughPass@@YA_NAEBUPolygonalData@Gu@physx@@0AEBVMatrix34@Cm@3@1AEBVFastVertex2ShapeScaling@53@21AEBVPxVec3@3@3AEAMAEAV73@AEAIMM3@Z 0000000180072790 f   GuContactConvexConvex.obj
 0001:00071e30       ?PxcBruteForceOverlapBackface@@YA_NAEBVPxBounds3@physx@@0AEBUPolygonalData@Gu@2@1AEBVMatrix34@Cm@2@2AEBVFastVertex2ShapeScaling@62@322AEBVPxVec3@2@AEAI5AEAMAEAV82@AEAW4PxcSepAxisType@42@MM@Z 0000000180072e30 f   GuContactConvexConvex.obj
 0001:000727f0       ?PxcFindSeparatingAxes@@YAXAEAVSeparatingAxes@Gu@physx@@PEIBIIAEBUPolygonalData@23@AEBVMatrix34@Cm@3@AEBVPxPlane@3@3AEBVPxBounds3@3@MAEBVFastVertex2ShapeScaling@63@@Z 00000001800737f0 f   GuContactConvexConvex.obj
 0001:00072fa0       ?PxcSegmentAABBIntersect@@YA_NAEBVPxVec3@physx@@000AEBVMatrix34@Cm@2@@Z 0000000180073fa0 f   GuContactConvexConvex.obj
 0001:00073330       ?PxcTestFacesSepAxesBackface@@YA_NAEBUPolygonalData@Gu@physx@@0AEBVMatrix34@Cm@3@1AEBVFastVertex2ShapeScaling@53@21AEBVPxVec3@3@AEAMAEAV73@AEAIPEIAI6MM3@Z 0000000180074330 f   GuContactConvexConvex.obj
 0001:00073d30       ?prepareData@@YAXAEAVPxPlane@physx@@0AEAVPxBounds3@2@1AEBV32@2AEBV12@3AEBVFastVertex2ShapeScaling@Cm@2@4AEBVMatrix34@52@5M@Z 0000000180074d30 f   GuContactConvexConvex.obj
 0001:00074370       ??0ConvexMeshContactGeneration@?A0xae1ce05b@@QEAA@AEAV?$InlineArray@I$0EEA@VNamedAllocator@shdfnd@physx@@@shdfnd@physx@@AEBVPxTransform@4@1AEBUPolygonalData@Gu@4@AEBVMatrix34@Cm@4@3AEBVFastVertex2ShapeScaling@94@MM_NM11AEAVContactBuffer@74@@Z 0000000180075370 f   GuContactConvexMesh.obj
 0001:000748b0       ??_GConvexVsHeightfieldContactGenerationCallback@?A0xae1ce05b@@UEAAPEAXI@Z 00000001800758b0 f   GuContactConvexMesh.obj
 0001:00074ae0       ?computeFeatureCode@@YA?AW4FeatureCode@@AEBVPxVec3@physx@@PEBV23@@Z 0000000180075ae0 f   GuContactConvexMesh.obj
 0001:00075400       ?contactHullHeightfield2@@YA_NAEBUPolygonalData@Gu@physx@@AEBVPxBounds3@3@AEBVPxHeightFieldGeometry@3@AEBVPxTransform@3@3AEBUNarrowPhaseParams@23@AEAVContactBuffer@23@AEBVFastVertex2ShapeScaling@Cm@3@_N@Z 0000000180076400 f   GuContactConvexMesh.obj
 0001:00075b40       ?contactHullMesh2@@YA_NAEBUPolygonalData@Gu@physx@@AEBVPxBounds3@3@AEBUPxTriangleMeshGeometryLL@3@AEBVPxTransform@3@3AEBUNarrowPhaseParams@23@AEAVContactBuffer@23@AEBVFastVertex2ShapeScaling@Cm@3@6_N7@Z 0000000180076b40 f   GuContactConvexMesh.obj
 0001:000762c0       ?generateContacts@ConvexMeshContactGeneration@?A0xae1ce05b@@QEBA_NAEBVPxPlane@physx@@PEIBVPxVec3@4@AEBV54@AEAV54@MI@Z 00000001800772c0 f   GuContactConvexMesh.obj
 0001:00077190       ?generateLastContacts@ConvexMeshContactGeneration@?A0xae1ce05b@@QEAAXXZ 0000000180078190 f   GuContactConvexMesh.obj
 0001:000776e4       $LN197                     00000001800786e4     GuContactConvexMesh.obj
 0001:00077700       ?onEvent@ConvexVsHeightfieldContactGenerationCallback@?A0xae1ce05b@@UEAA_NIPEAI@Z 0000000180078700 f   GuContactConvexMesh.obj
 0001:00077b30       ?performEETests@@YA_NAEBUPolygonalData@Gu@physx@@EAEBVMatrix34@Cm@3@1PEIBVPxVec3@3@IPEIBIAEBVPxPlane@3@AEBVFastVertex2ShapeScaling@53@AEAV63@AEAMMMII@Z 0000000180078b30 f   GuContactConvexMesh.obj
 0001:00078ce0       ?processTriangle@ConvexMeshContactGeneration@?A0xae1ce05b@@QEAAXPEBVPxVec3@physx@@IEPEBI@Z 0000000180079ce0 f   GuContactConvexMesh.obj
 0001:00079330       ?testFacesSepAxesBackface@@YA_NAEBUPolygonalData@Gu@physx@@AEBVMatrix34@Cm@3@11AEBVPxVec3@3@PEIBV63@AEBVFastVertex2ShapeScaling@53@AEAIPEAIAEAMAEAV63@5M_N@Z 000000018007a330 f   GuContactConvexMesh.obj
 0001:00079e70       ?triangleConvexTest@@YA_NAEBUPolygonalData@Gu@physx@@EIPEIBVPxVec3@3@AEBVPxPlane@3@AEBV43@AEBVMatrix34@Cm@3@444AEBVFastVertex2ShapeScaling@73@MMAEAV43@AEAMAEA_N_N@Z 000000018007ae70 f   GuContactConvexMesh.obj
 0001:0007bdf0       ?ContactReductionAllIn@@YAXAEAVContactBuffer@Gu@physx@@IIAEBVPxMat33@3@PEIBVPxVec3@3@PEIBE@Z 000000018007cdf0 f   GuContactPolygonPolygon.obj
 0001:0007d010       ?PointInConvexPolygon2D_OutCodes@@YA_NPEIBMIMMMMAEAE@Z 000000018007e010 f   GuContactPolygonPolygon.obj
 0001:0007ec00       ?transformVertices@@YAXAEAM000PEIAMIPEIBVPxVec3@physx@@PEIBEAEBVPxMat33@2@@Z 000000018007fc00 f   GuContactPolygonPolygon.obj
 0001:0007fd40       ??$sort@USortKey@@U?$Less@USortKey@@@shdfnd@physx@@VNullAllocator@?A0x54a6cc4f@@@shdfnd@physx@@YAXPEAUSortKey@@IAEBU?$Less@USortKey@@@01@AEBVNullAllocator@?A0x54a6cc4f@@I@Z 0000000180080d40 f   GuContactSphereMesh.obj
 0001:00080120       ??_GSphereHeightfieldContactGenerationCallback@?A0x54a6cc4f@@UEAAPEAXI@Z 0000000180081120 f   GuContactSphereMesh.obj
 0001:00080150       ??_GSphereMeshContactGenerationCallback_NoScale@?A0x54a6cc4f@@UEAAPEAXI@Z 0000000180081150 f   GuContactSphereMesh.obj
 0001:000801a0       ??_GSphereMeshContactGenerationCallback_Scale@?A0x54a6cc4f@@UEAAPEAXI@Z 00000001800811a0 f   GuContactSphereMesh.obj
 0001:000801f0       ?closestPtPointTriangle@@YA?AVPxVec3@physx@@AEBV12@000AEAM1AEAW4FeatureCode@Gu@2@@Z 00000001800811f0 f   GuContactSphereMesh.obj
 0001:00081170       $LN265                     0000000180082170     GuContactSphereMesh.obj
 0001:00082378       $LN531                     0000000180083378     GuContactSphereMesh.obj
 0001:00082390       $LN530                     0000000180083390     GuContactSphereMesh.obj
 0001:000823b0       ?generateLastContacts@SphereMeshContactGeneration@?A0x54a6cc4f@@QEAAXXZ 00000001800833b0 f   GuContactSphereMesh.obj
 0001:00082b88       $LN208                     0000000180083b88     GuContactSphereMesh.obj
 0001:00082ba0       ?onEvent@SphereHeightfieldContactGenerationCallback@?A0x54a6cc4f@@UEAA_NIPEAI@Z 0000000180083ba0 f   GuContactSphereMesh.obj
 0001:00082c60       ?outputErrorMessage@@YAXXZ 0000000180083c60 f   GuContactSphereMesh.obj
 0001:00082ca0       ?processHit@SphereMeshContactGenerationCallback_NoScale@?A0x54a6cc4f@@UEAA_NAEBUPxRaycastHit@physx@@AEBVPxVec3@4@11AEAMPEBI@Z 0000000180083ca0 f   GuContactSphereMesh.obj
 0001:00082cd0       ?processHit@SphereMeshContactGenerationCallback_Scale@?A0x54a6cc4f@@UEAA_NAEBUPxRaycastHit@physx@@AEBVPxVec3@4@11AEAMPEBI@Z 0000000180083cd0 f   GuContactSphereMesh.obj
 0001:00082f60       ?processTriangle@SphereMeshContactGeneration@?A0x54a6cc4f@@QEAAXIAEBVPxVec3@physx@@00PEBI@Z 0000000180083f60 f   GuContactSphereMesh.obj
 0001:00084960       ?convexHullLoad@@YA_NAEAUConvexHullData@Gu@physx@@AEAVPxInputStream@3@AEAV?$PxBitAndDataT@I$0IAAAAAAA@@3@@Z 0000000180085960 f   GuConvexMesh.obj
 0001:00087170       ?HullProjectionCB_BigConvex@@YAXAEBUPolygonalData@Gu@physx@@AEBVPxVec3@3@AEBVMatrix34@Cm@3@AEBVFastVertex2ShapeScaling@63@AEAM4@Z 0000000180088170 f   GuShapeConvex.obj
 0001:00087510       ?HullProjectionCB_Box@@YAXAEBUPolygonalData@Gu@physx@@AEBVPxVec3@3@AEBVMatrix34@Cm@3@AEBVFastVertex2ShapeScaling@63@AEAM4@Z 0000000180088510 f   GuShapeConvex.obj
 0001:00087650       ?HullProjectionCB_SmallConvex@@YAXAEBUPolygonalData@Gu@physx@@AEBVPxVec3@3@AEBVMatrix34@Cm@3@AEBVFastVertex2ShapeScaling@63@AEAM4@Z 0000000180088650 f   GuShapeConvex.obj
 0001:00087810       ?SelectClosestEdgeCB_Box@@YAIAEBUPolygonalData@Gu@physx@@AEBVFastVertex2ShapeScaling@Cm@3@AEBVPxVec3@3@@Z 0000000180088810 f   GuShapeConvex.obj
 0001:00087de0       ?SelectClosestEdgeCB_Convex@@YAIAEBUPolygonalData@Gu@physx@@AEBVFastVertex2ShapeScaling@Cm@3@AEBVPxVec3@3@@Z 0000000180088de0 f   GuShapeConvex.obj
 0001:000890a0       ?case0@@YAXIIIAEAVPxVec3@physx@@AEBV12@1PEAMAEAM@Z 000000018008a0a0 f   GuDistanceSegmentBox.obj
 0001:00089320       ?distanceLineBoxSquared@@YAMAEBVPxVec3@physx@@000AEBVPxMat33@2@PEAMPEAV12@@Z 000000018008a320 f   GuDistanceSegmentBox.obj
 0001:00089b10       ?face@@YAXIIIAEAVPxVec3@physx@@AEBV12@11PEAMAEAM@Z 000000018008ab10 f   GuDistanceSegmentBox.obj
 0001:0008dbd0       ?calculateContactInformation@Gu@physx@@YAXPEIBT__m128@@0PEAVFacet@12@AEBUGjkConvex@12@2_NAEAUGjkOutput@12@@Z 000000018008ebd0 f   GuEPA.obj
 0001:0008f140       ?getClosestPtPointTriangle@Gu@physx@@YA?AT__m128@@PEIAT3@AEBT3@PEAIAEAI@Z 0000000180090140 f   GuGJKSimplex.obj
 0001:000989e0       ?intersectHeightFieldBox@@YA_NAEBVHeightFieldTraceUtil@Gu@physx@@AEBVBox@23@@Z 00000001800999e0 f   GuOverlapTestsHF.obj
 0001:000994d0       ?intersectHeightFieldCapsule@@YA_NAEBVHeightFieldUtil@Gu@physx@@AEBVPxCapsuleGeometry@3@AEBVPxTransform@3@@Z 000000018009a4d0 f   GuOverlapTestsHF.obj
 0001:00099bf0       ?intersectHeightFieldConvex@@YA_NAEBVHeightFieldTraceUtil@Gu@physx@@AEBVPxTransform@3@AEBVConvexMesh@23@1AEBVPxMeshScale@3@@Z 000000018009abf0 f   GuOverlapTestsHF.obj
 0001:0009b110       ?intersectHeightFieldSphere@@YA_NAEBVHeightFieldUtil@Gu@physx@@AEBVSphere@23@@Z 000000018009c110 f   GuOverlapTestsHF.obj
 0001:0009b4c0       ?multiplyInverseRTLeft@@YA?AVMatrix34@Cm@physx@@AEBV123@0@Z 000000018009c4c0 f   GuOverlapTestsHF.obj
 0001:000a5940       ?BuildBV4FromRoot@@YA_NAEAVBV4Tree@Gu@physx@@PEAUBV4Node@@AEAUBV4BuildParams@@_NM@Z 00000001800a6940 f   GuBV4Build.obj
 0001:000a5e80       ?_BuildBV4@@YAXAEBVAABBTree@Gu@physx@@PEAUBV4Node@@PEBVAABBTreeNode@23@AEAUBV4BuildParams@@@Z 00000001800a6e80 f   GuBV4Build.obj
 0001:000a61c0       ?_Check@Local@?5??BuildBV32Internal@@YA_NAEAVBV32Tree@Gu@physx@@AEBVAABBTree@45@PEAVSourceMesh@45@M@Z@SAXPEAVAABBTreeNode@45@@Z 00000001800a71c0 f   GuBV32Build.obj
 0001:000a61c0       ?_Check@Local@?4??BuildBV4Internal@@YA_NAEAVBV4Tree@Gu@physx@@AEBVAABBTree@45@PEAVSourceMesh@45@M_N@Z@SAXPEAVAABBTreeNode@45@@Z 00000001800a71c0 f   GuBV4Build.obj
 0001:000a6340       ?_CheckMD@Local@?5??BuildBV32Internal@@YA_NAEAVBV32Tree@Gu@physx@@AEBVAABBTree@45@PEAVSourceMesh@45@M@Z@SAXPEBVAABBTreeNode@45@AEAI4@Z 00000001800a7340 f   GuBV32Build.obj
 0001:000a6340       ?_CheckMD@Local@?4??BuildBV4Internal@@YA_NAEAVBV4Tree@Gu@physx@@AEBVAABBTree@45@PEAVSourceMesh@45@M_N@Z@SAXPEBVAABBTreeNode@45@AEAI5@Z 00000001800a7340 f   GuBV4Build.obj
 0001:000a63b0       ?_ComputeMaxValues@@YAXPEBUBV4Node@@AEAVPxVec3@physx@@1@Z 00000001800a73b0 f   GuBV4Build.obj
 0001:000a64f0       ?_FlattenQ@@YAXQEAU?$BVDataPackedT@VQuantizedAABB@Gu@physx@@@Gu@physx@@IAEAIPEBUBV4Node@@11AEBVPxVec3@3@333@Z 00000001800a74f0 f   GuBV4Build.obj
 0001:000a69f0       ?_Walk@Local@?1??walk@AABBTree@Gu@physx@@QEBAIP6A_NPEBVAABBTreeNode@45@IPEAX@Z1@Z@SAX0AEAI321@Z 00000001800a79f0 f   GuBV4Build.obj
 0001:000a7000       ?gReorderCallback@@YA_NPEBVAABBTreeNode@Gu@physx@@IPEAX@Z 00000001800a8000 f   GuBV4Build.obj
 0001:000a7050       ?local_BuildHierarchy@@YAXPEIAVAABBTreeNode@Gu@physx@@PEIBVPxBounds3@3@PEIBVPxVec3@3@AEAUBuildStats@23@QEIBV123@I@Z 00000001800a8050 f   GuBV4Build.obj
 0001:000a7110       ?local_Split@@YAIPEIBVAABBTreeNode@Gu@physx@@PEIBVPxBounds3@3@PEIBVPxVec3@3@I@Z 00000001800a8110 f   GuBV4Build.obj
 0001:000a7270       ?local_Subdivide@@YA_NPEIAVAABBTreeNode@Gu@physx@@PEIBVPxBounds3@3@PEIBVPxVec3@3@AEAUBuildStats@23@QEIBV123@I@Z 00000001800a8270 f   GuBV4Build.obj
 0001:000a7580       ?precomputeNodeSorting@@YAIAEBVPxBounds3@physx@@0@Z 00000001800a8580 f   GuBV4Build.obj
 0001:000a78b0       ?setNode@@YAPEAUBV4Node@@AEBVAABBTree@Gu@physx@@PEAU1@IPEBVAABBTreeNode@34@AEAUBV4BuildParams@@@Z 00000001800a88b0 f   GuBV4Build.obj
 0001:000a79f0       ?setPrimitive@@YAXAEBVAABBTree@Gu@physx@@PEAUBV4Node@@IPEBVAABBTreeNode@23@M@Z 00000001800a89f0 f   GuBV4Build.obj
 0001:000a7bd0       ??$BV4_ProcessStreamKajiyaNoOrderQ@$00VLeafFunction_BoxSweepAny@?A0x788c2204@@UBoxSweepParams@2@@@YAHPEIBU?$BVDataPackedT@VQuantizedAABB@Gu@physx@@@Gu@physx@@IPEIAUBoxSweepParams@?A0x788c2204@@@Z 00000001800a8bd0 f   GuBV4_AABBSweep.obj
 0001:000a8060       ??$BV4_ProcessStreamKajiyaNoOrderQ@$00VLeafFunction_BoxSweepAnyCB@?A0x788c2204@@UGenericSweepParamsCB@2@@@YAHPEIBU?$BVDataPackedT@VQuantizedAABB@Gu@physx@@@Gu@physx@@IPEIAUGenericSweepParamsCB@?A0x788c2204@@@Z 00000001800a9060 f   GuBV4_AABBSweep.obj
 0001:000a8710       ??$BV4_ProcessStreamKajiyaOrderedQ@$00VLeafFunction_BoxSweepClosest@?A0x788c2204@@UBoxSweepParams@2@@@YAXPEIBU?$BVDataPackedT@VQuantizedAABB@Gu@physx@@@Gu@physx@@IPEIAUBoxSweepParams@?A0x788c2204@@@Z 00000001800a9710 f   GuBV4_AABBSweep.obj
 0001:000a8ea0       ??$BV4_ProcessStreamKajiyaOrderedQ@$00VLeafFunction_BoxSweepClosestCB@?A0x788c2204@@UGenericSweepParamsCB@2@@@YAXPEIBU?$BVDataPackedT@VQuantizedAABB@Gu@physx@@@Gu@physx@@IPEIAUGenericSweepParamsCB@?A0x788c2204@@@Z 00000001800a9ea0 f   GuBV4_AABBSweep.obj
 0001:000a9ad0       ??$doBruteForceTests@VLeafFunction_BoxSweepAnyCB@?A0x788c2204@@VLeafFunction_BoxSweepClosestCB@2@UGenericSweepParamsCB@2@@Gu@physx@@YAXIPEIAUGenericSweepParamsCB@?A0x788c2204@@@Z 00000001800aaad0 f   GuBV4_AABBSweep.obj
 0001:000aa370       ?prepareSweepData@@YAXAEBVBox@Gu@physx@@AEBVPxVec3@3@MPEIAUBoxSweepParams@?A0x788c2204@@@Z 00000001800ab370 f   GuBV4_AABBSweep.obj
 0001:000aa370       ?prepareSweepData@@YAXAEBVBox@Gu@physx@@AEBVPxVec3@3@MPEIAUBoxSweepParams@?A0xf567e8b1@@@Z 00000001800ab370 f   GuBV4_CapsuleSweepAA.obj
 0001:000aaa70       ?triBoxSweep@@YA_NPEIAUBoxSweepParams@?A0x788c2204@@I_N@Z 00000001800aba70 f   GuBV4_AABBSweep.obj
 0001:000ab6c0       ??$BV4_ProcessStreamSwizzledNoOrderQ@VLeafFunction_BoxOverlapAll@?A0x723b9c56@@UOBBParamsAll@@@@YAHPEIBU?$BVDataPackedT@VQuantizedAABB@Gu@physx@@@Gu@physx@@IPEIAUOBBParamsAll@@@Z 00000001800ac6c0 f   GuBV4_BoxOverlap.obj
 0001:000abf60       ??$BV4_ProcessStreamSwizzledNoOrderQ@VLeafFunction_BoxOverlapAny@?A0x723b9c56@@UOBBParams@@@@YAHPEIBU?$BVDataPackedT@VQuantizedAABB@Gu@physx@@@Gu@physx@@IPEIAUOBBParams@@@Z 00000001800acf60 f   GuBV4_BoxOverlap.obj
 0001:000ac780       ??$BV4_ProcessStreamSwizzledNoOrderQ@VLeafFunction_BoxOverlapCB@?A0x723b9c56@@UOBBParamsCB@@@@YAHPEIBU?$BVDataPackedT@VQuantizedAABB@Gu@physx@@@Gu@physx@@IPEIAUOBBParamsCB@@@Z 00000001800ad780 f   GuBV4_BoxOverlap.obj
 0001:000ad1f0       ??$BV4_ProcessStreamSwizzledNoOrderQ@VLeafFunction_CapsuleOverlapAll@?A0x723b9c56@@UCapsuleParamsAll@@@@YAHPEIBU?$BVDataPackedT@VQuantizedAABB@Gu@physx@@@Gu@physx@@IPEIAUCapsuleParamsAll@@@Z 00000001800ae1f0 f   GuBV4_BoxOverlap.obj
 0001:000ada00       ??$BV4_ProcessStreamSwizzledNoOrderQ@VLeafFunction_CapsuleOverlapAny@?A0x723b9c56@@UCapsuleParamsAny@@@@YAHPEIBU?$BVDataPackedT@VQuantizedAABB@Gu@physx@@@Gu@physx@@IPEIAUCapsuleParamsAny@@@Z 00000001800aea00 f   GuBV4_BoxOverlap.obj
 0001:000b03d0       ?CapsuleVsTriangle_SAT@@YA_NAEBVPxVec3@physx@@00PEIBUCapsuleParamsAny@@@Z 00000001800b13d0 f   GuBV4_BoxOverlap.obj
 0001:000b1020       ??$BV4_ProcessStreamSwizzledNoOrderQ@VLeafFunction_CapsuleSweepAny@?A0xd6379ba5@@UCapsuleSweepParams@2@@@YAHPEIBU?$BVDataPackedT@VQuantizedAABB@Gu@physx@@@Gu@physx@@IPEIAUCapsuleSweepParams@?A0xd6379ba5@@@Z 00000001800b2020 f   GuBV4_CapsuleSweep.obj
 0001:000b15d0       ??$BV4_ProcessStreamSwizzledOrderedQ@VLeafFunction_CapsuleSweepClosest@?A0xd6379ba5@@UCapsuleSweepParams@2@@@YAXPEIBU?$BVDataPackedT@VQuantizedAABB@Gu@physx@@@Gu@physx@@IPEIAUCapsuleSweepParams@?A0xd6379ba5@@@Z 00000001800b25d0 f   GuBV4_CapsuleSweep.obj
 0001:000b24b0       ?computeBoxAroundCapsule@@YAXAEBVCapsule@Gu@physx@@AEAVBox@23@AEAVPxVec3@3@@Z 00000001800b34b0 f   GuBV4_CapsuleSweep.obj
 0001:000b24b0       ?computeBoxAroundCapsule@@YAXAEBVCapsule@Gu@physx@@AEAVBox@23@AEAVPxVec3@3@@Z 00000001800b34b0 f   GuBV4_CapsuleSweepAA.obj
 0001:000b2640       ?prepareSweepData@@YAXAEBVBox@Gu@physx@@AEBVPxVec3@3@MPEIAUBoxSweepParams@?A0xd6379ba5@@@Z 00000001800b3640 f   GuBV4_CapsuleSweep.obj
 0001:000b2640       ?prepareSweepData@@YAXAEBVBox@Gu@physx@@AEBVPxVec3@3@MPEIAUBoxSweepParams@?A0x5eaefbf3@@@Z 00000001800b3640 f   GuBV4_OBBSweep.obj
 0001:000b30a0       ?testQuad@@YAXPEIBUCapsuleSweepParams@?A0xd6379ba5@@AEBVPxVec3@physx@@11111MMAEAMAEA_N@Z 00000001800b40a0 f   GuBV4_CapsuleSweep.obj
 0001:000b3560       ?testTri@@YA_NPEIBUCapsuleSweepParams@?A0xd6379ba5@@AEBVPxVec3@physx@@1111MMAEAMAEA_N@Z 00000001800b4560 f   GuBV4_CapsuleSweep.obj
 0001:000b39b0       ?triCapsuleSweep@@YA_NPEIAUCapsuleSweepParams@?A0xd6379ba5@@I_N@Z 00000001800b49b0 f   GuBV4_CapsuleSweep.obj
 0001:000b4720       ??$BV4_ProcessStreamKajiyaNoOrderQ@$00VLeafFunction_CapsuleSweepAny@?A0xf567e8b1@@UCapsuleSweepParams@2@@@YAHPEIBU?$BVDataPackedT@VQuantizedAABB@Gu@physx@@@Gu@physx@@IPEIAUCapsuleSweepParams@?A0xf567e8b1@@@Z 00000001800b5720 f   GuBV4_CapsuleSweepAA.obj
 0001:000b4ba0       ??$BV4_ProcessStreamKajiyaOrderedQ@$00VLeafFunction_CapsuleSweepClosest@?A0xf567e8b1@@UCapsuleSweepParams@2@@@YAXPEIBU?$BVDataPackedT@VQuantizedAABB@Gu@physx@@@Gu@physx@@IPEIAUCapsuleSweepParams@?A0xf567e8b1@@@Z 00000001800b5ba0 f   GuBV4_CapsuleSweepAA.obj
 0001:000b5a00       ?testQuad@@YAXPEIBUCapsuleSweepParams@?A0xf567e8b1@@AEBVPxVec3@physx@@11111MMAEAMAEA_N@Z 00000001800b6a00 f   GuBV4_CapsuleSweepAA.obj
 0001:000b5ec0       ?testTri@@YA_NPEIBUCapsuleSweepParams@?A0xf567e8b1@@AEBVPxVec3@physx@@1111MMAEAMAEA_N@Z 00000001800b6ec0 f   GuBV4_CapsuleSweepAA.obj
 0001:000b6310       ?triCapsuleSweep@@YA_NPEIAUCapsuleSweepParams@?A0xf567e8b1@@I_N@Z 00000001800b7310 f   GuBV4_CapsuleSweepAA.obj
 0001:000b6f00       ??$BV4_ProcessStreamSwizzledNoOrderQ@VLeafFunction_BoxSweepAny@?A0x5eaefbf3@@UBoxSweepParams@2@@@YAHPEIBU?$BVDataPackedT@VQuantizedAABB@Gu@physx@@@Gu@physx@@IPEIAUBoxSweepParams@?A0x5eaefbf3@@@Z 00000001800b7f00 f   GuBV4_OBBSweep.obj
 0001:000b74b0       ??$BV4_ProcessStreamSwizzledNoOrderQ@VLeafFunction_BoxSweepAnyCB@?A0x5eaefbf3@@UGenericSweepParamsCB@2@@@YAHPEIBU?$BVDataPackedT@VQuantizedAABB@Gu@physx@@@Gu@physx@@IPEIAUGenericSweepParamsCB@?A0x5eaefbf3@@@Z 00000001800b84b0 f   GuBV4_OBBSweep.obj
 0001:000b7cd0       ??$BV4_ProcessStreamSwizzledOrderedQ@VLeafFunction_BoxSweepClosest@?A0x5eaefbf3@@UBoxSweepParams@2@@@YAXPEIBU?$BVDataPackedT@VQuantizedAABB@Gu@physx@@@Gu@physx@@IPEIAUBoxSweepParams@?A0x5eaefbf3@@@Z 00000001800b8cd0 f   GuBV4_OBBSweep.obj
 0001:000b8570       ??$BV4_ProcessStreamSwizzledOrderedQ@VLeafFunction_BoxSweepClosestCB@?A0x5eaefbf3@@UGenericSweepParamsCB@2@@@YAXPEIBU?$BVDataPackedT@VQuantizedAABB@Gu@physx@@@Gu@physx@@IPEIAUGenericSweepParamsCB@?A0x5eaefbf3@@@Z 00000001800b9570 f   GuBV4_OBBSweep.obj
 0001:000b98c0       ??$doBruteForceTests@VLeafFunction_BoxSweepAnyCB@?A0x5eaefbf3@@VLeafFunction_BoxSweepClosestCB@2@UGenericSweepParamsCB@2@@Gu@physx@@YAXIPEIAUGenericSweepParamsCB@?A0x5eaefbf3@@@Z 00000001800ba8c0 f   GuBV4_OBBSweep.obj
 0001:000baaf0       ?triBoxSweep@@YA_NPEIAUBoxSweepParams@?A0x5eaefbf3@@I_N@Z 00000001800bbaf0 f   GuBV4_OBBSweep.obj
 0001:000bb8c0       ??$BV4_ProcessStreamKajiyaNoOrderQ@$0A@VLeafFunction_RaycastAny@?A0xdeb1923c@@URayParams@@@@YAHPEIBU?$BVDataPackedT@VQuantizedAABB@Gu@physx@@@Gu@physx@@IPEIAURayParams@@@Z 00000001800bc8c0 f   GuBV4_Raycast.obj
 0001:000bbc60       ??$BV4_ProcessStreamKajiyaNoOrderQ@$0A@VLeafFunction_RaycastCB@?A0xdeb1923c@@URayParamsCB@2@@@YAHPEIBU?$BVDataPackedT@VQuantizedAABB@Gu@physx@@@Gu@physx@@IPEIAURayParamsCB@?A0xdeb1923c@@@Z 00000001800bcc60 f   GuBV4_Raycast.obj
 0001:000bc000       ??$BV4_ProcessStreamKajiyaOrderedQ@$0A@VLeafFunction_RaycastClosest@?A0xdeb1923c@@URayParams@@@@YAXPEIBU?$BVDataPackedT@VQuantizedAABB@Gu@physx@@@Gu@physx@@IPEIAURayParams@@@Z 00000001800bd000 f   GuBV4_Raycast.obj
 0001:000bcf60       ?doLeafTest@LeafFunction_RaycastAny@?A0xdeb1923c@@SAHPEIAURayParams@@I@Z 00000001800bdf60 f   GuBV4_Raycast.obj
 0001:000bd440       ?doLeafTest@LeafFunction_RaycastCB@?A0xdeb1923c@@SAHPEIAURayParamsCB@2@I@Z 00000001800be440 f   GuBV4_Raycast.obj
 0001:000bd8d0       ?doLeafTest@LeafFunction_RaycastClosest@?A0xdeb1923c@@SAHPEIAURayParams@@I@Z 00000001800be8d0 f   GuBV4_Raycast.obj
 0001:000bdd80       ??$BV4_ProcessStreamSwizzledNoOrderQ@VLeafFunction_SphereOverlapAll@?A0x5cc2e679@@USphereParamsAll@@@@YAHPEIBU?$BVDataPackedT@VQuantizedAABB@Gu@physx@@@Gu@physx@@IPEIAUSphereParamsAll@@@Z 00000001800bed80 f   GuBV4_SphereOverlap.obj
 0001:000be290       ??$BV4_ProcessStreamSwizzledNoOrderQ@VLeafFunction_SphereOverlapAny@?A0x5cc2e679@@USphereParams@@@@YAHPEIBU?$BVDataPackedT@VQuantizedAABB@Gu@physx@@@Gu@physx@@IPEIAUSphereParams@@@Z 00000001800bf290 f   GuBV4_SphereOverlap.obj
 0001:000bed30       ?__SphereTriangle@@YAHPEIBUSphereParams@@I@Z 00000001800bfd30 f   GuBV4_SphereOverlap.obj
 0001:000bf270       ??$BV4_ProcessStreamKajiyaNoOrderQ@$00VLeafFunction_SphereSweepAny@?A0x0ebb234c@@USphereSweepParams@2@@@YAHPEIBU?$BVDataPackedT@VQuantizedAABB@Gu@physx@@@Gu@physx@@IPEIAUSphereSweepParams@?A0x0ebb234c@@@Z 00000001800c0270 f   GuBV4_SphereSweep.obj
 0001:000bf6f0       ??$BV4_ProcessStreamKajiyaOrderedQ@$00VExLeafTestSweepCB@?A0x0ebb234c@@UBoxSweepParamsCB@2@@@YAXPEIBU?$BVDataPackedT@VQuantizedAABB@Gu@physx@@@Gu@physx@@IPEIAUBoxSweepParamsCB@?A0x0ebb234c@@@Z 00000001800c06f0 f   GuBV4_SphereSweep.obj
 0001:000c0100       ??$BV4_ProcessStreamKajiyaOrderedQ@$00VLeafFunction_SphereSweepClosest@?A0x0ebb234c@@USphereSweepParams@2@@@YAXPEIBU?$BVDataPackedT@VQuantizedAABB@Gu@physx@@@Gu@physx@@IPEIAUSphereSweepParams@?A0x0ebb234c@@@Z 00000001800c1100 f   GuBV4_SphereSweep.obj
 0001:000c1360       ?triSphereSweep@@YA_NPEIAUSphereSweepParams@?A0x0ebb234c@@I_N@Z 00000001800c2360 f   GuBV4_SphereSweep.obj
 0001:000c1730       ?boxSweepVsMesh@@YAHAEAVSweepHit@Gu@physx@@AEBVBV4Tree@23@PEBM2AEBVBox@23@AEBVPxVec3@3@M_N55@Z 00000001800c2730 f   GuMidphaseBV4.obj
 0001:000c19c0       ?capsuleSweepVsMesh@@YA_NAEAVSweepHit@Gu@physx@@AEBVBV4Tree@23@AEBVCapsule@23@AEBVPxVec3@3@MPEBVPxMat44@3@I@Z 00000001800c29c0 f   GuMidphaseBV4.obj
 0001:000c22c0       ?gBoxMeshSweepCallback@@YA_NPEAXAEBVPxVec3@physx@@11IAEAM@Z 00000001800c32c0 f   GuMidphaseBV4.obj
 0001:000c2340       ?gBoxVsMeshCallback@@YA_NPEAXAEBVPxVec3@physx@@11IPEBI@Z 00000001800c3340 f   GuMidphaseBV4.obj
 0001:000c2620       ?gCapsuleMeshSweepCallback@@YA_NPEAXAEBVPxVec3@physx@@11IAEAM@Z 00000001800c3620 f   GuMidphaseBV4.obj
 0001:000c26a0       ?gCapsuleVsMeshCallback@@YA_NPEAXAEBVPxVec3@physx@@11IPEBI@Z 00000001800c36a0 f   GuMidphaseBV4.obj
 0001:000c2a10       ?gConvexVsMeshSweepCallback@@YA_NPEAXAEBVPxVec3@physx@@11IAEAM@Z 00000001800c3a10 f   GuMidphaseBV4.obj
 0001:000c2a60       ?gRayCallback@@YA?AW4HitCode@Gu@physx@@PEAXAEBVPxVec3@3@11IMMM@Z 00000001800c3a60 f   GuMidphaseBV4.obj
 0001:000c30a0       ?gSphereVsMeshCallback@@YA_NPEAXAEBVPxVec3@physx@@11IPEBI@Z 00000001800c40a0 f   GuMidphaseBV4.obj
 0001:000c3380       ?gVolumeCallback@@YA_NPEAXAEBVPxVec3@physx@@11IPEBI@Z 00000001800c4380 f   GuMidphaseBV4.obj
 0001:000c8758       $LN278                     00000001800c9758     GuMeshQuery.obj
 0001:000c8a90       $LN115                     00000001800c9a90     GuMeshQuery.obj
 0001:000c8f70       ?onEvent@HfTrianglesEntityReport2@?A0x53027822@@UEAA_NIPEAI@Z 00000001800c9f70 f   GuMeshQuery.obj
 0001:000c945c       $LN130                     00000001800ca45c     GuMeshQuery.obj
 0001:000c9dd0       ??$intersectAnyVsMesh@$0A@@@YA_NPEBVSphere@Gu@physx@@PEBVCapsule@12@PEBVBox@12@AEBVTriangleMesh@12@AEBVPxTransform@2@AEBVPxMeshScale@2@PEAULimitedResults@12@@Z 00000001800cadd0 f   GuMidphaseRTree.obj
 0001:000ca080       ??$intersectAnyVsMeshT@$00$00@@YA_NPEBVSphere@Gu@physx@@PEBVCapsule@12@PEBVBox@12@AEBVTriangleMesh@12@AEBVPxTransform@2@AEBVPxMeshScale@2@PEAULimitedResults@12@@Z 00000001800cb080 f   GuMidphaseRTree.obj
 0001:000ca440       ??$intersectAnyVsMeshT@$00$0A@@@YA_NPEBVSphere@Gu@physx@@PEBVCapsule@12@PEBVBox@12@AEBVTriangleMesh@12@AEBVPxTransform@2@AEBVPxMeshScale@2@PEAULimitedResults@12@@Z 00000001800cb440 f   GuMidphaseRTree.obj
 0001:000caae0       ??$intersectAnyVsMeshT@$01$00@@YA_NPEBVSphere@Gu@physx@@PEBVCapsule@12@PEBVBox@12@AEBVTriangleMesh@12@AEBVPxTransform@2@AEBVPxMeshScale@2@PEAULimitedResults@12@@Z 00000001800cbae0 f   GuMidphaseRTree.obj
 0001:000caf10       ??$intersectAnyVsMeshT@$01$0A@@@YA_NPEBVSphere@Gu@physx@@PEBVCapsule@12@PEBVBox@12@AEBVTriangleMesh@12@AEBVPxTransform@2@AEBVPxMeshScale@2@PEAULimitedResults@12@@Z 00000001800cbf10 f   GuMidphaseRTree.obj
 0001:000cb850       ??$intersectAnyVsMeshT@$0A@$0A@@@YA_NPEBVSphere@Gu@physx@@PEBVCapsule@12@PEBVBox@12@AEBVTriangleMesh@12@AEBVPxTransform@2@AEBVPxMeshScale@2@PEAULimitedResults@12@@Z 00000001800cc850 f   GuMidphaseRTree.obj
 0001:000cc110       ??_G?$IntersectBoxVsMeshCallback@$00@?A0xa8ceae12@@UEAAPEAXI@Z 00000001800cd110 f   GuMidphaseRTree.obj
 0001:000cc110       ??_G?$IntersectBoxVsMeshCallback@$0A@@?A0xa8ceae12@@UEAAPEAXI@Z 00000001800cd110 f   GuMidphaseRTree.obj
 0001:000cc140       ??_G?$IntersectSphereVsMeshCallback@$00@?A0xa8ceae12@@UEAAPEAXI@Z 00000001800cd140 f   GuMidphaseRTree.obj
 0001:000cc140       ??_G?$IntersectSphereVsMeshCallback@$0A@@?A0xa8ceae12@@UEAAPEAXI@Z 00000001800cd140 f   GuMidphaseRTree.obj
 0001:000cc590       ?computeSweptAABBAroundOBB@@YAXAEBVBox@Gu@physx@@AEAVPxVec3@3@11AEAM@Z 00000001800cd590 f   GuMidphaseRTree.obj
 0001:000cc8e0       ?processHit@?$IntersectBoxVsMeshCallback@$00@?A0xa8ceae12@@UEAA_NAEBUPxRaycastHit@physx@@AEBVPxVec3@4@11AEAMPEBI@Z 00000001800cd8e0 f   GuMidphaseRTree.obj
 0001:000ccba0       ?processHit@?$IntersectBoxVsMeshCallback@$0A@@?A0xa8ceae12@@UEAA_NAEBUPxRaycastHit@physx@@AEBVPxVec3@4@11AEAMPEBI@Z 00000001800cdba0 f   GuMidphaseRTree.obj
 0001:000ccea0       ?processHit@?$IntersectCapsuleVsMeshCallback@$00@?A0xa8ceae12@@UEAA_NAEBUPxRaycastHit@physx@@AEBVPxVec3@4@11AEAMPEBI@Z 00000001800cdea0 f   GuMidphaseRTree.obj
 0001:000ccfc0       ?processHit@?$IntersectCapsuleVsMeshCallback@$0A@@?A0xa8ceae12@@UEAA_NAEBUPxRaycastHit@physx@@AEBVPxVec3@4@11AEAMPEBI@Z 00000001800cdfc0 f   GuMidphaseRTree.obj
 0001:000cd350       ?processHit@?$IntersectSphereVsMeshCallback@$00@?A0xa8ceae12@@UEAA_NAEBUPxRaycastHit@physx@@AEBVPxVec3@4@11AEAMPEBI@Z 00000001800ce350 f   GuMidphaseRTree.obj
 0001:000cd470       ?processHit@?$IntersectSphereVsMeshCallback@$0A@@?A0xa8ceae12@@UEAA_NAEBUPxRaycastHit@physx@@AEBVPxVec3@4@11AEAMPEBI@Z 00000001800ce470 f   GuMidphaseRTree.obj
 0001:000d97d0       ?sweepSphereTriangle@@YA_NAEBVPxTriangle@physx@@AEBVPxVec3@2@M1MAEAUPxSweepHit@2@AEAV32@V?$PxFlags@W4Enum@PxHitFlag@physx@@G@2@_N@Z 00000001800da7d0 f   GuSweepsMesh.obj
 0001:000dc0e0       ?BuildBV32Internal@@YA_NAEAVBV32Tree@Gu@physx@@AEBVAABBTree@23@PEAVSourceMesh@23@M@Z 00000001800dd0e0 f   GuBV32Build.obj
 0001:000dc590       ?_BuildBV32@@YAXAEBVAABBTree@Gu@physx@@PEAUBV32Node@@PEBVAABBTreeNode@23@MAEAI@Z 00000001800dd590 f   GuBV32Build.obj
 0001:000dc730       ?_Flatten@Local@?8??BuildBV32Internal@@YA_NAEAVBV32Tree@Gu@physx@@AEBVAABBTree@45@PEAVSourceMesh@45@M@Z@SAXQEAUBV32Data@45@IAEAIPEBUBV32Node@@44I@Z 00000001800dd730 f   GuBV32Build.obj
 0001:000dc950       ?fillInNodes@@YAXPEBVAABBTreeNode@Gu@physx@@IIPEAPEBV123@AEAI@Z 00000001800dd950 f   GuBV32Build.obj
 0001:000dca10       ?gReorderCallback@@YA_NPEBVAABBTreeNode@Gu@physx@@IPEAX@Z 00000001800dda10 f   GuBV32Build.obj
 0001:000dca60       ?setNode@@YAPEAUBV32Node@@AEBVAABBTree@Gu@physx@@PEAU1@IPEBVAABBTreeNode@34@M@Z 00000001800dda60 f   GuBV32Build.obj
 0001:000dccc0       ?calculateContacts@Gu@physx@@YAXAEBT__m128@@0PEAT3@00PEAVPersistentContact@12@AEAI0@Z 00000001800ddcc0 f   GuPCMContactBoxBox.obj
 0001:000dd9e0       ?doBoxBoxGenerateContacts@Gu@physx@@YAIAEBT__m128@@0AEBVPsMatTransformV@aos@shdfnd@2@10PEAVPersistentContact@12@AEAI@Z 00000001800de9e0 f   GuPCMContactBoxBox.obj
 0001:000df4ac       $LN1734                    00000001800e04ac     GuPCMContactBoxBox.obj
 0001:000df4d0       ?getIncidentPolygon@Gu@physx@@YAXPEAT__m128@@AEAT3@AEBT3@AEBVPsMatTransformV@aos@shdfnd@2@2@Z 00000001800e04d0 f   GuPCMContactBoxBox.obj
 0001:000e1ac0       ?fullContactsGenerationBoxConvex@Gu@physx@@YA_NPEBUGjkConvex@12@0AEBVPsTransformV@aos@shdfnd@2@1PEAVPersistentContact@12@AEAVContactBuffer@12@AEAVPersistentContactManifold@12@AEAT__m128@@AEBT__m128@@66_N7PEAVRenderOutput@Cm@2@M@Z 00000001800e2ac0 f   GuPCMContactBoxConvex.obj
 0001:000e1e20       ?generateOrProcessContactsBoxConvex@Gu@physx@@YA_NPEBUGjkConvex@12@0AEBVPsTransformV@aos@shdfnd@2@1AEBVPsMatTransformV@562@W4GjkStatus@12@AEAUGjkOutput@12@AEAVPersistentContactManifold@12@AEAVContactBuffer@12@IT__m128@@7_NMPEAVRenderOutput@Cm@2@@Z 00000001800e2e20 f   GuPCMContactBoxConvex.obj
 0001:000e5cb0       ?fullContactsGenerationCapsuleConvex@Gu@physx@@YA_NAEBVCapsuleV@12@AEBVConvexHullV@12@AEBVPsMatTransformV@aos@shdfnd@2@AEBVPsTransformV@672@3PEAVPersistentContact@12@AEAVContactBuffer@12@_NAEAVPersistentContactManifold@12@AEAT__m128@@AEBT__m128@@M96PEAVRenderOutput@Cm@2@M@Z 00000001800e6cb0 f   GuPCMContactCapsuleConvex.obj
 0001:000eca90       ?pcmDistancePointTriangleSquared@Gu@physx@@YA?AT__m128@@AEBT3@000EAEAT3@AEA_N2@Z 00000001800eda90 f   GuPCMContactConvexCommon.obj
 0001:000f37f0       ?convexHullHasScale0@Gu@physx@@YA_NAEBVConvexHullV@12@0AEBVPsTransformV@aos@shdfnd@2@1AEBVPsMatTransformV@562@AEAUGjkOutput@12@AEAVPersistentContactManifold@12@AEAVContactBuffer@12@IT__m128@@6_NMPEAVRenderOutput@Cm@2@@Z 00000001800f47f0 f   GuPCMContactConvexConvex.obj
 0001:000f39d0       ?convexHullNoScale0@Gu@physx@@YA_NAEBVConvexHullV@12@0AEBVPsTransformV@aos@shdfnd@2@1AEBVPsMatTransformV@562@AEAUGjkOutput@12@AEAVPersistentContactManifold@12@AEAVContactBuffer@12@IT__m128@@6_NMPEAVRenderOutput@Cm@2@@Z 00000001800f49d0 f   GuPCMContactConvexConvex.obj
 0001:000f3bb0       ?fullContactsGenerationConvexConvex@Gu@physx@@YA_NPEBUGjkConvex@12@0AEBVPsTransformV@aos@shdfnd@2@1_N2PEAVPersistentContact@12@AEAVContactBuffer@12@AEAVPersistentContactManifold@12@AEAT__m128@@AEBT__m128@@772PEAVRenderOutput@Cm@2@M@Z 00000001800f4bb0 f   GuPCMContactConvexConvex.obj
 0001:000f3ed0       ?generateOrProcessContactsConvexConvex@Gu@physx@@YA_NPEBUGjkConvex@12@0AEBVPsTransformV@aos@shdfnd@2@1AEBVPsMatTransformV@562@W4GjkStatus@12@AEAUGjkOutput@12@AEAVPersistentContactManifold@12@AEAVContactBuffer@12@IT__m128@@7_N8MPEAVRenderOutput@Cm@2@@Z 00000001800f4ed0 f   GuPCMContactConvexConvex.obj
 0001:000fbdd0       ?testEdgeNormal@Gu@physx@@YA_NAEBUPolygonalData@12@0PEAVSupportLocal@12@1AEBVPsMatTransformV@aos@shdfnd@2@2AEBT__m128@@AEAT8@4W4FeatureStatus@12@AEAW4912@@Z 00000001800fcdd0 f   GuPCMContactGenBoxConvex.obj
 0001:000fc330       ?testFaceNormal@Gu@physx@@YA_NAEBUPolygonalData@12@0PEAVSupportLocal@12@1AEBVPsMatTransformV@aos@shdfnd@2@2AEBT__m128@@AEAT8@AEAI4W4FeatureStatus@12@AEAW4912@@Z 00000001800fd330 f   GuPCMContactGenBoxConvex.obj
 0001:000fe890       ?generatedFaceContacts@Gu@physx@@YAXAEBVCapsuleV@12@AEAUPolygonalData@12@PEAVSupportLocal@12@AEBVPsMatTransformV@aos@shdfnd@2@PEAVPersistentContact@12@AEAIAEBT__m128@@6@Z 00000001800ff890 f   GuPCMContactGenSphereCapsule.obj
 0001:000fed30       ?testSATCapsulePoly@Gu@physx@@YA_NAEBVCapsuleV@12@AEBUPolygonalData@12@PEAVSupportLocal@12@AEBT__m128@@AEAT6@4@Z 00000001800ffd30 f   GuPCMContactGenSphereCapsule.obj
 0001:00101540       ?fullContactsGenerationSphereConvex@Gu@physx@@YA_NAEBVCapsuleV@12@AEBVConvexHullV@12@AEBVPsTransformV@aos@shdfnd@2@2PEAVPersistentContact@12@AEAVContactBuffer@12@_NAEAVPersistentContactManifold@12@AEAT__m128@@AEBT__m128@@_NPEAVRenderOutput@Cm@2@@Z 0000000180102540 f   GuPCMContactSphereConvex.obj
 0001:00105fd0       ?generatedPolyContacts@physx@@YAXAEBUPolygonalData@Gu@1@AEBUHullPolygonData@31@AEBVTriangleV@31@IEPEAVSupportLocal@31@PEAVMeshPersistentContact@31@AEAIAEBT__m128@@6PEAVRenderOutput@Cm@1@@Z 0000000180106fd0 f   GuPCMTriangleContactGen.obj
 0001:00106cb0       ?generatedTriangleContacts@physx@@YAXAEBVTriangleV@Gu@1@IEAEBUPolygonalData@31@AEBUHullPolygonData@31@PEAVSupportLocal@31@PEAVMeshPersistentContact@31@AEAIAEBT__m128@@6PEAVRenderOutput@Cm@1@@Z 0000000180107cb0 f   GuPCMTriangleContactGen.obj
 0001:00107a30       ?testPolyEdgeNormal@physx@@YA_NAEBVTriangleV@Gu@1@EAEBUPolygonalData@31@PEAV?$SupportLocalImpl@VTriangleV@Gu@physx@@@31@PEAVSupportLocal@31@AEBT__m128@@AEAT7@5W4FeatureStatus@31@AEAW4831@@Z 0000000180108a30 f   GuPCMTriangleContactGen.obj
 0001:00107f50       ?testPolyFaceNormal@physx@@YA_NAEBVTriangleV@Gu@1@AEBUPolygonalData@31@PEAV?$SupportLocalImpl@VTriangleV@Gu@physx@@@31@PEAVSupportLocal@31@AEBT__m128@@AEAT7@AEAI5W4FeatureStatus@31@AEAW4831@@Z 0000000180108f50 f   GuPCMTriangleContactGen.obj
 0001:001083f0       ?addBatchManifoldContactsToSingleManifold@@YA?AT__m128@@PEAVSinglePersistentContactManifold@Gu@physx@@PEAVMeshPersistentContact@34@IPEAUPCMContactPatch@34@AEBT1@E@Z 00000001801093f0 f   GuPersistentContactManifold.obj
 0001:00109680       ?distancePointTriangleSquaredLocal@Gu@physx@@YA?AT__m128@@AEBT3@000@Z 000000018010a680 f   GuPersistentContactManifold.obj
 0001:00109c30       ?drawManifoldPoint@@YAXAEBVPersistentContact@Gu@physx@@AEBVPsTransformV@aos@shdfnd@3@1AEAVRenderOutput@Cm@3@I@Z 000000018010ac30 f   GuPersistentContactManifold.obj
 0001:0010ed60       ?inflateTriangle@@YA?AVPxTriangle@physx@@AEBV12@M@Z 000000018010fd60 f   GuSweepBoxTriangle_FeatureBased.obj
 0001:00110f70       ?extrudeBox@@YAIAEBVPxBounds3@physx@@PEBVPxTransform@2@AEBVPxVec3@2@PEAVPxTriangle@2@2@Z 0000000180111f70 f   GuSweepCapsuleBox.obj
 0001:001114d0       ?extrudeMesh@@YAIIPEBVPxTriangle@physx@@AEBVPxVec3@2@PEAV12@PEAI1@Z 00000001801124d0 f   GuSweepCapsuleBox.obj
 0001:001123c0       ?edgeEdgeDist@@YAXAEAVPxVec3@physx@@0AEBV12@111@Z 00000001801133c0 f   GuSweepCapsuleCapsule.obj
 0001:0011a0b0       ?runBackupProcedure@@YA_NAEAVPxVec3@physx@@0AEBV12@1AEBVPxTriangle@2@@Z 000000018011b0b0 f   GuSweepTriangleUtils.obj
 0001:0011ab40       $$000000                   000000018011bb40     MSVCRT:chkstk.obj
 0001:0011aba0       $$000000                   000000018011bba0     MSVCRT:svml_ssinf4_dispatch.obj
 0001:0011ac18       ?dllmain_crt_dispatch@@YAHQEAUHINSTANCE__@@KQEAX@Z 000000018011bc18 f   MSVCRT:dll_dllmain.obj
 0001:0011ac68       ?dllmain_crt_process_attach@@YAHQEAUHINSTANCE__@@QEAX@Z 000000018011bc68 f   MSVCRT:dll_dllmain.obj
 0001:0011ad80       ?dllmain_crt_process_detach@@YAH_N@Z 000000018011bd80 f   MSVCRT:dll_dllmain.obj
 0001:0011ae04       ?dllmain_dispatch@@YAHQEAUHINSTANCE__@@KQEAX@Z 000000018011be04 f   MSVCRT:dll_dllmain.obj
 0001:0011b130       $$000000                   000000018011c130     MSVCRT:svml_ssinf4_sse2.obj
 0001:0011ba70       $$000000                   000000018011ca70     MSVCRT:svml_ssinf4_sse4.obj
 0001:0011c7e0       $$000000                   000000018011d7e0     MSVCRT:svml_s_sin_cout.obj
 0001:0011c8e0       $$000000                   000000018011d8e0     MSVCRT:guard_dispatch.obj
 0001:0011c900       $$000000                   000000018011d900     MSVCRT:guard_xfg_dispatch.obj
 0001:0011c916       ?fin$0@?0??dllmain_crt_process_attach@@YAHQEAUHINSTANCE__@@QEAX@Z@4HA 000000018011d916 f   MSVCRT:dll_dllmain.obj
 0001:0011c92d       ?fin$0@?0??dllmain_crt_process_detach@@YAH_N@Z@4HA 000000018011d92d f   MSVCRT:dll_dllmain.obj
 0001:0011c946       ?fin$1@?0??dllmain_crt_process_detach@@YAH_N@Z@4HA 000000018011d946 f   MSVCRT:dll_dllmain.obj
 0001:0011c95a       ?filt$0@?0??dllmain_dispatch@@YAHQEAUHINSTANCE__@@KQEAX@Z@4HA 000000018011d95a f   MSVCRT:dll_dllmain.obj
 0001:0011c990       __scrt_is_nonwritable_in_current_image$filt$0 000000018011d990 f   MSVCRT:utility.obj
 0002:000001c8       ?minFError$initializer$@_VecMathTests@aos@shdfnd@physx@@3P6AXXZEA 000000018011e1c8     GuBounds.obj
 0002:000001d0       ?maxFError$initializer$@_VecMathTests@aos@shdfnd@physx@@3P6AXXZEA 000000018011e1d0     GuBounds.obj
 0002:000001d8       ?minV3Error$initializer$@_VecMathTests@aos@shdfnd@physx@@3P6AXXZEA 000000018011e1d8     GuBounds.obj
 0002:000001e0       ?maxV3Error$initializer$@_VecMathTests@aos@shdfnd@physx@@3P6AXXZEA 000000018011e1e0     GuBounds.obj
 0002:000001e8       ?minV4Error$initializer$@_VecMathTests@aos@shdfnd@physx@@3P6AXXZEA 000000018011e1e8     GuBounds.obj
 0002:000001f0       ?maxV4Error$initializer$@_VecMathTests@aos@shdfnd@physx@@3P6AXXZEA 000000018011e1f0     GuBounds.obj
 0002:000001f8       ?minFError$initializer$@_VecMathTests@aos@shdfnd@physx@@3P6AXXZEA 000000018011e1f8     GuBox.obj
 0002:00000200       ?maxFError$initializer$@_VecMathTests@aos@shdfnd@physx@@3P6AXXZEA 000000018011e200     GuBox.obj
 0002:00000208       ?minV3Error$initializer$@_VecMathTests@aos@shdfnd@physx@@3P6AXXZEA 000000018011e208     GuBox.obj
 0002:00000210       ?maxV3Error$initializer$@_VecMathTests@aos@shdfnd@physx@@3P6AXXZEA 000000018011e210     GuBox.obj
 0002:00000218       ?minV4Error$initializer$@_VecMathTests@aos@shdfnd@physx@@3P6AXXZEA 000000018011e218     GuBox.obj
 0002:00000220       ?maxV4Error$initializer$@_VecMathTests@aos@shdfnd@physx@@3P6AXXZEA 000000018011e220     GuBox.obj
 0002:00000228       ?minFError$initializer$@_VecMathTests@aos@shdfnd@physx@@3P6AXXZEA 000000018011e228     GuCCTSweepTests.obj
 0002:00000230       ?maxFError$initializer$@_VecMathTests@aos@shdfnd@physx@@3P6AXXZEA 000000018011e230     GuCCTSweepTests.obj
 0002:00000238       ?minV3Error$initializer$@_VecMathTests@aos@shdfnd@physx@@3P6AXXZEA 000000018011e238     GuCCTSweepTests.obj
 0002:00000240       ?maxV3Error$initializer$@_VecMathTests@aos@shdfnd@physx@@3P6AXXZEA 000000018011e240     GuCCTSweepTests.obj
 0002:00000248       ?minV4Error$initializer$@_VecMathTests@aos@shdfnd@physx@@3P6AXXZEA 000000018011e248     GuCCTSweepTests.obj
 0002:00000250       ?maxV4Error$initializer$@_VecMathTests@aos@shdfnd@physx@@3P6AXXZEA 000000018011e250     GuCCTSweepTests.obj
 0002:00000258       ?minFError$initializer$@_VecMathTests@aos@shdfnd@physx@@3P6AXXZEA 000000018011e258     GuGeometryQuery.obj
 0002:00000260       ?maxFError$initializer$@_VecMathTests@aos@shdfnd@physx@@3P6AXXZEA 000000018011e260     GuGeometryQuery.obj
 0002:00000268       ?minV3Error$initializer$@_VecMathTests@aos@shdfnd@physx@@3P6AXXZEA 000000018011e268     GuGeometryQuery.obj
 0002:00000270       ?maxV3Error$initializer$@_VecMathTests@aos@shdfnd@physx@@3P6AXXZEA 000000018011e270     GuGeometryQuery.obj
 0002:00000278       ?minV4Error$initializer$@_VecMathTests@aos@shdfnd@physx@@3P6AXXZEA 000000018011e278     GuGeometryQuery.obj
 0002:00000280       ?maxV4Error$initializer$@_VecMathTests@aos@shdfnd@physx@@3P6AXXZEA 000000018011e280     GuGeometryQuery.obj
 0002:00000288       ?minFError$initializer$@_VecMathTests@aos@shdfnd@physx@@3P6AXXZEA 000000018011e288     GuGeometryUnion.obj
 0002:00000290       ?maxFError$initializer$@_VecMathTests@aos@shdfnd@physx@@3P6AXXZEA 000000018011e290     GuGeometryUnion.obj
 0002:00000298       ?minV3Error$initializer$@_VecMathTests@aos@shdfnd@physx@@3P6AXXZEA 000000018011e298     GuGeometryUnion.obj
 0002:000002a0       ?maxV3Error$initializer$@_VecMathTests@aos@shdfnd@physx@@3P6AXXZEA 000000018011e2a0     GuGeometryUnion.obj
 0002:000002a8       ?minV4Error$initializer$@_VecMathTests@aos@shdfnd@physx@@3P6AXXZEA 000000018011e2a8     GuGeometryUnion.obj
 0002:000002b0       ?maxV4Error$initializer$@_VecMathTests@aos@shdfnd@physx@@3P6AXXZEA 000000018011e2b0     GuGeometryUnion.obj
 0002:000002b8       ?minFError$initializer$@_VecMathTests@aos@shdfnd@physx@@3P6AXXZEA 000000018011e2b8     GuInternal.obj
 0002:000002c0       ?maxFError$initializer$@_VecMathTests@aos@shdfnd@physx@@3P6AXXZEA 000000018011e2c0     GuInternal.obj
 0002:000002c8       ?minV3Error$initializer$@_VecMathTests@aos@shdfnd@physx@@3P6AXXZEA 000000018011e2c8     GuInternal.obj
 0002:000002d0       ?maxV3Error$initializer$@_VecMathTests@aos@shdfnd@physx@@3P6AXXZEA 000000018011e2d0     GuInternal.obj
 0002:000002d8       ?minV4Error$initializer$@_VecMathTests@aos@shdfnd@physx@@3P6AXXZEA 000000018011e2d8     GuInternal.obj
 0002:000002e0       ?maxV4Error$initializer$@_VecMathTests@aos@shdfnd@physx@@3P6AXXZEA 000000018011e2e0     GuInternal.obj
 0002:000002e8       ?minFError$initializer$@_VecMathTests@aos@shdfnd@physx@@3P6AXXZEA 000000018011e2e8     GuMeshFactory.obj
 0002:000002f0       ?maxFError$initializer$@_VecMathTests@aos@shdfnd@physx@@3P6AXXZEA 000000018011e2f0     GuMeshFactory.obj
 0002:000002f8       ?minV3Error$initializer$@_VecMathTests@aos@shdfnd@physx@@3P6AXXZEA 000000018011e2f8     GuMeshFactory.obj
 0002:00000300       ?maxV3Error$initializer$@_VecMathTests@aos@shdfnd@physx@@3P6AXXZEA 000000018011e300     GuMeshFactory.obj
 0002:00000308       ?minV4Error$initializer$@_VecMathTests@aos@shdfnd@physx@@3P6AXXZEA 000000018011e308     GuMeshFactory.obj
 0002:00000310       ?maxV4Error$initializer$@_VecMathTests@aos@shdfnd@physx@@3P6AXXZEA 000000018011e310     GuMeshFactory.obj
 0002:00000318       ?minFError$initializer$@_VecMathTests@aos@shdfnd@physx@@3P6AXXZEA 000000018011e318     GuMetaData.obj
 0002:00000320       ?maxFError$initializer$@_VecMathTests@aos@shdfnd@physx@@3P6AXXZEA 000000018011e320     GuMetaData.obj
 0002:00000328       ?minV3Error$initializer$@_VecMathTests@aos@shdfnd@physx@@3P6AXXZEA 000000018011e328     GuMetaData.obj
 0002:00000330       ?maxV3Error$initializer$@_VecMathTests@aos@shdfnd@physx@@3P6AXXZEA 000000018011e330     GuMetaData.obj
 0002:00000338       ?minV4Error$initializer$@_VecMathTests@aos@shdfnd@physx@@3P6AXXZEA 000000018011e338     GuMetaData.obj
 0002:00000340       ?maxV4Error$initializer$@_VecMathTests@aos@shdfnd@physx@@3P6AXXZEA 000000018011e340     GuMetaData.obj
 0002:00000348       ?minFError$initializer$@_VecMathTests@aos@shdfnd@physx@@3P6AXXZEA 000000018011e348     GuMTD.obj
 0002:00000350       ?maxFError$initializer$@_VecMathTests@aos@shdfnd@physx@@3P6AXXZEA 000000018011e350     GuMTD.obj
 0002:00000358       ?minV3Error$initializer$@_VecMathTests@aos@shdfnd@physx@@3P6AXXZEA 000000018011e358     GuMTD.obj
 0002:00000360       ?maxV3Error$initializer$@_VecMathTests@aos@shdfnd@physx@@3P6AXXZEA 000000018011e360     GuMTD.obj
 0002:00000368       ?minV4Error$initializer$@_VecMathTests@aos@shdfnd@physx@@3P6AXXZEA 000000018011e368     GuMTD.obj
 0002:00000370       ?maxV4Error$initializer$@_VecMathTests@aos@shdfnd@physx@@3P6AXXZEA 000000018011e370     GuMTD.obj
 0002:00000378       ?minFError$initializer$@_VecMathTests@aos@shdfnd@physx@@3P6AXXZEA 000000018011e378     GuOverlapTests.obj
 0002:00000380       ?maxFError$initializer$@_VecMathTests@aos@shdfnd@physx@@3P6AXXZEA 000000018011e380     GuOverlapTests.obj
 0002:00000388       ?minV3Error$initializer$@_VecMathTests@aos@shdfnd@physx@@3P6AXXZEA 000000018011e388     GuOverlapTests.obj
 0002:00000390       ?maxV3Error$initializer$@_VecMathTests@aos@shdfnd@physx@@3P6AXXZEA 000000018011e390     GuOverlapTests.obj
 0002:00000398       ?minV4Error$initializer$@_VecMathTests@aos@shdfnd@physx@@3P6AXXZEA 000000018011e398     GuOverlapTests.obj
 0002:000003a0       ?maxV4Error$initializer$@_VecMathTests@aos@shdfnd@physx@@3P6AXXZEA 000000018011e3a0     GuOverlapTests.obj
 0002:000003a8       ?minFError$initializer$@_VecMathTests@aos@shdfnd@physx@@3P6AXXZEA 000000018011e3a8     GuRaycastTests.obj
 0002:000003b0       ?maxFError$initializer$@_VecMathTests@aos@shdfnd@physx@@3P6AXXZEA 000000018011e3b0     GuRaycastTests.obj
 0002:000003b8       ?minV3Error$initializer$@_VecMathTests@aos@shdfnd@physx@@3P6AXXZEA 000000018011e3b8     GuRaycastTests.obj
 0002:000003c0       ?maxV3Error$initializer$@_VecMathTests@aos@shdfnd@physx@@3P6AXXZEA 000000018011e3c0     GuRaycastTests.obj
 0002:000003c8       ?minV4Error$initializer$@_VecMathTests@aos@shdfnd@physx@@3P6AXXZEA 000000018011e3c8     GuRaycastTests.obj
 0002:000003d0       ?maxV4Error$initializer$@_VecMathTests@aos@shdfnd@physx@@3P6AXXZEA 000000018011e3d0     GuRaycastTests.obj
 0002:000003d8       ?minFError$initializer$@_VecMathTests@aos@shdfnd@physx@@3P6AXXZEA 000000018011e3d8     GuSweepMTD.obj
 0002:000003e0       ?maxFError$initializer$@_VecMathTests@aos@shdfnd@physx@@3P6AXXZEA 000000018011e3e0     GuSweepMTD.obj
 0002:000003e8       ?minV3Error$initializer$@_VecMathTests@aos@shdfnd@physx@@3P6AXXZEA 000000018011e3e8     GuSweepMTD.obj
 0002:000003f0       ?maxV3Error$initializer$@_VecMathTests@aos@shdfnd@physx@@3P6AXXZEA 000000018011e3f0     GuSweepMTD.obj
 0002:000003f8       ?minV4Error$initializer$@_VecMathTests@aos@shdfnd@physx@@3P6AXXZEA 000000018011e3f8     GuSweepMTD.obj
 0002:00000400       ?maxV4Error$initializer$@_VecMathTests@aos@shdfnd@physx@@3P6AXXZEA 000000018011e400     GuSweepMTD.obj
 0002:00000408       ?minFError$initializer$@_VecMathTests@aos@shdfnd@physx@@3P6AXXZEA 000000018011e408     GuSweepSharedTests.obj
 0002:00000410       ?maxFError$initializer$@_VecMathTests@aos@shdfnd@physx@@3P6AXXZEA 000000018011e410     GuSweepSharedTests.obj
 0002:00000418       ?minV3Error$initializer$@_VecMathTests@aos@shdfnd@physx@@3P6AXXZEA 000000018011e418     GuSweepSharedTests.obj
 0002:00000420       ?maxV3Error$initializer$@_VecMathTests@aos@shdfnd@physx@@3P6AXXZEA 000000018011e420     GuSweepSharedTests.obj
 0002:00000428       ?minV4Error$initializer$@_VecMathTests@aos@shdfnd@physx@@3P6AXXZEA 000000018011e428     GuSweepSharedTests.obj
 0002:00000430       ?maxV4Error$initializer$@_VecMathTests@aos@shdfnd@physx@@3P6AXXZEA 000000018011e430     GuSweepSharedTests.obj
 0002:00000438       ?minFError$initializer$@_VecMathTests@aos@shdfnd@physx@@3P6AXXZEA 000000018011e438     GuSweepTests.obj
 0002:00000440       ?maxFError$initializer$@_VecMathTests@aos@shdfnd@physx@@3P6AXXZEA 000000018011e440     GuSweepTests.obj
 0002:00000448       ?minV3Error$initializer$@_VecMathTests@aos@shdfnd@physx@@3P6AXXZEA 000000018011e448     GuSweepTests.obj
 0002:00000450       ?maxV3Error$initializer$@_VecMathTests@aos@shdfnd@physx@@3P6AXXZEA 000000018011e450     GuSweepTests.obj
 0002:00000458       ?minV4Error$initializer$@_VecMathTests@aos@shdfnd@physx@@3P6AXXZEA 000000018011e458     GuSweepTests.obj
 0002:00000460       ?maxV4Error$initializer$@_VecMathTests@aos@shdfnd@physx@@3P6AXXZEA 000000018011e460     GuSweepTests.obj
 0002:00000468       ?minFError$initializer$@_VecMathTests@aos@shdfnd@physx@@3P6AXXZEA 000000018011e468     GuAABBTreeBuild.obj
 0002:00000470       ?maxFError$initializer$@_VecMathTests@aos@shdfnd@physx@@3P6AXXZEA 000000018011e470     GuAABBTreeBuild.obj
 0002:00000478       ?minV3Error$initializer$@_VecMathTests@aos@shdfnd@physx@@3P6AXXZEA 000000018011e478     GuAABBTreeBuild.obj
 0002:00000480       ?maxV3Error$initializer$@_VecMathTests@aos@shdfnd@physx@@3P6AXXZEA 000000018011e480     GuAABBTreeBuild.obj
 0002:00000488       ?minV4Error$initializer$@_VecMathTests@aos@shdfnd@physx@@3P6AXXZEA 000000018011e488     GuAABBTreeBuild.obj
 0002:00000490       ?maxV4Error$initializer$@_VecMathTests@aos@shdfnd@physx@@3P6AXXZEA 000000018011e490     GuAABBTreeBuild.obj
 0002:00000498       ?minFError$initializer$@_VecMathTests@aos@shdfnd@physx@@3P6AXXZEA 000000018011e498     GuBVHStructure.obj
 0002:000004a0       ?maxFError$initializer$@_VecMathTests@aos@shdfnd@physx@@3P6AXXZEA 000000018011e4a0     GuBVHStructure.obj
 0002:000004a8       ?minV3Error$initializer$@_VecMathTests@aos@shdfnd@physx@@3P6AXXZEA 000000018011e4a8     GuBVHStructure.obj
 0002:000004b0       ?maxV3Error$initializer$@_VecMathTests@aos@shdfnd@physx@@3P6AXXZEA 000000018011e4b0     GuBVHStructure.obj
 0002:000004b8       ?minV4Error$initializer$@_VecMathTests@aos@shdfnd@physx@@3P6AXXZEA 000000018011e4b8     GuBVHStructure.obj
 0002:000004c0       ?maxV4Error$initializer$@_VecMathTests@aos@shdfnd@physx@@3P6AXXZEA 000000018011e4c0     GuBVHStructure.obj
 0002:000004c8       ?minFError$initializer$@_VecMathTests@aos@shdfnd@physx@@3P6AXXZEA 000000018011e4c8     GuCCDSweepConvexMesh.obj
 0002:000004d0       ?maxFError$initializer$@_VecMathTests@aos@shdfnd@physx@@3P6AXXZEA 000000018011e4d0     GuCCDSweepConvexMesh.obj
 0002:000004d8       ?minV3Error$initializer$@_VecMathTests@aos@shdfnd@physx@@3P6AXXZEA 000000018011e4d8     GuCCDSweepConvexMesh.obj
 0002:000004e0       ?maxV3Error$initializer$@_VecMathTests@aos@shdfnd@physx@@3P6AXXZEA 000000018011e4e0     GuCCDSweepConvexMesh.obj
 0002:000004e8       ?minV4Error$initializer$@_VecMathTests@aos@shdfnd@physx@@3P6AXXZEA 000000018011e4e8     GuCCDSweepConvexMesh.obj
 0002:000004f0       ?maxV4Error$initializer$@_VecMathTests@aos@shdfnd@physx@@3P6AXXZEA 000000018011e4f0     GuCCDSweepConvexMesh.obj
 0002:000004f8       ?minFError$initializer$@_VecMathTests@aos@shdfnd@physx@@3P6AXXZEA 000000018011e4f8     GuCCDSweepPrimitives.obj
 0002:00000500       ?maxFError$initializer$@_VecMathTests@aos@shdfnd@physx@@3P6AXXZEA 000000018011e500     GuCCDSweepPrimitives.obj
 0002:00000508       ?minV3Error$initializer$@_VecMathTests@aos@shdfnd@physx@@3P6AXXZEA 000000018011e508     GuCCDSweepPrimitives.obj
 0002:00000510       ?maxV3Error$initializer$@_VecMathTests@aos@shdfnd@physx@@3P6AXXZEA 000000018011e510     GuCCDSweepPrimitives.obj
 0002:00000518       ?minV4Error$initializer$@_VecMathTests@aos@shdfnd@physx@@3P6AXXZEA 000000018011e518     GuCCDSweepPrimitives.obj
 0002:00000520       ?maxV4Error$initializer$@_VecMathTests@aos@shdfnd@physx@@3P6AXXZEA 000000018011e520     GuCCDSweepPrimitives.obj
 0002:00000528       ?minFError$initializer$@_VecMathTests@aos@shdfnd@physx@@3P6AXXZEA 000000018011e528     GuBarycentricCoordinates.obj
 0002:00000530       ?maxFError$initializer$@_VecMathTests@aos@shdfnd@physx@@3P6AXXZEA 000000018011e530     GuBarycentricCoordinates.obj
 0002:00000538       ?minV3Error$initializer$@_VecMathTests@aos@shdfnd@physx@@3P6AXXZEA 000000018011e538     GuBarycentricCoordinates.obj
 0002:00000540       ?maxV3Error$initializer$@_VecMathTests@aos@shdfnd@physx@@3P6AXXZEA 000000018011e540     GuBarycentricCoordinates.obj
 0002:00000548       ?minV4Error$initializer$@_VecMathTests@aos@shdfnd@physx@@3P6AXXZEA 000000018011e548     GuBarycentricCoordinates.obj
 0002:00000550       ?maxV4Error$initializer$@_VecMathTests@aos@shdfnd@physx@@3P6AXXZEA 000000018011e550     GuBarycentricCoordinates.obj
 0002:00000558       ?minFError$initializer$@_VecMathTests@aos@shdfnd@physx@@3P6AXXZEA 000000018011e558     GuContactBoxBox.obj
 0002:00000560       ?maxFError$initializer$@_VecMathTests@aos@shdfnd@physx@@3P6AXXZEA 000000018011e560     GuContactBoxBox.obj
 0002:00000568       ?minV3Error$initializer$@_VecMathTests@aos@shdfnd@physx@@3P6AXXZEA 000000018011e568     GuContactBoxBox.obj
 0002:00000570       ?maxV3Error$initializer$@_VecMathTests@aos@shdfnd@physx@@3P6AXXZEA 000000018011e570     GuContactBoxBox.obj
 0002:00000578       ?minV4Error$initializer$@_VecMathTests@aos@shdfnd@physx@@3P6AXXZEA 000000018011e578     GuContactBoxBox.obj
 0002:00000580       ?maxV4Error$initializer$@_VecMathTests@aos@shdfnd@physx@@3P6AXXZEA 000000018011e580     GuContactBoxBox.obj
 0002:00000588       ?minFError$initializer$@_VecMathTests@aos@shdfnd@physx@@3P6AXXZEA 000000018011e588     GuContactCapsuleBox.obj
 0002:00000590       ?maxFError$initializer$@_VecMathTests@aos@shdfnd@physx@@3P6AXXZEA 000000018011e590     GuContactCapsuleBox.obj
 0002:00000598       ?minV3Error$initializer$@_VecMathTests@aos@shdfnd@physx@@3P6AXXZEA 000000018011e598     GuContactCapsuleBox.obj
 0002:000005a0       ?maxV3Error$initializer$@_VecMathTests@aos@shdfnd@physx@@3P6AXXZEA 000000018011e5a0     GuContactCapsuleBox.obj
 0002:000005a8       ?minV4Error$initializer$@_VecMathTests@aos@shdfnd@physx@@3P6AXXZEA 000000018011e5a8     GuContactCapsuleBox.obj
 0002:000005b0       ?maxV4Error$initializer$@_VecMathTests@aos@shdfnd@physx@@3P6AXXZEA 000000018011e5b0     GuContactCapsuleBox.obj
 0002:000005b8       ?minFError$initializer$@_VecMathTests@aos@shdfnd@physx@@3P6AXXZEA 000000018011e5b8     GuContactCapsuleCapsule.obj
 0002:000005c0       ?maxFError$initializer$@_VecMathTests@aos@shdfnd@physx@@3P6AXXZEA 000000018011e5c0     GuContactCapsuleCapsule.obj
 0002:000005c8       ?minV3Error$initializer$@_VecMathTests@aos@shdfnd@physx@@3P6AXXZEA 000000018011e5c8     GuContactCapsuleCapsule.obj
 0002:000005d0       ?maxV3Error$initializer$@_VecMathTests@aos@shdfnd@physx@@3P6AXXZEA 000000018011e5d0     GuContactCapsuleCapsule.obj
 0002:000005d8       ?minV4Error$initializer$@_VecMathTests@aos@shdfnd@physx@@3P6AXXZEA 000000018011e5d8     GuContactCapsuleCapsule.obj
 0002:000005e0       ?maxV4Error$initializer$@_VecMathTests@aos@shdfnd@physx@@3P6AXXZEA 000000018011e5e0     GuContactCapsuleCapsule.obj
 0002:000005e8       ?minFError$initializer$@_VecMathTests@aos@shdfnd@physx@@3P6AXXZEA 000000018011e5e8     GuContactCapsuleConvex.obj
 0002:000005f0       ?maxFError$initializer$@_VecMathTests@aos@shdfnd@physx@@3P6AXXZEA 000000018011e5f0     GuContactCapsuleConvex.obj
 0002:000005f8       ?minV3Error$initializer$@_VecMathTests@aos@shdfnd@physx@@3P6AXXZEA 000000018011e5f8     GuContactCapsuleConvex.obj
 0002:00000600       ?maxV3Error$initializer$@_VecMathTests@aos@shdfnd@physx@@3P6AXXZEA 000000018011e600     GuContactCapsuleConvex.obj
 0002:00000608       ?minV4Error$initializer$@_VecMathTests@aos@shdfnd@physx@@3P6AXXZEA 000000018011e608     GuContactCapsuleConvex.obj
 0002:00000610       ?maxV4Error$initializer$@_VecMathTests@aos@shdfnd@physx@@3P6AXXZEA 000000018011e610     GuContactCapsuleConvex.obj
 0002:00000618       ?minFError$initializer$@_VecMathTests@aos@shdfnd@physx@@3P6AXXZEA 000000018011e618     GuContactCapsuleMesh.obj
 0002:00000620       ?maxFError$initializer$@_VecMathTests@aos@shdfnd@physx@@3P6AXXZEA 000000018011e620     GuContactCapsuleMesh.obj
 0002:00000628       ?minV3Error$initializer$@_VecMathTests@aos@shdfnd@physx@@3P6AXXZEA 000000018011e628     GuContactCapsuleMesh.obj
 0002:00000630       ?maxV3Error$initializer$@_VecMathTests@aos@shdfnd@physx@@3P6AXXZEA 000000018011e630     GuContactCapsuleMesh.obj
 0002:00000638       ?minV4Error$initializer$@_VecMathTests@aos@shdfnd@physx@@3P6AXXZEA 000000018011e638     GuContactCapsuleMesh.obj
 0002:00000640       ?maxV4Error$initializer$@_VecMathTests@aos@shdfnd@physx@@3P6AXXZEA 000000018011e640     GuContactCapsuleMesh.obj
 0002:00000648       ?minFError$initializer$@_VecMathTests@aos@shdfnd@physx@@3P6AXXZEA 000000018011e648     GuContactConvexConvex.obj
 0002:00000650       ?maxFError$initializer$@_VecMathTests@aos@shdfnd@physx@@3P6AXXZEA 000000018011e650     GuContactConvexConvex.obj
 0002:00000658       ?minV3Error$initializer$@_VecMathTests@aos@shdfnd@physx@@3P6AXXZEA 000000018011e658     GuContactConvexConvex.obj
 0002:00000660       ?maxV3Error$initializer$@_VecMathTests@aos@shdfnd@physx@@3P6AXXZEA 000000018011e660     GuContactConvexConvex.obj
 0002:00000668       ?minV4Error$initializer$@_VecMathTests@aos@shdfnd@physx@@3P6AXXZEA 000000018011e668     GuContactConvexConvex.obj
 0002:00000670       ?maxV4Error$initializer$@_VecMathTests@aos@shdfnd@physx@@3P6AXXZEA 000000018011e670     GuContactConvexConvex.obj
 0002:00000678       ?minFError$initializer$@_VecMathTests@aos@shdfnd@physx@@3P6AXXZEA 000000018011e678     GuContactConvexMesh.obj
 0002:00000680       ?maxFError$initializer$@_VecMathTests@aos@shdfnd@physx@@3P6AXXZEA 000000018011e680     GuContactConvexMesh.obj
 0002:00000688       ?minV3Error$initializer$@_VecMathTests@aos@shdfnd@physx@@3P6AXXZEA 000000018011e688     GuContactConvexMesh.obj
 0002:00000690       ?maxV3Error$initializer$@_VecMathTests@aos@shdfnd@physx@@3P6AXXZEA 000000018011e690     GuContactConvexMesh.obj
 0002:00000698       ?minV4Error$initializer$@_VecMathTests@aos@shdfnd@physx@@3P6AXXZEA 000000018011e698     GuContactConvexMesh.obj
 0002:000006a0       ?maxV4Error$initializer$@_VecMathTests@aos@shdfnd@physx@@3P6AXXZEA 000000018011e6a0     GuContactConvexMesh.obj
 0002:000006a8       ?minFError$initializer$@_VecMathTests@aos@shdfnd@physx@@3P6AXXZEA 000000018011e6a8     GuContactPlaneBox.obj
 0002:000006b0       ?maxFError$initializer$@_VecMathTests@aos@shdfnd@physx@@3P6AXXZEA 000000018011e6b0     GuContactPlaneBox.obj
 0002:000006b8       ?minV3Error$initializer$@_VecMathTests@aos@shdfnd@physx@@3P6AXXZEA 000000018011e6b8     GuContactPlaneBox.obj
 0002:000006c0       ?maxV3Error$initializer$@_VecMathTests@aos@shdfnd@physx@@3P6AXXZEA 000000018011e6c0     GuContactPlaneBox.obj
 0002:000006c8       ?minV4Error$initializer$@_VecMathTests@aos@shdfnd@physx@@3P6AXXZEA 000000018011e6c8     GuContactPlaneBox.obj
 0002:000006d0       ?maxV4Error$initializer$@_VecMathTests@aos@shdfnd@physx@@3P6AXXZEA 000000018011e6d0     GuContactPlaneBox.obj
 0002:000006d8       ?minFError$initializer$@_VecMathTests@aos@shdfnd@physx@@3P6AXXZEA 000000018011e6d8     GuContactPlaneCapsule.obj
 0002:000006e0       ?maxFError$initializer$@_VecMathTests@aos@shdfnd@physx@@3P6AXXZEA 000000018011e6e0     GuContactPlaneCapsule.obj
 0002:000006e8       ?minV3Error$initializer$@_VecMathTests@aos@shdfnd@physx@@3P6AXXZEA 000000018011e6e8     GuContactPlaneCapsule.obj
 0002:000006f0       ?maxV3Error$initializer$@_VecMathTests@aos@shdfnd@physx@@3P6AXXZEA 000000018011e6f0     GuContactPlaneCapsule.obj
 0002:000006f8       ?minV4Error$initializer$@_VecMathTests@aos@shdfnd@physx@@3P6AXXZEA 000000018011e6f8     GuContactPlaneCapsule.obj
 0002:00000700       ?maxV4Error$initializer$@_VecMathTests@aos@shdfnd@physx@@3P6AXXZEA 000000018011e700     GuContactPlaneCapsule.obj
 0002:00000708       ?minFError$initializer$@_VecMathTests@aos@shdfnd@physx@@3P6AXXZEA 000000018011e708     GuContactPlaneConvex.obj
 0002:00000710       ?maxFError$initializer$@_VecMathTests@aos@shdfnd@physx@@3P6AXXZEA 000000018011e710     GuContactPlaneConvex.obj
 0002:00000718       ?minV3Error$initializer$@_VecMathTests@aos@shdfnd@physx@@3P6AXXZEA 000000018011e718     GuContactPlaneConvex.obj
 0002:00000720       ?maxV3Error$initializer$@_VecMathTests@aos@shdfnd@physx@@3P6AXXZEA 000000018011e720     GuContactPlaneConvex.obj
 0002:00000728       ?minV4Error$initializer$@_VecMathTests@aos@shdfnd@physx@@3P6AXXZEA 000000018011e728     GuContactPlaneConvex.obj
 0002:00000730       ?maxV4Error$initializer$@_VecMathTests@aos@shdfnd@physx@@3P6AXXZEA 000000018011e730     GuContactPlaneConvex.obj
 0002:00000738       ?minFError$initializer$@_VecMathTests@aos@shdfnd@physx@@3P6AXXZEA 000000018011e738     GuContactSphereBox.obj
 0002:00000740       ?maxFError$initializer$@_VecMathTests@aos@shdfnd@physx@@3P6AXXZEA 000000018011e740     GuContactSphereBox.obj
 0002:00000748       ?minV3Error$initializer$@_VecMathTests@aos@shdfnd@physx@@3P6AXXZEA 000000018011e748     GuContactSphereBox.obj
 0002:00000750       ?maxV3Error$initializer$@_VecMathTests@aos@shdfnd@physx@@3P6AXXZEA 000000018011e750     GuContactSphereBox.obj
 0002:00000758       ?minV4Error$initializer$@_VecMathTests@aos@shdfnd@physx@@3P6AXXZEA 000000018011e758     GuContactSphereBox.obj
 0002:00000760       ?maxV4Error$initializer$@_VecMathTests@aos@shdfnd@physx@@3P6AXXZEA 000000018011e760     GuContactSphereBox.obj
 0002:00000768       ?minFError$initializer$@_VecMathTests@aos@shdfnd@physx@@3P6AXXZEA 000000018011e768     GuContactSphereCapsule.obj
 0002:00000770       ?maxFError$initializer$@_VecMathTests@aos@shdfnd@physx@@3P6AXXZEA 000000018011e770     GuContactSphereCapsule.obj
 0002:00000778       ?minV3Error$initializer$@_VecMathTests@aos@shdfnd@physx@@3P6AXXZEA 000000018011e778     GuContactSphereCapsule.obj
 0002:00000780       ?maxV3Error$initializer$@_VecMathTests@aos@shdfnd@physx@@3P6AXXZEA 000000018011e780     GuContactSphereCapsule.obj
 0002:00000788       ?minV4Error$initializer$@_VecMathTests@aos@shdfnd@physx@@3P6AXXZEA 000000018011e788     GuContactSphereCapsule.obj
 0002:00000790       ?maxV4Error$initializer$@_VecMathTests@aos@shdfnd@physx@@3P6AXXZEA 000000018011e790     GuContactSphereCapsule.obj
 0002:00000798       ?minFError$initializer$@_VecMathTests@aos@shdfnd@physx@@3P6AXXZEA 000000018011e798     GuContactSphereMesh.obj
 0002:000007a0       ?maxFError$initializer$@_VecMathTests@aos@shdfnd@physx@@3P6AXXZEA 000000018011e7a0     GuContactSphereMesh.obj
 0002:000007a8       ?minV3Error$initializer$@_VecMathTests@aos@shdfnd@physx@@3P6AXXZEA 000000018011e7a8     GuContactSphereMesh.obj
 0002:000007b0       ?maxV3Error$initializer$@_VecMathTests@aos@shdfnd@physx@@3P6AXXZEA 000000018011e7b0     GuContactSphereMesh.obj
 0002:000007b8       ?minV4Error$initializer$@_VecMathTests@aos@shdfnd@physx@@3P6AXXZEA 000000018011e7b8     GuContactSphereMesh.obj
 0002:000007c0       ?maxV4Error$initializer$@_VecMathTests@aos@shdfnd@physx@@3P6AXXZEA 000000018011e7c0     GuContactSphereMesh.obj
 0002:000007c8       ?minFError$initializer$@_VecMathTests@aos@shdfnd@physx@@3P6AXXZEA 000000018011e7c8     GuContactSpherePlane.obj
 0002:000007d0       ?maxFError$initializer$@_VecMathTests@aos@shdfnd@physx@@3P6AXXZEA 000000018011e7d0     GuContactSpherePlane.obj
 0002:000007d8       ?minV3Error$initializer$@_VecMathTests@aos@shdfnd@physx@@3P6AXXZEA 000000018011e7d8     GuContactSpherePlane.obj
 0002:000007e0       ?maxV3Error$initializer$@_VecMathTests@aos@shdfnd@physx@@3P6AXXZEA 000000018011e7e0     GuContactSpherePlane.obj
 0002:000007e8       ?minV4Error$initializer$@_VecMathTests@aos@shdfnd@physx@@3P6AXXZEA 000000018011e7e8     GuContactSpherePlane.obj
 0002:000007f0       ?maxV4Error$initializer$@_VecMathTests@aos@shdfnd@physx@@3P6AXXZEA 000000018011e7f0     GuContactSpherePlane.obj
 0002:000007f8       ?minFError$initializer$@_VecMathTests@aos@shdfnd@physx@@3P6AXXZEA 000000018011e7f8     GuContactSphereSphere.obj
 0002:00000800       ?maxFError$initializer$@_VecMathTests@aos@shdfnd@physx@@3P6AXXZEA 000000018011e800     GuContactSphereSphere.obj
 0002:00000808       ?minV3Error$initializer$@_VecMathTests@aos@shdfnd@physx@@3P6AXXZEA 000000018011e808     GuContactSphereSphere.obj
 0002:00000810       ?maxV3Error$initializer$@_VecMathTests@aos@shdfnd@physx@@3P6AXXZEA 000000018011e810     GuContactSphereSphere.obj
 0002:00000818       ?minV4Error$initializer$@_VecMathTests@aos@shdfnd@physx@@3P6AXXZEA 000000018011e818     GuContactSphereSphere.obj
 0002:00000820       ?maxV4Error$initializer$@_VecMathTests@aos@shdfnd@physx@@3P6AXXZEA 000000018011e820     GuContactSphereSphere.obj
 0002:00000828       ?minFError$initializer$@_VecMathTests@aos@shdfnd@physx@@3P6AXXZEA 000000018011e828     GuConvexHelper.obj
 0002:00000830       ?maxFError$initializer$@_VecMathTests@aos@shdfnd@physx@@3P6AXXZEA 000000018011e830     GuConvexHelper.obj
 0002:00000838       ?minV3Error$initializer$@_VecMathTests@aos@shdfnd@physx@@3P6AXXZEA 000000018011e838     GuConvexHelper.obj
 0002:00000840       ?maxV3Error$initializer$@_VecMathTests@aos@shdfnd@physx@@3P6AXXZEA 000000018011e840     GuConvexHelper.obj
 0002:00000848       ?minV4Error$initializer$@_VecMathTests@aos@shdfnd@physx@@3P6AXXZEA 000000018011e848     GuConvexHelper.obj
 0002:00000850       ?maxV4Error$initializer$@_VecMathTests@aos@shdfnd@physx@@3P6AXXZEA 000000018011e850     GuConvexHelper.obj
 0002:00000858       ?minFError$initializer$@_VecMathTests@aos@shdfnd@physx@@3P6AXXZEA 000000018011e858     GuConvexSupportTable.obj
 0002:00000860       ?maxFError$initializer$@_VecMathTests@aos@shdfnd@physx@@3P6AXXZEA 000000018011e860     GuConvexSupportTable.obj
 0002:00000868       ?minV3Error$initializer$@_VecMathTests@aos@shdfnd@physx@@3P6AXXZEA 000000018011e868     GuConvexSupportTable.obj
 0002:00000870       ?maxV3Error$initializer$@_VecMathTests@aos@shdfnd@physx@@3P6AXXZEA 000000018011e870     GuConvexSupportTable.obj
 0002:00000878       ?minV4Error$initializer$@_VecMathTests@aos@shdfnd@physx@@3P6AXXZEA 000000018011e878     GuConvexSupportTable.obj
 0002:00000880       ?maxV4Error$initializer$@_VecMathTests@aos@shdfnd@physx@@3P6AXXZEA 000000018011e880     GuConvexSupportTable.obj
 0002:00000888       ?boxVertexTable$initializer$@physx@@3P6AXXZEA 000000018011e888     GuConvexSupportTable.obj
 0002:00000890       ?minFError$initializer$@_VecMathTests@aos@shdfnd@physx@@3P6AXXZEA 000000018011e890     GuConvexUtilsInternal.obj
 0002:00000898       ?maxFError$initializer$@_VecMathTests@aos@shdfnd@physx@@3P6AXXZEA 000000018011e898     GuConvexUtilsInternal.obj
 0002:000008a0       ?minV3Error$initializer$@_VecMathTests@aos@shdfnd@physx@@3P6AXXZEA 000000018011e8a0     GuConvexUtilsInternal.obj
 0002:000008a8       ?maxV3Error$initializer$@_VecMathTests@aos@shdfnd@physx@@3P6AXXZEA 000000018011e8a8     GuConvexUtilsInternal.obj
 0002:000008b0       ?minV4Error$initializer$@_VecMathTests@aos@shdfnd@physx@@3P6AXXZEA 000000018011e8b0     GuConvexUtilsInternal.obj
 0002:000008b8       ?maxV4Error$initializer$@_VecMathTests@aos@shdfnd@physx@@3P6AXXZEA 000000018011e8b8     GuConvexUtilsInternal.obj
 0002:000008c0       ?minFError$initializer$@_VecMathTests@aos@shdfnd@physx@@3P6AXXZEA 000000018011e8c0     GuDistancePointTriangle.obj
 0002:000008c8       ?maxFError$initializer$@_VecMathTests@aos@shdfnd@physx@@3P6AXXZEA 000000018011e8c8     GuDistancePointTriangle.obj
 0002:000008d0       ?minV3Error$initializer$@_VecMathTests@aos@shdfnd@physx@@3P6AXXZEA 000000018011e8d0     GuDistancePointTriangle.obj
 0002:000008d8       ?maxV3Error$initializer$@_VecMathTests@aos@shdfnd@physx@@3P6AXXZEA 000000018011e8d8     GuDistancePointTriangle.obj
 0002:000008e0       ?minV4Error$initializer$@_VecMathTests@aos@shdfnd@physx@@3P6AXXZEA 000000018011e8e0     GuDistancePointTriangle.obj
 0002:000008e8       ?maxV4Error$initializer$@_VecMathTests@aos@shdfnd@physx@@3P6AXXZEA 000000018011e8e8     GuDistancePointTriangle.obj
 0002:000008f0       ?minFError$initializer$@_VecMathTests@aos@shdfnd@physx@@3P6AXXZEA 000000018011e8f0     GuDistanceSegmentSegment.obj
 0002:000008f8       ?maxFError$initializer$@_VecMathTests@aos@shdfnd@physx@@3P6AXXZEA 000000018011e8f8     GuDistanceSegmentSegment.obj
 0002:00000900       ?minV3Error$initializer$@_VecMathTests@aos@shdfnd@physx@@3P6AXXZEA 000000018011e900     GuDistanceSegmentSegment.obj
 0002:00000908       ?maxV3Error$initializer$@_VecMathTests@aos@shdfnd@physx@@3P6AXXZEA 000000018011e908     GuDistanceSegmentSegment.obj
 0002:00000910       ?minV4Error$initializer$@_VecMathTests@aos@shdfnd@physx@@3P6AXXZEA 000000018011e910     GuDistanceSegmentSegment.obj
 0002:00000918       ?maxV4Error$initializer$@_VecMathTests@aos@shdfnd@physx@@3P6AXXZEA 000000018011e918     GuDistanceSegmentSegment.obj
 0002:00000920       ?minFError$initializer$@_VecMathTests@aos@shdfnd@physx@@3P6AXXZEA 000000018011e920     GuDistanceSegmentTriangle.obj
 0002:00000928       ?maxFError$initializer$@_VecMathTests@aos@shdfnd@physx@@3P6AXXZEA 000000018011e928     GuDistanceSegmentTriangle.obj
 0002:00000930       ?minV3Error$initializer$@_VecMathTests@aos@shdfnd@physx@@3P6AXXZEA 000000018011e930     GuDistanceSegmentTriangle.obj
 0002:00000938       ?maxV3Error$initializer$@_VecMathTests@aos@shdfnd@physx@@3P6AXXZEA 000000018011e938     GuDistanceSegmentTriangle.obj
 0002:00000940       ?minV4Error$initializer$@_VecMathTests@aos@shdfnd@physx@@3P6AXXZEA 000000018011e940     GuDistanceSegmentTriangle.obj
 0002:00000948       ?maxV4Error$initializer$@_VecMathTests@aos@shdfnd@physx@@3P6AXXZEA 000000018011e948     GuDistanceSegmentTriangle.obj
 0002:00000950       ?minFError$initializer$@_VecMathTests@aos@shdfnd@physx@@3P6AXXZEA 000000018011e950     GuEPA.obj
 0002:00000958       ?maxFError$initializer$@_VecMathTests@aos@shdfnd@physx@@3P6AXXZEA 000000018011e958     GuEPA.obj
 0002:00000960       ?minV3Error$initializer$@_VecMathTests@aos@shdfnd@physx@@3P6AXXZEA 000000018011e960     GuEPA.obj
 0002:00000968       ?maxV3Error$initializer$@_VecMathTests@aos@shdfnd@physx@@3P6AXXZEA 000000018011e968     GuEPA.obj
 0002:00000970       ?minV4Error$initializer$@_VecMathTests@aos@shdfnd@physx@@3P6AXXZEA 000000018011e970     GuEPA.obj
 0002:00000978       ?maxV4Error$initializer$@_VecMathTests@aos@shdfnd@physx@@3P6AXXZEA 000000018011e978     GuEPA.obj
 0002:00000980       ?minFError$initializer$@_VecMathTests@aos@shdfnd@physx@@3P6AXXZEA 000000018011e980     GuGJKSimplex.obj
 0002:00000988       ?maxFError$initializer$@_VecMathTests@aos@shdfnd@physx@@3P6AXXZEA 000000018011e988     GuGJKSimplex.obj
 0002:00000990       ?minV3Error$initializer$@_VecMathTests@aos@shdfnd@physx@@3P6AXXZEA 000000018011e990     GuGJKSimplex.obj
 0002:00000998       ?maxV3Error$initializer$@_VecMathTests@aos@shdfnd@physx@@3P6AXXZEA 000000018011e998     GuGJKSimplex.obj
 0002:000009a0       ?minV4Error$initializer$@_VecMathTests@aos@shdfnd@physx@@3P6AXXZEA 000000018011e9a0     GuGJKSimplex.obj
 0002:000009a8       ?maxV4Error$initializer$@_VecMathTests@aos@shdfnd@physx@@3P6AXXZEA 000000018011e9a8     GuGJKSimplex.obj
 0002:000009b0       ?minFError$initializer$@_VecMathTests@aos@shdfnd@physx@@3P6AXXZEA 000000018011e9b0     GuGJKTest.obj
 0002:000009b8       ?maxFError$initializer$@_VecMathTests@aos@shdfnd@physx@@3P6AXXZEA 000000018011e9b8     GuGJKTest.obj
 0002:000009c0       ?minV3Error$initializer$@_VecMathTests@aos@shdfnd@physx@@3P6AXXZEA 000000018011e9c0     GuGJKTest.obj
 0002:000009c8       ?maxV3Error$initializer$@_VecMathTests@aos@shdfnd@physx@@3P6AXXZEA 000000018011e9c8     GuGJKTest.obj
 0002:000009d0       ?minV4Error$initializer$@_VecMathTests@aos@shdfnd@physx@@3P6AXXZEA 000000018011e9d0     GuGJKTest.obj
 0002:000009d8       ?maxV4Error$initializer$@_VecMathTests@aos@shdfnd@physx@@3P6AXXZEA 000000018011e9d8     GuGJKTest.obj
 0002:000009e0       ?minFError$initializer$@_VecMathTests@aos@shdfnd@physx@@3P6AXXZEA 000000018011e9e0     GuHeightFieldUtil.obj
 0002:000009e8       ?maxFError$initializer$@_VecMathTests@aos@shdfnd@physx@@3P6AXXZEA 000000018011e9e8     GuHeightFieldUtil.obj
 0002:000009f0       ?minV3Error$initializer$@_VecMathTests@aos@shdfnd@physx@@3P6AXXZEA 000000018011e9f0     GuHeightFieldUtil.obj
 0002:000009f8       ?maxV3Error$initializer$@_VecMathTests@aos@shdfnd@physx@@3P6AXXZEA 000000018011e9f8     GuHeightFieldUtil.obj
 0002:00000a00       ?minV4Error$initializer$@_VecMathTests@aos@shdfnd@physx@@3P6AXXZEA 000000018011ea00     GuHeightFieldUtil.obj
 0002:00000a08       ?maxV4Error$initializer$@_VecMathTests@aos@shdfnd@physx@@3P6AXXZEA 000000018011ea08     GuHeightFieldUtil.obj
 0002:00000a10       ?minFError$initializer$@_VecMathTests@aos@shdfnd@physx@@3P6AXXZEA 000000018011ea10     GuOverlapTestsHF.obj
 0002:00000a18       ?maxFError$initializer$@_VecMathTests@aos@shdfnd@physx@@3P6AXXZEA 000000018011ea18     GuOverlapTestsHF.obj
 0002:00000a20       ?minV3Error$initializer$@_VecMathTests@aos@shdfnd@physx@@3P6AXXZEA 000000018011ea20     GuOverlapTestsHF.obj
 0002:00000a28       ?maxV3Error$initializer$@_VecMathTests@aos@shdfnd@physx@@3P6AXXZEA 000000018011ea28     GuOverlapTestsHF.obj
 0002:00000a30       ?minV4Error$initializer$@_VecMathTests@aos@shdfnd@physx@@3P6AXXZEA 000000018011ea30     GuOverlapTestsHF.obj
 0002:00000a38       ?maxV4Error$initializer$@_VecMathTests@aos@shdfnd@physx@@3P6AXXZEA 000000018011ea38     GuOverlapTestsHF.obj
 0002:00000a40       ?minFError$initializer$@_VecMathTests@aos@shdfnd@physx@@3P6AXXZEA 000000018011ea40     GuSweepsHF.obj
 0002:00000a48       ?maxFError$initializer$@_VecMathTests@aos@shdfnd@physx@@3P6AXXZEA 000000018011ea48     GuSweepsHF.obj
 0002:00000a50       ?minV3Error$initializer$@_VecMathTests@aos@shdfnd@physx@@3P6AXXZEA 000000018011ea50     GuSweepsHF.obj
 0002:00000a58       ?maxV3Error$initializer$@_VecMathTests@aos@shdfnd@physx@@3P6AXXZEA 000000018011ea58     GuSweepsHF.obj
 0002:00000a60       ?minV4Error$initializer$@_VecMathTests@aos@shdfnd@physx@@3P6AXXZEA 000000018011ea60     GuSweepsHF.obj
 0002:00000a68       ?maxV4Error$initializer$@_VecMathTests@aos@shdfnd@physx@@3P6AXXZEA 000000018011ea68     GuSweepsHF.obj
 0002:00000a70       ?minFError$initializer$@_VecMathTests@aos@shdfnd@physx@@3P6AXXZEA 000000018011ea70     GuIntersectionRayBox.obj
 0002:00000a78       ?maxFError$initializer$@_VecMathTests@aos@shdfnd@physx@@3P6AXXZEA 000000018011ea78     GuIntersectionRayBox.obj
 0002:00000a80       ?minV3Error$initializer$@_VecMathTests@aos@shdfnd@physx@@3P6AXXZEA 000000018011ea80     GuIntersectionRayBox.obj
 0002:00000a88       ?maxV3Error$initializer$@_VecMathTests@aos@shdfnd@physx@@3P6AXXZEA 000000018011ea88     GuIntersectionRayBox.obj
 0002:00000a90       ?minV4Error$initializer$@_VecMathTests@aos@shdfnd@physx@@3P6AXXZEA 000000018011ea90     GuIntersectionRayBox.obj
 0002:00000a98       ?maxV4Error$initializer$@_VecMathTests@aos@shdfnd@physx@@3P6AXXZEA 000000018011ea98     GuIntersectionRayBox.obj
 0002:00000aa0       ?minFError$initializer$@_VecMathTests@aos@shdfnd@physx@@3P6AXXZEA 000000018011eaa0     GuIntersectionTriangleBox.obj
 0002:00000aa8       ?maxFError$initializer$@_VecMathTests@aos@shdfnd@physx@@3P6AXXZEA 000000018011eaa8     GuIntersectionTriangleBox.obj
 0002:00000ab0       ?minV3Error$initializer$@_VecMathTests@aos@shdfnd@physx@@3P6AXXZEA 000000018011eab0     GuIntersectionTriangleBox.obj
 0002:00000ab8       ?maxV3Error$initializer$@_VecMathTests@aos@shdfnd@physx@@3P6AXXZEA 000000018011eab8     GuIntersectionTriangleBox.obj
 0002:00000ac0       ?minV4Error$initializer$@_VecMathTests@aos@shdfnd@physx@@3P6AXXZEA 000000018011eac0     GuIntersectionTriangleBox.obj
 0002:00000ac8       ?maxV4Error$initializer$@_VecMathTests@aos@shdfnd@physx@@3P6AXXZEA 000000018011eac8     GuIntersectionTriangleBox.obj
 0002:00000ad0       ?signV$initializer$@@3P6AXXZEA 000000018011ead0     GuIntersectionTriangleBox.obj
 0002:00000ad8       ?minFError$initializer$@_VecMathTests@aos@shdfnd@physx@@3P6AXXZEA 000000018011ead8     GuBV4.obj
 0002:00000ae0       ?maxFError$initializer$@_VecMathTests@aos@shdfnd@physx@@3P6AXXZEA 000000018011eae0     GuBV4.obj
 0002:00000ae8       ?minV3Error$initializer$@_VecMathTests@aos@shdfnd@physx@@3P6AXXZEA 000000018011eae8     GuBV4.obj
 0002:00000af0       ?maxV3Error$initializer$@_VecMathTests@aos@shdfnd@physx@@3P6AXXZEA 000000018011eaf0     GuBV4.obj
 0002:00000af8       ?minV4Error$initializer$@_VecMathTests@aos@shdfnd@physx@@3P6AXXZEA 000000018011eaf8     GuBV4.obj
 0002:00000b00       ?maxV4Error$initializer$@_VecMathTests@aos@shdfnd@physx@@3P6AXXZEA 000000018011eb00     GuBV4.obj
 0002:00000b08       ?minFError$initializer$@_VecMathTests@aos@shdfnd@physx@@3P6AXXZEA 000000018011eb08     GuBV4Build.obj
 0002:00000b10       ?maxFError$initializer$@_VecMathTests@aos@shdfnd@physx@@3P6AXXZEA 000000018011eb10     GuBV4Build.obj
 0002:00000b18       ?minV3Error$initializer$@_VecMathTests@aos@shdfnd@physx@@3P6AXXZEA 000000018011eb18     GuBV4Build.obj
 0002:00000b20       ?maxV3Error$initializer$@_VecMathTests@aos@shdfnd@physx@@3P6AXXZEA 000000018011eb20     GuBV4Build.obj
 0002:00000b28       ?minV4Error$initializer$@_VecMathTests@aos@shdfnd@physx@@3P6AXXZEA 000000018011eb28     GuBV4Build.obj
 0002:00000b30       ?maxV4Error$initializer$@_VecMathTests@aos@shdfnd@physx@@3P6AXXZEA 000000018011eb30     GuBV4Build.obj
 0002:00000b38       ?minFError$initializer$@_VecMathTests@aos@shdfnd@physx@@3P6AXXZEA 000000018011eb38     GuBV4_AABBSweep.obj
 0002:00000b40       ?maxFError$initializer$@_VecMathTests@aos@shdfnd@physx@@3P6AXXZEA 000000018011eb40     GuBV4_AABBSweep.obj
 0002:00000b48       ?minV3Error$initializer$@_VecMathTests@aos@shdfnd@physx@@3P6AXXZEA 000000018011eb48     GuBV4_AABBSweep.obj
 0002:00000b50       ?maxV3Error$initializer$@_VecMathTests@aos@shdfnd@physx@@3P6AXXZEA 000000018011eb50     GuBV4_AABBSweep.obj
 0002:00000b58       ?minV4Error$initializer$@_VecMathTests@aos@shdfnd@physx@@3P6AXXZEA 000000018011eb58     GuBV4_AABBSweep.obj
 0002:00000b60       ?maxV4Error$initializer$@_VecMathTests@aos@shdfnd@physx@@3P6AXXZEA 000000018011eb60     GuBV4_AABBSweep.obj
 0002:00000b68       ?signMask$initializer$@?A0x788c2204@@3P6AXXZEA 000000018011eb68     GuBV4_AABBSweep.obj
 0002:00000b70       ?epsFloat4$initializer$@?A0x788c2204@@3P6AXXZEA 000000018011eb70     GuBV4_AABBSweep.obj
 0002:00000b78       ?zeroes$initializer$@?A0x788c2204@@3P6AXXZEA 000000018011eb78     GuBV4_AABBSweep.obj
 0002:00000b80       ?twos$initializer$@?A0x788c2204@@3P6AXXZEA 000000018011eb80     GuBV4_AABBSweep.obj
 0002:00000b88       ?epsInflateFloat4$initializer$@?A0x788c2204@@3P6AXXZEA 000000018011eb88     GuBV4_AABBSweep.obj
 0002:00000b90       ?minFError$initializer$@_VecMathTests@aos@shdfnd@physx@@3P6AXXZEA 000000018011eb90     GuBV4_BoxOverlap.obj
 0002:00000b98       ?maxFError$initializer$@_VecMathTests@aos@shdfnd@physx@@3P6AXXZEA 000000018011eb98     GuBV4_BoxOverlap.obj
 0002:00000ba0       ?minV3Error$initializer$@_VecMathTests@aos@shdfnd@physx@@3P6AXXZEA 000000018011eba0     GuBV4_BoxOverlap.obj
 0002:00000ba8       ?maxV3Error$initializer$@_VecMathTests@aos@shdfnd@physx@@3P6AXXZEA 000000018011eba8     GuBV4_BoxOverlap.obj
 0002:00000bb0       ?minV4Error$initializer$@_VecMathTests@aos@shdfnd@physx@@3P6AXXZEA 000000018011ebb0     GuBV4_BoxOverlap.obj
 0002:00000bb8       ?maxV4Error$initializer$@_VecMathTests@aos@shdfnd@physx@@3P6AXXZEA 000000018011ebb8     GuBV4_BoxOverlap.obj
 0002:00000bc0       ?minFError$initializer$@_VecMathTests@aos@shdfnd@physx@@3P6AXXZEA 000000018011ebc0     GuBV4_CapsuleSweep.obj
 0002:00000bc8       ?maxFError$initializer$@_VecMathTests@aos@shdfnd@physx@@3P6AXXZEA 000000018011ebc8     GuBV4_CapsuleSweep.obj
 0002:00000bd0       ?minV3Error$initializer$@_VecMathTests@aos@shdfnd@physx@@3P6AXXZEA 000000018011ebd0     GuBV4_CapsuleSweep.obj
 0002:00000bd8       ?maxV3Error$initializer$@_VecMathTests@aos@shdfnd@physx@@3P6AXXZEA 000000018011ebd8     GuBV4_CapsuleSweep.obj
 0002:00000be0       ?minV4Error$initializer$@_VecMathTests@aos@shdfnd@physx@@3P6AXXZEA 000000018011ebe0     GuBV4_CapsuleSweep.obj
 0002:00000be8       ?maxV4Error$initializer$@_VecMathTests@aos@shdfnd@physx@@3P6AXXZEA 000000018011ebe8     GuBV4_CapsuleSweep.obj
 0002:00000bf0       ?minFError$initializer$@_VecMathTests@aos@shdfnd@physx@@3P6AXXZEA 000000018011ebf0     GuBV4_CapsuleSweepAA.obj
 0002:00000bf8       ?maxFError$initializer$@_VecMathTests@aos@shdfnd@physx@@3P6AXXZEA 000000018011ebf8     GuBV4_CapsuleSweepAA.obj
 0002:00000c00       ?minV3Error$initializer$@_VecMathTests@aos@shdfnd@physx@@3P6AXXZEA 000000018011ec00     GuBV4_CapsuleSweepAA.obj
 0002:00000c08       ?maxV3Error$initializer$@_VecMathTests@aos@shdfnd@physx@@3P6AXXZEA 000000018011ec08     GuBV4_CapsuleSweepAA.obj
 0002:00000c10       ?minV4Error$initializer$@_VecMathTests@aos@shdfnd@physx@@3P6AXXZEA 000000018011ec10     GuBV4_CapsuleSweepAA.obj
 0002:00000c18       ?maxV4Error$initializer$@_VecMathTests@aos@shdfnd@physx@@3P6AXXZEA 000000018011ec18     GuBV4_CapsuleSweepAA.obj
 0002:00000c20       ?signMask$initializer$@?A0xf567e8b1@@3P6AXXZEA 000000018011ec20     GuBV4_CapsuleSweepAA.obj
 0002:00000c28       ?epsFloat4$initializer$@?A0xf567e8b1@@3P6AXXZEA 000000018011ec28     GuBV4_CapsuleSweepAA.obj
 0002:00000c30       ?zeroes$initializer$@?A0xf567e8b1@@3P6AXXZEA 000000018011ec30     GuBV4_CapsuleSweepAA.obj
 0002:00000c38       ?twos$initializer$@?A0xf567e8b1@@3P6AXXZEA 000000018011ec38     GuBV4_CapsuleSweepAA.obj
 0002:00000c40       ?epsInflateFloat4$initializer$@?A0xf567e8b1@@3P6AXXZEA 000000018011ec40     GuBV4_CapsuleSweepAA.obj
 0002:00000c48       ?minFError$initializer$@_VecMathTests@aos@shdfnd@physx@@3P6AXXZEA 000000018011ec48     GuBV4_OBBSweep.obj
 0002:00000c50       ?maxFError$initializer$@_VecMathTests@aos@shdfnd@physx@@3P6AXXZEA 000000018011ec50     GuBV4_OBBSweep.obj
 0002:00000c58       ?minV3Error$initializer$@_VecMathTests@aos@shdfnd@physx@@3P6AXXZEA 000000018011ec58     GuBV4_OBBSweep.obj
 0002:00000c60       ?maxV3Error$initializer$@_VecMathTests@aos@shdfnd@physx@@3P6AXXZEA 000000018011ec60     GuBV4_OBBSweep.obj
 0002:00000c68       ?minV4Error$initializer$@_VecMathTests@aos@shdfnd@physx@@3P6AXXZEA 000000018011ec68     GuBV4_OBBSweep.obj
 0002:00000c70       ?maxV4Error$initializer$@_VecMathTests@aos@shdfnd@physx@@3P6AXXZEA 000000018011ec70     GuBV4_OBBSweep.obj
 0002:00000c78       ?minFError$initializer$@_VecMathTests@aos@shdfnd@physx@@3P6AXXZEA 000000018011ec78     GuBV4_Raycast.obj
 0002:00000c80       ?maxFError$initializer$@_VecMathTests@aos@shdfnd@physx@@3P6AXXZEA 000000018011ec80     GuBV4_Raycast.obj
 0002:00000c88       ?minV3Error$initializer$@_VecMathTests@aos@shdfnd@physx@@3P6AXXZEA 000000018011ec88     GuBV4_Raycast.obj
 0002:00000c90       ?maxV3Error$initializer$@_VecMathTests@aos@shdfnd@physx@@3P6AXXZEA 000000018011ec90     GuBV4_Raycast.obj
 0002:00000c98       ?minV4Error$initializer$@_VecMathTests@aos@shdfnd@physx@@3P6AXXZEA 000000018011ec98     GuBV4_Raycast.obj
 0002:00000ca0       ?maxV4Error$initializer$@_VecMathTests@aos@shdfnd@physx@@3P6AXXZEA 000000018011eca0     GuBV4_Raycast.obj
 0002:00000ca8       ?signMask$initializer$@?A0xdeb1923c@@3P6AXXZEA 000000018011eca8     GuBV4_Raycast.obj
 0002:00000cb0       ?epsFloat4$initializer$@?A0xdeb1923c@@3P6AXXZEA 000000018011ecb0     GuBV4_Raycast.obj
 0002:00000cb8       ?zeroes$initializer$@?A0xdeb1923c@@3P6AXXZEA 000000018011ecb8     GuBV4_Raycast.obj
 0002:00000cc0       ?twos$initializer$@?A0xdeb1923c@@3P6AXXZEA 000000018011ecc0     GuBV4_Raycast.obj
 0002:00000cc8       ?epsInflateFloat4$initializer$@?A0xdeb1923c@@3P6AXXZEA 000000018011ecc8     GuBV4_Raycast.obj
 0002:00000cd0       ?minFError$initializer$@_VecMathTests@aos@shdfnd@physx@@3P6AXXZEA 000000018011ecd0     GuBV4_SphereOverlap.obj
 0002:00000cd8       ?maxFError$initializer$@_VecMathTests@aos@shdfnd@physx@@3P6AXXZEA 000000018011ecd8     GuBV4_SphereOverlap.obj
 0002:00000ce0       ?minV3Error$initializer$@_VecMathTests@aos@shdfnd@physx@@3P6AXXZEA 000000018011ece0     GuBV4_SphereOverlap.obj
 0002:00000ce8       ?maxV3Error$initializer$@_VecMathTests@aos@shdfnd@physx@@3P6AXXZEA 000000018011ece8     GuBV4_SphereOverlap.obj
 0002:00000cf0       ?minV4Error$initializer$@_VecMathTests@aos@shdfnd@physx@@3P6AXXZEA 000000018011ecf0     GuBV4_SphereOverlap.obj
 0002:00000cf8       ?maxV4Error$initializer$@_VecMathTests@aos@shdfnd@physx@@3P6AXXZEA 000000018011ecf8     GuBV4_SphereOverlap.obj
 0002:00000d00       ?minFError$initializer$@_VecMathTests@aos@shdfnd@physx@@3P6AXXZEA 000000018011ed00     GuBV4_SphereSweep.obj
 0002:00000d08       ?maxFError$initializer$@_VecMathTests@aos@shdfnd@physx@@3P6AXXZEA 000000018011ed08     GuBV4_SphereSweep.obj
 0002:00000d10       ?minV3Error$initializer$@_VecMathTests@aos@shdfnd@physx@@3P6AXXZEA 000000018011ed10     GuBV4_SphereSweep.obj
 0002:00000d18       ?maxV3Error$initializer$@_VecMathTests@aos@shdfnd@physx@@3P6AXXZEA 000000018011ed18     GuBV4_SphereSweep.obj
 0002:00000d20       ?minV4Error$initializer$@_VecMathTests@aos@shdfnd@physx@@3P6AXXZEA 000000018011ed20     GuBV4_SphereSweep.obj
 0002:00000d28       ?maxV4Error$initializer$@_VecMathTests@aos@shdfnd@physx@@3P6AXXZEA 000000018011ed28     GuBV4_SphereSweep.obj
 0002:00000d30       ?signMask$initializer$@?A0x0ebb234c@@3P6AXXZEA 000000018011ed30     GuBV4_SphereSweep.obj
 0002:00000d38       ?epsFloat4$initializer$@?A0x0ebb234c@@3P6AXXZEA 000000018011ed38     GuBV4_SphereSweep.obj
 0002:00000d40       ?zeroes$initializer$@?A0x0ebb234c@@3P6AXXZEA 000000018011ed40     GuBV4_SphereSweep.obj
 0002:00000d48       ?twos$initializer$@?A0x0ebb234c@@3P6AXXZEA 000000018011ed48     GuBV4_SphereSweep.obj
 0002:00000d50       ?epsInflateFloat4$initializer$@?A0x0ebb234c@@3P6AXXZEA 000000018011ed50     GuBV4_SphereSweep.obj
 0002:00000d58       ?minFError$initializer$@_VecMathTests@aos@shdfnd@physx@@3P6AXXZEA 000000018011ed58     GuMidphaseBV4.obj
 0002:00000d60       ?maxFError$initializer$@_VecMathTests@aos@shdfnd@physx@@3P6AXXZEA 000000018011ed60     GuMidphaseBV4.obj
 0002:00000d68       ?minV3Error$initializer$@_VecMathTests@aos@shdfnd@physx@@3P6AXXZEA 000000018011ed68     GuMidphaseBV4.obj
 0002:00000d70       ?maxV3Error$initializer$@_VecMathTests@aos@shdfnd@physx@@3P6AXXZEA 000000018011ed70     GuMidphaseBV4.obj
 0002:00000d78       ?minV4Error$initializer$@_VecMathTests@aos@shdfnd@physx@@3P6AXXZEA 000000018011ed78     GuMidphaseBV4.obj
 0002:00000d80       ?maxV4Error$initializer$@_VecMathTests@aos@shdfnd@physx@@3P6AXXZEA 000000018011ed80     GuMidphaseBV4.obj
 0002:00000d88       ?minFError$initializer$@_VecMathTests@aos@shdfnd@physx@@3P6AXXZEA 000000018011ed88     GuMeshQuery.obj
 0002:00000d90       ?maxFError$initializer$@_VecMathTests@aos@shdfnd@physx@@3P6AXXZEA 000000018011ed90     GuMeshQuery.obj
 0002:00000d98       ?minV3Error$initializer$@_VecMathTests@aos@shdfnd@physx@@3P6AXXZEA 000000018011ed98     GuMeshQuery.obj
 0002:00000da0       ?maxV3Error$initializer$@_VecMathTests@aos@shdfnd@physx@@3P6AXXZEA 000000018011eda0     GuMeshQuery.obj
 0002:00000da8       ?minV4Error$initializer$@_VecMathTests@aos@shdfnd@physx@@3P6AXXZEA 000000018011eda8     GuMeshQuery.obj
 0002:00000db0       ?maxV4Error$initializer$@_VecMathTests@aos@shdfnd@physx@@3P6AXXZEA 000000018011edb0     GuMeshQuery.obj
 0002:00000db8       ?minFError$initializer$@_VecMathTests@aos@shdfnd@physx@@3P6AXXZEA 000000018011edb8     GuMidphaseRTree.obj
 0002:00000dc0       ?maxFError$initializer$@_VecMathTests@aos@shdfnd@physx@@3P6AXXZEA 000000018011edc0     GuMidphaseRTree.obj
 0002:00000dc8       ?minV3Error$initializer$@_VecMathTests@aos@shdfnd@physx@@3P6AXXZEA 000000018011edc8     GuMidphaseRTree.obj
 0002:00000dd0       ?maxV3Error$initializer$@_VecMathTests@aos@shdfnd@physx@@3P6AXXZEA 000000018011edd0     GuMidphaseRTree.obj
 0002:00000dd8       ?minV4Error$initializer$@_VecMathTests@aos@shdfnd@physx@@3P6AXXZEA 000000018011edd8     GuMidphaseRTree.obj
 0002:00000de0       ?maxV4Error$initializer$@_VecMathTests@aos@shdfnd@physx@@3P6AXXZEA 000000018011ede0     GuMidphaseRTree.obj
 0002:00000de8       ?minFError$initializer$@_VecMathTests@aos@shdfnd@physx@@3P6AXXZEA 000000018011ede8     GuOverlapTestsMesh.obj
 0002:00000df0       ?maxFError$initializer$@_VecMathTests@aos@shdfnd@physx@@3P6AXXZEA 000000018011edf0     GuOverlapTestsMesh.obj
 0002:00000df8       ?minV3Error$initializer$@_VecMathTests@aos@shdfnd@physx@@3P6AXXZEA 000000018011edf8     GuOverlapTestsMesh.obj
 0002:00000e00       ?maxV3Error$initializer$@_VecMathTests@aos@shdfnd@physx@@3P6AXXZEA 000000018011ee00     GuOverlapTestsMesh.obj
 0002:00000e08       ?minV4Error$initializer$@_VecMathTests@aos@shdfnd@physx@@3P6AXXZEA 000000018011ee08     GuOverlapTestsMesh.obj
 0002:00000e10       ?maxV4Error$initializer$@_VecMathTests@aos@shdfnd@physx@@3P6AXXZEA 000000018011ee10     GuOverlapTestsMesh.obj
 0002:00000e18       ?minFError$initializer$@_VecMathTests@aos@shdfnd@physx@@3P6AXXZEA 000000018011ee18     GuRTree.obj
 0002:00000e20       ?maxFError$initializer$@_VecMathTests@aos@shdfnd@physx@@3P6AXXZEA 000000018011ee20     GuRTree.obj
 0002:00000e28       ?minV3Error$initializer$@_VecMathTests@aos@shdfnd@physx@@3P6AXXZEA 000000018011ee28     GuRTree.obj
 0002:00000e30       ?maxV3Error$initializer$@_VecMathTests@aos@shdfnd@physx@@3P6AXXZEA 000000018011ee30     GuRTree.obj
 0002:00000e38       ?minV4Error$initializer$@_VecMathTests@aos@shdfnd@physx@@3P6AXXZEA 000000018011ee38     GuRTree.obj
 0002:00000e40       ?maxV4Error$initializer$@_VecMathTests@aos@shdfnd@physx@@3P6AXXZEA 000000018011ee40     GuRTree.obj
 0002:00000e48       ?minFError$initializer$@_VecMathTests@aos@shdfnd@physx@@3P6AXXZEA 000000018011ee48     GuRTreeQueries.obj
 0002:00000e50       ?maxFError$initializer$@_VecMathTests@aos@shdfnd@physx@@3P6AXXZEA 000000018011ee50     GuRTreeQueries.obj
 0002:00000e58       ?minV3Error$initializer$@_VecMathTests@aos@shdfnd@physx@@3P6AXXZEA 000000018011ee58     GuRTreeQueries.obj
 0002:00000e60       ?maxV3Error$initializer$@_VecMathTests@aos@shdfnd@physx@@3P6AXXZEA 000000018011ee60     GuRTreeQueries.obj
 0002:00000e68       ?minV4Error$initializer$@_VecMathTests@aos@shdfnd@physx@@3P6AXXZEA 000000018011ee68     GuRTreeQueries.obj
 0002:00000e70       ?maxV4Error$initializer$@_VecMathTests@aos@shdfnd@physx@@3P6AXXZEA 000000018011ee70     GuRTreeQueries.obj
 0002:00000e78       ?signMask$initializer$@?A0x28b72d2e@@3P6AXXZEA 000000018011ee78     GuRTreeQueries.obj
 0002:00000e80       ?epsFloat4$initializer$@?A0x28b72d2e@@3P6AXXZEA 000000018011ee80     GuRTreeQueries.obj
 0002:00000e88       ?zeroes$initializer$@?A0x28b72d2e@@3P6AXXZEA 000000018011ee88     GuRTreeQueries.obj
 0002:00000e90       ?twos$initializer$@?A0x28b72d2e@@3P6AXXZEA 000000018011ee90     GuRTreeQueries.obj
 0002:00000e98       ?epsInflateFloat4$initializer$@?A0x28b72d2e@@3P6AXXZEA 000000018011ee98     GuRTreeQueries.obj
 0002:00000ea0       ?minFError$initializer$@_VecMathTests@aos@shdfnd@physx@@3P6AXXZEA 000000018011eea0     GuSweepsMesh.obj
 0002:00000ea8       ?maxFError$initializer$@_VecMathTests@aos@shdfnd@physx@@3P6AXXZEA 000000018011eea8     GuSweepsMesh.obj
 0002:00000eb0       ?minV3Error$initializer$@_VecMathTests@aos@shdfnd@physx@@3P6AXXZEA 000000018011eeb0     GuSweepsMesh.obj
 0002:00000eb8       ?maxV3Error$initializer$@_VecMathTests@aos@shdfnd@physx@@3P6AXXZEA 000000018011eeb8     GuSweepsMesh.obj
 0002:00000ec0       ?minV4Error$initializer$@_VecMathTests@aos@shdfnd@physx@@3P6AXXZEA 000000018011eec0     GuSweepsMesh.obj
 0002:00000ec8       ?maxV4Error$initializer$@_VecMathTests@aos@shdfnd@physx@@3P6AXXZEA 000000018011eec8     GuSweepsMesh.obj
 0002:00000ed0       ?minFError$initializer$@_VecMathTests@aos@shdfnd@physx@@3P6AXXZEA 000000018011eed0     GuTriangleMesh.obj
 0002:00000ed8       ?maxFError$initializer$@_VecMathTests@aos@shdfnd@physx@@3P6AXXZEA 000000018011eed8     GuTriangleMesh.obj
 0002:00000ee0       ?minV3Error$initializer$@_VecMathTests@aos@shdfnd@physx@@3P6AXXZEA 000000018011eee0     GuTriangleMesh.obj
 0002:00000ee8       ?maxV3Error$initializer$@_VecMathTests@aos@shdfnd@physx@@3P6AXXZEA 000000018011eee8     GuTriangleMesh.obj
 0002:00000ef0       ?minV4Error$initializer$@_VecMathTests@aos@shdfnd@physx@@3P6AXXZEA 000000018011eef0     GuTriangleMesh.obj
 0002:00000ef8       ?maxV4Error$initializer$@_VecMathTests@aos@shdfnd@physx@@3P6AXXZEA 000000018011eef8     GuTriangleMesh.obj
 0002:00000f00       ?minFError$initializer$@_VecMathTests@aos@shdfnd@physx@@3P6AXXZEA 000000018011ef00     GuTriangleMeshBV4.obj
 0002:00000f08       ?maxFError$initializer$@_VecMathTests@aos@shdfnd@physx@@3P6AXXZEA 000000018011ef08     GuTriangleMeshBV4.obj
 0002:00000f10       ?minV3Error$initializer$@_VecMathTests@aos@shdfnd@physx@@3P6AXXZEA 000000018011ef10     GuTriangleMeshBV4.obj
 0002:00000f18       ?maxV3Error$initializer$@_VecMathTests@aos@shdfnd@physx@@3P6AXXZEA 000000018011ef18     GuTriangleMeshBV4.obj
 0002:00000f20       ?minV4Error$initializer$@_VecMathTests@aos@shdfnd@physx@@3P6AXXZEA 000000018011ef20     GuTriangleMeshBV4.obj
 0002:00000f28       ?maxV4Error$initializer$@_VecMathTests@aos@shdfnd@physx@@3P6AXXZEA 000000018011ef28     GuTriangleMeshBV4.obj
 0002:00000f30       ?minFError$initializer$@_VecMathTests@aos@shdfnd@physx@@3P6AXXZEA 000000018011ef30     GuTriangleMeshRTree.obj
 0002:00000f38       ?maxFError$initializer$@_VecMathTests@aos@shdfnd@physx@@3P6AXXZEA 000000018011ef38     GuTriangleMeshRTree.obj
 0002:00000f40       ?minV3Error$initializer$@_VecMathTests@aos@shdfnd@physx@@3P6AXXZEA 000000018011ef40     GuTriangleMeshRTree.obj
 0002:00000f48       ?maxV3Error$initializer$@_VecMathTests@aos@shdfnd@physx@@3P6AXXZEA 000000018011ef48     GuTriangleMeshRTree.obj
 0002:00000f50       ?minV4Error$initializer$@_VecMathTests@aos@shdfnd@physx@@3P6AXXZEA 000000018011ef50     GuTriangleMeshRTree.obj
 0002:00000f58       ?maxV4Error$initializer$@_VecMathTests@aos@shdfnd@physx@@3P6AXXZEA 000000018011ef58     GuTriangleMeshRTree.obj
 0002:00000f60       ?minFError$initializer$@_VecMathTests@aos@shdfnd@physx@@3P6AXXZEA 000000018011ef60     GuBV32Build.obj
 0002:00000f68       ?maxFError$initializer$@_VecMathTests@aos@shdfnd@physx@@3P6AXXZEA 000000018011ef68     GuBV32Build.obj
 0002:00000f70       ?minV3Error$initializer$@_VecMathTests@aos@shdfnd@physx@@3P6AXXZEA 000000018011ef70     GuBV32Build.obj
 0002:00000f78       ?maxV3Error$initializer$@_VecMathTests@aos@shdfnd@physx@@3P6AXXZEA 000000018011ef78     GuBV32Build.obj
 0002:00000f80       ?minV4Error$initializer$@_VecMathTests@aos@shdfnd@physx@@3P6AXXZEA 000000018011ef80     GuBV32Build.obj
 0002:00000f88       ?maxV4Error$initializer$@_VecMathTests@aos@shdfnd@physx@@3P6AXXZEA 000000018011ef88     GuBV32Build.obj
 0002:00000f90       ?minFError$initializer$@_VecMathTests@aos@shdfnd@physx@@3P6AXXZEA 000000018011ef90     GuPCMContactBoxBox.obj
 0002:00000f98       ?maxFError$initializer$@_VecMathTests@aos@shdfnd@physx@@3P6AXXZEA 000000018011ef98     GuPCMContactBoxBox.obj
 0002:00000fa0       ?minV3Error$initializer$@_VecMathTests@aos@shdfnd@physx@@3P6AXXZEA 000000018011efa0     GuPCMContactBoxBox.obj
 0002:00000fa8       ?maxV3Error$initializer$@_VecMathTests@aos@shdfnd@physx@@3P6AXXZEA 000000018011efa8     GuPCMContactBoxBox.obj
 0002:00000fb0       ?minV4Error$initializer$@_VecMathTests@aos@shdfnd@physx@@3P6AXXZEA 000000018011efb0     GuPCMContactBoxBox.obj
 0002:00000fb8       ?maxV4Error$initializer$@_VecMathTests@aos@shdfnd@physx@@3P6AXXZEA 000000018011efb8     GuPCMContactBoxBox.obj
 0002:00000fc0       ?minFError$initializer$@_VecMathTests@aos@shdfnd@physx@@3P6AXXZEA 000000018011efc0     GuPCMContactBoxConvex.obj
 0002:00000fc8       ?maxFError$initializer$@_VecMathTests@aos@shdfnd@physx@@3P6AXXZEA 000000018011efc8     GuPCMContactBoxConvex.obj
 0002:00000fd0       ?minV3Error$initializer$@_VecMathTests@aos@shdfnd@physx@@3P6AXXZEA 000000018011efd0     GuPCMContactBoxConvex.obj
 0002:00000fd8       ?maxV3Error$initializer$@_VecMathTests@aos@shdfnd@physx@@3P6AXXZEA 000000018011efd8     GuPCMContactBoxConvex.obj
 0002:00000fe0       ?minV4Error$initializer$@_VecMathTests@aos@shdfnd@physx@@3P6AXXZEA 000000018011efe0     GuPCMContactBoxConvex.obj
 0002:00000fe8       ?maxV4Error$initializer$@_VecMathTests@aos@shdfnd@physx@@3P6AXXZEA 000000018011efe8     GuPCMContactBoxConvex.obj
 0002:00000ff0       ?minFError$initializer$@_VecMathTests@aos@shdfnd@physx@@3P6AXXZEA 000000018011eff0     GuPCMContactCapsuleBox.obj
 0002:00000ff8       ?maxFError$initializer$@_VecMathTests@aos@shdfnd@physx@@3P6AXXZEA 000000018011eff8     GuPCMContactCapsuleBox.obj
 0002:00001000       ?minV3Error$initializer$@_VecMathTests@aos@shdfnd@physx@@3P6AXXZEA 000000018011f000     GuPCMContactCapsuleBox.obj
 0002:00001008       ?maxV3Error$initializer$@_VecMathTests@aos@shdfnd@physx@@3P6AXXZEA 000000018011f008     GuPCMContactCapsuleBox.obj
 0002:00001010       ?minV4Error$initializer$@_VecMathTests@aos@shdfnd@physx@@3P6AXXZEA 000000018011f010     GuPCMContactCapsuleBox.obj
 0002:00001018       ?maxV4Error$initializer$@_VecMathTests@aos@shdfnd@physx@@3P6AXXZEA 000000018011f018     GuPCMContactCapsuleBox.obj
 0002:00001020       ?minFError$initializer$@_VecMathTests@aos@shdfnd@physx@@3P6AXXZEA 000000018011f020     GuPCMContactCapsuleCapsule.obj
 0002:00001028       ?maxFError$initializer$@_VecMathTests@aos@shdfnd@physx@@3P6AXXZEA 000000018011f028     GuPCMContactCapsuleCapsule.obj
 0002:00001030       ?minV3Error$initializer$@_VecMathTests@aos@shdfnd@physx@@3P6AXXZEA 000000018011f030     GuPCMContactCapsuleCapsule.obj
 0002:00001038       ?maxV3Error$initializer$@_VecMathTests@aos@shdfnd@physx@@3P6AXXZEA 000000018011f038     GuPCMContactCapsuleCapsule.obj
 0002:00001040       ?minV4Error$initializer$@_VecMathTests@aos@shdfnd@physx@@3P6AXXZEA 000000018011f040     GuPCMContactCapsuleCapsule.obj
 0002:00001048       ?maxV4Error$initializer$@_VecMathTests@aos@shdfnd@physx@@3P6AXXZEA 000000018011f048     GuPCMContactCapsuleCapsule.obj
 0002:00001050       ?minFError$initializer$@_VecMathTests@aos@shdfnd@physx@@3P6AXXZEA 000000018011f050     GuPCMContactCapsuleConvex.obj
 0002:00001058       ?maxFError$initializer$@_VecMathTests@aos@shdfnd@physx@@3P6AXXZEA 000000018011f058     GuPCMContactCapsuleConvex.obj
 0002:00001060       ?minV3Error$initializer$@_VecMathTests@aos@shdfnd@physx@@3P6AXXZEA 000000018011f060     GuPCMContactCapsuleConvex.obj
 0002:00001068       ?maxV3Error$initializer$@_VecMathTests@aos@shdfnd@physx@@3P6AXXZEA 000000018011f068     GuPCMContactCapsuleConvex.obj
 0002:00001070       ?minV4Error$initializer$@_VecMathTests@aos@shdfnd@physx@@3P6AXXZEA 000000018011f070     GuPCMContactCapsuleConvex.obj
 0002:00001078       ?maxV4Error$initializer$@_VecMathTests@aos@shdfnd@physx@@3P6AXXZEA 000000018011f078     GuPCMContactCapsuleConvex.obj
 0002:00001080       ?minFError$initializer$@_VecMathTests@aos@shdfnd@physx@@3P6AXXZEA 000000018011f080     GuPCMContactCapsuleHeightField.obj
 0002:00001088       ?maxFError$initializer$@_VecMathTests@aos@shdfnd@physx@@3P6AXXZEA 000000018011f088     GuPCMContactCapsuleHeightField.obj
 0002:00001090       ?minV3Error$initializer$@_VecMathTests@aos@shdfnd@physx@@3P6AXXZEA 000000018011f090     GuPCMContactCapsuleHeightField.obj
 0002:00001098       ?maxV3Error$initializer$@_VecMathTests@aos@shdfnd@physx@@3P6AXXZEA 000000018011f098     GuPCMContactCapsuleHeightField.obj
 0002:000010a0       ?minV4Error$initializer$@_VecMathTests@aos@shdfnd@physx@@3P6AXXZEA 000000018011f0a0     GuPCMContactCapsuleHeightField.obj
 0002:000010a8       ?maxV4Error$initializer$@_VecMathTests@aos@shdfnd@physx@@3P6AXXZEA 000000018011f0a8     GuPCMContactCapsuleHeightField.obj
 0002:000010b0       ?minFError$initializer$@_VecMathTests@aos@shdfnd@physx@@3P6AXXZEA 000000018011f0b0     GuPCMContactCapsuleMesh.obj
 0002:000010b8       ?maxFError$initializer$@_VecMathTests@aos@shdfnd@physx@@3P6AXXZEA 000000018011f0b8     GuPCMContactCapsuleMesh.obj
 0002:000010c0       ?minV3Error$initializer$@_VecMathTests@aos@shdfnd@physx@@3P6AXXZEA 000000018011f0c0     GuPCMContactCapsuleMesh.obj
 0002:000010c8       ?maxV3Error$initializer$@_VecMathTests@aos@shdfnd@physx@@3P6AXXZEA 000000018011f0c8     GuPCMContactCapsuleMesh.obj
 0002:000010d0       ?minV4Error$initializer$@_VecMathTests@aos@shdfnd@physx@@3P6AXXZEA 000000018011f0d0     GuPCMContactCapsuleMesh.obj
 0002:000010d8       ?maxV4Error$initializer$@_VecMathTests@aos@shdfnd@physx@@3P6AXXZEA 000000018011f0d8     GuPCMContactCapsuleMesh.obj
 0002:000010e0       ?minFError$initializer$@_VecMathTests@aos@shdfnd@physx@@3P6AXXZEA 000000018011f0e0     GuPCMContactConvexCommon.obj
 0002:000010e8       ?maxFError$initializer$@_VecMathTests@aos@shdfnd@physx@@3P6AXXZEA 000000018011f0e8     GuPCMContactConvexCommon.obj
 0002:000010f0       ?minV3Error$initializer$@_VecMathTests@aos@shdfnd@physx@@3P6AXXZEA 000000018011f0f0     GuPCMContactConvexCommon.obj
 0002:000010f8       ?maxV3Error$initializer$@_VecMathTests@aos@shdfnd@physx@@3P6AXXZEA 000000018011f0f8     GuPCMContactConvexCommon.obj
 0002:00001100       ?minV4Error$initializer$@_VecMathTests@aos@shdfnd@physx@@3P6AXXZEA 000000018011f100     GuPCMContactConvexCommon.obj
 0002:00001108       ?maxV4Error$initializer$@_VecMathTests@aos@shdfnd@physx@@3P6AXXZEA 000000018011f108     GuPCMContactConvexCommon.obj
 0002:00001110       ?minFError$initializer$@_VecMathTests@aos@shdfnd@physx@@3P6AXXZEA 000000018011f110     GuPCMContactConvexConvex.obj
 0002:00001118       ?maxFError$initializer$@_VecMathTests@aos@shdfnd@physx@@3P6AXXZEA 000000018011f118     GuPCMContactConvexConvex.obj
 0002:00001120       ?minV3Error$initializer$@_VecMathTests@aos@shdfnd@physx@@3P6AXXZEA 000000018011f120     GuPCMContactConvexConvex.obj
 0002:00001128       ?maxV3Error$initializer$@_VecMathTests@aos@shdfnd@physx@@3P6AXXZEA 000000018011f128     GuPCMContactConvexConvex.obj
 0002:00001130       ?minV4Error$initializer$@_VecMathTests@aos@shdfnd@physx@@3P6AXXZEA 000000018011f130     GuPCMContactConvexConvex.obj
 0002:00001138       ?maxV4Error$initializer$@_VecMathTests@aos@shdfnd@physx@@3P6AXXZEA 000000018011f138     GuPCMContactConvexConvex.obj
 0002:00001140       ?minFError$initializer$@_VecMathTests@aos@shdfnd@physx@@3P6AXXZEA 000000018011f140     GuPCMContactConvexHeightField.obj
 0002:00001148       ?maxFError$initializer$@_VecMathTests@aos@shdfnd@physx@@3P6AXXZEA 000000018011f148     GuPCMContactConvexHeightField.obj
 0002:00001150       ?minV3Error$initializer$@_VecMathTests@aos@shdfnd@physx@@3P6AXXZEA 000000018011f150     GuPCMContactConvexHeightField.obj
 0002:00001158       ?maxV3Error$initializer$@_VecMathTests@aos@shdfnd@physx@@3P6AXXZEA 000000018011f158     GuPCMContactConvexHeightField.obj
 0002:00001160       ?minV4Error$initializer$@_VecMathTests@aos@shdfnd@physx@@3P6AXXZEA 000000018011f160     GuPCMContactConvexHeightField.obj
 0002:00001168       ?maxV4Error$initializer$@_VecMathTests@aos@shdfnd@physx@@3P6AXXZEA 000000018011f168     GuPCMContactConvexHeightField.obj
 0002:00001170       ?minFError$initializer$@_VecMathTests@aos@shdfnd@physx@@3P6AXXZEA 000000018011f170     GuPCMContactConvexMesh.obj
 0002:00001178       ?maxFError$initializer$@_VecMathTests@aos@shdfnd@physx@@3P6AXXZEA 000000018011f178     GuPCMContactConvexMesh.obj
 0002:00001180       ?minV3Error$initializer$@_VecMathTests@aos@shdfnd@physx@@3P6AXXZEA 000000018011f180     GuPCMContactConvexMesh.obj
 0002:00001188       ?maxV3Error$initializer$@_VecMathTests@aos@shdfnd@physx@@3P6AXXZEA 000000018011f188     GuPCMContactConvexMesh.obj
 0002:00001190       ?minV4Error$initializer$@_VecMathTests@aos@shdfnd@physx@@3P6AXXZEA 000000018011f190     GuPCMContactConvexMesh.obj
 0002:00001198       ?maxV4Error$initializer$@_VecMathTests@aos@shdfnd@physx@@3P6AXXZEA 000000018011f198     GuPCMContactConvexMesh.obj
 0002:000011a0       ?minFError$initializer$@_VecMathTests@aos@shdfnd@physx@@3P6AXXZEA 000000018011f1a0     GuPCMContactGenBoxConvex.obj
 0002:000011a8       ?maxFError$initializer$@_VecMathTests@aos@shdfnd@physx@@3P6AXXZEA 000000018011f1a8     GuPCMContactGenBoxConvex.obj
 0002:000011b0       ?minV3Error$initializer$@_VecMathTests@aos@shdfnd@physx@@3P6AXXZEA 000000018011f1b0     GuPCMContactGenBoxConvex.obj
 0002:000011b8       ?maxV3Error$initializer$@_VecMathTests@aos@shdfnd@physx@@3P6AXXZEA 000000018011f1b8     GuPCMContactGenBoxConvex.obj
 0002:000011c0       ?minV4Error$initializer$@_VecMathTests@aos@shdfnd@physx@@3P6AXXZEA 000000018011f1c0     GuPCMContactGenBoxConvex.obj
 0002:000011c8       ?maxV4Error$initializer$@_VecMathTests@aos@shdfnd@physx@@3P6AXXZEA 000000018011f1c8     GuPCMContactGenBoxConvex.obj
 0002:000011d0       ?minFError$initializer$@_VecMathTests@aos@shdfnd@physx@@3P6AXXZEA 000000018011f1d0     GuPCMContactGenSphereCapsule.obj
 0002:000011d8       ?maxFError$initializer$@_VecMathTests@aos@shdfnd@physx@@3P6AXXZEA 000000018011f1d8     GuPCMContactGenSphereCapsule.obj
 0002:000011e0       ?minV3Error$initializer$@_VecMathTests@aos@shdfnd@physx@@3P6AXXZEA 000000018011f1e0     GuPCMContactGenSphereCapsule.obj
 0002:000011e8       ?maxV3Error$initializer$@_VecMathTests@aos@shdfnd@physx@@3P6AXXZEA 000000018011f1e8     GuPCMContactGenSphereCapsule.obj
 0002:000011f0       ?minV4Error$initializer$@_VecMathTests@aos@shdfnd@physx@@3P6AXXZEA 000000018011f1f0     GuPCMContactGenSphereCapsule.obj
 0002:000011f8       ?maxV4Error$initializer$@_VecMathTests@aos@shdfnd@physx@@3P6AXXZEA 000000018011f1f8     GuPCMContactGenSphereCapsule.obj
 0002:00001200       ?minFError$initializer$@_VecMathTests@aos@shdfnd@physx@@3P6AXXZEA 000000018011f200     GuPCMContactPlaneBox.obj
 0002:00001208       ?maxFError$initializer$@_VecMathTests@aos@shdfnd@physx@@3P6AXXZEA 000000018011f208     GuPCMContactPlaneBox.obj
 0002:00001210       ?minV3Error$initializer$@_VecMathTests@aos@shdfnd@physx@@3P6AXXZEA 000000018011f210     GuPCMContactPlaneBox.obj
 0002:00001218       ?maxV3Error$initializer$@_VecMathTests@aos@shdfnd@physx@@3P6AXXZEA 000000018011f218     GuPCMContactPlaneBox.obj
 0002:00001220       ?minV4Error$initializer$@_VecMathTests@aos@shdfnd@physx@@3P6AXXZEA 000000018011f220     GuPCMContactPlaneBox.obj
 0002:00001228       ?maxV4Error$initializer$@_VecMathTests@aos@shdfnd@physx@@3P6AXXZEA 000000018011f228     GuPCMContactPlaneBox.obj
 0002:00001230       ?minFError$initializer$@_VecMathTests@aos@shdfnd@physx@@3P6AXXZEA 000000018011f230     GuPCMContactPlaneCapsule.obj
 0002:00001238       ?maxFError$initializer$@_VecMathTests@aos@shdfnd@physx@@3P6AXXZEA 000000018011f238     GuPCMContactPlaneCapsule.obj
 0002:00001240       ?minV3Error$initializer$@_VecMathTests@aos@shdfnd@physx@@3P6AXXZEA 000000018011f240     GuPCMContactPlaneCapsule.obj
 0002:00001248       ?maxV3Error$initializer$@_VecMathTests@aos@shdfnd@physx@@3P6AXXZEA 000000018011f248     GuPCMContactPlaneCapsule.obj
 0002:00001250       ?minV4Error$initializer$@_VecMathTests@aos@shdfnd@physx@@3P6AXXZEA 000000018011f250     GuPCMContactPlaneCapsule.obj
 0002:00001258       ?maxV4Error$initializer$@_VecMathTests@aos@shdfnd@physx@@3P6AXXZEA 000000018011f258     GuPCMContactPlaneCapsule.obj
 0002:00001260       ?minFError$initializer$@_VecMathTests@aos@shdfnd@physx@@3P6AXXZEA 000000018011f260     GuPCMContactPlaneConvex.obj
 0002:00001268       ?maxFError$initializer$@_VecMathTests@aos@shdfnd@physx@@3P6AXXZEA 000000018011f268     GuPCMContactPlaneConvex.obj
 0002:00001270       ?minV3Error$initializer$@_VecMathTests@aos@shdfnd@physx@@3P6AXXZEA 000000018011f270     GuPCMContactPlaneConvex.obj
 0002:00001278       ?maxV3Error$initializer$@_VecMathTests@aos@shdfnd@physx@@3P6AXXZEA 000000018011f278     GuPCMContactPlaneConvex.obj
 0002:00001280       ?minV4Error$initializer$@_VecMathTests@aos@shdfnd@physx@@3P6AXXZEA 000000018011f280     GuPCMContactPlaneConvex.obj
 0002:00001288       ?maxV4Error$initializer$@_VecMathTests@aos@shdfnd@physx@@3P6AXXZEA 000000018011f288     GuPCMContactPlaneConvex.obj
 0002:00001290       ?minFError$initializer$@_VecMathTests@aos@shdfnd@physx@@3P6AXXZEA 000000018011f290     GuPCMContactSphereBox.obj
 0002:00001298       ?maxFError$initializer$@_VecMathTests@aos@shdfnd@physx@@3P6AXXZEA 000000018011f298     GuPCMContactSphereBox.obj
 0002:000012a0       ?minV3Error$initializer$@_VecMathTests@aos@shdfnd@physx@@3P6AXXZEA 000000018011f2a0     GuPCMContactSphereBox.obj
 0002:000012a8       ?maxV3Error$initializer$@_VecMathTests@aos@shdfnd@physx@@3P6AXXZEA 000000018011f2a8     GuPCMContactSphereBox.obj
 0002:000012b0       ?minV4Error$initializer$@_VecMathTests@aos@shdfnd@physx@@3P6AXXZEA 000000018011f2b0     GuPCMContactSphereBox.obj
 0002:000012b8       ?maxV4Error$initializer$@_VecMathTests@aos@shdfnd@physx@@3P6AXXZEA 000000018011f2b8     GuPCMContactSphereBox.obj
 0002:000012c0       ?minFError$initializer$@_VecMathTests@aos@shdfnd@physx@@3P6AXXZEA 000000018011f2c0     GuPCMContactSphereCapsule.obj
 0002:000012c8       ?maxFError$initializer$@_VecMathTests@aos@shdfnd@physx@@3P6AXXZEA 000000018011f2c8     GuPCMContactSphereCapsule.obj
 0002:000012d0       ?minV3Error$initializer$@_VecMathTests@aos@shdfnd@physx@@3P6AXXZEA 000000018011f2d0     GuPCMContactSphereCapsule.obj
 0002:000012d8       ?maxV3Error$initializer$@_VecMathTests@aos@shdfnd@physx@@3P6AXXZEA 000000018011f2d8     GuPCMContactSphereCapsule.obj
 0002:000012e0       ?minV4Error$initializer$@_VecMathTests@aos@shdfnd@physx@@3P6AXXZEA 000000018011f2e0     GuPCMContactSphereCapsule.obj
 0002:000012e8       ?maxV4Error$initializer$@_VecMathTests@aos@shdfnd@physx@@3P6AXXZEA 000000018011f2e8     GuPCMContactSphereCapsule.obj
 0002:000012f0       ?minFError$initializer$@_VecMathTests@aos@shdfnd@physx@@3P6AXXZEA 000000018011f2f0     GuPCMContactSphereConvex.obj
 0002:000012f8       ?maxFError$initializer$@_VecMathTests@aos@shdfnd@physx@@3P6AXXZEA 000000018011f2f8     GuPCMContactSphereConvex.obj
 0002:00001300       ?minV3Error$initializer$@_VecMathTests@aos@shdfnd@physx@@3P6AXXZEA 000000018011f300     GuPCMContactSphereConvex.obj
 0002:00001308       ?maxV3Error$initializer$@_VecMathTests@aos@shdfnd@physx@@3P6AXXZEA 000000018011f308     GuPCMContactSphereConvex.obj
 0002:00001310       ?minV4Error$initializer$@_VecMathTests@aos@shdfnd@physx@@3P6AXXZEA 000000018011f310     GuPCMContactSphereConvex.obj
 0002:00001318       ?maxV4Error$initializer$@_VecMathTests@aos@shdfnd@physx@@3P6AXXZEA 000000018011f318     GuPCMContactSphereConvex.obj
 0002:00001320       ?minFError$initializer$@_VecMathTests@aos@shdfnd@physx@@3P6AXXZEA 000000018011f320     GuPCMContactSphereHeightField.obj
 0002:00001328       ?maxFError$initializer$@_VecMathTests@aos@shdfnd@physx@@3P6AXXZEA 000000018011f328     GuPCMContactSphereHeightField.obj
 0002:00001330       ?minV3Error$initializer$@_VecMathTests@aos@shdfnd@physx@@3P6AXXZEA 000000018011f330     GuPCMContactSphereHeightField.obj
 0002:00001338       ?maxV3Error$initializer$@_VecMathTests@aos@shdfnd@physx@@3P6AXXZEA 000000018011f338     GuPCMContactSphereHeightField.obj
 0002:00001340       ?minV4Error$initializer$@_VecMathTests@aos@shdfnd@physx@@3P6AXXZEA 000000018011f340     GuPCMContactSphereHeightField.obj
 0002:00001348       ?maxV4Error$initializer$@_VecMathTests@aos@shdfnd@physx@@3P6AXXZEA 000000018011f348     GuPCMContactSphereHeightField.obj
 0002:00001350       ?minFError$initializer$@_VecMathTests@aos@shdfnd@physx@@3P6AXXZEA 000000018011f350     GuPCMContactSphereMesh.obj
 0002:00001358       ?maxFError$initializer$@_VecMathTests@aos@shdfnd@physx@@3P6AXXZEA 000000018011f358     GuPCMContactSphereMesh.obj
 0002:00001360       ?minV3Error$initializer$@_VecMathTests@aos@shdfnd@physx@@3P6AXXZEA 000000018011f360     GuPCMContactSphereMesh.obj
 0002:00001368       ?maxV3Error$initializer$@_VecMathTests@aos@shdfnd@physx@@3P6AXXZEA 000000018011f368     GuPCMContactSphereMesh.obj
 0002:00001370       ?minV4Error$initializer$@_VecMathTests@aos@shdfnd@physx@@3P6AXXZEA 000000018011f370     GuPCMContactSphereMesh.obj
 0002:00001378       ?maxV4Error$initializer$@_VecMathTests@aos@shdfnd@physx@@3P6AXXZEA 000000018011f378     GuPCMContactSphereMesh.obj
 0002:00001380       ?minFError$initializer$@_VecMathTests@aos@shdfnd@physx@@3P6AXXZEA 000000018011f380     GuPCMContactSpherePlane.obj
 0002:00001388       ?maxFError$initializer$@_VecMathTests@aos@shdfnd@physx@@3P6AXXZEA 000000018011f388     GuPCMContactSpherePlane.obj
 0002:00001390       ?minV3Error$initializer$@_VecMathTests@aos@shdfnd@physx@@3P6AXXZEA 000000018011f390     GuPCMContactSpherePlane.obj
 0002:00001398       ?maxV3Error$initializer$@_VecMathTests@aos@shdfnd@physx@@3P6AXXZEA 000000018011f398     GuPCMContactSpherePlane.obj
 0002:000013a0       ?minV4Error$initializer$@_VecMathTests@aos@shdfnd@physx@@3P6AXXZEA 000000018011f3a0     GuPCMContactSpherePlane.obj
 0002:000013a8       ?maxV4Error$initializer$@_VecMathTests@aos@shdfnd@physx@@3P6AXXZEA 000000018011f3a8     GuPCMContactSpherePlane.obj
 0002:000013b0       ?minFError$initializer$@_VecMathTests@aos@shdfnd@physx@@3P6AXXZEA 000000018011f3b0     GuPCMContactSphereSphere.obj
 0002:000013b8       ?maxFError$initializer$@_VecMathTests@aos@shdfnd@physx@@3P6AXXZEA 000000018011f3b8     GuPCMContactSphereSphere.obj
 0002:000013c0       ?minV3Error$initializer$@_VecMathTests@aos@shdfnd@physx@@3P6AXXZEA 000000018011f3c0     GuPCMContactSphereSphere.obj
 0002:000013c8       ?maxV3Error$initializer$@_VecMathTests@aos@shdfnd@physx@@3P6AXXZEA 000000018011f3c8     GuPCMContactSphereSphere.obj
 0002:000013d0       ?minV4Error$initializer$@_VecMathTests@aos@shdfnd@physx@@3P6AXXZEA 000000018011f3d0     GuPCMContactSphereSphere.obj
 0002:000013d8       ?maxV4Error$initializer$@_VecMathTests@aos@shdfnd@physx@@3P6AXXZEA 000000018011f3d8     GuPCMContactSphereSphere.obj
 0002:000013e0       ?minFError$initializer$@_VecMathTests@aos@shdfnd@physx@@3P6AXXZEA 000000018011f3e0     GuPCMShapeConvex.obj
 0002:000013e8       ?maxFError$initializer$@_VecMathTests@aos@shdfnd@physx@@3P6AXXZEA 000000018011f3e8     GuPCMShapeConvex.obj
 0002:000013f0       ?minV3Error$initializer$@_VecMathTests@aos@shdfnd@physx@@3P6AXXZEA 000000018011f3f0     GuPCMShapeConvex.obj
 0002:000013f8       ?maxV3Error$initializer$@_VecMathTests@aos@shdfnd@physx@@3P6AXXZEA 000000018011f3f8     GuPCMShapeConvex.obj
 0002:00001400       ?minV4Error$initializer$@_VecMathTests@aos@shdfnd@physx@@3P6AXXZEA 000000018011f400     GuPCMShapeConvex.obj
 0002:00001408       ?maxV4Error$initializer$@_VecMathTests@aos@shdfnd@physx@@3P6AXXZEA 000000018011f408     GuPCMShapeConvex.obj
 0002:00001410       ?minFError$initializer$@_VecMathTests@aos@shdfnd@physx@@3P6AXXZEA 000000018011f410     GuPCMTriangleContactGen.obj
 0002:00001418       ?maxFError$initializer$@_VecMathTests@aos@shdfnd@physx@@3P6AXXZEA 000000018011f418     GuPCMTriangleContactGen.obj
 0002:00001420       ?minV3Error$initializer$@_VecMathTests@aos@shdfnd@physx@@3P6AXXZEA 000000018011f420     GuPCMTriangleContactGen.obj
 0002:00001428       ?maxV3Error$initializer$@_VecMathTests@aos@shdfnd@physx@@3P6AXXZEA 000000018011f428     GuPCMTriangleContactGen.obj
 0002:00001430       ?minV4Error$initializer$@_VecMathTests@aos@shdfnd@physx@@3P6AXXZEA 000000018011f430     GuPCMTriangleContactGen.obj
 0002:00001438       ?maxV4Error$initializer$@_VecMathTests@aos@shdfnd@physx@@3P6AXXZEA 000000018011f438     GuPCMTriangleContactGen.obj
 0002:00001440       ?minFError$initializer$@_VecMathTests@aos@shdfnd@physx@@3P6AXXZEA 000000018011f440     GuPersistentContactManifold.obj
 0002:00001448       ?maxFError$initializer$@_VecMathTests@aos@shdfnd@physx@@3P6AXXZEA 000000018011f448     GuPersistentContactManifold.obj
 0002:00001450       ?minV3Error$initializer$@_VecMathTests@aos@shdfnd@physx@@3P6AXXZEA 000000018011f450     GuPersistentContactManifold.obj
 0002:00001458       ?maxV3Error$initializer$@_VecMathTests@aos@shdfnd@physx@@3P6AXXZEA 000000018011f458     GuPersistentContactManifold.obj
 0002:00001460       ?minV4Error$initializer$@_VecMathTests@aos@shdfnd@physx@@3P6AXXZEA 000000018011f460     GuPersistentContactManifold.obj
 0002:00001468       ?maxV4Error$initializer$@_VecMathTests@aos@shdfnd@physx@@3P6AXXZEA 000000018011f468     GuPersistentContactManifold.obj
 0002:00001470       ?minFError$initializer$@_VecMathTests@aos@shdfnd@physx@@3P6AXXZEA 000000018011f470     GuSweepBoxBox.obj
 0002:00001478       ?maxFError$initializer$@_VecMathTests@aos@shdfnd@physx@@3P6AXXZEA 000000018011f478     GuSweepBoxBox.obj
 0002:00001480       ?minV3Error$initializer$@_VecMathTests@aos@shdfnd@physx@@3P6AXXZEA 000000018011f480     GuSweepBoxBox.obj
 0002:00001488       ?maxV3Error$initializer$@_VecMathTests@aos@shdfnd@physx@@3P6AXXZEA 000000018011f488     GuSweepBoxBox.obj
 0002:00001490       ?minV4Error$initializer$@_VecMathTests@aos@shdfnd@physx@@3P6AXXZEA 000000018011f490     GuSweepBoxBox.obj
 0002:00001498       ?maxV4Error$initializer$@_VecMathTests@aos@shdfnd@physx@@3P6AXXZEA 000000018011f498     GuSweepBoxBox.obj
 0002:000014a0       ?minFError$initializer$@_VecMathTests@aos@shdfnd@physx@@3P6AXXZEA 000000018011f4a0     GuSweepBoxSphere.obj
 0002:000014a8       ?maxFError$initializer$@_VecMathTests@aos@shdfnd@physx@@3P6AXXZEA 000000018011f4a8     GuSweepBoxSphere.obj
 0002:000014b0       ?minV3Error$initializer$@_VecMathTests@aos@shdfnd@physx@@3P6AXXZEA 000000018011f4b0     GuSweepBoxSphere.obj
 0002:000014b8       ?maxV3Error$initializer$@_VecMathTests@aos@shdfnd@physx@@3P6AXXZEA 000000018011f4b8     GuSweepBoxSphere.obj
 0002:000014c0       ?minV4Error$initializer$@_VecMathTests@aos@shdfnd@physx@@3P6AXXZEA 000000018011f4c0     GuSweepBoxSphere.obj
 0002:000014c8       ?maxV4Error$initializer$@_VecMathTests@aos@shdfnd@physx@@3P6AXXZEA 000000018011f4c8     GuSweepBoxSphere.obj
 0002:000014d0       ?minFError$initializer$@_VecMathTests@aos@shdfnd@physx@@3P6AXXZEA 000000018011f4d0     GuSweepBoxTriangle_FeatureBased.obj
 0002:000014d8       ?maxFError$initializer$@_VecMathTests@aos@shdfnd@physx@@3P6AXXZEA 000000018011f4d8     GuSweepBoxTriangle_FeatureBased.obj
 0002:000014e0       ?minV3Error$initializer$@_VecMathTests@aos@shdfnd@physx@@3P6AXXZEA 000000018011f4e0     GuSweepBoxTriangle_FeatureBased.obj
 0002:000014e8       ?maxV3Error$initializer$@_VecMathTests@aos@shdfnd@physx@@3P6AXXZEA 000000018011f4e8     GuSweepBoxTriangle_FeatureBased.obj
 0002:000014f0       ?minV4Error$initializer$@_VecMathTests@aos@shdfnd@physx@@3P6AXXZEA 000000018011f4f0     GuSweepBoxTriangle_FeatureBased.obj
 0002:000014f8       ?maxV4Error$initializer$@_VecMathTests@aos@shdfnd@physx@@3P6AXXZEA 000000018011f4f8     GuSweepBoxTriangle_FeatureBased.obj
 0002:00001500       ?minFError$initializer$@_VecMathTests@aos@shdfnd@physx@@3P6AXXZEA 000000018011f500     GuSweepBoxTriangle_SAT.obj
 0002:00001508       ?maxFError$initializer$@_VecMathTests@aos@shdfnd@physx@@3P6AXXZEA 000000018011f508     GuSweepBoxTriangle_SAT.obj
 0002:00001510       ?minV3Error$initializer$@_VecMathTests@aos@shdfnd@physx@@3P6AXXZEA 000000018011f510     GuSweepBoxTriangle_SAT.obj
 0002:00001518       ?maxV3Error$initializer$@_VecMathTests@aos@shdfnd@physx@@3P6AXXZEA 000000018011f518     GuSweepBoxTriangle_SAT.obj
 0002:00001520       ?minV4Error$initializer$@_VecMathTests@aos@shdfnd@physx@@3P6AXXZEA 000000018011f520     GuSweepBoxTriangle_SAT.obj
 0002:00001528       ?maxV4Error$initializer$@_VecMathTests@aos@shdfnd@physx@@3P6AXXZEA 000000018011f528     GuSweepBoxTriangle_SAT.obj
 0002:00001530       ?minFError$initializer$@_VecMathTests@aos@shdfnd@physx@@3P6AXXZEA 000000018011f530     GuSweepCapsuleBox.obj
 0002:00001538       ?maxFError$initializer$@_VecMathTests@aos@shdfnd@physx@@3P6AXXZEA 000000018011f538     GuSweepCapsuleBox.obj
 0002:00001540       ?minV3Error$initializer$@_VecMathTests@aos@shdfnd@physx@@3P6AXXZEA 000000018011f540     GuSweepCapsuleBox.obj
 0002:00001548       ?maxV3Error$initializer$@_VecMathTests@aos@shdfnd@physx@@3P6AXXZEA 000000018011f548     GuSweepCapsuleBox.obj
 0002:00001550       ?minV4Error$initializer$@_VecMathTests@aos@shdfnd@physx@@3P6AXXZEA 000000018011f550     GuSweepCapsuleBox.obj
 0002:00001558       ?maxV4Error$initializer$@_VecMathTests@aos@shdfnd@physx@@3P6AXXZEA 000000018011f558     GuSweepCapsuleBox.obj
 0002:00001560       ?minFError$initializer$@_VecMathTests@aos@shdfnd@physx@@3P6AXXZEA 000000018011f560     GuSweepCapsuleTriangle.obj
 0002:00001568       ?maxFError$initializer$@_VecMathTests@aos@shdfnd@physx@@3P6AXXZEA 000000018011f568     GuSweepCapsuleTriangle.obj
 0002:00001570       ?minV3Error$initializer$@_VecMathTests@aos@shdfnd@physx@@3P6AXXZEA 000000018011f570     GuSweepCapsuleTriangle.obj
 0002:00001578       ?maxV3Error$initializer$@_VecMathTests@aos@shdfnd@physx@@3P6AXXZEA 000000018011f578     GuSweepCapsuleTriangle.obj
 0002:00001580       ?minV4Error$initializer$@_VecMathTests@aos@shdfnd@physx@@3P6AXXZEA 000000018011f580     GuSweepCapsuleTriangle.obj
 0002:00001588       ?maxV4Error$initializer$@_VecMathTests@aos@shdfnd@physx@@3P6AXXZEA 000000018011f588     GuSweepCapsuleTriangle.obj
 0002:00001590       ?minFError$initializer$@_VecMathTests@aos@shdfnd@physx@@3P6AXXZEA 000000018011f590     GuSweepSphereTriangle.obj
 0002:00001598       ?maxFError$initializer$@_VecMathTests@aos@shdfnd@physx@@3P6AXXZEA 000000018011f598     GuSweepSphereTriangle.obj
 0002:000015a0       ?minV3Error$initializer$@_VecMathTests@aos@shdfnd@physx@@3P6AXXZEA 000000018011f5a0     GuSweepSphereTriangle.obj
 0002:000015a8       ?maxV3Error$initializer$@_VecMathTests@aos@shdfnd@physx@@3P6AXXZEA 000000018011f5a8     GuSweepSphereTriangle.obj
 0002:000015b0       ?minV4Error$initializer$@_VecMathTests@aos@shdfnd@physx@@3P6AXXZEA 000000018011f5b0     GuSweepSphereTriangle.obj
 0002:000015b8       ?maxV4Error$initializer$@_VecMathTests@aos@shdfnd@physx@@3P6AXXZEA 000000018011f5b8     GuSweepSphereTriangle.obj
 0002:000015c0       ?minFError$initializer$@_VecMathTests@aos@shdfnd@physx@@3P6AXXZEA 000000018011f5c0     GuSweepTriangleUtils.obj
 0002:000015c8       ?maxFError$initializer$@_VecMathTests@aos@shdfnd@physx@@3P6AXXZEA 000000018011f5c8     GuSweepTriangleUtils.obj
 0002:000015d0       ?minV3Error$initializer$@_VecMathTests@aos@shdfnd@physx@@3P6AXXZEA 000000018011f5d0     GuSweepTriangleUtils.obj
 0002:000015d8       ?maxV3Error$initializer$@_VecMathTests@aos@shdfnd@physx@@3P6AXXZEA 000000018011f5d8     GuSweepTriangleUtils.obj
 0002:000015e0       ?minV4Error$initializer$@_VecMathTests@aos@shdfnd@physx@@3P6AXXZEA 000000018011f5e0     GuSweepTriangleUtils.obj
 0002:000015e8       ?maxV4Error$initializer$@_VecMathTests@aos@shdfnd@physx@@3P6AXXZEA 000000018011f5e8     GuSweepTriangleUtils.obj
 0002:00001e80       ?minus1w@?A0x01dd9b09@aos@shdfnd@physx@@3QBMB 000000018011fe80     GuBounds.obj
 0002:00001e90       ?gMaskXYZ@internalWindowsSimd@aos@shdfnd@physx@@3QBIB 000000018011fe90     GuBounds.obj
 0002:00001fe0       ?minus1w@?A0x824bbc84@aos@shdfnd@physx@@3QBMB 000000018011ffe0     GuBox.obj
 0002:00001ff0       ?gMaskXYZ@internalWindowsSimd@aos@shdfnd@physx@@3QBIB 000000018011fff0     GuBox.obj
 0002:00002010       ?minus1w@?A0x4b246e76@aos@shdfnd@physx@@3QBMB 0000000180120010     GuCCTSweepTests.obj
 0002:00002020       ?gMaskXYZ@internalWindowsSimd@aos@shdfnd@physx@@3QBIB 0000000180120020     GuCCTSweepTests.obj
 0002:00002040       ??_7LocalReport@?1??sweepBox_HeightFieldGeom_Precise@@YA_NAEBVPxGeometry@physx@@AEBVPxTransform@3@AEBVPxBoxGeometry@3@1AEBVBox@Gu@3@AEBVPxVec3@3@MAEAUPxSweepHit@3@V?$PxFlags@W4Enum@PxHitFlag@physx@@G@3@M@Z@6B@ 0000000180120040     GuCCTSweepTests.obj
 0002:00002060       ?minus1w@?A0x2da386cc@aos@shdfnd@physx@@3QBMB 0000000180120060     GuGeometryQuery.obj
 0002:00002070       ?gMaskXYZ@internalWindowsSimd@aos@shdfnd@physx@@3QBIB 0000000180120070     GuGeometryQuery.obj
 0002:00002600       ?minus1w@?A0x45a82078@aos@shdfnd@physx@@3QBMB 0000000180120600     GuGeometryUnion.obj
 0002:00002610       ?gMaskXYZ@internalWindowsSimd@aos@shdfnd@physx@@3QBIB 0000000180120610     GuGeometryUnion.obj
 0002:00002680       ?minus1w@?A0x362d179a@aos@shdfnd@physx@@3QBMB 0000000180120680     GuInternal.obj
 0002:00002690       ?gMaskXYZ@internalWindowsSimd@aos@shdfnd@physx@@3QBIB 0000000180120690     GuInternal.obj
 0002:000026a0       ?minus1w@?A0xc118eb05@aos@shdfnd@physx@@3QBMB 00000001801206a0     GuMeshFactory.obj
 0002:000026b0       ?gMaskXYZ@internalWindowsSimd@aos@shdfnd@physx@@3QBIB 00000001801206b0     GuMeshFactory.obj
 0002:000028d0       ?minus1w@?A0x016ff098@aos@shdfnd@physx@@3QBMB 00000001801208d0     GuMetaData.obj
 0002:000028e0       ?gMaskXYZ@internalWindowsSimd@aos@shdfnd@physx@@3QBIB 00000001801208e0     GuMetaData.obj
 0002:00003440       ?minus1w@?A0x4aa6a4fc@aos@shdfnd@physx@@3QBMB 0000000180121440     GuMTD.obj
 0002:00003450       ?gMaskXYZ@internalWindowsSimd@aos@shdfnd@physx@@3QBIB 0000000180121450     GuMTD.obj
 0002:00003630       ?minus1w@?A0xf19d72ff@aos@shdfnd@physx@@3QBMB 0000000180121630     GuOverlapTests.obj
 0002:00003640       ?gMaskXYZ@internalWindowsSimd@aos@shdfnd@physx@@3QBIB 0000000180121640     GuOverlapTests.obj
 0002:000037d0       ?minus1w@?A0x02500555@aos@shdfnd@physx@@3QBMB 00000001801217d0     GuRaycastTests.obj
 0002:000037e0       ?gMaskXYZ@internalWindowsSimd@aos@shdfnd@physx@@3QBIB 00000001801217e0     GuRaycastTests.obj
 0002:000037f0       ?gMidphaseRaycastTable@Gu@physx@@3QBQ6AIPEBVTriangleMesh@12@AEBVPxTriangleMeshGeometry@2@AEBVPxTransform@2@AEBVPxVec3@2@3MV?$PxFlags@W4Enum@PxHitFlag@physx@@G@2@IPEIAUPxRaycastHit@2@@ZB 00000001801217f0     GuRaycastTests.obj
 0002:00003830       ?minus1w@?A0x3f700561@aos@shdfnd@physx@@3QBMB 0000000180121830     GuSweepMTD.obj
 0002:00003840       ?gMaskXYZ@internalWindowsSimd@aos@shdfnd@physx@@3QBIB 0000000180121840     GuSweepMTD.obj
 0002:00003850       ?gMidphaseBoxCBOverlapTable@Gu@physx@@3QBQ6AXPEBVTriangleMesh@12@AEBVBox@12@AEAU?$MeshHitCallback@UPxRaycastHit@physx@@@12@_N3@ZB 0000000180121850     GuSweepMTD.obj
 0002:000038d0       ?minus1w@?A0xc364005f@aos@shdfnd@physx@@3QBMB 00000001801218d0     GuSweepSharedTests.obj
 0002:000038e0       ?gMaskXYZ@internalWindowsSimd@aos@shdfnd@physx@@3QBIB 00000001801218e0     GuSweepSharedTests.obj
 0002:00003910       ?minus1w@?A0x20c07924@aos@shdfnd@physx@@3QBMB 0000000180121910     GuSweepTests.obj
 0002:00003920       ?gMaskXYZ@internalWindowsSimd@aos@shdfnd@physx@@3QBIB 0000000180121920     GuSweepTests.obj
 0002:00003a30       ?minus1w@?A0x99be1588@aos@shdfnd@physx@@3QBMB 0000000180121a30     GuAABBTreeBuild.obj
 0002:00003a40       ?gMaskXYZ@internalWindowsSimd@aos@shdfnd@physx@@3QBIB 0000000180121a40     GuAABBTreeBuild.obj
 0002:00003ab0       ?minus1w@?A0x680eb5f6@aos@shdfnd@physx@@3QBMB 0000000180121ab0     GuBVHStructure.obj
 0002:00003ac0       ?gMaskXYZ@internalWindowsSimd@aos@shdfnd@physx@@3QBIB 0000000180121ac0     GuBVHStructure.obj
 0002:00003c60       ?minus1w@?A0x58bf8b61@aos@shdfnd@physx@@3QBMB 0000000180121c60     GuCCDSweepConvexMesh.obj
 0002:00003c70       ?gMaskXYZ@internalWindowsSimd@aos@shdfnd@physx@@3QBIB 0000000180121c70     GuCCDSweepConvexMesh.obj
 0002:00003c80       ?gMidphaseBoxCBOverlapTable@Gu@physx@@3QBQ6AXPEBVTriangleMesh@12@AEBVBox@12@AEAU?$MeshHitCallback@UPxRaycastHit@physx@@@12@_N3@ZB 0000000180121c80     GuCCDSweepConvexMesh.obj
 0002:00003c90       ??_7AccumCallback@?A0x58bf8b61@Gu@physx@@6B@ 0000000180121c90     GuCCDSweepConvexMesh.obj
 0002:00003ca0       ??_7EntityReportContainerCallback@?A0x58bf8b61@Gu@physx@@6B@ 0000000180121ca0     GuCCDSweepConvexMesh.obj
 0002:00003cb0       ??_7CB@?1??SweepEstimateAnyShapeMesh@Gu@physx@@YAMAEBUCCDShape@23@0AEBVPxTransform@3@111MM@Z@6B@ 0000000180121cb0     GuCCDSweepConvexMesh.obj
 0002:00003d00       ?minus1w@?A0x0ef033eb@aos@shdfnd@physx@@3QBMB 0000000180121d00     GuCCDSweepPrimitives.obj
 0002:00003d10       ?gMaskXYZ@internalWindowsSimd@aos@shdfnd@physx@@3QBIB 0000000180121d10     GuCCDSweepPrimitives.obj
 0002:00003d90       ?minus1w@?A0x01ac2773@aos@shdfnd@physx@@3QBMB 0000000180121d90     GuBarycentricCoordinates.obj
 0002:00003da0       ?gMaskXYZ@internalWindowsSimd@aos@shdfnd@physx@@3QBIB 0000000180121da0     GuBarycentricCoordinates.obj
 0002:00003db0       ?minus1w@?A0x2eece301@aos@shdfnd@physx@@3QBMB 0000000180121db0     GuContactBoxBox.obj
 0002:00003dc0       ?gMaskXYZ@internalWindowsSimd@aos@shdfnd@physx@@3QBIB 0000000180121dc0     GuContactBoxBox.obj
 0002:00003dd0       ?indices@?1??generateContacts@@YAHAEAVContactBuffer@Gu@physx@@AEBVPxVec3@4@MM1AEBVMatrix34@Cm@4@2M@Z@4QBHB 0000000180121dd0     GuContactBoxBox.obj
 0002:00003e30       ?face@?EK@??generateContacts@@YAHAEAVContactBuffer@Gu@physx@@AEBVPxVec3@4@MM1AEBVMatrix34@Cm@4@2M@Z@4QAY03$$CBHA 0000000180121e30     GuContactBoxBox.obj
 0002:00003ea0       ?minus1w@?A0x21c3d2d8@aos@shdfnd@physx@@3QBMB 0000000180121ea0     GuContactCapsuleBox.obj
 0002:00003eb0       ?gMaskXYZ@internalWindowsSimd@aos@shdfnd@physx@@3QBIB 0000000180121eb0     GuContactCapsuleBox.obj
 0002:00003ec0       ?minus1w@?A0xfd57e057@aos@shdfnd@physx@@3QBMB 0000000180121ec0     GuContactCapsuleCapsule.obj
 0002:00003ed0       ?gMaskXYZ@internalWindowsSimd@aos@shdfnd@physx@@3QBIB 0000000180121ed0     GuContactCapsuleCapsule.obj
 0002:00003ef0       ?minus1w@?A0xf093d3c0@aos@shdfnd@physx@@3QBMB 0000000180121ef0     GuContactCapsuleConvex.obj
 0002:00003f00       ?gMaskXYZ@internalWindowsSimd@aos@shdfnd@physx@@3QBIB 0000000180121f00     GuContactCapsuleConvex.obj
 0002:00003f10       ?minus1w@?A0xd0a6ead9@aos@shdfnd@physx@@3QBMB 0000000180121f10     GuContactCapsuleMesh.obj
 0002:00003f20       ?gMaskXYZ@internalWindowsSimd@aos@shdfnd@physx@@3QBIB 0000000180121f20     GuContactCapsuleMesh.obj
 0002:00003f30       ?gMidphaseBoxCBOverlapTable@Gu@physx@@3QBQ6AXPEBVTriangleMesh@12@AEBVBox@12@AEAU?$MeshHitCallback@UPxRaycastHit@physx@@@12@_N3@ZB 0000000180121f30     GuContactCapsuleMesh.obj
 0002:00003f40       ??_7CapsuleMeshContactGenerationCallback_NoScale@?A0xd0a6ead9@@6B@ 0000000180121f40     GuContactCapsuleMesh.obj
 0002:00003f50       ??_7CapsuleMeshContactGenerationCallback_Scale@?A0xd0a6ead9@@6B@ 0000000180121f50     GuContactCapsuleMesh.obj
 0002:00003f60       ??_7CapsuleHeightfieldContactGenerationCallback@?A0xd0a6ead9@@6B@ 0000000180121f60     GuContactCapsuleMesh.obj
 0002:00003f80       ?minus1w@?A0x19f3bead@aos@shdfnd@physx@@3QBMB 0000000180121f80     GuContactConvexConvex.obj
 0002:00003f90       ?gMaskXYZ@internalWindowsSimd@aos@shdfnd@physx@@3QBIB 0000000180121f90     GuContactConvexConvex.obj
 0002:00003fa0       ?minus1w@?A0xae1ce05b@aos@shdfnd@physx@@3QBMB 0000000180121fa0     GuContactConvexMesh.obj
 0002:00003fb0       ?gMaskXYZ@internalWindowsSimd@aos@shdfnd@physx@@3QBIB 0000000180121fb0     GuContactConvexMesh.obj
 0002:00003fc0       ?gMidphaseBoxCBOverlapTable@Gu@physx@@3QBQ6AXPEBVTriangleMesh@12@AEBVBox@12@AEAU?$MeshHitCallback@UPxRaycastHit@physx@@@12@_N3@ZB 0000000180121fc0     GuContactConvexMesh.obj
 0002:00003fe0       ??_7ConvexVsHeightfieldContactGenerationCallback@?A0xae1ce05b@@6B@ 0000000180121fe0     GuContactConvexMesh.obj
 0002:00003ff0       ?minus1w@?A0x0123c45b@aos@shdfnd@physx@@3QBMB 0000000180121ff0     GuContactPlaneBox.obj
 0002:00004000       ?gMaskXYZ@internalWindowsSimd@aos@shdfnd@physx@@3QBIB 0000000180122000     GuContactPlaneBox.obj
 0002:00004010       ?minus1w@?A0x7f00f564@aos@shdfnd@physx@@3QBMB 0000000180122010     GuContactPlaneCapsule.obj
 0002:00004020       ?gMaskXYZ@internalWindowsSimd@aos@shdfnd@physx@@3QBIB 0000000180122020     GuContactPlaneCapsule.obj
 0002:00004030       ?minus1w@?A0xaf722196@aos@shdfnd@physx@@3QBMB 0000000180122030     GuContactPlaneConvex.obj
 0002:00004040       ?gMaskXYZ@internalWindowsSimd@aos@shdfnd@physx@@3QBIB 0000000180122040     GuContactPlaneConvex.obj
 0002:00004070       ?minus1w@?A0x9fa49acb@aos@shdfnd@physx@@3QBMB 0000000180122070     GuContactSphereBox.obj
 0002:00004080       ?gMaskXYZ@internalWindowsSimd@aos@shdfnd@physx@@3QBIB 0000000180122080     GuContactSphereBox.obj
 0002:00004090       ?minus1w@?A0xc717a7b5@aos@shdfnd@physx@@3QBMB 0000000180122090     GuContactSphereCapsule.obj
 0002:000040a0       ?gMaskXYZ@internalWindowsSimd@aos@shdfnd@physx@@3QBIB 00000001801220a0     GuContactSphereCapsule.obj
 0002:000040b0       ?minus1w@?A0x54a6cc4f@aos@shdfnd@physx@@3QBMB 00000001801220b0     GuContactSphereMesh.obj
 0002:000040c0       ?gMaskXYZ@internalWindowsSimd@aos@shdfnd@physx@@3QBIB 00000001801220c0     GuContactSphereMesh.obj
 0002:000040d0       ?gMidphaseBoxCBOverlapTable@Gu@physx@@3QBQ6AXPEBVTriangleMesh@12@AEBVBox@12@AEAU?$MeshHitCallback@UPxRaycastHit@physx@@@12@_N3@ZB 00000001801220d0     GuContactSphereMesh.obj
 0002:00004170       ??_7SphereMeshContactGenerationCallback_NoScale@?A0x54a6cc4f@@6B@ 0000000180122170     GuContactSphereMesh.obj
 0002:00004180       ??_7SphereMeshContactGenerationCallback_Scale@?A0x54a6cc4f@@6B@ 0000000180122180     GuContactSphereMesh.obj
 0002:00004190       ??_7SphereHeightfieldContactGenerationCallback@?A0x54a6cc4f@@6B@ 0000000180122190     GuContactSphereMesh.obj
 0002:000041e0       ?minus1w@?A0x6de5a272@aos@shdfnd@physx@@3QBMB 00000001801221e0     GuContactSpherePlane.obj
 0002:000041f0       ?gMaskXYZ@internalWindowsSimd@aos@shdfnd@physx@@3QBIB 00000001801221f0     GuContactSpherePlane.obj
 0002:00004200       ?minus1w@?A0xe1c91d48@aos@shdfnd@physx@@3QBMB 0000000180122200     GuContactSphereSphere.obj
 0002:00004210       ?gMaskXYZ@internalWindowsSimd@aos@shdfnd@physx@@3QBIB 0000000180122210     GuContactSphereSphere.obj
 0002:000042a0       ?minus1w@?A0x246d8691@aos@shdfnd@physx@@3QBMB 00000001801222a0     GuConvexHelper.obj
 0002:000042b0       ?gMaskXYZ@internalWindowsSimd@aos@shdfnd@physx@@3QBIB 00000001801222b0     GuConvexHelper.obj
 0002:000044b0       ?minus1w@?A0x8365bd41@aos@shdfnd@physx@@3QBMB 00000001801224b0     GuConvexSupportTable.obj
 0002:000044c0       ?gMaskXYZ@internalWindowsSimd@aos@shdfnd@physx@@3QBIB 00000001801224c0     GuConvexSupportTable.obj
 0002:00004530       ?minus1w@?A0xd7cea34e@aos@shdfnd@physx@@3QBMB 0000000180122530     GuConvexUtilsInternal.obj
 0002:00004540       ?gMaskXYZ@internalWindowsSimd@aos@shdfnd@physx@@3QBIB 0000000180122540     GuConvexUtilsInternal.obj
 0002:00004550       ?gPxcBoxPolygonData@@3QBEB 0000000180122550     GuShapeConvex.obj
 0002:00004570       ?minus1w@?A0x4e1df5bc@aos@shdfnd@physx@@3QBMB 0000000180122570     GuDistancePointTriangle.obj
 0002:00004580       ?gMaskXYZ@internalWindowsSimd@aos@shdfnd@physx@@3QBIB 0000000180122580     GuDistancePointTriangle.obj
 0002:00004590       ?minus1w@?A0xb03f3ee9@aos@shdfnd@physx@@3QBMB 0000000180122590     GuDistanceSegmentSegment.obj
 0002:000045a0       ?gMaskXYZ@internalWindowsSimd@aos@shdfnd@physx@@3QBIB 00000001801225a0     GuDistanceSegmentSegment.obj
 0002:000045b0       ?minus1w@?A0xf59b1cce@aos@shdfnd@physx@@3QBMB 00000001801225b0     GuDistanceSegmentTriangle.obj
 0002:000045c0       ?gMaskXYZ@internalWindowsSimd@aos@shdfnd@physx@@3QBIB 00000001801225c0     GuDistanceSegmentTriangle.obj
 0002:00004600       ?minus1w@?A0x05f933e0@aos@shdfnd@physx@@3QBMB 0000000180122600     GuEPA.obj
 0002:00004610       ?gMaskXYZ@internalWindowsSimd@aos@shdfnd@physx@@3QBIB 0000000180122610     GuEPA.obj
 0002:00004620       ?lookUp@Gu@physx@@3QBIB    0000000180122620     GuEPA.obj
 0002:00004630       ?minus1w@?A0xd2d4a840@aos@shdfnd@physx@@3QBMB 0000000180122630     GuGJKSimplex.obj
 0002:00004640       ?gMaskXYZ@internalWindowsSimd@aos@shdfnd@physx@@3QBIB 0000000180122640     GuGJKSimplex.obj
 0002:00004670       ?minus1w@?A0x55c06459@aos@shdfnd@physx@@3QBMB 0000000180122670     GuGJKTest.obj
 0002:00004680       ?gMaskXYZ@internalWindowsSimd@aos@shdfnd@physx@@3QBIB 0000000180122680     GuGJKTest.obj
 0002:00004940       ?minus1w@?A0x318d481c@aos@shdfnd@physx@@3QBMB 0000000180122940     GuHeightFieldUtil.obj
 0002:00004950       ?gMaskXYZ@internalWindowsSimd@aos@shdfnd@physx@@3QBIB 0000000180122950     GuHeightFieldUtil.obj
 0002:000049f0       ?minus1w@?A0x6289e211@aos@shdfnd@physx@@3QBMB 00000001801229f0     GuOverlapTestsHF.obj
 0002:00004a00       ?gMaskXYZ@internalWindowsSimd@aos@shdfnd@physx@@3QBIB 0000000180122a00     GuOverlapTestsHF.obj
 0002:00004a10       ?edges@Gu@physx@@3QBDB     0000000180122a10     GuOverlapTestsHF.obj
 0002:00004a30       ?minus1w@?A0x42fa1e48@aos@shdfnd@physx@@3QBMB 0000000180122a30     GuSweepsHF.obj
 0002:00004a40       ?gMaskXYZ@internalWindowsSimd@aos@shdfnd@physx@@3QBIB 0000000180122a40     GuSweepsHF.obj
 0002:00004aa0       ?minus1w@?A0xb8b13a02@aos@shdfnd@physx@@3QBMB 0000000180122aa0     GuIntersectionRayBox.obj
 0002:00004ab0       ?gMaskXYZ@internalWindowsSimd@aos@shdfnd@physx@@3QBIB 0000000180122ab0     GuIntersectionRayBox.obj
 0002:00004af0       ?minus1w@?A0xfb0b68c4@aos@shdfnd@physx@@3QBMB 0000000180122af0     GuIntersectionTriangleBox.obj
 0002:00004b00       ?gMaskXYZ@internalWindowsSimd@aos@shdfnd@physx@@3QBIB 0000000180122b00     GuIntersectionTriangleBox.obj
 0002:00004b10       ?minus1w@?A0x1f35dd0f@aos@shdfnd@physx@@3QBMB 0000000180122b10     GuBV4.obj
 0002:00004b20       ?gMaskXYZ@internalWindowsSimd@aos@shdfnd@physx@@3QBIB 0000000180122b20     GuBV4.obj
 0002:00004b80       ?minus1w@?A0x9e8b4a7d@aos@shdfnd@physx@@3QBMB 0000000180122b80     GuBV4Build.obj
 0002:00004b90       ?gMaskXYZ@internalWindowsSimd@aos@shdfnd@physx@@3QBIB 0000000180122b90     GuBV4Build.obj
 0002:00004c10       ?minus1w@?A0x788c2204@aos@shdfnd@physx@@3QBMB 0000000180122c10     GuBV4_AABBSweep.obj
 0002:00004c20       ?gMaskXYZ@internalWindowsSimd@aos@shdfnd@physx@@3QBIB 0000000180122c20     GuBV4_AABBSweep.obj
 0002:00004c70       ?minus1w@?A0x723b9c56@aos@shdfnd@physx@@3QBMB 0000000180122c70     GuBV4_BoxOverlap.obj
 0002:00004c80       ?gMaskXYZ@internalWindowsSimd@aos@shdfnd@physx@@3QBIB 0000000180122c80     GuBV4_BoxOverlap.obj
 0002:00004c90       ?minus1w@?A0xd6379ba5@aos@shdfnd@physx@@3QBMB 0000000180122c90     GuBV4_CapsuleSweep.obj
 0002:00004ca0       ?gMaskXYZ@internalWindowsSimd@aos@shdfnd@physx@@3QBIB 0000000180122ca0     GuBV4_CapsuleSweep.obj
 0002:00004cb0       ?minus1w@?A0xf567e8b1@aos@shdfnd@physx@@3QBMB 0000000180122cb0     GuBV4_CapsuleSweepAA.obj
 0002:00004cc0       ?gMaskXYZ@internalWindowsSimd@aos@shdfnd@physx@@3QBIB 0000000180122cc0     GuBV4_CapsuleSweepAA.obj
 0002:00004cd0       ?minus1w@?A0x5eaefbf3@aos@shdfnd@physx@@3QBMB 0000000180122cd0     GuBV4_OBBSweep.obj
 0002:00004ce0       ?gMaskXYZ@internalWindowsSimd@aos@shdfnd@physx@@3QBIB 0000000180122ce0     GuBV4_OBBSweep.obj
 0002:00004cf0       ?minus1w@?A0xdeb1923c@aos@shdfnd@physx@@3QBMB 0000000180122cf0     GuBV4_Raycast.obj
 0002:00004d00       ?gMaskXYZ@internalWindowsSimd@aos@shdfnd@physx@@3QBIB 0000000180122d00     GuBV4_Raycast.obj
 0002:00004d10       ?minus1w@?A0x5cc2e679@aos@shdfnd@physx@@3QBMB 0000000180122d10     GuBV4_SphereOverlap.obj
 0002:00004d20       ?gMaskXYZ@internalWindowsSimd@aos@shdfnd@physx@@3QBIB 0000000180122d20     GuBV4_SphereOverlap.obj
 0002:00004d30       ?minus1w@?A0x0ebb234c@aos@shdfnd@physx@@3QBMB 0000000180122d30     GuBV4_SphereSweep.obj
 0002:00004d40       ?gMaskXYZ@internalWindowsSimd@aos@shdfnd@physx@@3QBIB 0000000180122d40     GuBV4_SphereSweep.obj
 0002:00004d50       ?minus1w@?A0xa24c327f@aos@shdfnd@physx@@3QBMB 0000000180122d50     GuMidphaseBV4.obj
 0002:00004d60       ?gMaskXYZ@internalWindowsSimd@aos@shdfnd@physx@@3QBIB 0000000180122d60     GuMidphaseBV4.obj
 0002:00004d80       ?minus1w@?A0x53027822@aos@shdfnd@physx@@3QBMB 0000000180122d80     GuMeshQuery.obj
 0002:00004d90       ?gMaskXYZ@internalWindowsSimd@aos@shdfnd@physx@@3QBIB 0000000180122d90     GuMeshQuery.obj
 0002:00004da0       ?gMidphaseSphereOverlapTable@Gu@physx@@3QBQ6A_NAEBVSphere@12@AEBVTriangleMesh@12@AEBVPxTransform@2@AEBVPxMeshScale@2@PEAULimitedResults@12@@ZB 0000000180122da0     GuMeshQuery.obj
 0002:00004db0       ?gMidphaseBoxOverlapTable@Gu@physx@@3QBQ6A_NAEBVBox@12@AEBVTriangleMesh@12@AEBVPxTransform@2@AEBVPxMeshScale@2@PEAULimitedResults@12@@ZB 0000000180122db0     GuMeshQuery.obj
 0002:00004dc0       ?gMidphaseCapsuleOverlapTable@Gu@physx@@3QBQ6A_NAEBVCapsule@12@AEBVTriangleMesh@12@AEBVPxTransform@2@AEBVPxMeshScale@2@PEAULimitedResults@12@@ZB 0000000180122dc0     GuMeshQuery.obj
 0002:00004dd0       ??_7HfTrianglesEntityReport2@?A0x53027822@@6B@ 0000000180122dd0     GuMeshQuery.obj
 0002:000050a0       ?minus1w@?A0xa8ceae12@aos@shdfnd@physx@@3QBMB 00000001801230a0     GuMidphaseRTree.obj
 0002:000050b0       ?gMaskXYZ@internalWindowsSimd@aos@shdfnd@physx@@3QBIB 00000001801230b0     GuMidphaseRTree.obj
 0002:00005170       ??_7?$IntersectSphereVsMeshCallback@$00@?A0xa8ceae12@@6B@ 0000000180123170     GuMidphaseRTree.obj
 0002:00005180       ??_7?$IntersectCapsuleVsMeshCallback@$00@?A0xa8ceae12@@6B@ 0000000180123180     GuMidphaseRTree.obj
 0002:00005190       ??_7?$IntersectBoxVsMeshCallback@$00@?A0xa8ceae12@@6B@ 0000000180123190     GuMidphaseRTree.obj
 0002:000051a0       ??_7?$IntersectSphereVsMeshCallback@$0A@@?A0xa8ceae12@@6B@ 00000001801231a0     GuMidphaseRTree.obj
 0002:000051b0       ??_7?$IntersectCapsuleVsMeshCallback@$0A@@?A0xa8ceae12@@6B@ 00000001801231b0     GuMidphaseRTree.obj
 0002:000051c0       ??_7?$IntersectBoxVsMeshCallback@$0A@@?A0xa8ceae12@@6B@ 00000001801231c0     GuMidphaseRTree.obj
 0002:000051d0       ?minus1w@?A0x8d7a82f3@aos@shdfnd@physx@@3QBMB 00000001801231d0     GuOverlapTestsMesh.obj
 0002:000051e0       ?gMaskXYZ@internalWindowsSimd@aos@shdfnd@physx@@3QBIB 00000001801231e0     GuOverlapTestsMesh.obj
 0002:000051f0       ?gMidphaseSphereOverlapTable@Gu@physx@@3QBQ6A_NAEBVSphere@12@AEBVTriangleMesh@12@AEBVPxTransform@2@AEBVPxMeshScale@2@PEAULimitedResults@12@@ZB 00000001801231f0     GuOverlapTestsMesh.obj
 0002:00005200       ?gMidphaseBoxOverlapTable@Gu@physx@@3QBQ6A_NAEBVBox@12@AEBVTriangleMesh@12@AEBVPxTransform@2@AEBVPxMeshScale@2@PEAULimitedResults@12@@ZB 0000000180123200     GuOverlapTestsMesh.obj
 0002:00005210       ?gMidphaseCapsuleOverlapTable@Gu@physx@@3QBQ6A_NAEBVCapsule@12@AEBVTriangleMesh@12@AEBVPxTransform@2@AEBVPxMeshScale@2@PEAULimitedResults@12@@ZB 0000000180123210     GuOverlapTestsMesh.obj
 0002:00005220       ?gMidphaseBoxCBOverlapTable@Gu@physx@@3QBQ6AXPEBVTriangleMesh@12@AEBVBox@12@AEAU?$MeshHitCallback@UPxRaycastHit@physx@@@12@_N3@ZB 0000000180123220     GuOverlapTestsMesh.obj
 0002:00005240       ?minus1w@?A0xb7449574@aos@shdfnd@physx@@3QBMB 0000000180123240     GuRTree.obj
 0002:00005250       ?gMaskXYZ@internalWindowsSimd@aos@shdfnd@physx@@3QBIB 0000000180123250     GuRTree.obj
 0002:000052b0       ?minus1w@?A0x28b72d2e@aos@shdfnd@physx@@3QBMB 00000001801232b0     GuRTreeQueries.obj
 0002:000052c0       ?gMaskXYZ@internalWindowsSimd@aos@shdfnd@physx@@3QBIB 00000001801232c0     GuRTreeQueries.obj
 0002:000052d0       ?minus1w@?A0xc004da63@aos@shdfnd@physx@@3QBMB 00000001801232d0     GuSweepsMesh.obj
 0002:000052e0       ?gMaskXYZ@internalWindowsSimd@aos@shdfnd@physx@@3QBIB 00000001801232e0     GuSweepsMesh.obj
 0002:000052f0       ?gMidphaseBoxSweepTable@Gu@physx@@3QBQ6A_NPEBVTriangleMesh@12@AEBVPxTriangleMeshGeometry@2@AEBVPxTransform@2@AEBVBox@12@AEBVPxVec3@2@MAEAUPxSweepHit@2@V?$PxFlags@W4Enum@PxHitFlag@physx@@G@2@M@ZB 00000001801232f0     GuSweepsMesh.obj
 0002:00005300       ?gMidphaseCapsuleSweepTable@Gu@physx@@3QBQ6A_NPEBVTriangleMesh@12@AEBVPxTriangleMeshGeometry@2@AEBVPxTransform@2@AEBVCapsule@12@AEBVPxVec3@2@MAEAUPxSweepHit@2@V?$PxFlags@W4Enum@PxHitFlag@physx@@G@2@M@ZB 0000000180123300     GuSweepsMesh.obj
 0002:00005310       ?gMidphaseConvexSweepTable@Gu@physx@@3QBQ6AXPEBVTriangleMesh@12@AEBVBox@12@AEBVPxVec3@2@MAEAUSweepConvexMeshHitCallback@12@_N@ZB 0000000180123310     GuSweepsMesh.obj
 0002:00005360       ?minus1w@?A0xc7b68bda@aos@shdfnd@physx@@3QBMB 0000000180123360     GuTriangleMesh.obj
 0002:00005370       ?gMaskXYZ@internalWindowsSimd@aos@shdfnd@physx@@3QBIB 0000000180123370     GuTriangleMesh.obj
 0002:00005610       ?minus1w@?A0x7008f348@aos@shdfnd@physx@@3QBMB 0000000180123610     GuTriangleMeshBV4.obj
 0002:00005620       ?gMaskXYZ@internalWindowsSimd@aos@shdfnd@physx@@3QBIB 0000000180123620     GuTriangleMeshBV4.obj
 0002:00005700       ?minus1w@?A0xd4aa2e44@aos@shdfnd@physx@@3QBMB 0000000180123700     GuTriangleMeshRTree.obj
 0002:00005710       ?gMaskXYZ@internalWindowsSimd@aos@shdfnd@physx@@3QBIB 0000000180123710     GuTriangleMeshRTree.obj
 0002:00005870       ?minus1w@?A0xb5b6ede2@aos@shdfnd@physx@@3QBMB 0000000180123870     GuBV32Build.obj
 0002:00005880       ?gMaskXYZ@internalWindowsSimd@aos@shdfnd@physx@@3QBIB 0000000180123880     GuBV32Build.obj
 0002:000058e0       ?minus1w@?A0xb7242546@aos@shdfnd@physx@@3QBMB 00000001801238e0     GuPCMContactBoxBox.obj
 0002:000058f0       ?gMaskXYZ@internalWindowsSimd@aos@shdfnd@physx@@3QBIB 00000001801238f0     GuPCMContactBoxBox.obj
 0002:00005940       ?minus1w@?A0x628d460d@aos@shdfnd@physx@@3QBMB 0000000180123940     GuPCMContactBoxConvex.obj
 0002:00005950       ?gMaskXYZ@internalWindowsSimd@aos@shdfnd@physx@@3QBIB 0000000180123950     GuPCMContactBoxConvex.obj
 0002:000059a0       ?minus1w@?A0x38d22e08@aos@shdfnd@physx@@3QBMB 00000001801239a0     GuPCMContactCapsuleBox.obj
 0002:000059b0       ?gMaskXYZ@internalWindowsSimd@aos@shdfnd@physx@@3QBIB 00000001801239b0     GuPCMContactCapsuleBox.obj
 0002:000059c0       ?minus1w@?A0x506f58aa@aos@shdfnd@physx@@3QBMB 00000001801239c0     GuPCMContactCapsuleCapsule.obj
 0002:000059d0       ?gMaskXYZ@internalWindowsSimd@aos@shdfnd@physx@@3QBIB 00000001801239d0     GuPCMContactCapsuleCapsule.obj
 0002:000059f0       ?minus1w@?A0xafa368aa@aos@shdfnd@physx@@3QBMB 00000001801239f0     GuPCMContactCapsuleConvex.obj
 0002:00005a00       ?gMaskXYZ@internalWindowsSimd@aos@shdfnd@physx@@3QBIB 0000000180123a00     GuPCMContactCapsuleConvex.obj
 0002:00005a20       ?minus1w@?A0xa0369a84@aos@shdfnd@physx@@3QBMB 0000000180123a20     GuPCMContactCapsuleHeightField.obj
 0002:00005a30       ?gMaskXYZ@internalWindowsSimd@aos@shdfnd@physx@@3QBIB 0000000180123a30     GuPCMContactCapsuleHeightField.obj
 0002:00005a70       ?minus1w@?A0x566c29f1@aos@shdfnd@physx@@3QBMB 0000000180123a70     GuPCMContactCapsuleMesh.obj
 0002:00005a80       ?gMaskXYZ@internalWindowsSimd@aos@shdfnd@physx@@3QBIB 0000000180123a80     GuPCMContactCapsuleMesh.obj
 0002:00005a90       ?gMidphaseBoxCBOverlapTable@Gu@physx@@3QBQ6AXPEBVTriangleMesh@12@AEBVBox@12@AEAU?$MeshHitCallback@UPxRaycastHit@physx@@@12@_N3@ZB 0000000180123a90     GuPCMContactCapsuleMesh.obj
 0002:00005ab0       ?minus1w@?A0x456373e4@aos@shdfnd@physx@@3QBMB 0000000180123ab0     GuPCMContactConvexCommon.obj
 0002:00005ac0       ?gMaskXYZ@internalWindowsSimd@aos@shdfnd@physx@@3QBIB 0000000180123ac0     GuPCMContactConvexCommon.obj
 0002:00005b70       ?minus1w@?A0x2cc0dc94@aos@shdfnd@physx@@3QBMB 0000000180123b70     GuPCMContactConvexConvex.obj
 0002:00005b80       ?gMaskXYZ@internalWindowsSimd@aos@shdfnd@physx@@3QBIB 0000000180123b80     GuPCMContactConvexConvex.obj
 0002:00005bc0       ?minus1w@?A0x7608fb5f@aos@shdfnd@physx@@3QBMB 0000000180123bc0     GuPCMContactConvexHeightField.obj
 0002:00005bd0       ?gMaskXYZ@internalWindowsSimd@aos@shdfnd@physx@@3QBIB 0000000180123bd0     GuPCMContactConvexHeightField.obj
 0002:00005c00       ?minus1w@?A0xb70d1c8b@aos@shdfnd@physx@@3QBMB 0000000180123c00     GuPCMContactConvexMesh.obj
 0002:00005c10       ?gMaskXYZ@internalWindowsSimd@aos@shdfnd@physx@@3QBIB 0000000180123c10     GuPCMContactConvexMesh.obj
 0002:00005c20       ?gMidphaseBoxCBOverlapTable@Gu@physx@@3QBQ6AXPEBVTriangleMesh@12@AEBVBox@12@AEAU?$MeshHitCallback@UPxRaycastHit@physx@@@12@_N3@ZB 0000000180123c20     GuPCMContactConvexMesh.obj
 0002:00005c40       ?minus1w@?A0xee3a9426@aos@shdfnd@physx@@3QBMB 0000000180123c40     GuPCMContactGenBoxConvex.obj
 0002:00005c50       ?gMaskXYZ@internalWindowsSimd@aos@shdfnd@physx@@3QBIB 0000000180123c50     GuPCMContactGenBoxConvex.obj
 0002:00005c70       ?minus1w@?A0x2e9322ca@aos@shdfnd@physx@@3QBMB 0000000180123c70     GuPCMContactGenSphereCapsule.obj
 0002:00005c80       ?gMaskXYZ@internalWindowsSimd@aos@shdfnd@physx@@3QBIB 0000000180123c80     GuPCMContactGenSphereCapsule.obj
 0002:00005cb0       ?minus1w@?A0xcc1ce3d4@aos@shdfnd@physx@@3QBMB 0000000180123cb0     GuPCMContactPlaneBox.obj
 0002:00005cc0       ?gMaskXYZ@internalWindowsSimd@aos@shdfnd@physx@@3QBIB 0000000180123cc0     GuPCMContactPlaneBox.obj
 0002:00005cd0       ?minus1w@?A0x4a33975d@aos@shdfnd@physx@@3QBMB 0000000180123cd0     GuPCMContactPlaneCapsule.obj
 0002:00005ce0       ?gMaskXYZ@internalWindowsSimd@aos@shdfnd@physx@@3QBIB 0000000180123ce0     GuPCMContactPlaneCapsule.obj
 0002:00005d10       ?minus1w@?A0x29b8e2be@aos@shdfnd@physx@@3QBMB 0000000180123d10     GuPCMContactPlaneConvex.obj
 0002:00005d20       ?gMaskXYZ@internalWindowsSimd@aos@shdfnd@physx@@3QBIB 0000000180123d20     GuPCMContactPlaneConvex.obj
 0002:00005d30       ?minus1w@?A0xe26e3b5d@aos@shdfnd@physx@@3QBMB 0000000180123d30     GuPCMContactSphereBox.obj
 0002:00005d40       ?gMaskXYZ@internalWindowsSimd@aos@shdfnd@physx@@3QBIB 0000000180123d40     GuPCMContactSphereBox.obj
 0002:00005d50       ?minus1w@?A0x98271cdf@aos@shdfnd@physx@@3QBMB 0000000180123d50     GuPCMContactSphereCapsule.obj
 0002:00005d60       ?gMaskXYZ@internalWindowsSimd@aos@shdfnd@physx@@3QBIB 0000000180123d60     GuPCMContactSphereCapsule.obj
 0002:00005d70       ?minus1w@?A0x30b69d98@aos@shdfnd@physx@@3QBMB 0000000180123d70     GuPCMContactSphereConvex.obj
 0002:00005d80       ?gMaskXYZ@internalWindowsSimd@aos@shdfnd@physx@@3QBIB 0000000180123d80     GuPCMContactSphereConvex.obj
 0002:00005d90       ?minus1w@?A0x265b60b9@aos@shdfnd@physx@@3QBMB 0000000180123d90     GuPCMContactSphereHeightField.obj
 0002:00005da0       ?gMaskXYZ@internalWindowsSimd@aos@shdfnd@physx@@3QBIB 0000000180123da0     GuPCMContactSphereHeightField.obj
 0002:00005dc0       ?minus1w@?A0x4db7309f@aos@shdfnd@physx@@3QBMB 0000000180123dc0     GuPCMContactSphereMesh.obj
 0002:00005dd0       ?gMaskXYZ@internalWindowsSimd@aos@shdfnd@physx@@3QBIB 0000000180123dd0     GuPCMContactSphereMesh.obj
 0002:00005de0       ?gMidphaseBoxCBOverlapTable@Gu@physx@@3QBQ6AXPEBVTriangleMesh@12@AEBVBox@12@AEAU?$MeshHitCallback@UPxRaycastHit@physx@@@12@_N3@ZB 0000000180123de0     GuPCMContactSphereMesh.obj
 0002:00005e00       ?minus1w@?A0xeb2f615a@aos@shdfnd@physx@@3QBMB 0000000180123e00     GuPCMContactSpherePlane.obj
 0002:00005e10       ?gMaskXYZ@internalWindowsSimd@aos@shdfnd@physx@@3QBIB 0000000180123e10     GuPCMContactSpherePlane.obj
 0002:00005e20       ?minus1w@?A0xd4fa7f71@aos@shdfnd@physx@@3QBMB 0000000180123e20     GuPCMContactSphereSphere.obj
 0002:00005e30       ?gMaskXYZ@internalWindowsSimd@aos@shdfnd@physx@@3QBIB 0000000180123e30     GuPCMContactSphereSphere.obj
 0002:00005e70       ?minus1w@?A0xd3a8fd63@aos@shdfnd@physx@@3QBMB 0000000180123e70     GuPCMShapeConvex.obj
 0002:00005e80       ?gMaskXYZ@internalWindowsSimd@aos@shdfnd@physx@@3QBIB 0000000180123e80     GuPCMShapeConvex.obj
 0002:00005e90       ?minus1w@?A0x94639801@aos@shdfnd@physx@@3QBMB 0000000180123e90     GuPCMTriangleContactGen.obj
 0002:00005ea0       ?gMaskXYZ@internalWindowsSimd@aos@shdfnd@physx@@3QBIB 0000000180123ea0     GuPCMTriangleContactGen.obj
 0002:00005f00       ?minus1w@?A0xc91ce5b8@aos@shdfnd@physx@@3QBMB 0000000180123f00     GuPersistentContactManifold.obj
 0002:00005f10       ?gMaskXYZ@internalWindowsSimd@aos@shdfnd@physx@@3QBIB 0000000180123f10     GuPersistentContactManifold.obj
 0002:00005f60       ?minus1w@?A0x3406759d@aos@shdfnd@physx@@3QBMB 0000000180123f60     GuSweepBoxBox.obj
 0002:00005f70       ?gMaskXYZ@internalWindowsSimd@aos@shdfnd@physx@@3QBIB 0000000180123f70     GuSweepBoxBox.obj
 0002:00005f80       ?minus1w@?A0x68c66206@aos@shdfnd@physx@@3QBMB 0000000180123f80     GuSweepBoxSphere.obj
 0002:00005f90       ?gMaskXYZ@internalWindowsSimd@aos@shdfnd@physx@@3QBIB 0000000180123f90     GuSweepBoxSphere.obj
 0002:00005fb0       ?minus1w@?A0x1b0b5f0d@aos@shdfnd@physx@@3QBMB 0000000180123fb0     GuSweepBoxTriangle_FeatureBased.obj
 0002:00005fc0       ?gMaskXYZ@internalWindowsSimd@aos@shdfnd@physx@@3QBIB 0000000180123fc0     GuSweepBoxTriangle_FeatureBased.obj
 0002:00005fd0       ?minus1w@?A0x24892a47@aos@shdfnd@physx@@3QBMB 0000000180123fd0     GuSweepBoxTriangle_SAT.obj
 0002:00005fe0       ?gMaskXYZ@internalWindowsSimd@aos@shdfnd@physx@@3QBIB 0000000180123fe0     GuSweepBoxTriangle_SAT.obj
 0002:00005ff0       ?minus1w@?A0x7638aa9a@aos@shdfnd@physx@@3QBMB 0000000180123ff0     GuSweepCapsuleBox.obj
 0002:00006000       ?gMaskXYZ@internalWindowsSimd@aos@shdfnd@physx@@3QBIB 0000000180124000     GuSweepCapsuleBox.obj
 0002:00006060       ?minus1w@?A0x3f3b11a3@aos@shdfnd@physx@@3QBMB 0000000180124060     GuSweepCapsuleTriangle.obj
 0002:00006070       ?gMaskXYZ@internalWindowsSimd@aos@shdfnd@physx@@3QBIB 0000000180124070     GuSweepCapsuleTriangle.obj
 0002:00006090       ?minus1w@?A0xd86e5337@aos@shdfnd@physx@@3QBMB 0000000180124090     GuSweepSphereTriangle.obj
 0002:000060a0       ?gMaskXYZ@internalWindowsSimd@aos@shdfnd@physx@@3QBIB 00000001801240a0     GuSweepSphereTriangle.obj
 0002:000060b0       ?minus1w@?A0xfa03dfe1@aos@shdfnd@physx@@3QBMB 00000001801240b0     GuSweepTriangleUtils.obj
 0002:000060c0       ?gMaskXYZ@internalWindowsSimd@aos@shdfnd@physx@@3QBIB 00000001801240c0     GuSweepTriangleUtils.obj
 0002:00006150       L_abs_mask                 0000000180124150     MSVCRT:svml_ssinf4_dispatch.obj
 0002:00006160       L_real_one                 0000000180124160     MSVCRT:svml_ssinf4_dispatch.obj
 0002:00006170       L_one_half                 0000000180124170     MSVCRT:svml_ssinf4_dispatch.obj
 0002:00006180       L_two_to_neg_13            0000000180124180     MSVCRT:svml_ssinf4_dispatch.obj
 0002:00006190       L_pi_over_two              0000000180124190     MSVCRT:svml_ssinf4_dispatch.obj
 0002:000061a0       L_pi_over_two2             00000001801241a0     MSVCRT:svml_ssinf4_dispatch.obj
 0002:000068d0       $unwind$??_GPxCollection@physx@@MEAAPEAXI@Z 00000001801248d0     CmCollection.obj
 0002:000068d0       $unwind$?clear@PtrTable@Cm@physx@@QEAAXAEAVPtrTableStorageManager@23@@Z 00000001801248d0     CmPtrTable.obj
 0002:000068d0       $unwind$?replaceWithLast@PtrTable@Cm@physx@@QEAAXIAEAVPtrTableStorageManager@23@@Z 00000001801248d0     CmPtrTable.obj
 0002:000068d0       $unwind$??_ERadixSort@Cm@physx@@UEAAPEAXI@Z 00000001801248d0     CmRadixSort.obj
 0002:000068d0       $unwind$??0RadixSortBuffered@Cm@physx@@QEAA@XZ 00000001801248d0     CmRadixSortBuffered.obj
 0002:000068d0       $unwind$??1RadixSortBuffered@Cm@physx@@UEAA@XZ 00000001801248d0     CmRadixSortBuffered.obj
 0002:000068d0       $unwind$?reset@RadixSortBuffered@Cm@physx@@QEAAXXZ 00000001801248d0     CmRadixSortBuffered.obj
 0002:000068d0       $unwind$??0CmModuleUpdateLoader@Cm@physx@@QEAA@PEBD@Z 00000001801248d0     CmWindowsModuleUpdateLoader.obj
 0002:000068d0       $unwind$??1CmModuleUpdateLoader@Cm@physx@@QEAA@XZ 00000001801248d0     CmWindowsModuleUpdateLoader.obj
 0002:000068d0       $unwind$??1NodeAllocator@Gu@physx@@QEAA@XZ 00000001801248d0     GuAABBTreeBuild.obj
 0002:000068d0       $unwind$??1BV4Tree@Gu@physx@@QEAA@XZ 00000001801248d0     GuBV4.obj
 0002:000068d0       $unwind$??_GBVHStructure@Gu@physx@@UEAAPEAXI@Z 00000001801248d0     GuBVHStructure.obj
 0002:000068d0       $unwind$??_GPxBVHStructure@physx@@MEAAPEAXI@Z 00000001801248d0     GuBVHStructure.obj
 0002:000068d0       $unwind$??_GRefCountable@Cm@physx@@UEAAPEAXI@Z 00000001801248d0     GuBVHStructure.obj
 0002:000068d0       $unwind$?isKindOf@PxBVHStructure@physx@@MEBA_NPEBD@Z 00000001801248d0     GuBVHStructure.obj
 0002:000068d0       $unwind$?release@BVHStructure@Gu@physx@@UEAAXXZ 00000001801248d0     GuBVHStructure.obj
 0002:000068d0       $unwind$??_GPxBase@physx@@MEAAPEAXI@Z 00000001801248d0     GuBounds.obj
 0002:000068d0       $unwind$?getTriangleNormal@HeightField@Gu@physx@@UEBA?AVPxVec3@3@I@Z 00000001801248d0     GuBounds.obj
 0002:000068d0       $unwind$?isKindOf@PxConvexMesh@physx@@MEBA_NPEBD@Z 00000001801248d0     GuBounds.obj
 0002:000068d0       $unwind$?isKindOf@PxHeightField@physx@@MEBA_NPEBD@Z 00000001801248d0     GuBounds.obj
 0002:000068d0       $unwind$??_GAccumCallback@?A0x58bf8b61@Gu@physx@@UEAAPEAXI@Z 00000001801248d0     GuCCDSweepConvexMesh.obj
 0002:000068d0       $unwind$??_GCB@?1??SweepEstimateAnyShapeMesh@Gu@physx@@YAMAEBUCCDShape@23@0AEBVPxTransform@3@111MM@Z@UEAAPEAXI@Z 00000001801248d0     GuCCDSweepConvexMesh.obj
 0002:000068d0       $unwind$??_GEntityReportContainerCallback@?A0x58bf8b61@Gu@physx@@UEAAPEAXI@Z 00000001801248d0     GuCCDSweepConvexMesh.obj
 0002:000068d0       $unwind$??_G?$RelativeConvex@VCapsuleV@Gu@physx@@@Gu@physx@@UEAAPEAXI@Z 00000001801248d0     GuCCDSweepPrimitives.obj
 0002:000068d0       $unwind$??_G?$RelativeConvex@VTriangleV@Gu@physx@@@Gu@physx@@UEAAPEAXI@Z 00000001801248d0     GuCCDSweepPrimitives.obj
 0002:000068d0       $unwind$??_G?$EntityReport@I@Gu@physx@@UEAAPEAXI@Z 00000001801248d0     GuCCTSweepTests.obj
 0002:000068d0       $unwind$??_GLocalReport@?1??sweepBox_HeightFieldGeom_Precise@@YA_NAEBVPxGeometry@physx@@AEBVPxTransform@3@AEBVPxBoxGeometry@3@1AEBVBox@Gu@3@AEBVPxVec3@3@MAEAUPxSweepHit@3@V?$PxFlags@W4Enum@PxHitFlag@physx@@G@3@M@Z@UEAAPEAXI@Z 00000001801248d0     GuCCTSweepTests.obj
 0002:000068d0       $unwind$??_GCapsuleHeightfieldContactGenerationCallback@?A0xd0a6ead9@@UEAAPEAXI@Z 00000001801248d0     GuContactCapsuleMesh.obj
 0002:000068d0       $unwind$??_GCapsuleMeshContactGenerationCallback_NoScale@?A0xd0a6ead9@@UEAAPEAXI@Z 00000001801248d0     GuContactCapsuleMesh.obj
 0002:000068d0       $unwind$??_GCapsuleMeshContactGenerationCallback_Scale@?A0xd0a6ead9@@UEAAPEAXI@Z 00000001801248d0     GuContactCapsuleMesh.obj
 0002:000068d0       $unwind$??_GConvexMeshContactGenerationCallback@@UEAAPEAXI@Z 00000001801248d0     GuContactConvexMesh.obj
 0002:000068d0       $unwind$??_GConvexVsHeightfieldContactGenerationCallback@?A0xae1ce05b@@UEAAPEAXI@Z 00000001801248d0     GuContactConvexMesh.obj
 0002:000068d0       $unwind$??_GSphereHeightfieldContactGenerationCallback@?A0x54a6cc4f@@UEAAPEAXI@Z 00000001801248d0     GuContactSphereMesh.obj
 0002:000068d0       $unwind$??1ConvexMesh@Gu@physx@@UEAA@XZ 00000001801248d0     GuConvexMesh.obj
 0002:000068d0       $unwind$??_EPxConvexMesh@physx@@MEAAPEAXI@Z 00000001801248d0     GuConvexMesh.obj
 0002:000068d0       $unwind$?createObject@ConvexMesh@Gu@physx@@SAPEAV123@AEAPEAEAEAVPxDeserializationContext@3@@Z 00000001801248d0     GuConvexMesh.obj
 0002:000068d0       $unwind$?release@ConvexMesh@Gu@physx@@UEAAXXZ 00000001801248d0     GuConvexMesh.obj
 0002:000068d0       $unwind$?isFinite@PxQuat@physx@@QEBA_NXZ 00000001801248d0     GuGeometryQuery.obj
 0002:000068d0       $unwind$?isFinite@PxVec3@physx@@QEBA_NXZ 00000001801248d0     GuGeometryQuery.obj
 0002:000068d0       $unwind$?isUnit@PxQuat@physx@@QEBA_NXZ 00000001801248d0     GuGeometryQuery.obj
 0002:000068d0       $unwind$?isValid@PxGeometryQuery@physx@@SA_NAEBVPxGeometry@2@@Z 00000001801248d0     GuGeometryQuery.obj
 0002:000068d0       $unwind$?isValid@PxTransform@physx@@QEBA_NXZ 00000001801248d0     GuGeometryQuery.obj
 0002:000068d0       $unwind$??0GeometryUnion@Gu@physx@@QEAA@AEBVPxGeometry@2@@Z 00000001801248d0     GuGeometryUnion.obj
 0002:000068d0       $unwind$??1HeightField@Gu@physx@@UEAA@XZ 00000001801248d0     GuHeightField.obj
 0002:000068d0       $unwind$??_EPxHeightField@physx@@MEAAPEAXI@Z 00000001801248d0     GuHeightField.obj
 0002:000068d0       $unwind$?release@HeightField@Gu@physx@@UEAAXXZ 00000001801248d0     GuHeightField.obj
 0002:000068d0       $unwind$?releaseMemory@HeightField@Gu@physx@@QEAAXXZ 00000001801248d0     GuHeightField.obj
 0002:000068d0       $unwind$?saveCells@HeightField@Gu@physx@@UEBAIPEAXI@Z 00000001801248d0     GuHeightField.obj
 0002:000068d0       $unwind$??4MultiplePersistentContactManifold@Gu@physx@@QEAAAEAV012@AEBV012@@Z 00000001801248d0     GuMTD.obj
 0002:000068d0       $unwind$??_G?$LocalConvex@VCapsuleV@Gu@physx@@@Gu@physx@@UEAAPEAXI@Z 00000001801248d0     GuMTD.obj
 0002:000068d0       $unwind$??_G?$LocalConvex@VConvexHullV@Gu@physx@@@Gu@physx@@UEAAPEAXI@Z 00000001801248d0     GuMTD.obj
 0002:000068d0       $unwind$??_G?$SupportLocalImpl@VBoxV@Gu@physx@@@Gu@physx@@UEAAPEAXI@Z 00000001801248d0     GuMTD.obj
 0002:000068d0       $unwind$??_G?$SupportLocalImpl@VConvexHullNoScaleV@Gu@physx@@@Gu@physx@@UEAAPEAXI@Z 00000001801248d0     GuMTD.obj
 0002:000068d0       $unwind$??_G?$SupportLocalImpl@VConvexHullV@Gu@physx@@@Gu@physx@@UEAAPEAXI@Z 00000001801248d0     GuMTD.obj
 0002:000068d0       $unwind$??_GGjkConvexBase@Gu@physx@@UEAAPEAXI@Z 00000001801248d0     GuMTD.obj
 0002:000068d0       $unwind$??_GSupportLocal@Gu@physx@@UEAAPEAXI@Z 00000001801248d0     GuMTD.obj
 0002:000068d0       $unwind$?release@GuMeshFactory@physx@@QEAAXXZ 00000001801248d0     GuMeshFactory.obj
 0002:000068d0       $unwind$??_GHfTrianglesEntityReport2@?A0x53027822@@UEAAPEAXI@Z 00000001801248d0     GuMeshQuery.obj
 0002:000068d0       $unwind$??_G?$IntersectBoxVsMeshCallback@$00@?A0xa8ceae12@@UEAAPEAXI@Z 00000001801248d0     GuMidphaseRTree.obj
 0002:000068d0       $unwind$??_G?$IntersectBoxVsMeshCallback@$0A@@?A0xa8ceae12@@UEAAPEAXI@Z 00000001801248d0     GuMidphaseRTree.obj
 0002:000068d0       $unwind$??_G?$IntersectCapsuleVsMeshCallback@$00@?A0xa8ceae12@@UEAAPEAXI@Z 00000001801248d0     GuMidphaseRTree.obj
 0002:000068d0       $unwind$??_G?$IntersectCapsuleVsMeshCallback@$0A@@?A0xa8ceae12@@UEAAPEAXI@Z 00000001801248d0     GuMidphaseRTree.obj
 0002:000068d0       $unwind$??_G?$IntersectSphereVsMeshCallback@$00@?A0xa8ceae12@@UEAAPEAXI@Z 00000001801248d0     GuMidphaseRTree.obj
 0002:000068d0       $unwind$??_G?$IntersectSphereVsMeshCallback@$0A@@?A0xa8ceae12@@UEAAPEAXI@Z 00000001801248d0     GuMidphaseRTree.obj
 0002:000068d0       $unwind$??_GCallback@RTree@Gu@physx@@UEAAPEAXI@Z 00000001801248d0     GuMidphaseRTree.obj
 0002:000068d0       $unwind$??_GCallbackRaycast@RTree@Gu@physx@@UEAAPEAXI@Z 00000001801248d0     GuMidphaseRTree.obj
 0002:000068d0       $unwind$??_GRayMeshColliderCallback@@UEAAPEAXI@Z 00000001801248d0     GuMidphaseRTree.obj
 0002:000068d0       $unwind$??_G?$RelativeConvex@VBoxV@Gu@physx@@@Gu@physx@@UEAAPEAXI@Z 00000001801248d0     GuOverlapTests.obj
 0002:000068d0       $unwind$??_G?$RelativeConvex@VConvexHullV@Gu@physx@@@Gu@physx@@UEAAPEAXI@Z 00000001801248d0     GuOverlapTests.obj
 0002:000068d0       $unwind$??_GConvexVsMeshOverlapCallback@@UEAAPEAXI@Z 00000001801248d0     GuOverlapTestsMesh.obj
 0002:000068d0       $unwind$??_G?$LocalConvex@VConvexHullNoScaleV@Gu@physx@@@Gu@physx@@UEAAPEAXI@Z 00000001801248d0     GuPCMContactBoxConvex.obj
 0002:000068d0       $unwind$??_GPCMCapsuleVsHeightfieldContactGenerationCallback@physx@@UEAAPEAXI@Z 00000001801248d0     GuPCMContactCapsuleHeightField.obj
 0002:000068d0       $unwind$??_GPCMCapsuleVsMeshContactGenerationCallback@physx@@UEAAPEAXI@Z 00000001801248d0     GuPCMContactCapsuleMesh.obj
 0002:000068d0       $unwind$??_G?$SupportLocalImpl@VTriangleV@Gu@physx@@@Gu@physx@@UEAAPEAXI@Z 00000001801248d0     GuPCMContactConvexCommon.obj
 0002:000068d0       $unwind$??_G?$RelativeConvex@VConvexHullNoScaleV@Gu@physx@@@Gu@physx@@UEAAPEAXI@Z 00000001801248d0     GuPCMContactConvexConvex.obj
 0002:000068d0       $unwind$??_GPCMConvexVsHeightfieldContactGenerationCallback@physx@@UEAAPEAXI@Z 00000001801248d0     GuPCMContactConvexHeightField.obj
 0002:000068d0       $unwind$??_GPCMConvexVsMeshContactGenerationCallback@physx@@UEAAPEAXI@Z 00000001801248d0     GuPCMContactConvexMesh.obj
 0002:000068d0       $unwind$?addBatchManifoldContacts2@PersistentContactManifold@Gu@physx@@QEAAXPEBVPersistentContact@23@I@Z 00000001801248d0     GuPersistentContactManifold.obj
 0002:000068d0       $unwind$?addBatchManifoldContacts@PersistentContactManifold@Gu@physx@@QEAAXPEBVPersistentContact@23@IM@Z 00000001801248d0     GuPersistentContactManifold.obj
 0002:000068d0       $unwind$?addBatchManifoldContactsCluster@PersistentContactManifold@Gu@physx@@QEAAXPEBVPersistentContact@23@I@Z 00000001801248d0     GuPersistentContactManifold.obj
 0002:000068d0       $unwind$?readDword@physx@@YAI_NAEAVPxInputStream@1@@Z 00000001801248d0     GuSerialize.obj
 0002:000068d0       $unwind$?readFloat@physx@@YAM_NAEAVPxInputStream@1@@Z 00000001801248d0     GuSerialize.obj
 0002:000068d0       $unwind$?readWord@physx@@YAG_NAEAVPxInputStream@1@@Z 00000001801248d0     GuSerialize.obj
 0002:000068d0       $unwind$??_G?$MeshHitCallback@UPxRaycastHit@physx@@@Gu@physx@@UEAAPEAXI@Z 00000001801248d0     GuSweepMTD.obj
 0002:000068d0       $unwind$??_GMeshMTDGenerationCallback@@UEAAPEAXI@Z 00000001801248d0     GuSweepMTD.obj
 0002:000068d0       $unwind$??_GMidPhaseQueryLocalReport@@UEAAPEAXI@Z 00000001801248d0     GuSweepMTD.obj
 0002:000068d0       $unwind$??_G?$LocalConvex@VBoxV@Gu@physx@@@Gu@physx@@UEAAPEAXI@Z 00000001801248d0     GuSweepTests.obj
 0002:000068d0       $unwind$??_G?$LocalConvex@VTriangleV@Gu@physx@@@Gu@physx@@UEAAPEAXI@Z 00000001801248d0     GuSweepTests.obj
 0002:000068d0       $unwind$??_GBoxTraceSegmentReport@@UEAAPEAXI@Z 00000001801248d0     GuSweepsHF.obj
 0002:000068d0       $unwind$??_GCapsuleTraceSegmentReport@@UEAAPEAXI@Z 00000001801248d0     GuSweepsHF.obj
 0002:000068d0       $unwind$??_GConvexTraceSegmentReport@@UEAAPEAXI@Z 00000001801248d0     GuSweepsHF.obj
 0002:000068d0       $unwind$??_GHeightFieldTraceSegmentReport@@UEAAPEAXI@Z 00000001801248d0     GuSweepsHF.obj
 0002:000068d0       $unwind$??_GSweepBoxMeshHitCallback@Gu@physx@@UEAAPEAXI@Z 00000001801248d0     GuSweepsMesh.obj
 0002:000068d0       $unwind$??_GSweepCapsuleMeshHitCallback@Gu@physx@@UEAAPEAXI@Z 00000001801248d0     GuSweepsMesh.obj
 0002:000068d0       $unwind$??_GSweepConvexMeshHitCallback@Gu@physx@@UEAAPEAXI@Z 00000001801248d0     GuSweepsMesh.obj
 0002:000068d0       $unwind$??_GSweepShapeMeshHitCallback@Gu@physx@@UEAAPEAXI@Z 00000001801248d0     GuSweepsMesh.obj
 0002:000068d0       $unwind$??1TriangleMesh@Gu@physx@@UEAA@XZ 00000001801248d0     GuTriangleMesh.obj
 0002:000068d0       $unwind$??_GPxTriangleMesh@physx@@MEAAPEAXI@Z 00000001801248d0     GuTriangleMesh.obj
 0002:000068d0       $unwind$?isKindOf@PxTriangleMesh@physx@@MEBA_NPEBD@Z 00000001801248d0     GuTriangleMesh.obj
 0002:000068d0       $unwind$?release@TriangleMesh@Gu@physx@@UEAAXXZ 00000001801248d0     GuTriangleMesh.obj
 0002:000068d0       $unwind$??_G?$RefitCallback@G@physx@@UEAAPEAXI@Z 00000001801248d0     GuTriangleMeshRTree.obj
 0002:000068d0       $unwind$??_G?$RefitCallback@I@physx@@UEAAPEAXI@Z 00000001801248d0     GuTriangleMeshRTree.obj
 0002:000068d0       $unwind$??_GCallbackRefit@RTree@Gu@physx@@UEAAPEAXI@Z 00000001801248d0     GuTriangleMeshRTree.obj
 0002:000068d0       $unwind$?DloadAcquireSectionWriteAccess@@YAXXZ 00000001801248d0     Delayimp:delayhlp.obj
 0002:000068d0       $unwind$??_Gtype_info@@UEAAPEAXI@Z 00000001801248d0     MSVCRT:std_type_info_static.obj
 0002:000068d0       $unwind$__scrt_initialize_crt 00000001801248d0     MSVCRT:utility.obj
 0002:000068d0       $unwind$__scrt_initialize_onexit_tables 00000001801248d0     MSVCRT:utility.obj
 0002:000068d0       $unwind$__scrt_release_startup_lock 00000001801248d0     MSVCRT:utility.obj
 0002:000068d0       $unwind$__scrt_uninitialize_crt 00000001801248d0     MSVCRT:utility.obj
 0002:000068d8       $unwind$?PxCreateCollection@@YAPEAVPxCollection@physx@@XZ 00000001801248d8     CmCollection.obj
 0002:000068d8       $unwind$?getTransform@Box@Gu@physx@@QEBA?AVPxTransform@3@XZ 00000001801248d8     GuBounds.obj
 0002:000068d8       $unwind$?getHeightAtShapePoint@HeightFieldUtil@Gu@physx@@QEBAMMM@Z 00000001801248d8     GuCCTSweepTests.obj
 0002:000068d8       $unwind$?onRefCountZero@ConvexMesh@Gu@physx@@UEAAXXZ 00000001801248d8     GuConvexMesh.obj
 0002:000068d8       $unwind$?onRefCountZero@HeightField@Gu@physx@@UEAAXXZ 00000001801248d8     GuHeightField.obj
 0002:000068d8       $unwind$?GeomOverlapCallback_SpherePlane@@YA_NAEBVPxGeometry@physx@@AEBVPxTransform@2@01PEAUTriggerCache@Gu@2@@Z 00000001801248d8     GuOverlapTests.obj
 0002:000068e4       $unwind$?add@Collection@Cm@physx@@UEAAXAEAVPxBase@3@_K@Z 00000001801248e4     CmCollection.obj
 0002:000068f4       $unwind$?remove@Collection@Cm@physx@@UEAAXAEAVPxBase@3@@Z 00000001801248f4     CmCollection.obj
 0002:00006900       $chain$0$?remove@Collection@Cm@physx@@UEAAXAEAVPxBase@3@@Z 0000000180124900     CmCollection.obj
 0002:00006914       $chain$2$?remove@Collection@Cm@physx@@UEAAXAEAVPxBase@3@@Z 0000000180124914     CmCollection.obj
 0002:00006928       $chain$3$?remove@Collection@Cm@physx@@UEAAXAEAVPxBase@3@@Z 0000000180124928     CmCollection.obj
 0002:00006938       $unwind$?addId@Collection@Cm@physx@@UEAAXAEAVPxBase@3@_K@Z 0000000180124938     CmCollection.obj
 0002:00006944       $chain$0$?addId@Collection@Cm@physx@@UEAAXAEAVPxBase@3@_K@Z 0000000180124944     CmCollection.obj
 0002:00006958       $chain$2$?addId@Collection@Cm@physx@@UEAAXAEAVPxBase@3@_K@Z 0000000180124958     CmCollection.obj
 0002:0000696c       $chain$3$?addId@Collection@Cm@physx@@UEAAXAEAVPxBase@3@_K@Z 000000018012496c     CmCollection.obj
 0002:0000697c       $unwind$?removeId@Collection@Cm@physx@@UEAAX_K@Z 000000018012497c     CmCollection.obj
 0002:00006984       $chain$0$?removeId@Collection@Cm@physx@@UEAAX_K@Z 0000000180124984     CmCollection.obj
 0002:00006998       $chain$3$?removeId@Collection@Cm@physx@@UEAAX_K@Z 0000000180124998     CmCollection.obj
 0002:000069b0       $unwind$?find@Collection@Cm@physx@@UEBAPEAVPxBase@3@_K@Z 00000001801249b0     CmCollection.obj
 0002:000069b8       $unwind$?add@Collection@Cm@physx@@UEAAXAEAVPxCollection@3@@Z 00000001801249b8     CmCollection.obj
 0002:000069cc       $chain$5$?add@Collection@Cm@physx@@UEAAXAEAVPxCollection@3@@Z 00000001801249cc     CmCollection.obj
 0002:000069ec       $chain$6$?add@Collection@Cm@physx@@UEAAXAEAVPxCollection@3@@Z 00000001801249ec     CmCollection.obj
 0002:000069fc       $unwind$?remove@Collection@Cm@physx@@UEAAXAEAVPxCollection@3@@Z 00000001801249fc     CmCollection.obj
 0002:00006a10       $chain$3$?remove@Collection@Cm@physx@@UEAAXAEAVPxCollection@3@@Z 0000000180124a10     CmCollection.obj
 0002:00006a28       $chain$4$?remove@Collection@Cm@physx@@UEAAXAEAVPxCollection@3@@Z 0000000180124a28     CmCollection.obj
 0002:00006a38       $unwind$?getObjects@Collection@Cm@physx@@UEBAIPEAPEAVPxBase@3@II@Z 0000000180124a38     CmCollection.obj
 0002:00006a44       $unwind$?getIds@Collection@Cm@physx@@UEBAIPEA_KII@Z 0000000180124a44     CmCollection.obj
 0002:00006a44       $unwind$?onRefCountZero@BVHStructure@Gu@physx@@UEAAXXZ 0000000180124a44     GuBVHStructure.obj
 0002:00006a44       $unwind$?createBVHStructure@GuMeshFactory@physx@@IEAAPEAVPxBVHStructure@2@AEAUBVHStructureData@Gu@2@@Z 0000000180124a44     GuMeshFactory.obj
 0002:00006a44       $unwind$?createBVHStructure@GuMeshFactory@physx@@QEAAPEAVPxBVHStructure@2@AEAVPxInputStream@2@@Z 0000000180124a44     GuMeshFactory.obj
 0002:00006a44       $unwind$?createConvexMesh@GuMeshFactory@physx@@IEAAPEAVPxConvexMesh@2@AEAUConvexHullInitData@Gu@2@@Z 0000000180124a44     GuMeshFactory.obj
 0002:00006a44       $unwind$?createConvexMesh@GuMeshFactory@physx@@QEAAPEAVPxConvexMesh@2@AEAVPxInputStream@2@@Z 0000000180124a44     GuMeshFactory.obj
 0002:00006a44       $unwind$?createHeightField@GuMeshFactory@physx@@QEAAPEAVPxHeightField@2@AEAVPxInputStream@2@@Z 0000000180124a44     GuMeshFactory.obj
 0002:00006a44       $unwind$?createHeightField@GuMeshFactory@physx@@QEAAPEAVPxHeightField@2@PEAX@Z 0000000180124a44     GuMeshFactory.obj
 0002:00006a44       $unwind$?support@?$RelativeConvex@VConvexHullNoScaleV@Gu@physx@@@Gu@physx@@UEBA?AT__m128@@AEBT4@@Z 0000000180124a44     GuPCMContactConvexConvex.obj
 0002:00006a44       $unwind$?addManifoldContactsToContactBuffer@PersistentContactManifold@Gu@physx@@QEAAXAEAVContactBuffer@23@AEBT__m128@@AEBVPsTransformV@aos@shdfnd@3@1@Z 0000000180124a44     GuPersistentContactManifold.obj
 0002:00006a54       $unwind$?create@?$HashBase@V?$Pair@$$CB_KPEAVPxBase@physx@@@shdfnd@physx@@_KU?$Hash@_K@23@UGetKey@?$HashMapBase@_KPEAVPxBase@physx@@U?$Hash@_K@shdfnd@2@VNonTrackingAllocator@42@@internal@23@VNonTrackingAllocator@23@$00@internal@shdfnd@physx@@QEAAPEAV?$Pair@$$CB_KPEAVPxBase@physx@@@34@AEB_KAEA_N@Z 0000000180124a54     CmCollection.obj
 0002:00006a54       $unwind$?create@?$HashBase@V?$Pair@QEAVPxBase@physx@@_K@shdfnd@physx@@PEAVPxBase@3@U?$Hash@PEAVPxBase@physx@@@23@UGetKey@?$HashMapBase@PEAVPxBase@physx@@_KU?$Hash@PEAVPxBase@physx@@@shdfnd@2@VNonTrackingAllocator@42@@internal@23@VNonTrackingAllocator@23@$00@internal@shdfnd@physx@@QEAAPEAV?$Pair@QEAVPxBase@physx@@_K@34@AEBQEAVPxBase@4@AEA_N@Z 0000000180124a54     CmCollection.obj
 0002:00006a54       $unwind$?exportExtraData@PtrTable@Cm@physx@@QEAAXAEAVPxSerializationContext@3@@Z 0000000180124a54     CmPtrTable.obj
 0002:00006a54       $unwind$?CheckResize@RadixSortBuffered@Cm@physx@@AEAAXI@Z 0000000180124a54     CmRadixSortBuffered.obj
 0002:00006a54       $unwind$?reserveSegments@RenderOutput@Cm@physx@@QEAAPEAUPxDebugLine@3@I@Z 0000000180124a54     CmRenderOutput.obj
 0002:00006a54       $unwind$??$copy@VNamedAllocator@shdfnd@physx@@@?$Array@USlab@NodeAllocator@Gu@physx@@VNamedAllocator@shdfnd@4@@shdfnd@physx@@IEAAXAEBV012@@Z 0000000180124a54     GuAABBTreeBuild.obj
 0002:00006a54       $unwind$??1SourceMesh@Gu@physx@@QEAA@XZ 0000000180124a54     GuBV4.obj
 0002:00006a54       $unwind$??1SourceMeshBase@Gu@physx@@QEAA@XZ 0000000180124a54     GuBV4.obj
 0002:00006a54       $unwind$?exportExtraData@BV4Tree@Gu@physx@@QEAAXAEAVPxSerializationContext@3@@Z 0000000180124a54     GuBV4.obj
 0002:00006a54       $unwind$?allocate@?$Array@PEBUBVHNode@Gu@physx@@V?$InlineAllocator@$0IAA@VNamedAllocator@shdfnd@physx@@@shdfnd@3@@shdfnd@physx@@IEAAPEAPEBUBVHNode@Gu@3@I@Z 0000000180124a54     GuBVHStructure.obj
 0002:00006a54       $unwind$?resizeUninitialized@?$Array@PEBUBVHNode@Gu@physx@@V?$InlineAllocator@$0IAA@VNamedAllocator@shdfnd@physx@@@shdfnd@3@@shdfnd@physx@@QEAAXI@Z 0000000180124a54     GuBVHStructure.obj
 0002:00006a54       $unwind$??1BigConvexData@physx@@QEAA@XZ 0000000180124a54     GuBigConvexData.obj
 0002:00006a54       $unwind$?exportExtraData@BigConvexData@physx@@QEAAXAEAVPxSerializationContext@2@@Z 0000000180124a54     GuBigConvexData.obj
 0002:00006a54       $unwind$?allocate@?$Array@IV?$InlineAllocator@$0BAA@VNamedAllocator@shdfnd@physx@@@shdfnd@physx@@@shdfnd@physx@@IEAAPEAII@Z 0000000180124a54     GuCCDSweepConvexMesh.obj
 0002:00006a54       $unwind$?allocate@?$Array@IV?$InlineAllocator@$0BBAA@VNamedAllocator@shdfnd@physx@@@shdfnd@physx@@@shdfnd@physx@@IEAAPEAII@Z 0000000180124a54     GuContactConvexMesh.obj
 0002:00006a54       $unwind$??_GSphereMeshContactGenerationCallback_NoScale@?A0x54a6cc4f@@UEAAPEAXI@Z 0000000180124a54     GuContactSphereMesh.obj
 0002:00006a54       $unwind$??_GSphereMeshContactGenerationCallback_Scale@?A0x54a6cc4f@@UEAAPEAXI@Z 0000000180124a54     GuContactSphereMesh.obj
 0002:00006a54       $unwind$?exportExtraData@ConvexMesh@Gu@physx@@UEAAXAEAVPxSerializationContext@3@@Z 0000000180124a54     GuConvexMesh.obj
 0002:00006a54       $unwind$?importExtraData@ConvexMesh@Gu@physx@@QEAAXAEAVPxDeserializationContext@3@@Z 0000000180124a54     GuConvexMesh.obj
 0002:00006a54       $unwind$?deallocate@MaterialIndicesStruct@physx@@QEAAXXZ 0000000180124a54     GuGeometryUnion.obj
 0002:00006a54       $unwind$?doSupport@?$SupportLocalImpl@VConvexHullNoScaleV@Gu@physx@@@Gu@physx@@UEBA?AT__m128@@AEBT4@@Z 0000000180124a54     GuMTD.obj
 0002:00006a54       $unwind$??1GuMeshFactory@physx@@MEAA@XZ 0000000180124a54     GuMeshFactory.obj
 0002:00006a54       $unwind$??1TriangleMeshData@Gu@physx@@UEAA@XZ 0000000180124a54     GuMeshFactory.obj
 0002:00006a54       $unwind$??_GBV4TriangleData@Gu@physx@@UEAAPEAXI@Z 0000000180124a54     GuMeshFactory.obj
 0002:00006a54       $unwind$??_GMeshDataBase@Gu@physx@@UEAAPEAXI@Z 0000000180124a54     GuMeshFactory.obj
 0002:00006a54       $unwind$??_GTriangleMeshData@Gu@physx@@UEAAPEAXI@Z 0000000180124a54     GuMeshFactory.obj
 0002:00006a54       $unwind$?create@?$HashBase@PEAVBVHStructure@Gu@physx@@PEAV123@U?$Hash@PEAVBVHStructure@Gu@physx@@@shdfnd@3@UGetKey@?$HashSetBase@PEAVBVHStructure@Gu@physx@@U?$Hash@PEAVBVHStructure@Gu@physx@@@shdfnd@3@VNonTrackingAllocator@53@$00@internal@53@VNonTrackingAllocator@53@$00@internal@shdfnd@physx@@QEAAPEAPEAVBVHStructure@Gu@4@AEBQEAV564@AEA_N@Z 0000000180124a54     GuMeshFactory.obj
 0002:00006a54       $unwind$?create@?$HashBase@PEAVConvexMesh@Gu@physx@@PEAV123@U?$Hash@PEAVConvexMesh@Gu@physx@@@shdfnd@3@UGetKey@?$HashSetBase@PEAVConvexMesh@Gu@physx@@U?$Hash@PEAVConvexMesh@Gu@physx@@@shdfnd@3@VNonTrackingAllocator@53@$00@internal@53@VNonTrackingAllocator@53@$00@internal@shdfnd@physx@@QEAAPEAPEAVConvexMesh@Gu@4@AEBQEAV564@AEA_N@Z 0000000180124a54     GuMeshFactory.obj
 0002:00006a54       $unwind$?create@?$HashBase@PEAVHeightField@Gu@physx@@PEAV123@U?$Hash@PEAVHeightField@Gu@physx@@@shdfnd@3@UGetKey@?$HashSetBase@PEAVHeightField@Gu@physx@@U?$Hash@PEAVHeightField@Gu@physx@@@shdfnd@3@VNonTrackingAllocator@53@$00@internal@53@VNonTrackingAllocator@53@$00@internal@shdfnd@physx@@QEAAPEAPEAVHeightField@Gu@4@AEBQEAV564@AEA_N@Z 0000000180124a54     GuMeshFactory.obj
 0002:00006a54       $unwind$?create@?$HashBase@PEAVTriangleMesh@Gu@physx@@PEAV123@U?$Hash@PEAVTriangleMesh@Gu@physx@@@shdfnd@3@UGetKey@?$HashSetBase@PEAVTriangleMesh@Gu@physx@@U?$Hash@PEAVTriangleMesh@Gu@physx@@@shdfnd@3@VNonTrackingAllocator@53@$00@internal@53@VNonTrackingAllocator@53@$00@internal@shdfnd@physx@@QEAAPEAPEAVTriangleMesh@Gu@4@AEBQEAV564@AEA_N@Z 0000000180124a54     GuMeshFactory.obj
 0002:00006a54       $unwind$?createTriangleMesh@GuMeshFactory@physx@@QEAAPEAVPxTriangleMesh@2@AEAVPxInputStream@2@@Z 0000000180124a54     GuMeshFactory.obj
 0002:00006a54       $unwind$?getNbBVHStructures@GuMeshFactory@physx@@QEBAIXZ 0000000180124a54     GuMeshFactory.obj
 0002:00006a54       $unwind$?getNbConvexMeshes@GuMeshFactory@physx@@QEBAIXZ 0000000180124a54     GuMeshFactory.obj
 0002:00006a54       $unwind$?getNbHeightFields@GuMeshFactory@physx@@QEBAIXZ 0000000180124a54     GuMeshFactory.obj
 0002:00006a54       $unwind$?getNbTriangleMeshes@GuMeshFactory@physx@@QEBAIXZ 0000000180124a54     GuMeshFactory.obj
 0002:00006a54       $unwind$?removeFactoryListener@GuMeshFactory@physx@@QEAAXAEAVGuMeshFactoryListener@2@@Z 0000000180124a54     GuMeshFactory.obj
 0002:00006a54       $unwind$??_G?$RayRTreeCallback@$00$00@@UEAAPEAXI@Z 0000000180124a54     GuMidphaseRTree.obj
 0002:00006a54       $unwind$??_G?$RayRTreeCallback@$00$0A@@@UEAAPEAXI@Z 0000000180124a54     GuMidphaseRTree.obj
 0002:00006a54       $unwind$??_G?$RayRTreeCallback@$0A@$00@@UEAAPEAXI@Z 0000000180124a54     GuMidphaseRTree.obj
 0002:00006a54       $unwind$??_G?$RayRTreeCallback@$0A@$0A@@@UEAAPEAXI@Z 0000000180124a54     GuMidphaseRTree.obj
 0002:00006a54       $unwind$?support@?$LocalConvex@VConvexHullNoScaleV@Gu@physx@@@Gu@physx@@UEBA?AT__m128@@AEBT4@@Z 0000000180124a54     GuPCMContactBoxConvex.obj
 0002:00006a54       $unwind$?allocate@?$Array@USortedTriangle@Gu@physx@@V?$InlineAllocator@$0IAA@VNamedAllocator@shdfnd@physx@@@shdfnd@3@@shdfnd@physx@@IEAAPEAUSortedTriangle@Gu@3@I@Z 0000000180124a54     GuPCMContactConvexCommon.obj
 0002:00006a54       $unwind$??1PCMSphereVsHeightfieldContactGenerationCallback@physx@@UEAA@XZ 0000000180124a54     GuPCMContactSphereHeightField.obj
 0002:00006a54       $unwind$??_GPCMSphereVsHeightfieldContactGenerationCallback@physx@@UEAAPEAXI@Z 0000000180124a54     GuPCMContactSphereHeightField.obj
 0002:00006a54       $unwind$??1PCMSphereVsMeshContactGenerationCallback@physx@@UEAA@XZ 0000000180124a54     GuPCMContactSphereMesh.obj
 0002:00006a54       $unwind$??_GPCMSphereVsMeshContactGenerationCallback@physx@@UEAAPEAXI@Z 0000000180124a54     GuPCMContactSphereMesh.obj
 0002:00006a54       $unwind$?exportExtraData@RTree@Gu@physx@@QEAAXAEAVPxSerializationContext@3@@Z 0000000180124a54     GuRTree.obj
 0002:00006a54       $unwind$??_GTriangleMesh@Gu@physx@@UEAAPEAXI@Z 0000000180124a54     GuTriangleMesh.obj
 0002:00006a54       $unwind$??_GBV4TriangleMesh@Gu@physx@@UEAAPEAXI@Z 0000000180124a54     GuTriangleMeshBV4.obj
 0002:00006a54       $unwind$?exportExtraData@BV4TriangleMesh@Gu@physx@@UEAAXAEAVPxSerializationContext@3@@Z 0000000180124a54     GuTriangleMeshBV4.obj
 0002:00006a54       $unwind$??0RTreeTriangleMesh@Gu@physx@@QEAA@AEAVGuMeshFactory@2@AEAVTriangleMeshData@12@@Z 0000000180124a54     GuTriangleMeshRTree.obj
 0002:00006a54       $unwind$?exportExtraData@RTreeTriangleMesh@Gu@physx@@UEAAXAEAVPxSerializationContext@3@@Z 0000000180124a54     GuTriangleMeshRTree.obj
 0002:00006a54       $unwind$?DloadGetSRWLockFunctionPointers@@YAEXZ 0000000180124a54     Delayimp:delayhlp.obj
 0002:00006a54       $unwind$_RTC_Initialize    0000000180124a54     MSVCRT:initsect.obj
 0002:00006a54       $unwind$_RTC_Terminate     0000000180124a54     MSVCRT:initsect.obj
 0002:00006a60       $unwind$?erase@?$HashBase@V?$Pair@$$CB_KPEAVPxBase@physx@@@shdfnd@physx@@_KU?$Hash@_K@23@UGetKey@?$HashMapBase@_KPEAVPxBase@physx@@U?$Hash@_K@shdfnd@2@VNonTrackingAllocator@42@@internal@23@VNonTrackingAllocator@23@$00@internal@shdfnd@physx@@QEAA_NAEB_K@Z 0000000180124a60     CmCollection.obj
 0002:00006a60       $unwind$?erase@?$HashBase@V?$Pair@QEAVPxBase@physx@@_K@shdfnd@physx@@PEAVPxBase@3@U?$Hash@PEAVPxBase@physx@@@23@UGetKey@?$HashMapBase@PEAVPxBase@physx@@_KU?$Hash@PEAVPxBase@physx@@@shdfnd@2@VNonTrackingAllocator@42@@internal@23@VNonTrackingAllocator@23@$00@internal@shdfnd@physx@@QEAA_NAEBQEAVPxBase@4@@Z 0000000180124a60     CmCollection.obj
 0002:00006a6c       $unwind$?reserveInternal@?$HashBase@V?$Pair@$$CB_KPEAVPxBase@physx@@@shdfnd@physx@@_KU?$Hash@_K@23@UGetKey@?$HashMapBase@_KPEAVPxBase@physx@@U?$Hash@_K@shdfnd@2@VNonTrackingAllocator@42@@internal@23@VNonTrackingAllocator@23@$00@internal@shdfnd@physx@@AEAAXI@Z 0000000180124a6c     CmCollection.obj
 0002:00006a6c       $unwind$?reserveInternal@?$HashBase@V?$Pair@QEAVPxBase@physx@@_K@shdfnd@physx@@PEAVPxBase@3@U?$Hash@PEAVPxBase@physx@@@23@UGetKey@?$HashMapBase@PEAVPxBase@physx@@_KU?$Hash@PEAVPxBase@physx@@@shdfnd@2@VNonTrackingAllocator@42@@internal@23@VNonTrackingAllocator@23@$00@internal@shdfnd@physx@@AEAAXI@Z 0000000180124a6c     CmCollection.obj
 0002:00006a6c       $unwind$?reserveInternal@?$HashBase@PEAVBVHStructure@Gu@physx@@PEAV123@U?$Hash@PEAVBVHStructure@Gu@physx@@@shdfnd@3@UGetKey@?$HashSetBase@PEAVBVHStructure@Gu@physx@@U?$Hash@PEAVBVHStructure@Gu@physx@@@shdfnd@3@VNonTrackingAllocator@53@$00@internal@53@VNonTrackingAllocator@53@$00@internal@shdfnd@physx@@AEAAXI@Z 0000000180124a6c     GuMeshFactory.obj
 0002:00006a6c       $unwind$?reserveInternal@?$HashBase@PEAVConvexMesh@Gu@physx@@PEAV123@U?$Hash@PEAVConvexMesh@Gu@physx@@@shdfnd@3@UGetKey@?$HashSetBase@PEAVConvexMesh@Gu@physx@@U?$Hash@PEAVConvexMesh@Gu@physx@@@shdfnd@3@VNonTrackingAllocator@53@$00@internal@53@VNonTrackingAllocator@53@$00@internal@shdfnd@physx@@AEAAXI@Z 0000000180124a6c     GuMeshFactory.obj
 0002:00006a6c       $unwind$?reserveInternal@?$HashBase@PEAVHeightField@Gu@physx@@PEAV123@U?$Hash@PEAVHeightField@Gu@physx@@@shdfnd@3@UGetKey@?$HashSetBase@PEAVHeightField@Gu@physx@@U?$Hash@PEAVHeightField@Gu@physx@@@shdfnd@3@VNonTrackingAllocator@53@$00@internal@53@VNonTrackingAllocator@53@$00@internal@shdfnd@physx@@AEAAXI@Z 0000000180124a6c     GuMeshFactory.obj
 0002:00006a6c       $unwind$?reserveInternal@?$HashBase@PEAVTriangleMesh@Gu@physx@@PEAV123@U?$Hash@PEAVTriangleMesh@Gu@physx@@@shdfnd@3@UGetKey@?$HashSetBase@PEAVTriangleMesh@Gu@physx@@U?$Hash@PEAVTriangleMesh@Gu@physx@@@shdfnd@3@VNonTrackingAllocator@53@$00@internal@53@VNonTrackingAllocator@53@$00@internal@shdfnd@physx@@AEAAXI@Z 0000000180124a6c     GuMeshFactory.obj
 0002:00006a88       $unwind$?insert@?$HashMapBase@_KPEAVPxBase@physx@@U?$Hash@_K@shdfnd@2@VNonTrackingAllocator@42@@internal@shdfnd@physx@@QEAA_N_KQEAVPxBase@4@@Z 0000000180124a88     CmCollection.obj
 0002:00006a94       $unwind$??_GCollection@Cm@physx@@UEAAPEAXI@Z 0000000180124a94     CmCollection.obj
 0002:00006a94       $unwind$??1AABBTreeBuildParams@Gu@physx@@QEAA@XZ 0000000180124a94     GuAABBTreeBuild.obj
 0002:00006a94       $unwind$?reset@AABBTreeBuildParams@Gu@physx@@QEAAXXZ 0000000180124a94     GuAABBTreeBuild.obj
 0002:00006a94       $unwind$?resize@?$Array@USlab@NodeAllocator@Gu@physx@@VNamedAllocator@shdfnd@4@@shdfnd@physx@@QEAAXIAEBUSlab@NodeAllocator@Gu@3@@Z 0000000180124a94     GuAABBTreeBuild.obj
 0002:00006a94       $unwind$?_CheckMD@Local@?5??BuildBV32Internal@@YA_NAEAVBV32Tree@Gu@physx@@AEBVAABBTree@45@PEAVSourceMesh@45@M@Z@SAXPEBVAABBTreeNode@45@AEAI4@Z 0000000180124a94     GuBV32Build.obj
 0002:00006a94       $unwind$?_CheckMD@Local@?4??BuildBV4Internal@@YA_NAEAVBV4Tree@Gu@physx@@AEBVAABBTree@45@PEAVSourceMesh@45@M_N@Z@SAXPEBVAABBTreeNode@45@AEAI5@Z 0000000180124a94     GuBV4Build.obj
 0002:00006a94       $unwind$?release@AABBTree@Gu@physx@@QEAAXXZ 0000000180124a94     GuBV4Build.obj
 0002:00006a94       $unwind$?recreate@?$Array@PEBUBVHNode@Gu@physx@@V?$InlineAllocator@$0IAA@VNamedAllocator@shdfnd@physx@@@shdfnd@3@@shdfnd@physx@@IEAAXI@Z 0000000180124a94     GuBVHStructure.obj
 0002:00006a94       $unwind$?recreate@?$Array@IV?$InlineAllocator@$0BAA@VNamedAllocator@shdfnd@physx@@@shdfnd@physx@@@shdfnd@physx@@IEAAXI@Z 0000000180124a94     GuCCDSweepConvexMesh.obj
 0002:00006a94       $unwind$?recreate@?$Array@IV?$InlineAllocator@$0BBAA@VNamedAllocator@shdfnd@physx@@@shdfnd@physx@@@shdfnd@physx@@IEAAXI@Z 0000000180124a94     GuContactConvexMesh.obj
 0002:00006a94       $unwind$?exportExtraData@HeightField@Gu@physx@@UEAAXAEAVPxSerializationContext@3@@Z 0000000180124a94     GuHeightField.obj
 0002:00006a94       $unwind$??1MeshDataBase@Gu@physx@@UEAA@XZ 0000000180124a94     GuMeshFactory.obj
 0002:00006a94       $unwind$?support@?$LocalConvex@VConvexHullNoScaleV@Gu@physx@@@Gu@physx@@UEBA?AT__m128@@AEBT4@AEAH@Z 0000000180124a94     GuPCMContactBoxConvex.obj
 0002:00006a94       $unwind$?readFloatBuffer@physx@@YA_NPEAMI_NAEAVPxInputStream@1@@Z 0000000180124a94     GuSerialize.obj
 0002:00006a94       $unwind$?readWordBuffer@physx@@YAXPEAGI_NAEAVPxInputStream@1@@Z 0000000180124a94     GuSerialize.obj
 0002:00006a94       $unwind$?writeFloatBuffer@physx@@YAXPEBMI_NAEAVPxOutputStream@1@@Z 0000000180124a94     GuSerialize.obj
 0002:00006a94       $unwind$?writeWordBuffer@physx@@YAXPEBGI_NAEAVPxOutputStream@1@@Z 0000000180124a94     GuSerialize.obj
 0002:00006a94       $unwind$?createObject@RTreeTriangleMesh@Gu@physx@@SAPEAVTriangleMesh@23@AEAPEAEAEAVPxDeserializationContext@3@@Z 0000000180124a94     GuTriangleMeshRTree.obj
 0002:00006a94       $unwind$_DllMainCRTStartup 0000000180124a94     MSVCRT:dll_dllmain.obj
 0002:00006aa4       $unwind$?add@PtrTable@Cm@physx@@QEAAXPEAXAEAVPtrTableStorageManager@23@@Z 0000000180124aa4     CmPtrTable.obj
 0002:00006aa4       $unwind$?releaseNodes@BV4BuildParams@@QEAAXXZ 0000000180124aa4     GuBV4Build.obj
 0002:00006aa4       $unwind$?exportExtraData@TriangleMesh@Gu@physx@@UEAAXAEAVPxSerializationContext@3@@Z 0000000180124aa4     GuTriangleMesh.obj
 0002:00006ab0       $chain$0$?add@PtrTable@Cm@physx@@QEAAXPEAXAEAVPtrTableStorageManager@23@@Z 0000000180124ab0     CmPtrTable.obj
 0002:00006ac4       $chain$1$?add@PtrTable@Cm@physx@@QEAAXPEAXAEAVPtrTableStorageManager@23@@Z 0000000180124ac4     CmPtrTable.obj
 0002:00006ad4       $chain$1$?replaceWithLast@PtrTable@Cm@physx@@QEAAXIAEAVPtrTableStorageManager@23@@Z 0000000180124ad4     CmPtrTable.obj
 0002:00006aec       $chain$2$?replaceWithLast@PtrTable@Cm@physx@@QEAAXIAEAVPtrTableStorageManager@23@@Z 0000000180124aec     CmPtrTable.obj
 0002:00006afc       $unwind$?getBinaryMetaData@PtrTable@Cm@physx@@SAXAEAVPxOutputStream@3@@Z 0000000180124afc     CmPtrTable.obj
 0002:00006afc       $unwind$?getBinaryMetaData@BV4Tree@Gu@physx@@SAXAEAVPxOutputStream@3@@Z 0000000180124afc     GuMetaData.obj
 0002:00006afc       $unwind$?getBinaryMetaData@BigConvexData@physx@@SAXAEAVPxOutputStream@2@@Z 0000000180124afc     GuMetaData.obj
 0002:00006afc       $unwind$?getBinaryMetaData@ShadowConvexMeshGeometry@?1??0GeometryUnion@Gu@physx@@SAXAEAVPxOutputStream@4@@Z@SAX0@Z 0000000180124afc     GuMetaData.obj
 0002:00006afc       $unwind$?getBinaryMetaData@ShadowTriangleMeshGeometry@?1??0GeometryUnion@Gu@physx@@SAXAEAVPxOutputStream@4@@Z@SAX0@Z 0000000180124afc     GuMetaData.obj
 0002:00006afc       $unwind$?getBinaryMetaData_BigConvexRawData@@YAXAEAVPxOutputStream@physx@@@Z 0000000180124afc     GuMetaData.obj
 0002:00006b14       $unwind$?realloc@PtrTable@Cm@physx@@AEAAXIIAEAVPtrTableStorageManager@23@@Z 0000000180124b14     CmPtrTable.obj
 0002:00006b14       $unwind$?resize@?$Array@IV?$InlineAllocator@$0BAA@VNamedAllocator@shdfnd@physx@@@shdfnd@physx@@@shdfnd@physx@@QEAAXIAEBI@Z 0000000180124b14     GuCCDSweepConvexMesh.obj
 0002:00006b14       $unwind$?resize@?$Array@IVNamedAllocator@shdfnd@physx@@@shdfnd@physx@@QEAAXIAEBI@Z 0000000180124b14     GuCCDSweepConvexMesh.obj
 0002:00006b14       $unwind$?getBVHStructures@GuMeshFactory@physx@@QEBAIPEAPEAVPxBVHStructure@2@II@Z 0000000180124b14     GuMeshFactory.obj
 0002:00006b14       $unwind$?getConvexMeshes@GuMeshFactory@physx@@QEBAIPEAPEAVPxConvexMesh@2@II@Z 0000000180124b14     GuMeshFactory.obj
 0002:00006b14       $unwind$?getHeightFields@GuMeshFactory@physx@@QEBAIPEAPEAVPxHeightField@2@II@Z 0000000180124b14     GuMeshFactory.obj
 0002:00006b14       $unwind$?getTriangleMeshes@GuMeshFactory@physx@@QEBAIPEAPEAVPxTriangleMesh@2@II@Z 0000000180124b14     GuMeshFactory.obj
 0002:00006b14       $unwind$?growAndPushBack@?$Array@USortedTriangle@Gu@physx@@V?$InlineAllocator@$0IAA@VNamedAllocator@shdfnd@physx@@@shdfnd@3@@shdfnd@physx@@IEAAAEAUSortedTriangle@Gu@3@AEBU453@@Z 0000000180124b14     GuPCMContactConvexCommon.obj
 0002:00006b14       $unwind$?readChunk@physx@@YAXAEAC000AEAVPxInputStream@1@@Z 0000000180124b14     GuSerialize.obj
 0002:00006b14       $unwind$?testVertexIndex@?$OverlapTraceSegment@VBoxTraceSegmentReport@@@HeightFieldTraceUtil@Gu@physx@@QEAA_NI@Z 0000000180124b14     GuSweepsHF.obj
 0002:00006b14       $unwind$?testVertexIndex@?$OverlapTraceSegment@VCapsuleTraceSegmentReport@@@HeightFieldTraceUtil@Gu@physx@@QEAA_NI@Z 0000000180124b14     GuSweepsHF.obj
 0002:00006b14       $unwind$?testVertexIndex@?$OverlapTraceSegment@VConvexTraceSegmentReport@@@HeightFieldTraceUtil@Gu@physx@@QEAA_NI@Z 0000000180124b14     GuSweepsHF.obj
 0002:00006b14       $unwind$?createObject@BV4TriangleMesh@Gu@physx@@SAPEAVTriangleMesh@23@AEAPEAEAEAVPxDeserializationContext@3@@Z 0000000180124b14     GuTriangleMeshBV4.obj
 0002:00006b14       $unwind$__scrt_dllmain_exception_filter 0000000180124b14     MSVCRT:utility.obj
 0002:00006b28       $unwind$?Sort@RadixSort@Cm@physx@@QEAAAEAV123@PEBIIW4RadixHint@23@@Z 0000000180124b28     CmRadixSort.obj
 0002:00006b38       $chain$2$?Sort@RadixSort@Cm@physx@@QEAAAEAV123@PEBIIW4RadixHint@23@@Z 0000000180124b38     CmRadixSort.obj
 0002:00006b54       $unwind$?Sort@RadixSort@Cm@physx@@QEAAAEAV123@PEBMI@Z 0000000180124b54     CmRadixSort.obj
 0002:00006b64       $chain$4$?Sort@RadixSort@Cm@physx@@QEAAAEAV123@PEBMI@Z 0000000180124b64     CmRadixSort.obj
 0002:00006b88       $chain$5$?Sort@RadixSort@Cm@physx@@QEAAAEAV123@PEBMI@Z 0000000180124b88     CmRadixSort.obj
 0002:00006b98       $chain$6$?Sort@RadixSort@Cm@physx@@QEAAAEAV123@PEBMI@Z 0000000180124b98     CmRadixSort.obj
 0002:00006bbc       $chain$0$??_ERadixSort@Cm@physx@@UEAAPEAXI@Z 0000000180124bbc     CmRadixSort.obj
 0002:00006bd0       $chain$1$??_ERadixSort@Cm@physx@@UEAAPEAXI@Z 0000000180124bd0     CmRadixSort.obj
 0002:00006be0       $chain$0$?reset@RadixSortBuffered@Cm@physx@@QEAAXXZ 0000000180124be0     CmRadixSortBuffered.obj
 0002:00006bf4       $chain$1$?reset@RadixSortBuffered@Cm@physx@@QEAAXXZ 0000000180124bf4     CmRadixSortBuffered.obj
 0002:00006c04       $unwind$?Sort@RadixSortBuffered@Cm@physx@@QEAAAEAV123@PEBIIW4RadixHint@23@@Z 0000000180124c04     CmRadixSortBuffered.obj
 0002:00006c1c       $unwind$?Sort@RadixSortBuffered@Cm@physx@@QEAAAEAV123@PEBMI@Z 0000000180124c1c     CmRadixSortBuffered.obj
 0002:00006c30       $unwind$?Resize@RadixSortBuffered@Cm@physx@@AEAA_NI@Z 0000000180124c30     CmRadixSortBuffered.obj
 0002:00006c3c       $chain$0$?Resize@RadixSortBuffered@Cm@physx@@AEAA_NI@Z 0000000180124c3c     CmRadixSortBuffered.obj
 0002:00006c50       $chain$1$?Resize@RadixSortBuffered@Cm@physx@@AEAA_NI@Z 0000000180124c50     CmRadixSortBuffered.obj
 0002:00006c60       $unwind$??_ERadixSortBuffered@Cm@physx@@UEAAPEAXI@Z 0000000180124c60     CmRadixSortBuffered.obj
 0002:00006c6c       $chain$2$??_ERadixSortBuffered@Cm@physx@@UEAAPEAXI@Z 0000000180124c6c     CmRadixSortBuffered.obj
 0002:00006c88       $chain$3$??_ERadixSortBuffered@Cm@physx@@UEAAPEAXI@Z 0000000180124c88     CmRadixSortBuffered.obj
 0002:00006c9c       $chain$4$??_ERadixSortBuffered@Cm@physx@@UEAAPEAXI@Z 0000000180124c9c     CmRadixSortBuffered.obj
 0002:00006cac       $unwind$?growAndPushBack@?$Array@UPxDebugLine@physx@@VNamedAllocator@shdfnd@2@@shdfnd@physx@@IEAAAEAUPxDebugLine@3@AEBU43@@Z 0000000180124cac     CmRenderOutput.obj
 0002:00006cac       $unwind$?growAndPushBack@?$Array@UPxDebugPoint@physx@@VNamedAllocator@shdfnd@2@@shdfnd@physx@@IEAAAEAUPxDebugPoint@3@AEBU43@@Z 0000000180124cac     CmRenderOutput.obj
 0002:00006cac       $unwind$?growAndPushBack@?$Array@UPxDebugText@physx@@VNamedAllocator@shdfnd@2@@shdfnd@physx@@IEAAAEAUPxDebugText@3@AEBU43@@Z 0000000180124cac     CmRenderOutput.obj
 0002:00006cac       $unwind$?growAndPushBack@?$Array@UPxDebugTriangle@physx@@VNamedAllocator@shdfnd@2@@shdfnd@physx@@IEAAAEAUPxDebugTriangle@3@AEBU43@@Z 0000000180124cac     CmRenderOutput.obj
 0002:00006cac       $unwind$?growAndPushBack@?$Array@USlab@NodeAllocator@Gu@physx@@VNamedAllocator@shdfnd@4@@shdfnd@physx@@IEAAAEAUSlab@NodeAllocator@Gu@3@AEBU4563@@Z 0000000180124cac     GuAABBTreeBuild.obj
 0002:00006cac       $unwind$?growAndPushBack@?$Array@PEAVGuMeshFactoryListener@physx@@VNamedAllocator@shdfnd@2@@shdfnd@physx@@IEAAAEAPEAVGuMeshFactoryListener@3@AEBQEAV43@@Z 0000000180124cac     GuMeshFactory.obj
 0002:00006cac       $unwind$?growAndPushBack@?$Array@IVNamedAllocator@shdfnd@physx@@@shdfnd@physx@@IEAAAEAIAEBI@Z 0000000180124cac     GuSweepMTD.obj
 0002:00006cbc       $chain$0$?growAndPushBack@?$Array@UPxDebugPoint@physx@@VNamedAllocator@shdfnd@2@@shdfnd@physx@@IEAAAEAUPxDebugPoint@3@AEBU43@@Z 0000000180124cbc     CmRenderOutput.obj
 0002:00006cd0       $chain$1$?growAndPushBack@?$Array@UPxDebugPoint@physx@@VNamedAllocator@shdfnd@2@@shdfnd@physx@@IEAAAEAUPxDebugPoint@3@AEBU43@@Z 0000000180124cd0     CmRenderOutput.obj
 0002:00006ce4       $chain$2$?growAndPushBack@?$Array@UPxDebugPoint@physx@@VNamedAllocator@shdfnd@2@@shdfnd@physx@@IEAAAEAUPxDebugPoint@3@AEBU43@@Z 0000000180124ce4     CmRenderOutput.obj
 0002:00006cf4       $chain$3$?growAndPushBack@?$Array@UPxDebugPoint@physx@@VNamedAllocator@shdfnd@2@@shdfnd@physx@@IEAAAEAUPxDebugPoint@3@AEBU43@@Z 0000000180124cf4     CmRenderOutput.obj
 0002:00006d04       $chain$0$?growAndPushBack@?$Array@UPxDebugLine@physx@@VNamedAllocator@shdfnd@2@@shdfnd@physx@@IEAAAEAUPxDebugLine@3@AEBU43@@Z 0000000180124d04     CmRenderOutput.obj
 0002:00006d18       $chain$1$?growAndPushBack@?$Array@UPxDebugLine@physx@@VNamedAllocator@shdfnd@2@@shdfnd@physx@@IEAAAEAUPxDebugLine@3@AEBU43@@Z 0000000180124d18     CmRenderOutput.obj
 0002:00006d2c       $chain$2$?growAndPushBack@?$Array@UPxDebugLine@physx@@VNamedAllocator@shdfnd@2@@shdfnd@physx@@IEAAAEAUPxDebugLine@3@AEBU43@@Z 0000000180124d2c     CmRenderOutput.obj
 0002:00006d3c       $chain$3$?growAndPushBack@?$Array@UPxDebugLine@physx@@VNamedAllocator@shdfnd@2@@shdfnd@physx@@IEAAAEAUPxDebugLine@3@AEBU43@@Z 0000000180124d3c     CmRenderOutput.obj
 0002:00006d4c       $unwind$?recreate@?$Array@DVNamedAllocator@shdfnd@physx@@@shdfnd@physx@@IEAAXI@Z 0000000180124d4c     CmRenderOutput.obj
 0002:00006d4c       $unwind$?recreate@?$Array@UPxDebugLine@physx@@VNamedAllocator@shdfnd@2@@shdfnd@physx@@IEAAXI@Z 0000000180124d4c     CmRenderOutput.obj
 0002:00006d4c       $unwind$??0NodeAllocator@Gu@physx@@QEAA@AEBV012@@Z 0000000180124d4c     GuAABBTreeBuild.obj
 0002:00006d4c       $unwind$??0NodeAllocator@Gu@physx@@QEAA@XZ 0000000180124d4c     GuAABBTreeBuild.obj
 0002:00006d4c       $unwind$?readIndices@physx@@YAXIIPEAIAEAVPxInputStream@1@_N@Z 0000000180124d4c     GuSerialize.obj
 0002:00006d4c       $unwind$?storeIndices@physx@@YAXIIPEBIAEAVPxOutputStream@1@_N@Z 0000000180124d4c     GuSerialize.obj
 0002:00006d4c       $unwind$?recreate@?$Array@IVNamedAllocator@shdfnd@physx@@@shdfnd@physx@@IEAAXI@Z 0000000180124d4c     GuSweepMTD.obj
 0002:00006d5c       $chain$0$?recreate@?$Array@UPxDebugLine@physx@@VNamedAllocator@shdfnd@2@@shdfnd@physx@@IEAAXI@Z 0000000180124d5c     CmRenderOutput.obj
 0002:00006d70       $chain$1$?recreate@?$Array@UPxDebugLine@physx@@VNamedAllocator@shdfnd@2@@shdfnd@physx@@IEAAXI@Z 0000000180124d70     CmRenderOutput.obj
 0002:00006d80       $chain$0$?growAndPushBack@?$Array@UPxDebugTriangle@physx@@VNamedAllocator@shdfnd@2@@shdfnd@physx@@IEAAAEAUPxDebugTriangle@3@AEBU43@@Z 0000000180124d80     CmRenderOutput.obj
 0002:00006d94       $chain$1$?growAndPushBack@?$Array@UPxDebugTriangle@physx@@VNamedAllocator@shdfnd@2@@shdfnd@physx@@IEAAAEAUPxDebugTriangle@3@AEBU43@@Z 0000000180124d94     CmRenderOutput.obj
 0002:00006da8       $chain$2$?growAndPushBack@?$Array@UPxDebugTriangle@physx@@VNamedAllocator@shdfnd@2@@shdfnd@physx@@IEAAAEAUPxDebugTriangle@3@AEBU43@@Z 0000000180124da8     CmRenderOutput.obj
 0002:00006db8       $chain$3$?growAndPushBack@?$Array@UPxDebugTriangle@physx@@VNamedAllocator@shdfnd@2@@shdfnd@physx@@IEAAAEAUPxDebugTriangle@3@AEBU43@@Z 0000000180124db8     CmRenderOutput.obj
 0002:00006dc8       $chain$0$?growAndPushBack@?$Array@UPxDebugText@physx@@VNamedAllocator@shdfnd@2@@shdfnd@physx@@IEAAAEAUPxDebugText@3@AEBU43@@Z 0000000180124dc8     CmRenderOutput.obj
 0002:00006ddc       $chain$1$?growAndPushBack@?$Array@UPxDebugText@physx@@VNamedAllocator@shdfnd@2@@shdfnd@physx@@IEAAAEAUPxDebugText@3@AEBU43@@Z 0000000180124ddc     CmRenderOutput.obj
 0002:00006df0       $chain$2$?growAndPushBack@?$Array@UPxDebugText@physx@@VNamedAllocator@shdfnd@2@@shdfnd@physx@@IEAAAEAUPxDebugText@3@AEBU43@@Z 0000000180124df0     CmRenderOutput.obj
 0002:00006e00       $chain$3$?growAndPushBack@?$Array@UPxDebugText@physx@@VNamedAllocator@shdfnd@2@@shdfnd@physx@@IEAAAEAUPxDebugText@3@AEBU43@@Z 0000000180124e00     CmRenderOutput.obj
 0002:00006e10       $unwind$?growAndPushBack@?$Array@DVNamedAllocator@shdfnd@physx@@@shdfnd@physx@@IEAAAEADAEBD@Z 0000000180124e10     CmRenderOutput.obj
 0002:00006e20       $chain$0$?growAndPushBack@?$Array@DVNamedAllocator@shdfnd@physx@@@shdfnd@physx@@IEAAAEADAEBD@Z 0000000180124e20     CmRenderOutput.obj
 0002:00006e34       $chain$1$?growAndPushBack@?$Array@DVNamedAllocator@shdfnd@physx@@@shdfnd@physx@@IEAAAEADAEBD@Z 0000000180124e34     CmRenderOutput.obj
 0002:00006e48       $chain$2$?growAndPushBack@?$Array@DVNamedAllocator@shdfnd@physx@@@shdfnd@physx@@IEAAAEADAEBD@Z 0000000180124e48     CmRenderOutput.obj
 0002:00006e58       $chain$3$?growAndPushBack@?$Array@DVNamedAllocator@shdfnd@physx@@@shdfnd@physx@@IEAAAEADAEBD@Z 0000000180124e58     CmRenderOutput.obj
 0002:00006e68       $chain$0$?recreate@?$Array@DVNamedAllocator@shdfnd@physx@@@shdfnd@physx@@IEAAXI@Z 0000000180124e68     CmRenderOutput.obj
 0002:00006e7c       $chain$1$?recreate@?$Array@DVNamedAllocator@shdfnd@physx@@@shdfnd@physx@@IEAAXI@Z 0000000180124e7c     CmRenderOutput.obj
 0002:00006e8c       $unwind$??6RenderOutput@Cm@physx@@QEAAAEAV012@AEBVPxTransform@2@@Z 0000000180124e8c     CmRenderOutput.obj
 0002:00006eb4       $unwind$??6RenderOutput@Cm@physx@@QEAAAEAV012@VPxVec3@2@@Z 0000000180124eb4     CmRenderOutput.obj
 0002:00006ef0       $unwind$??6RenderOutput@Cm@physx@@QEAAAEAV012@AEBUDebugText@12@@Z 0000000180124ef0     CmRenderOutput.obj
 0002:00006f00       $chain$0$??6RenderOutput@Cm@physx@@QEAAAEAV012@AEBUDebugText@12@@Z 0000000180124f00     CmRenderOutput.obj
 0002:00006f14       $chain$1$??6RenderOutput@Cm@physx@@QEAAAEAV012@AEBUDebugText@12@@Z 0000000180124f14     CmRenderOutput.obj
 0002:00006f28       $chain$2$??6RenderOutput@Cm@physx@@QEAAAEAV012@AEBUDebugText@12@@Z 0000000180124f28     CmRenderOutput.obj
 0002:00006f38       $chain$3$??6RenderOutput@Cm@physx@@QEAAAEAV012@AEBUDebugText@12@@Z 0000000180124f38     CmRenderOutput.obj
 0002:00006f48       $unwind$?outputSegment@RenderOutput@Cm@physx@@QEAAXAEBVPxVec3@3@0@Z 0000000180124f48     CmRenderOutput.obj
 0002:00006f60       $unwind$?outputCapsule@RenderOutput@Cm@physx@@QEAAAEAV123@MMAEBVPxMat44@3@@Z 0000000180124f60     CmRenderOutput.obj
 0002:00006f9c       $unwind$??0DebugText@Cm@physx@@QEAA@AEBVPxVec3@2@MPEBDZZ 0000000180124f9c     CmRenderOutput.obj
 0002:00006fa4       $unwind$??6Cm@physx@@YAAEAVRenderOutput@01@AEAV201@AEBUDebugBox@01@@Z 0000000180124fa4     CmRenderOutput.obj
 0002:00006fb4       $unwind$??6Cm@physx@@YAAEAVRenderOutput@01@AEAV201@AEBUDebugArrow@01@@Z 0000000180124fb4     CmRenderOutput.obj
 0002:00006ff0       $unwind$??6Cm@physx@@YAAEAVRenderOutput@01@AEAV201@AEBUDebugBasis@01@@Z 0000000180124ff0     CmRenderOutput.obj
 0002:00007000       $unwind$??6Cm@physx@@YAAEAVRenderOutput@01@AEAV201@AEBUDebugCircle@01@@Z 0000000180125000     CmRenderOutput.obj
 0002:00007018       $unwind$??6Cm@physx@@YAAEAVRenderOutput@01@AEAV201@AEBUDebugArc@01@@Z 0000000180125018     CmRenderOutput.obj
 0002:00007030       $unwind$??DPxQuat@physx@@QEBA?AV01@AEBV01@@Z 0000000180125030     CmVisualization.obj
 0002:00007050       $unwind$?visualizeJointFrames@Cm@physx@@YAXAEAVRenderOutput@12@MAEBVPxTransform@2@1@Z 0000000180125050     CmVisualization.obj
 0002:00007060       $unwind$?visualizeLinearLimit@Cm@physx@@YAXAEAVRenderOutput@12@MAEBVPxTransform@2@1M_N@Z 0000000180125060     CmVisualization.obj
 0002:00007078       $chain$5$?visualizeLinearLimit@Cm@physx@@YAXAEAVRenderOutput@12@MAEBVPxTransform@2@1M_N@Z 0000000180125078     CmVisualization.obj
 0002:000070a0       $chain$6$?visualizeLinearLimit@Cm@physx@@YAXAEAVRenderOutput@12@MAEBVPxTransform@2@1M_N@Z 00000001801250a0     CmVisualization.obj
 0002:000070b0       $unwind$?visualizeAngularLimit@Cm@physx@@YAXAEAVRenderOutput@12@MAEBVPxTransform@2@MM_N@Z 00000001801250b0     CmVisualization.obj
 0002:000070c8       $chain$0$?visualizeAngularLimit@Cm@physx@@YAXAEAVRenderOutput@12@MAEBVPxTransform@2@MM_N@Z 00000001801250c8     CmVisualization.obj
 0002:000070dc       $chain$1$?visualizeAngularLimit@Cm@physx@@YAXAEAVRenderOutput@12@MAEBVPxTransform@2@MM_N@Z 00000001801250dc     CmVisualization.obj
 0002:000070ec       $unwind$?visualizeLimitCone@Cm@physx@@YAXAEAVRenderOutput@12@MAEBVPxTransform@2@MM_N@Z 00000001801250ec     CmVisualization.obj
 0002:00007104       $chain$7$?visualizeLimitCone@Cm@physx@@YAXAEAVRenderOutput@12@MAEBVPxTransform@2@MM_N@Z 0000000180125104     CmVisualization.obj
 0002:00007134       $chain$8$?visualizeLimitCone@Cm@physx@@YAXAEAVRenderOutput@12@MAEBVPxTransform@2@MM_N@Z 0000000180125134     CmVisualization.obj
 0002:00007144       $unwind$?visualizeDoubleCone@Cm@physx@@YAXAEAVRenderOutput@12@MAEBVPxTransform@2@M_N@Z 0000000180125144     CmVisualization.obj
 0002:0000715c       $chain$5$?visualizeDoubleCone@Cm@physx@@YAXAEAVRenderOutput@12@MAEBVPxTransform@2@M_N@Z 000000018012515c     CmVisualization.obj
 0002:00007184       $chain$6$?visualizeDoubleCone@Cm@physx@@YAXAEAVRenderOutput@12@MAEBVPxTransform@2@M_N@Z 0000000180125184     CmVisualization.obj
 0002:000071a8       $chain$7$?visualizeDoubleCone@Cm@physx@@YAXAEAVRenderOutput@12@MAEBVPxTransform@2@M_N@Z 00000001801251a8     CmVisualization.obj
 0002:000071b8       $unwind$?commonDelayHook@@YAP6A_JXZIPEAUDelayLoadInfo@@@Z 00000001801251b8     CmWindowsDelayLoadHook.obj
 0002:000071b8       $unwind$?allocate@?$Array@USlab@NodeAllocator@Gu@physx@@VNamedAllocator@shdfnd@4@@shdfnd@physx@@IEAAPEAUSlab@NodeAllocator@Gu@3@I@Z 00000001801251b8     GuAABBTreeBuild.obj
 0002:000071b8       $unwind$?processHit@AccumCallback@?A0x58bf8b61@Gu@physx@@UEAA_NAEBUPxRaycastHit@4@AEBVPxVec3@4@11AEAMPEBI@Z 00000001801251b8     GuCCDSweepConvexMesh.obj
 0002:000071b8       $unwind$?registerHeightFields@Gu@physx@@YAXXZ 00000001801251b8     GuOverlapTests.obj
 0002:000071b8       $unwind$?processHit@MeshMTDGenerationCallback@@UEAA_NAEBUPxRaycastHit@physx@@AEBVPxVec3@3@11AEAMPEBI@Z 00000001801251b8     GuSweepMTD.obj
 0002:000071b8       $unwind$?DloadReleaseSectionWriteAccess@@YAXXZ 00000001801251b8     Delayimp:delayhlp.obj
 0002:000071b8       $unwind$__scrt_initialize_default_local_stdio_options 00000001801251b8     MSVCRT:default_local_stdio_options.obj
 0002:000071b8       $unwind$?dllmain_crt_dispatch@@YAHQEAUHINSTANCE__@@KQEAX@Z 00000001801251b8     MSVCRT:dll_dllmain.obj
 0002:000071b8       $unwind$DllMain            00000001801251b8     MSVCRT:dll_dllmain_stub.obj
 0002:000071b8       $unwind$__scrt_acquire_startup_lock 00000001801251b8     MSVCRT:utility.obj
 0002:000071b8       $unwind$__scrt_dllmain_after_initialize_c 00000001801251b8     MSVCRT:utility.obj
 0002:000071b8       $unwind$__scrt_dllmain_before_initialize_c 00000001801251b8     MSVCRT:utility.obj
 0002:000071b8       $unwind$__scrt_dllmain_crt_thread_attach 00000001801251b8     MSVCRT:utility.obj
 0002:000071b8       $unwind$__scrt_dllmain_crt_thread_detach 00000001801251b8     MSVCRT:utility.obj
 0002:000071b8       $unwind$__scrt_dllmain_uninitialize_c 00000001801251b8     MSVCRT:utility.obj
 0002:000071b8       $unwind$__scrt_dllmain_uninitialize_critical 00000001801251b8     MSVCRT:utility.obj
 0002:000071c0       $chain$1$?commonDelayHook@@YAP6A_JXZIPEAUDelayLoadInfo@@@Z 00000001801251c0     CmWindowsDelayLoadHook.obj
 0002:000071d8       $chain$3$?commonDelayHook@@YAP6A_JXZIPEAUDelayLoadInfo@@@Z 00000001801251d8     CmWindowsDelayLoadHook.obj
 0002:000071d8       $chain$5$?commonDelayHook@@YAP6A_JXZIPEAUDelayLoadInfo@@@Z 00000001801251d8     CmWindowsDelayLoadHook.obj
 0002:000071f0       $chain$6$?commonDelayHook@@YAP6A_JXZIPEAUDelayLoadInfo@@@Z 00000001801251f0     CmWindowsDelayLoadHook.obj
 0002:00007200       $unwind$??_H@YAXPEAX_K1P6APEAX0@Z@Z 0000000180125200     GuBounds.obj
 0002:00007214       $unwind$??0PxQuat@physx@@QEAA@AEBVPxMat33@1@@Z 0000000180125214     GuBounds.obj
 0002:0000721c       $chain$0$??0PxQuat@physx@@QEAA@AEBVPxMat33@1@@Z 000000018012521c     GuBounds.obj
 0002:00007230       $chain$1$??0PxQuat@physx@@QEAA@AEBVPxMat33@1@@Z 0000000180125230     GuBounds.obj
 0002:00007240       $unwind$?rotate@Box@Gu@physx@@QEBA?AVPxVec3@3@AEBV43@@Z 0000000180125240     GuBounds.obj
 0002:0000724c       $unwind$?rotateInv@Box@Gu@physx@@QEBA?AVPxVec3@3@AEBV43@@Z 000000018012524c     GuBounds.obj
 0002:0000724c       $unwind$?transform@Box@Gu@physx@@QEBA?AVPxVec3@3@AEBV43@@Z 000000018012524c     GuBounds.obj
 0002:00007258       $unwind$?computeAABBExtent@Box@Gu@physx@@QEBA?AVPxVec3@3@XZ 0000000180125258     GuBounds.obj
 0002:00007264       $unwind$?computeBoxPoints@Box@Gu@physx@@QEBAXPEIAVPxVec3@3@@Z 0000000180125264     GuBounds.obj
 0002:00007264       $unwind$?outputErrorMessage@@YAXXZ 0000000180125264     GuContactSphereMesh.obj
 0002:00007264       $unwind$?processHit@SphereMeshContactGenerationCallback_NoScale@?A0x54a6cc4f@@UEAA_NAEBUPxRaycastHit@physx@@AEBVPxVec3@4@11AEAMPEBI@Z 0000000180125264     GuContactSphereMesh.obj
 0002:00007264       $unwind$?GeomOverlapCallback_HeightfieldUnregistered@@YA_NAEBVPxGeometry@physx@@AEBVPxTransform@2@01PEAUTriggerCache@Gu@2@@Z 0000000180125264     GuOverlapTests.obj
 0002:00007264       $unwind$?raycast_heightField_unregistered@@YAIAEBVPxGeometry@physx@@AEBVPxTransform@2@AEBVPxVec3@2@2MV?$PxFlags@W4Enum@PxHitFlag@physx@@G@2@IPEIAUPxRaycastHit@2@@Z 0000000180125264     GuRaycastTests.obj
 0002:00007264       $unwind$?sweepBox_HeightfieldUnregistered@@YA_NAEBVPxGeometry@physx@@AEBVPxTransform@2@AEBVPxBoxGeometry@2@1AEBVBox@Gu@2@AEBVPxVec3@2@MAEAUPxSweepHit@2@V?$PxFlags@W4Enum@PxHitFlag@physx@@G@2@M@Z 0000000180125264     GuSweepTests.obj
 0002:00007264       $unwind$?sweepCapsule_HeightfieldUnregistered@@YA_NAEBVPxGeometry@physx@@AEBVPxTransform@2@AEBVPxCapsuleGeometry@2@1AEBVCapsule@Gu@2@AEBVPxVec3@2@MAEAUPxSweepHit@2@V?$PxFlags@W4Enum@PxHitFlag@physx@@G@2@M@Z 0000000180125264     GuSweepTests.obj
 0002:00007264       $unwind$?sweepConvex_HeightfieldUnregistered@@YA_NAEBVPxGeometry@physx@@AEBVPxTransform@2@AEBVPxConvexMeshGeometry@2@1AEBVPxVec3@2@MAEAUPxSweepHit@2@V?$PxFlags@W4Enum@PxHitFlag@physx@@G@2@M@Z 0000000180125264     GuSweepTests.obj
 0002:00007264       $unwind$?getVerticesForModification@TriangleMesh@Gu@physx@@UEAAPEAVPxVec3@3@XZ 0000000180125264     GuTriangleMesh.obj
 0002:0000726c       $unwind$?computeBounds@Gu@physx@@YAXAEAVPxBounds3@2@AEBVPxGeometry@2@AEBVPxTransform@2@MPEIBVCenterExtentsPadded@12@M@Z 000000018012526c     GuBounds.obj
 0002:0000727c       $chain$4$?computeBounds@Gu@physx@@YAXAEAVPxBounds3@2@AEBVPxGeometry@2@AEBVPxTransform@2@MPEIBVCenterExtentsPadded@12@M@Z 000000018012527c     GuBounds.obj
 0002:000072a0       $chain$5$?computeBounds@Gu@physx@@YAXAEAVPxBounds3@2@AEBVPxGeometry@2@AEBVPxTransform@2@MPEIBVCenterExtentsPadded@12@M@Z 00000001801252a0     GuBounds.obj
 0002:000072b0       $unwind$?computeBoundsWithCCDThreshold@Gu@physx@@YAMAEAVVec3p@12@0AEBVPxGeometry@2@AEBVPxTransform@2@PEIBVCenterExtentsPadded@12@@Z 00000001801252b0     GuBounds.obj
 0002:000072c8       $unwind$??0ShapeData@Gu@physx@@QEAA@AEBVPxGeometry@2@AEBVPxTransform@2@M@Z 00000001801252c8     GuBounds.obj
 0002:000072f4       $chain$0$??0ShapeData@Gu@physx@@QEAA@AEBVPxGeometry@2@AEBVPxTransform@2@M@Z 00000001801252f4     GuBounds.obj
 0002:00007308       $chain$1$??0ShapeData@Gu@physx@@QEAA@AEBVPxGeometry@2@AEBVPxTransform@2@M@Z 0000000180125308     GuBounds.obj
 0002:00007318       $unwind$?getHeight@HeightField@Gu@physx@@UEBAMMM@Z 0000000180125318     GuBounds.obj
 0002:00007318       $unwind$?addBatchManifoldContactsToSingleManifold@@YA?AT__m128@@PEAVSinglePersistentContactManifold@Gu@physx@@PEAVMeshPersistentContact@34@IPEAUPCMContactPatch@34@AEBT1@E@Z 0000000180125318     GuPersistentContactManifold.obj
 0002:00007320       $unwind$?getHeightInternal2@HeightField@Gu@physx@@QEBAMIMM@Z 0000000180125320     GuBounds.obj
 0002:0000732c       $chain$0$?getHeightInternal2@HeightField@Gu@physx@@QEBAMIMM@Z 000000018012532c     GuBounds.obj
 0002:00007340       $chain$2$?getHeightInternal2@HeightField@Gu@physx@@QEBAMIMM@Z 0000000180125340     GuBounds.obj
 0002:00007354       $unwind$?getTriangleNormalInternal@HeightField@Gu@physx@@QEBA?AVPxVec3@3@I@Z 0000000180125354     GuBounds.obj
 0002:00007354       $unwind$?getNormal_2@HeightField@Gu@physx@@QEBA?AVPxVec3@3@IMMMMM@Z 0000000180125354     GuCCTSweepTests.obj
 0002:00007354       $unwind$?isConvexVertex@HeightField@Gu@physx@@QEBA_NIII@Z 0000000180125354     GuHeightField.obj
 0002:00007354       $unwind$?getTriangleVertexIndices@HeightField@Gu@physx@@QEBAXIAEAI00@Z 0000000180125354     GuHeightFieldUtil.obj
 0002:00007354       $unwind$?replaceManifoldPoint@PersistentContactManifold@Gu@physx@@QEAA_NAEBT__m128@@000@Z 0000000180125354     GuPersistentContactManifold.obj
 0002:00007360       $unwind$?computeScaledMatrix@@YAXAEAVPxMat33Padded@Gu@physx@@AEBVPxMeshScale@3@@Z 0000000180125360     GuBounds.obj
 0002:00007390       $unwind$?computePlaneBounds@@YAXAEAVPxBounds3@physx@@AEBVPxTransform@2@MM@Z 0000000180125390     GuBounds.obj
 0002:000073c0       $unwind$?computeMeshBounds@@YAXAEBVPxVec3@physx@@AEBVPxMat33Padded@Gu@2@PEIBVCenterExtentsPadded@42@AEBVPxMeshScale@2@AEAVVec3p@42@4@Z 00000001801253c0     GuBounds.obj
 0002:000073f0       $chain$0$?computeMeshBounds@@YAXAEBVPxVec3@physx@@AEBVPxMat33Padded@Gu@2@PEIBVCenterExtentsPadded@42@AEBVPxMeshScale@2@AEAVVec3p@42@4@Z 00000001801253f0     GuBounds.obj
 0002:00007404       $chain$1$?computeMeshBounds@@YAXAEBVPxVec3@physx@@AEBVPxMat33Padded@Gu@2@PEIBVCenterExtentsPadded@42@AEBVPxMeshScale@2@AEAVVec3p@42@4@Z 0000000180125404     GuBounds.obj
 0002:00007414       $unwind$?computeOBBPoints@Gu@physx@@YAXPEIAVPxVec3@2@AEBV32@1111@Z 0000000180125414     GuBox.obj
 0002:00007444       $unwind$?create@Box@Gu@physx@@QEAAXAEBVCapsule@23@@Z 0000000180125444     GuBox.obj
 0002:00007460       $unwind$?computeBasis@shdfnd@physx@@YAXAEBVPxVec3@2@0AEAV32@11@Z 0000000180125460     GuCapsule.obj
 0002:0000746c       $unwind$?computeBoxAroundCapsule@Gu@physx@@YAXAEBVCapsule@12@AEAVBox@12@@Z 000000018012546c     GuCapsule.obj
 0002:00007474       $unwind$?sweepBoxTriangles_Precise@Gu@physx@@YA_NIPEBVPxTriangle@2@_NAEBVPxBoxGeometry@2@AEBVPxTransform@2@AEBVPxVec3@2@MAEAUPxSweepHit@2@PEBIMV?$PxFlags@W4Enum@PxHitFlag@physx@@G@2@@Z 0000000180125474     GuCCTSweepTests.obj
 0002:00007480       $unwind$?getNormalAtShapePoint@HeightFieldUtil@Gu@physx@@QEBA?AVPxVec3@3@MM@Z 0000000180125480     GuCCTSweepTests.obj
 0002:00007498       $unwind$?_Check@Local@?5??BuildBV32Internal@@YA_NAEAVBV32Tree@Gu@physx@@AEBVAABBTree@45@PEAVSourceMesh@45@M@Z@SAXPEAVAABBTreeNode@45@@Z 0000000180125498     GuBV32Build.obj
 0002:00007498       $unwind$?_Check@Local@?4??BuildBV4Internal@@YA_NAEAVBV4Tree@Gu@physx@@AEBVAABBTree@45@PEAVSourceMesh@45@M_N@Z@SAXPEAVAABBTreeNode@45@@Z 0000000180125498     GuBV4Build.obj
 0002:00007498       $unwind$?getVertexNormal@HeightFieldUtil@Gu@physx@@QEBA?AVPxVec3@3@I@Z 0000000180125498     GuCCTSweepTests.obj
 0002:00007498       $unwind$?set@GeometryUnion@Gu@physx@@QEAAXAEBVPxGeometry@3@@Z 0000000180125498     GuGeometryUnion.obj
 0002:000074a0       $unwind$?isQueryVertex@HeightFieldUtil@Gu@physx@@QEBA_NIII@Z 00000001801254a0     GuCCTSweepTests.obj
 0002:000074a0       $unwind$?isCollisionVertexPreca@HeightField@Gu@physx@@QEBA_NIIIG@Z 00000001801254a0     GuHeightField.obj
 0002:000074b4       $unwind$?computePointNormal@HeightFieldUtil@Gu@physx@@QEBA?AVPxVec3@3@IAEBV43@AEBVPxTransform@3@MMMMAEAM@Z 00000001801254b4     GuCCTSweepTests.obj
 0002:000074e0       $chain$1$?computePointNormal@HeightFieldUtil@Gu@physx@@QEBA?AVPxVec3@3@IAEBV43@AEBVPxTransform@3@MMMMAEAM@Z 00000001801254e0     GuCCTSweepTests.obj
 0002:000074f8       $chain$2$?computePointNormal@HeightFieldUtil@Gu@physx@@QEBA?AVPxVec3@3@IAEBV43@AEBVPxTransform@3@MMMMAEAM@Z 00000001801254f8     GuCCTSweepTests.obj
 0002:0000750c       $chain$3$?computePointNormal@HeightFieldUtil@Gu@physx@@QEBA?AVPxVec3@3@IAEBV43@AEBVPxTransform@3@MMMMAEAM@Z 000000018012550c     GuCCTSweepTests.obj
 0002:0000751c       $unwind$?hf2worldp@HeightFieldUtil@Gu@physx@@QEBA?AVPxVec3@3@AEBVPxTransform@3@AEBV43@@Z 000000018012551c     GuCCTSweepTests.obj
 0002:00007540       $unwind$?hf2worldn@HeightFieldUtil@Gu@physx@@QEBA?AVPxVec3@3@AEBVPxTransform@3@AEBV43@@Z 0000000180125540     GuCCTSweepTests.obj
 0002:00007564       $unwind$?sweepCapsule_BoxGeom_Precise@@YA_NAEBVPxGeometry@physx@@AEBVPxTransform@2@AEBVPxCapsuleGeometry@2@1AEBVCapsule@Gu@2@AEBVPxVec3@2@MAEAUPxSweepHit@2@V?$PxFlags@W4Enum@PxHitFlag@physx@@G@2@M@Z 0000000180125564     GuCCTSweepTests.obj
 0002:0000758c       $chain$4$?sweepCapsule_BoxGeom_Precise@@YA_NAEBVPxGeometry@physx@@AEBVPxTransform@2@AEBVPxCapsuleGeometry@2@1AEBVCapsule@Gu@2@AEBVPxVec3@2@MAEAUPxSweepHit@2@V?$PxFlags@W4Enum@PxHitFlag@physx@@G@2@M@Z 000000018012558c     GuCCTSweepTests.obj
 0002:000075b0       $chain$5$?sweepCapsule_BoxGeom_Precise@@YA_NAEBVPxGeometry@physx@@AEBVPxTransform@2@AEBVPxCapsuleGeometry@2@1AEBVCapsule@Gu@2@AEBVPxVec3@2@MAEAUPxSweepHit@2@V?$PxFlags@W4Enum@PxHitFlag@physx@@G@2@M@Z 00000001801255b0     GuCCTSweepTests.obj
 0002:000075c0       $unwind$?sweepBox_SphereGeom_Precise@@YA_NAEBVPxGeometry@physx@@AEBVPxTransform@2@AEBVPxBoxGeometry@2@1AEBVBox@Gu@2@AEBVPxVec3@2@MAEAUPxSweepHit@2@V?$PxFlags@W4Enum@PxHitFlag@physx@@G@2@M@Z 00000001801255c0     GuCCTSweepTests.obj
 0002:000075e4       $chain$0$?sweepBox_SphereGeom_Precise@@YA_NAEBVPxGeometry@physx@@AEBVPxTransform@2@AEBVPxBoxGeometry@2@1AEBVBox@Gu@2@AEBVPxVec3@2@MAEAUPxSweepHit@2@V?$PxFlags@W4Enum@PxHitFlag@physx@@G@2@M@Z 00000001801255e4     GuCCTSweepTests.obj
 0002:000075f8       $chain$2$?sweepBox_SphereGeom_Precise@@YA_NAEBVPxGeometry@physx@@AEBVPxTransform@2@AEBVPxBoxGeometry@2@1AEBVBox@Gu@2@AEBVPxVec3@2@MAEAUPxSweepHit@2@V?$PxFlags@W4Enum@PxHitFlag@physx@@G@2@M@Z 00000001801255f8     GuCCTSweepTests.obj
 0002:00007610       $chain$3$?sweepBox_SphereGeom_Precise@@YA_NAEBVPxGeometry@physx@@AEBVPxTransform@2@AEBVPxBoxGeometry@2@1AEBVBox@Gu@2@AEBVPxVec3@2@MAEAUPxSweepHit@2@V?$PxFlags@W4Enum@PxHitFlag@physx@@G@2@M@Z 0000000180125610     GuCCTSweepTests.obj
 0002:00007620       $chain$4$?sweepBox_SphereGeom_Precise@@YA_NAEBVPxGeometry@physx@@AEBVPxTransform@2@AEBVPxBoxGeometry@2@1AEBVBox@Gu@2@AEBVPxVec3@2@MAEAUPxSweepHit@2@V?$PxFlags@W4Enum@PxHitFlag@physx@@G@2@M@Z 0000000180125620     GuCCTSweepTests.obj
 0002:00007630       $unwind$?sweepBox_CapsuleGeom_Precise@@YA_NAEBVPxGeometry@physx@@AEBVPxTransform@2@AEBVPxBoxGeometry@2@1AEBVBox@Gu@2@AEBVPxVec3@2@MAEAUPxSweepHit@2@V?$PxFlags@W4Enum@PxHitFlag@physx@@G@2@M@Z 0000000180125630     GuCCTSweepTests.obj
 0002:00007668       $unwind$?sweepBox_BoxGeom_Precise@@YA_NAEBVPxGeometry@physx@@AEBVPxTransform@2@AEBVPxBoxGeometry@2@1AEBVBox@Gu@2@AEBVPxVec3@2@MAEAUPxSweepHit@2@V?$PxFlags@W4Enum@PxHitFlag@physx@@G@2@M@Z 0000000180125668     GuCCTSweepTests.obj
 0002:00007680       $unwind$?sweepBoxVsTriangles@@YA_NIPEBVPxTriangle@physx@@AEBVBox@Gu@2@AEBVPxVec3@2@MAEAUPxSweepHit@2@V?$PxFlags@W4Enum@PxHitFlag@physx@@G@2@_NPEBI@Z 0000000180125680     GuCCTSweepTests.obj
 0002:0000769c       $chain$9$?sweepBoxVsTriangles@@YA_NIPEBVPxTriangle@physx@@AEBVBox@Gu@2@AEBVPxVec3@2@MAEAUPxSweepHit@2@V?$PxFlags@W4Enum@PxHitFlag@physx@@G@2@_NPEBI@Z 000000018012569c     GuCCTSweepTests.obj
 0002:000076d4       $chain$10$?sweepBoxVsTriangles@@YA_NIPEBVPxTriangle@physx@@AEBVBox@Gu@2@AEBVPxVec3@2@MAEAUPxSweepHit@2@V?$PxFlags@W4Enum@PxHitFlag@physx@@G@2@_NPEBI@Z 00000001801256d4     GuCCTSweepTests.obj
 0002:000076e8       $chain$11$?sweepBoxVsTriangles@@YA_NIPEBVPxTriangle@physx@@AEBVBox@Gu@2@AEBVPxVec3@2@MAEAUPxSweepHit@2@V?$PxFlags@W4Enum@PxHitFlag@physx@@G@2@_NPEBI@Z 00000001801256e8     GuCCTSweepTests.obj
 0002:000076f8       $unwind$?sweepBox_HeightFieldGeom_Precise@@YA_NAEBVPxGeometry@physx@@AEBVPxTransform@2@AEBVPxBoxGeometry@2@1AEBVBox@Gu@2@AEBVPxVec3@2@MAEAUPxSweepHit@2@V?$PxFlags@W4Enum@PxHitFlag@physx@@G@2@M@Z 00000001801256f8     GuCCTSweepTests.obj
 0002:00007740       $unwind$?onEvent@LocalReport@?1??sweepBox_HeightFieldGeom_Precise@@YA_NAEBVPxGeometry@physx@@AEBVPxTransform@4@AEBVPxBoxGeometry@4@1AEBVBox@Gu@4@AEBVPxVec3@4@MAEAUPxSweepHit@4@V?$PxFlags@W4Enum@PxHitFlag@physx@@G@4@M@Z@UEAA_NIPEAI@Z 0000000180125740     GuCCTSweepTests.obj
 0002:00007750       $chain$4$?onEvent@LocalReport@?1??sweepBox_HeightFieldGeom_Precise@@YA_NAEBVPxGeometry@physx@@AEBVPxTransform@4@AEBVPxBoxGeometry@4@1AEBVBox@Gu@4@AEBVPxVec3@4@MAEAUPxSweepHit@4@V?$PxFlags@W4Enum@PxHitFlag@physx@@G@4@M@Z@UEAA_NIPEAI@Z 0000000180125750     GuCCTSweepTests.obj
 0002:00007774       $chain$5$?onEvent@LocalReport@?1??sweepBox_HeightFieldGeom_Precise@@YA_NAEBVPxGeometry@physx@@AEBVPxTransform@4@AEBVPxBoxGeometry@4@1AEBVBox@Gu@4@AEBVPxVec3@4@MAEAUPxSweepHit@4@V?$PxFlags@W4Enum@PxHitFlag@physx@@G@4@M@Z@UEAA_NIPEAI@Z 0000000180125774     GuCCTSweepTests.obj
 0002:00007784       $unwind$?sweep@PxGeometryQuery@physx@@SA_NAEBVPxVec3@2@MAEBVPxGeometry@2@AEBVPxTransform@2@12AEAUPxSweepHit@2@V?$PxFlags@W4Enum@PxHitFlag@physx@@G@2@M@Z 0000000180125784     GuGeometryQuery.obj
 0002:000077ac       $unwind$?overlap@PxGeometryQuery@physx@@SA_NAEBVPxGeometry@2@AEBVPxTransform@2@01@Z 00000001801257ac     GuGeometryQuery.obj
 0002:000077c4       $unwind$?raycast@PxGeometryQuery@physx@@SAIAEBVPxVec3@2@0AEBVPxGeometry@2@AEBVPxTransform@2@MV?$PxFlags@W4Enum@PxHitFlag@physx@@G@2@IPEIAUPxRaycastHit@2@@Z 00000001801257c4     GuGeometryQuery.obj
 0002:000077e0       $unwind$?computePenetration@PxGeometryQuery@physx@@SA_NAEAVPxVec3@2@AEAMAEBVPxGeometry@2@AEBVPxTransform@2@23@Z 00000001801257e0     GuGeometryQuery.obj
 0002:000077f8       $unwind$?pointDistance@PxGeometryQuery@physx@@SAMAEBVPxVec3@2@AEBVPxGeometry@2@AEBVPxTransform@2@PEAV32@@Z 00000001801257f8     GuGeometryQuery.obj
 0002:0000783c       $unwind$?getWorldBounds@PxGeometryQuery@physx@@SA?AVPxBounds3@2@AEBVPxGeometry@2@AEBVPxTransform@2@M@Z 000000018012583c     GuGeometryQuery.obj
 0002:00007850       $unwind$?allocate@MaterialIndicesStruct@physx@@QEAAXG@Z 0000000180125850     GuGeometryUnion.obj
 0002:00007860       $unwind$??__EsignMask@?A0x788c2204@@YAXXZ 0000000180125860     GuBV4_AABBSweep.obj
 0002:00007860       $unwind$??__EsignMask@?A0xf567e8b1@@YAXXZ 0000000180125860     GuBV4_CapsuleSweepAA.obj
 0002:00007860       $unwind$??__EsignMask@?A0xdeb1923c@@YAXXZ 0000000180125860     GuBV4_Raycast.obj
 0002:00007860       $unwind$??__EsignMask@?A0x0ebb234c@@YAXXZ 0000000180125860     GuBV4_SphereSweep.obj
 0002:00007860       $unwind$?computeBoundsAroundVertices@Gu@physx@@YAXAEAVPxBounds3@2@IPEIBVPxVec3@2@@Z 0000000180125860     GuInternal.obj
 0002:00007860       $unwind$??__EsignV@@YAXXZ  0000000180125860     GuIntersectionTriangleBox.obj
 0002:00007860       $unwind$??__EsignMask@?A0x28b72d2e@@YAXXZ 0000000180125860     GuRTreeQueries.obj
 0002:00007868       $unwind$?getPlane@Gu@physx@@YA?AVPxPlane@2@AEBVPxTransform@2@@Z 0000000180125868     GuInternal.obj
 0002:00007874       $unwind$?computeSweptBox@Gu@physx@@YAXAEAVBox@12@AEBVPxVec3@2@1AEBVPxMat33@2@1M@Z 0000000180125874     GuInternal.obj
 0002:000078a8       $unwind$??0GuMeshFactory@physx@@QEAA@XZ 00000001801258a8     GuMeshFactory.obj
 0002:000078b8       $chain$0$??0GuMeshFactory@physx@@QEAA@XZ 00000001801258b8     GuMeshFactory.obj
 0002:000078cc       $chain$1$??0GuMeshFactory@physx@@QEAA@XZ 00000001801258cc     GuMeshFactory.obj
 0002:000078dc       $unwind$?addBVHStructure@GuMeshFactory@physx@@QEAAXPEAVBVHStructure@Gu@2@_N@Z 00000001801258dc     GuMeshFactory.obj
 0002:000078dc       $unwind$?addConvexMesh@GuMeshFactory@physx@@QEAAXPEAVConvexMesh@Gu@2@_N@Z 00000001801258dc     GuMeshFactory.obj
 0002:000078dc       $unwind$?addHeightField@GuMeshFactory@physx@@QEAAXPEAVHeightField@Gu@2@_N@Z 00000001801258dc     GuMeshFactory.obj
 0002:000078dc       $unwind$?addTriangleMesh@GuMeshFactory@physx@@QEAAXPEAVTriangleMesh@Gu@2@_N@Z 00000001801258dc     GuMeshFactory.obj
 0002:000078ec       $unwind$?release@BV32Tree@Gu@physx@@QEAAXXZ 00000001801258ec     GuBV32.obj
 0002:000078ec       $unwind$?addFactoryListener@GuMeshFactory@physx@@QEAAXAEAVGuMeshFactoryListener@2@@Z 00000001801258ec     GuMeshFactory.obj
 0002:000078ec       $unwind$?removeBVHStructure@GuMeshFactory@physx@@QEAA_NAEAVPxBVHStructure@2@@Z 00000001801258ec     GuMeshFactory.obj
 0002:000078ec       $unwind$?removeConvexMesh@GuMeshFactory@physx@@QEAA_NAEAVPxConvexMesh@2@@Z 00000001801258ec     GuMeshFactory.obj
 0002:000078ec       $unwind$?removeHeightField@GuMeshFactory@physx@@QEAA_NAEAVPxHeightField@2@@Z 00000001801258ec     GuMeshFactory.obj
 0002:000078ec       $unwind$?removeTriangleMesh@GuMeshFactory@physx@@QEAA_NAEAVPxTriangleMesh@2@@Z 00000001801258ec     GuMeshFactory.obj
 0002:000078f8       $unwind$?notifyFactoryListener@GuMeshFactory@physx@@QEAAXPEBVPxBase@2@G@Z 00000001801258f8     GuMeshFactory.obj
 0002:00007908       $chain$1$?notifyFactoryListener@GuMeshFactory@physx@@QEAAXPEBVPxBase@2@G@Z 0000000180125908     GuMeshFactory.obj
 0002:00007920       $chain$2$?notifyFactoryListener@GuMeshFactory@physx@@QEAAXPEBVPxBase@2@G@Z 0000000180125920     GuMeshFactory.obj
 0002:00007930       $unwind$?createTriangleMesh@GuMeshFactory@physx@@IEAAPEAVPxTriangleMesh@2@AEAVTriangleMeshData@Gu@2@@Z 0000000180125930     GuMeshFactory.obj
 0002:00007940       $chain$0$?growAndPushBack@?$Array@PEAVGuMeshFactoryListener@physx@@VNamedAllocator@shdfnd@2@@shdfnd@physx@@IEAAAEAPEAVGuMeshFactoryListener@3@AEBQEAV43@@Z 0000000180125940     GuMeshFactory.obj
 0002:00007954       $chain$1$?growAndPushBack@?$Array@PEAVGuMeshFactoryListener@physx@@VNamedAllocator@shdfnd@2@@shdfnd@physx@@IEAAAEAPEAVGuMeshFactoryListener@3@AEBQEAV43@@Z 0000000180125954     GuMeshFactory.obj
 0002:00007968       $chain$2$?growAndPushBack@?$Array@PEAVGuMeshFactoryListener@physx@@VNamedAllocator@shdfnd@2@@shdfnd@physx@@IEAAAEAPEAVGuMeshFactoryListener@3@AEBQEAV43@@Z 0000000180125968     GuMeshFactory.obj
 0002:00007978       $chain$3$?growAndPushBack@?$Array@PEAVGuMeshFactoryListener@physx@@VNamedAllocator@shdfnd@2@@shdfnd@physx@@IEAAAEAPEAVGuMeshFactoryListener@3@AEBQEAV43@@Z 0000000180125978     GuMeshFactory.obj
 0002:00007988       $unwind$??_EConvexMesh@Gu@physx@@UEAAPEAXI@Z 0000000180125988     GuConvexMesh.obj
 0002:00007988       $unwind$??_EGuMeshFactory@physx@@MEAAPEAXI@Z 0000000180125988     GuMeshFactory.obj
 0002:00007994       $chain$2$??_EGuMeshFactory@physx@@MEAAPEAXI@Z 0000000180125994     GuMeshFactory.obj
 0002:000079b0       $chain$3$??_EGuMeshFactory@physx@@MEAAPEAXI@Z 00000001801259b0     GuMeshFactory.obj
 0002:000079b0       $chain$5$??_EGuMeshFactory@physx@@MEAAPEAXI@Z 00000001801259b0     GuMeshFactory.obj
 0002:000079c4       $chain$6$??_EGuMeshFactory@physx@@MEAAPEAXI@Z 00000001801259c4     GuMeshFactory.obj
 0002:000079d4       $unwind$??$?_UV?$ReflectionAllocator@VAABBTreeBuildNode@Gu@physx@@@shdfnd@physx@@@UserAllocated@shdfnd@physx@@SAPEAX_KV?$ReflectionAllocator@VAABBTreeBuildNode@Gu@physx@@@12@PEBDH@Z 00000001801259d4     GuAABBTreeBuild.obj
 0002:000079d4       $unwind$??$?_UI@@YAPEAX_KV?$ReflectionAllocator@I@shdfnd@physx@@PEBDH@Z 00000001801259d4     GuMeshFactory.obj
 0002:000079e4       $chain$0$??$?_UI@@YAPEAX_KV?$ReflectionAllocator@I@shdfnd@physx@@PEBDH@Z 00000001801259e4     GuMeshFactory.obj
 0002:000079f8       $chain$1$??$?_UI@@YAPEAX_KV?$ReflectionAllocator@I@shdfnd@physx@@PEBDH@Z 00000001801259f8     GuMeshFactory.obj
 0002:00007a08       $unwind$?onEvent@EntityReportContainerCallback@?A0x58bf8b61@Gu@physx@@UEAA_NIPEAI@Z 0000000180125a08     GuCCDSweepConvexMesh.obj
 0002:00007a08       $unwind$??_GRTreeTriangleData@Gu@physx@@UEAAPEAXI@Z 0000000180125a08     GuMeshFactory.obj
 0002:00007a08       $unwind$?onEvent@MidPhaseQueryLocalReport@@UEAA_NIPEAI@Z 0000000180125a08     GuSweepMTD.obj
 0002:00007a08       $unwind$??_GRTreeTriangleMesh@Gu@physx@@UEAAPEAXI@Z 0000000180125a08     GuTriangleMeshRTree.obj
 0002:00007a14       $chain$0$??_GRTreeTriangleData@Gu@physx@@UEAAPEAXI@Z 0000000180125a14     GuMeshFactory.obj
 0002:00007a28       $chain$1$??_GRTreeTriangleData@Gu@physx@@UEAAPEAXI@Z 0000000180125a28     GuMeshFactory.obj
 0002:00007a38       $unwind$?loadMeshData@@YAPEAVTriangleMeshData@Gu@physx@@AEAVPxInputStream@3@@Z 0000000180125a38     GuMeshFactory.obj
 0002:00007a4c       $chain$1$?loadMeshData@@YAPEAVTriangleMeshData@Gu@physx@@AEAVPxInputStream@3@@Z 0000000180125a4c     GuMeshFactory.obj
 0002:00007a64       $unwind$?getBinaryMetaData@BV4TriangleMesh@Gu@physx@@SAXAEAVPxOutputStream@3@@Z 0000000180125a64     GuMetaData.obj
 0002:00007a64       $unwind$?getBinaryMetaData@HeightField@Gu@physx@@SAXAEAVPxOutputStream@3@@Z 0000000180125a64     GuMetaData.obj
 0002:00007a64       $unwind$?getBinaryMetaData_BVDataPackedQ@@YAXAEAVPxOutputStream@physx@@@Z 0000000180125a64     GuMetaData.obj
 0002:00007a64       $unwind$?getBinaryMetaData_HeightFieldData@@YAXAEAVPxOutputStream@physx@@@Z 0000000180125a64     GuMetaData.obj
 0002:00007a7c       $unwind$?getBinaryMetaData@ConvexMesh@Gu@physx@@SAXAEAVPxOutputStream@3@@Z 0000000180125a7c     GuMetaData.obj
 0002:00007a98       $unwind$?getBinaryMetaData@MaterialIndicesStruct@physx@@SAXAEAVPxOutputStream@2@@Z 0000000180125a98     GuMetaData.obj
 0002:00007a98       $unwind$?getBinaryMetaData@RTree@Gu@physx@@SAXAEAVPxOutputStream@3@@Z 0000000180125a98     GuMetaData.obj
 0002:00007a98       $unwind$?getBinaryMetaData@RTreeTriangleMesh@Gu@physx@@SAXAEAVPxOutputStream@3@@Z 0000000180125a98     GuMetaData.obj
 0002:00007a98       $unwind$?getBinaryMetaData@ShadowHeightFieldGeometry@?1??0GeometryUnion@Gu@physx@@SAXAEAVPxOutputStream@4@@Z@SAX0@Z 0000000180125a98     GuMetaData.obj
 0002:00007a98       $unwind$?getBinaryMetaData_ConvexHullData@@YAXAEAVPxOutputStream@physx@@@Z 0000000180125a98     GuMetaData.obj
 0002:00007a98       $unwind$?getBinaryMetaData_RTreePage@@YAXAEAVPxOutputStream@physx@@@Z 0000000180125a98     GuMetaData.obj
 0002:00007aac       $unwind$?getBinaryMetaData@GeometryUnion@Gu@physx@@SAXAEAVPxOutputStream@3@@Z 0000000180125aac     GuMetaData.obj
 0002:00007aac       $unwind$?getBinaryMetaData@TriangleMesh@Gu@physx@@SAXAEAVPxOutputStream@3@@Z 0000000180125aac     GuMetaData.obj
 0002:00007ac8       $unwind$?hillClimbing@ConvexHullV@Gu@physx@@QEBAIAEBT__m128@@@Z 0000000180125ac8     GuMTD.obj
 0002:00007ae4       $unwind$?supportVertexIndex@ConvexHullV@Gu@physx@@QEBAIAEBT__m128@@@Z 0000000180125ae4     GuMTD.obj
 0002:00007afc       $chain$4$?supportVertexIndex@ConvexHullV@Gu@physx@@QEBAIAEBT__m128@@@Z 0000000180125afc     GuMTD.obj
 0002:00007b10       $chain$9$?supportVertexIndex@ConvexHullV@Gu@physx@@QEBAIAEBT__m128@@@Z 0000000180125b10     GuMTD.obj
 0002:00007b34       $chain$10$?supportVertexIndex@ConvexHullV@Gu@physx@@QEBAIAEBT__m128@@@Z 0000000180125b34     GuMTD.obj
 0002:00007b44       $chain$11$?supportVertexIndex@ConvexHullV@Gu@physx@@QEBAIAEBT__m128@@@Z 0000000180125b44     GuMTD.obj
 0002:00007b54       $unwind$?refineContactPatchConnective@MultiplePersistentContactManifold@Gu@physx@@QEAAXPEAPEAUPCMContactPatch@23@IPEAVMeshPersistentContact@23@AEBT__m128@@@Z 0000000180125b54     GuMTD.obj
 0002:00007b64       $chain$1$?refineContactPatchConnective@MultiplePersistentContactManifold@Gu@physx@@QEAAXPEAPEAUPCMContactPatch@23@IPEAVMeshPersistentContact@23@AEBT__m128@@@Z 0000000180125b64     GuMTD.obj
 0002:00007b7c       $chain$2$?refineContactPatchConnective@MultiplePersistentContactManifold@Gu@physx@@QEAAXPEAPEAUPCMContactPatch@23@IPEAVMeshPersistentContact@23@AEBT__m128@@@Z 0000000180125b7c     GuMTD.obj
 0002:00007b8c       $unwind$?reduceManifoldContactsInDifferentPatches@MultiplePersistentContactManifold@Gu@physx@@QEAAIPEAPEAUPCMContactPatch@23@IPEAVMeshPersistentContact@23@IAEBT__m128@@@Z 0000000180125b8c     GuMTD.obj
 0002:00007b98       $chain$5$?reduceManifoldContactsInDifferentPatches@MultiplePersistentContactManifold@Gu@physx@@QEAAIPEAPEAUPCMContactPatch@23@IPEAVMeshPersistentContact@23@IAEBT__m128@@@Z 0000000180125b98     GuMTD.obj
 0002:00007bc0       $chain$6$?reduceManifoldContactsInDifferentPatches@MultiplePersistentContactManifold@Gu@physx@@QEAAIPEAPEAUPCMContactPatch@23@IPEAVMeshPersistentContact@23@IAEBT__m128@@@Z 0000000180125bc0     GuMTD.obj
 0002:00007bd0       $unwind$?refreshManifold@MultiplePersistentContactManifold@Gu@physx@@QEAAXAEBVPsMatTransformV@aos@shdfnd@3@AEBT__m128@@1@Z 0000000180125bd0     GuMTD.obj
 0002:00007be0       $chain$3$?refreshManifold@MultiplePersistentContactManifold@Gu@physx@@QEAAXAEBVPsMatTransformV@aos@shdfnd@3@AEBT__m128@@1@Z 0000000180125be0     GuMTD.obj
 0002:00007c00       $chain$4$?refreshManifold@MultiplePersistentContactManifold@Gu@physx@@QEAAXAEBVPsMatTransformV@aos@shdfnd@3@AEBT__m128@@1@Z 0000000180125c00     GuMTD.obj
 0002:00007c10       $unwind$?addData@?$CacheMap@UCachedEdge@Gu@physx@@$0IA@@Gu@physx@@QEAA_NAEBUCachedEdge@23@@Z 0000000180125c10     GuContactConvexMesh.obj
 0002:00007c10       $unwind$?toBuffer@MultiplePersistentContactManifold@Gu@physx@@QEAAXPEIAE@Z 0000000180125c10     GuMTD.obj
 0002:00007c10       $unwind$?getPCMConvexData@Gu@physx@@YAXAEBVConvexHullV@12@_NAEAUPolygonalData@12@@Z 0000000180125c10     GuPCMShapeConvex.obj
 0002:00007c18       $unwind$?computeMTD_SphereCapsule@@YA_NAEAVPxVec3@physx@@AEAMAEBVSphere@Gu@2@AEBVCapsule@42@@Z 0000000180125c18     GuMTD.obj
 0002:00007c48       $unwind$?computeMTD_SphereBox@@YA_NAEAVPxVec3@physx@@AEAMAEBVSphere@Gu@2@AEBVBox@42@@Z 0000000180125c48     GuMTD.obj
 0002:00007c84       $unwind$?computeMTD_CapsuleCapsule@@YA_NAEAVPxVec3@physx@@AEAMAEBVCapsule@Gu@2@2@Z 0000000180125c84     GuMTD.obj
 0002:00007c98       $chain$1$?computeMTD_CapsuleCapsule@@YA_NAEAVPxVec3@physx@@AEAMAEBVCapsule@Gu@2@2@Z 0000000180125c98     GuMTD.obj
 0002:00007cb0       $chain$2$?computeMTD_CapsuleCapsule@@YA_NAEAVPxVec3@physx@@AEAMAEBVCapsule@Gu@2@2@Z 0000000180125cb0     GuMTD.obj
 0002:00007cc0       $unwind$?GuTestAxis@@YA_NAEBVPxVec3@physx@@AEBVSegment@Gu@2@MAEBVBox@42@AEAM@Z 0000000180125cc0     GuContactCapsuleBox.obj
 0002:00007cc0       $unwind$?PxcTestAxis@@YA_NAEBVPxVec3@physx@@AEBVSegment@Gu@2@MAEBVBox@42@AEAM@Z 0000000180125cc0     GuMTD.obj
 0002:00007cdc       $unwind$?GuCapsuleOBBOverlap3@@YA_NAEBVSegment@Gu@physx@@MAEBVBox@23@PEAMPEAVPxVec3@3@@Z 0000000180125cdc     GuContactCapsuleBox.obj
 0002:00007cdc       $unwind$?PxcCapsuleOBBOverlap3@@YA_NAEBVSegment@Gu@physx@@MAEBVBox@23@PEAMPEAVPxVec3@3@@Z 0000000180125cdc     GuMTD.obj
 0002:00007d14       $unwind$?computeMTD_CapsuleBox@@YA_NAEAVPxVec3@physx@@AEAMAEBVCapsule@Gu@2@AEBVBox@42@@Z 0000000180125d14     GuMTD.obj
 0002:00007d30       $chain$0$?computeMTD_CapsuleBox@@YA_NAEAVPxVec3@physx@@AEAMAEBVCapsule@Gu@2@AEBVBox@42@@Z 0000000180125d30     GuMTD.obj
 0002:00007d44       $chain$1$?computeMTD_CapsuleBox@@YA_NAEAVPxVec3@physx@@AEAMAEBVCapsule@Gu@2@AEBVBox@42@@Z 0000000180125d44     GuMTD.obj
 0002:00007d58       $chain$2$?computeMTD_CapsuleBox@@YA_NAEAVPxVec3@physx@@AEAMAEBVCapsule@Gu@2@AEBVBox@42@@Z 0000000180125d58     GuMTD.obj
 0002:00007d68       $chain$3$?computeMTD_CapsuleBox@@YA_NAEAVPxVec3@physx@@AEAMAEBVCapsule@Gu@2@AEBVBox@42@@Z 0000000180125d68     GuMTD.obj
 0002:00007d78       $unwind$?PxcTestAxis@@YA_NAEBVPxVec3@physx@@AEBVBox@Gu@2@1AEAM@Z 0000000180125d78     GuMTD.obj
 0002:00007d94       $unwind$?computeMTD_BoxBox@@YA_NAEAVPxVec3@physx@@AEAMAEBVBox@Gu@2@2@Z 0000000180125d94     GuMTD.obj
 0002:00007dd8       $unwind$?pointConvexDistance@@YA_NAEAVPxVec3@physx@@0AEAMAEBV12@PEBVConvexMesh@Gu@2@AEBVPxMeshScale@2@AEBVPxTransform@2@@Z 0000000180125dd8     GuMTD.obj
 0002:00007e1c       $unwind$?doSupport@?$SupportLocalImpl@VConvexHullV@Gu@physx@@@Gu@physx@@UEBA?AT__m128@@AEBT4@@Z 0000000180125e1c     GuMTD.obj
 0002:00007e1c       $unwind$?support@?$LocalConvex@VConvexHullV@Gu@physx@@@Gu@physx@@UEBA?AT__m128@@AEBT4@@Z 0000000180125e1c     GuMTD.obj
 0002:00007e38       $unwind$?support@?$LocalConvex@VConvexHullV@Gu@physx@@@Gu@physx@@UEBA?AT__m128@@AEBT4@AEAH@Z 0000000180125e38     GuMTD.obj
 0002:00007e4c       $unwind$??$gjk@U?$LocalConvex@VCapsuleV@Gu@physx@@@Gu@physx@@U?$LocalConvex@VConvexHullV@Gu@physx@@@23@@Gu@physx@@YA?AW4GjkStatus@01@AEBU?$LocalConvex@VCapsuleV@Gu@physx@@@01@AEBU?$LocalConvex@VConvexHullV@Gu@physx@@@01@AEBT__m128@@2AEAT5@333@Z 0000000180125e4c     GuMTD.obj
 0002:00007e90       $unwind$?computeMTD_SphereConvex@@YA_NAEAVPxVec3@physx@@AEAMAEBVSphere@Gu@2@AEBVPxConvexMeshGeometry@2@AEBVPxTransform@2@@Z 0000000180125e90     GuMTD.obj
 0002:00007ea8       $chain$7$?computeMTD_SphereConvex@@YA_NAEAVPxVec3@physx@@AEAMAEBVSphere@Gu@2@AEBVPxConvexMeshGeometry@2@AEBVPxTransform@2@@Z 0000000180125ea8     GuMTD.obj
 0002:00007ed8       $chain$9$?computeMTD_SphereConvex@@YA_NAEAVPxVec3@physx@@AEAMAEBVSphere@Gu@2@AEBVPxConvexMeshGeometry@2@AEBVPxTransform@2@@Z 0000000180125ed8     GuMTD.obj
 0002:00007ef0       $chain$10$?computeMTD_SphereConvex@@YA_NAEAVPxVec3@physx@@AEAMAEBVSphere@Gu@2@AEBVPxConvexMeshGeometry@2@AEBVPxTransform@2@@Z 0000000180125ef0     GuMTD.obj
 0002:00007f00       $chain$11$?computeMTD_SphereConvex@@YA_NAEAVPxVec3@physx@@AEAMAEBVSphere@Gu@2@AEBVPxConvexMeshGeometry@2@AEBVPxTransform@2@@Z 0000000180125f00     GuMTD.obj
 0002:00007f10       $unwind$?doSupport@?$SupportLocalImpl@VConvexHullV@Gu@physx@@@Gu@physx@@UEBAXAEBT__m128@@AEAT4@1@Z 0000000180125f10     GuMTD.obj
 0002:00007f40       $chain$0$?doSupport@?$SupportLocalImpl@VConvexHullV@Gu@physx@@@Gu@physx@@UEBAXAEBT__m128@@AEAT4@1@Z 0000000180125f40     GuMTD.obj
 0002:00007f54       $chain$1$?doSupport@?$SupportLocalImpl@VConvexHullV@Gu@physx@@@Gu@physx@@UEBAXAEBT__m128@@AEAT4@1@Z 0000000180125f54     GuMTD.obj
 0002:00007f64       $unwind$?doSupport@?$SupportLocalImpl@VConvexHullNoScaleV@Gu@physx@@@Gu@physx@@UEBAXAEBT__m128@@AEAT4@1@Z 0000000180125f64     GuMTD.obj
 0002:00007f78       $chain$1$?doSupport@?$SupportLocalImpl@VConvexHullNoScaleV@Gu@physx@@@Gu@physx@@UEBAXAEBT__m128@@AEAT4@1@Z 0000000180125f78     GuMTD.obj
 0002:00007f90       $chain$2$?doSupport@?$SupportLocalImpl@VConvexHullNoScaleV@Gu@physx@@@Gu@physx@@UEBAXAEBT__m128@@AEAT4@1@Z 0000000180125f90     GuMTD.obj
 0002:00007fa0       $unwind$?computeMTD_CapsuleConvex@@YA_NAEAVPxVec3@physx@@AEAMAEBVCapsule@Gu@2@AEBVPxTransform@2@AEBVPxConvexMeshGeometry@2@3@Z 0000000180125fa0     GuMTD.obj
 0002:00007fdc       $unwind$?computeMTD_BoxConvex@@YA_NAEAVPxVec3@physx@@AEAMAEBVBox@Gu@2@AEBVPxConvexMeshGeometry@2@AEBVPxTransform@2@@Z 0000000180125fdc     GuMTD.obj
 0002:0000801c       $unwind$?computeMTD_ConvexConvex@@YA_NAEAVPxVec3@physx@@AEAMAEBVPxConvexMeshGeometry@2@AEBVPxTransform@2@23@Z 000000018012601c     GuMTD.obj
 0002:00008034       $chain$0$?computeMTD_ConvexConvex@@YA_NAEAVPxVec3@physx@@AEAMAEBVPxConvexMeshGeometry@2@AEBVPxTransform@2@23@Z 0000000180126034     GuMTD.obj
 0002:00008048       $chain$1$?computeMTD_ConvexConvex@@YA_NAEAVPxVec3@physx@@AEAMAEBVPxConvexMeshGeometry@2@AEBVPxTransform@2@23@Z 0000000180126048     GuMTD.obj
 0002:0000805c       $chain$10$?computeMTD_ConvexConvex@@YA_NAEAVPxVec3@physx@@AEAMAEBVPxConvexMeshGeometry@2@AEBVPxTransform@2@23@Z 000000018012605c     GuMTD.obj
 0002:00008090       $chain$11$?computeMTD_ConvexConvex@@YA_NAEAVPxVec3@physx@@AEAMAEBVPxConvexMeshGeometry@2@AEBVPxTransform@2@23@Z 0000000180126090     GuMTD.obj
 0002:000080a0       $chain$12$?computeMTD_ConvexConvex@@YA_NAEAVPxVec3@physx@@AEAMAEBVPxConvexMeshGeometry@2@AEBVPxTransform@2@23@Z 00000001801260a0     GuMTD.obj
 0002:000080b0       $chain$13$?computeMTD_ConvexConvex@@YA_NAEAVPxVec3@physx@@AEAMAEBVPxConvexMeshGeometry@2@AEBVPxTransform@2@23@Z 00000001801260b0     GuMTD.obj
 0002:000080c0       $unwind$?computeMTD_PlaneConvex@@YA_NAEAVPxVec3@physx@@AEAMAEBVPxPlane@2@AEBVPxConvexMeshGeometry@2@AEBVPxTransform@2@@Z 00000001801260c0     GuMTD.obj
 0002:000080dc       $chain$6$?computeMTD_PlaneConvex@@YA_NAEAVPxVec3@physx@@AEAMAEBVPxPlane@2@AEBVPxConvexMeshGeometry@2@AEBVPxTransform@2@@Z 00000001801260dc     GuMTD.obj
 0002:00008108       $chain$7$?computeMTD_PlaneConvex@@YA_NAEAVPxVec3@physx@@AEAMAEBVPxPlane@2@AEBVPxConvexMeshGeometry@2@AEBVPxTransform@2@@Z 0000000180126108     GuMTD.obj
 0002:0000811c       $chain$8$?computeMTD_PlaneConvex@@YA_NAEAVPxVec3@physx@@AEAMAEBVPxPlane@2@AEBVPxConvexMeshGeometry@2@AEBVPxTransform@2@@Z 000000018012611c     GuMTD.obj
 0002:0000812c       $chain$9$?computeMTD_PlaneConvex@@YA_NAEAVPxVec3@physx@@AEAMAEBVPxPlane@2@AEBVPxConvexMeshGeometry@2@AEBVPxTransform@2@@Z 000000018012612c     GuMTD.obj
 0002:0000813c       $unwind$?processContacts@@YA_NAEAVPxVec3@physx@@AEAMIPEBUContactPoint@Gu@2@@Z 000000018012613c     GuMTD.obj
 0002:00008154       $chain$0$?processContacts@@YA_NAEAVPxVec3@physx@@AEAMIPEBUContactPoint@Gu@2@@Z 0000000180126154     GuMTD.obj
 0002:00008168       $chain$1$?processContacts@@YA_NAEAVPxVec3@physx@@AEAMIPEBUContactPoint@Gu@2@@Z 0000000180126168     GuMTD.obj
 0002:0000817c       $chain$6$?processContacts@@YA_NAEAVPxVec3@physx@@AEAMIPEBUContactPoint@Gu@2@@Z 000000018012617c     GuMTD.obj
 0002:000081a0       $chain$7$?processContacts@@YA_NAEAVPxVec3@physx@@AEAMIPEBUContactPoint@Gu@2@@Z 00000001801261a0     GuMTD.obj
 0002:000081b0       $chain$8$?processContacts@@YA_NAEAVPxVec3@physx@@AEAMIPEBUContactPoint@Gu@2@@Z 00000001801261b0     GuMTD.obj
 0002:000081c0       $chain$9$?processContacts@@YA_NAEAVPxVec3@physx@@AEAMIPEBUContactPoint@Gu@2@@Z 00000001801261c0     GuMTD.obj
 0002:000081d0       $unwind$?GeomMTDCallback_SphereSphere@@YA_NAEAVPxVec3@physx@@AEAMAEBVPxGeometry@2@AEBVPxTransform@2@23@Z 00000001801261d0     GuMTD.obj
 0002:000081e0       $unwind$?GeomMTDCallback_SpherePlane@@YA_NAEAVPxVec3@physx@@AEAMAEBVPxGeometry@2@AEBVPxTransform@2@23@Z 00000001801261e0     GuMTD.obj
 0002:000081fc       $unwind$?GeomMTDCallback_SphereCapsule@@YA_NAEAVPxVec3@physx@@AEAMAEBVPxGeometry@2@AEBVPxTransform@2@23@Z 00000001801261fc     GuMTD.obj
 0002:0000820c       $unwind$?GeomMTDCallback_SphereBox@@YA_NAEAVPxVec3@physx@@AEAMAEBVPxGeometry@2@AEBVPxTransform@2@23@Z 000000018012620c     GuMTD.obj
 0002:00008218       $unwind$?GeomMTDCallback_SphereConvex@@YA_NAEAVPxVec3@physx@@AEAMAEBVPxGeometry@2@AEBVPxTransform@2@23@Z 0000000180126218     GuMTD.obj
 0002:00008218       $unwind$?sweepConvex_MeshGeom_BV4@Gu@physx@@YAXPEBVTriangleMesh@12@AEBVBox@12@AEBVPxVec3@2@MAEAUSweepConvexMeshHitCallback@12@_N@Z 0000000180126218     GuMidphaseBV4.obj
 0002:00008218       $unwind$?intersectBoxVsMesh_RTREE@Gu@physx@@YA_NAEBVBox@12@AEBVTriangleMesh@12@AEBVPxTransform@2@AEBVPxMeshScale@2@PEAULimitedResults@12@@Z 0000000180126218     GuMidphaseRTree.obj
 0002:00008218       $unwind$?intersectCapsuleVsMesh_RTREE@Gu@physx@@YA_NAEBVCapsule@12@AEBVTriangleMesh@12@AEBVPxTransform@2@AEBVPxMeshScale@2@PEAULimitedResults@12@@Z 0000000180126218     GuMidphaseRTree.obj
 0002:00008218       $unwind$?intersectSphereVsMesh_RTREE@Gu@physx@@YA_NAEBVSphere@12@AEBVTriangleMesh@12@AEBVPxTransform@2@AEBVPxMeshScale@2@PEAULimitedResults@12@@Z 0000000180126218     GuMidphaseRTree.obj
 0002:00008218       $unwind$?GeomOverlapCallback_SphereMesh@@YA_NAEBVPxGeometry@physx@@AEBVPxTransform@2@01PEAUTriggerCache@Gu@2@@Z 0000000180126218     GuOverlapTestsMesh.obj
 0002:00008220       $unwind$?GeomMTDCallback_SphereHeightField@@YA_NAEAVPxVec3@physx@@AEAMAEBVPxGeometry@2@AEBVPxTransform@2@23@Z 0000000180126220     GuMTD.obj
 0002:00008220       $unwind$?GeomMTDCallback_SphereMesh@@YA_NAEAVPxVec3@physx@@AEAMAEBVPxGeometry@2@AEBVPxTransform@2@23@Z 0000000180126220     GuMTD.obj
 0002:00008244       $unwind$?GeomMTDCallback_PlaneCapsule@@YA_NAEAVPxVec3@physx@@AEAMAEBVPxGeometry@2@AEBVPxTransform@2@23@Z 0000000180126244     GuMTD.obj
 0002:00008274       $unwind$?GeomMTDCallback_PlaneBox@@YA_NAEAVPxVec3@physx@@AEAMAEBVPxGeometry@2@AEBVPxTransform@2@23@Z 0000000180126274     GuMTD.obj
 0002:00008298       $unwind$?GeomMTDCallback_PlaneConvex@@YA_NAEAVPxVec3@physx@@AEAMAEBVPxGeometry@2@AEBVPxTransform@2@23@Z 0000000180126298     GuMTD.obj
 0002:00008298       $unwind$?finalizeHit@ConvexTraceSegmentReport@@QEAA_NAEAUPxSweepHit@physx@@AEBVPxHeightFieldGeometry@3@AEBVPxTransform@3@AEBVPxConvexMeshGeometry@3@2AEBVPxVec3@3@M@Z 0000000180126298     GuSweepsHF.obj
 0002:000082a4       $unwind$?GeomMTDCallback_CapsuleCapsule@@YA_NAEAVPxVec3@physx@@AEAMAEBVPxGeometry@2@AEBVPxTransform@2@23@Z 00000001801262a4     GuMTD.obj
 0002:000082b4       $unwind$?GeomMTDCallback_CapsuleBox@@YA_NAEAVPxVec3@physx@@AEAMAEBVPxGeometry@2@AEBVPxTransform@2@23@Z 00000001801262b4     GuMTD.obj
 0002:000082c4       $unwind$?GeomMTDCallback_CapsuleConvex@@YA_NAEAVPxVec3@physx@@AEAMAEBVPxGeometry@2@AEBVPxTransform@2@23@Z 00000001801262c4     GuMTD.obj
 0002:000082d4       $unwind$?GeomMTDCallback_CapsuleHeightField@@YA_NAEAVPxVec3@physx@@AEAMAEBVPxGeometry@2@AEBVPxTransform@2@23@Z 00000001801262d4     GuMTD.obj
 0002:000082d4       $unwind$?GeomMTDCallback_CapsuleMesh@@YA_NAEAVPxVec3@physx@@AEAMAEBVPxGeometry@2@AEBVPxTransform@2@23@Z 00000001801262d4     GuMTD.obj
 0002:000082f0       $unwind$?GeomMTDCallback_BoxBox@@YA_NAEAVPxVec3@physx@@AEAMAEBVPxGeometry@2@AEBVPxTransform@2@23@Z 00000001801262f0     GuMTD.obj
 0002:00008304       $unwind$?GeomMTDCallback_BoxConvex@@YA_NAEAVPxVec3@physx@@AEAMAEBVPxGeometry@2@AEBVPxTransform@2@23@Z 0000000180126304     GuMTD.obj
 0002:00008304       $unwind$?GeomOverlapCallback_SphereBox@@YA_NAEBVPxGeometry@physx@@AEBVPxTransform@2@01PEAUTriggerCache@Gu@2@@Z 0000000180126304     GuOverlapTests.obj
 0002:00008310       $unwind$?GeomMTDCallback_BoxHeightField@@YA_NAEAVPxVec3@physx@@AEAMAEBVPxGeometry@2@AEBVPxTransform@2@23@Z 0000000180126310     GuMTD.obj
 0002:00008310       $unwind$?GeomMTDCallback_BoxMesh@@YA_NAEAVPxVec3@physx@@AEAMAEBVPxGeometry@2@AEBVPxTransform@2@23@Z 0000000180126310     GuMTD.obj
 0002:0000833c       $unwind$?GeomMTDCallback_ConvexHeightField@@YA_NAEAVPxVec3@physx@@AEAMAEBVPxGeometry@2@AEBVPxTransform@2@23@Z 000000018012633c     GuMTD.obj
 0002:0000833c       $unwind$?GeomMTDCallback_ConvexMesh@@YA_NAEAVPxVec3@physx@@AEAMAEBVPxGeometry@2@AEBVPxTransform@2@23@Z 000000018012633c     GuMTD.obj
 0002:00008350       $unwind$?ComputeNearestOffset@BigConvexData@physx@@QEBAIAEBVPxVec3@2@@Z 0000000180126350     GuBigConvexData.obj
 0002:00008350       $unwind$?ComputeOffset@BigConvexData@physx@@QEBAIAEBVPxVec3@2@@Z 0000000180126350     GuBigConvexData.obj
 0002:00008350       $unwind$?ComputeCubemapNearestOffset@physx@@YAIAEBVPxVec3@1@I@Z 0000000180126350     GuOverlapTests.obj
 0002:00008364       $unwind$?projectHull_@@YA?AVPxVec3@physx@@AEBUConvexHullData@Gu@2@AEAM1AEBV12@AEBVPxMat33@2@@Z 0000000180126364     GuOverlapTests.obj
 0002:0000838c       $unwind$?intersectSphereConvex@@YA_NAEBVPxTransform@physx@@MAEBVConvexMesh@Gu@2@AEBVPxMeshScale@2@0PEAVPxVec3@2@@Z 000000018012638c     GuOverlapTests.obj
 0002:000083c0       $unwind$?intersectCapsuleConvex@@YA_NAEBVPxCapsuleGeometry@physx@@AEBVPxTransform@2@AEBVConvexMesh@Gu@2@AEBVPxMeshScale@2@1PEAVPxVec3@2@@Z 00000001801263c0     GuOverlapTests.obj
 0002:000083fc       $unwind$?intersectBoxConvex@@YA_NAEBVPxBoxGeometry@physx@@AEBVPxTransform@2@AEBVConvexMesh@Gu@2@AEBVPxMeshScale@2@1PEAVPxVec3@2@@Z 00000001801263fc     GuOverlapTests.obj
 0002:0000843c       $unwind$??$gjk@U?$RelativeConvex@VBoxV@Gu@physx@@@Gu@physx@@U?$LocalConvex@VConvexHullV@Gu@physx@@@23@@Gu@physx@@YA?AW4GjkStatus@01@AEBU?$RelativeConvex@VBoxV@Gu@physx@@@01@AEBU?$LocalConvex@VConvexHullV@Gu@physx@@@01@AEBT__m128@@2AEAT5@333@Z 000000018012643c     GuOverlapTests.obj
 0002:00008480       $unwind$?GeomOverlapCallback_SphereCapsule@@YA_NAEBVPxGeometry@physx@@AEBVPxTransform@2@01PEAUTriggerCache@Gu@2@@Z 0000000180126480     GuOverlapTests.obj
 0002:000084a0       $unwind$?GeomOverlapCallback_BoxConvex@@YA_NAEBVPxGeometry@physx@@AEBVPxTransform@2@01PEAUTriggerCache@Gu@2@@Z 00000001801264a0     GuOverlapTests.obj
 0002:000084a0       $unwind$?GeomOverlapCallback_CapsuleConvex@@YA_NAEBVPxGeometry@physx@@AEBVPxTransform@2@01PEAUTriggerCache@Gu@2@@Z 00000001801264a0     GuOverlapTests.obj
 0002:000084a0       $unwind$?GeomOverlapCallback_SphereConvex@@YA_NAEBVPxGeometry@physx@@AEBVPxTransform@2@01PEAUTriggerCache@Gu@2@@Z 00000001801264a0     GuOverlapTests.obj
 0002:000084b8       $unwind$?GeomOverlapCallback_PlaneCapsule@@YA_NAEBVPxGeometry@physx@@AEBVPxTransform@2@01PEAUTriggerCache@Gu@2@@Z 00000001801264b8     GuOverlapTests.obj
 0002:000084dc       $unwind$?GeomOverlapCallback_PlaneBox@@YA_NAEBVPxGeometry@physx@@AEBVPxTransform@2@01PEAUTriggerCache@Gu@2@@Z 00000001801264dc     GuOverlapTests.obj
 0002:00008510       $unwind$?GeomOverlapCallback_PlaneConvex@@YA_NAEBVPxGeometry@physx@@AEBVPxTransform@2@01PEAUTriggerCache@Gu@2@@Z 0000000180126510     GuOverlapTests.obj
 0002:00008548       $unwind$?GeomOverlapCallback_CapsuleCapsule@@YA_NAEBVPxGeometry@physx@@AEBVPxTransform@2@01PEAUTriggerCache@Gu@2@@Z 0000000180126548     GuOverlapTests.obj
 0002:0000856c       $unwind$?GeomOverlapCallback_CapsuleBox@@YA_NAEBVPxGeometry@physx@@AEBVPxTransform@2@01PEAUTriggerCache@Gu@2@@Z 000000018012656c     GuOverlapTests.obj
 0002:000085a0       $unwind$?GeomOverlapCallback_BoxBox@@YA_NAEBVPxGeometry@physx@@AEBVPxTransform@2@01PEAUTriggerCache@Gu@2@@Z 00000001801265a0     GuOverlapTests.obj
 0002:000085b4       $unwind$?GeomOverlapCallback_ConvexConvex@@YA_NAEBVPxGeometry@physx@@AEBVPxTransform@2@01PEAUTriggerCache@Gu@2@@Z 00000001801265b4     GuOverlapTests.obj
 0002:000085ec       $unwind$?support@?$RelativeConvex@VConvexHullV@Gu@physx@@@Gu@physx@@UEBA?AT__m128@@AEBT4@@Z 00000001801265ec     GuOverlapTests.obj
 0002:0000860c       $unwind$?support@?$RelativeConvex@VConvexHullV@Gu@physx@@@Gu@physx@@UEBA?AT__m128@@AEBT4@AEAH@Z 000000018012660c     GuOverlapTests.obj
 0002:00008624       $unwind$??$gjk@U?$RelativeConvex@VConvexHullV@Gu@physx@@@Gu@physx@@U?$LocalConvex@VConvexHullV@Gu@physx@@@23@@Gu@physx@@YA?AW4GjkStatus@01@AEBU?$RelativeConvex@VConvexHullV@Gu@physx@@@01@AEBU?$LocalConvex@VConvexHullV@Gu@physx@@@01@AEBT__m128@@2AEAT5@333@Z 0000000180126624     GuOverlapTests.obj
 0002:00008624       $unwind$??$gjk@U?$RelativeConvex@VTriangleV@Gu@physx@@@Gu@physx@@U?$LocalConvex@VConvexHullV@Gu@physx@@@23@@Gu@physx@@YA?AW4GjkStatus@01@AEBU?$RelativeConvex@VTriangleV@Gu@physx@@@01@AEBU?$LocalConvex@VConvexHullV@Gu@physx@@@01@AEBT__m128@@2AEAT5@333@Z 0000000180126624     GuOverlapTestsMesh.obj
 0002:00008668       $unwind$??Dphysx@@YA?AVMatrix34@Cm@0@AEBVPxMeshScale@0@AEBVPxTransform@0@@Z 0000000180126668     GuRaycastTests.obj
 0002:00008698       $unwind$?raycast_box@@YAIAEBVPxGeometry@physx@@AEBVPxTransform@2@AEBVPxVec3@2@2MV?$PxFlags@W4Enum@PxHitFlag@physx@@G@2@IPEIAUPxRaycastHit@2@@Z 0000000180126698     GuRaycastTests.obj
 0002:000086d4       $chain$0$?raycast_box@@YAIAEBVPxGeometry@physx@@AEBVPxTransform@2@AEBVPxVec3@2@2MV?$PxFlags@W4Enum@PxHitFlag@physx@@G@2@IPEIAUPxRaycastHit@2@@Z 00000001801266d4     GuRaycastTests.obj
 0002:000086e8       $chain$1$?raycast_box@@YAIAEBVPxGeometry@physx@@AEBVPxTransform@2@AEBVPxVec3@2@2MV?$PxFlags@W4Enum@PxHitFlag@physx@@G@2@IPEIAUPxRaycastHit@2@@Z 00000001801266e8     GuRaycastTests.obj
 0002:000086f8       $unwind$?raycast_sphere@@YAIAEBVPxGeometry@physx@@AEBVPxTransform@2@AEBVPxVec3@2@2MV?$PxFlags@W4Enum@PxHitFlag@physx@@G@2@IPEIAUPxRaycastHit@2@@Z 00000001801266f8     GuRaycastTests.obj
 0002:00008710       $chain$0$?raycast_sphere@@YAIAEBVPxGeometry@physx@@AEBVPxTransform@2@AEBVPxVec3@2@2MV?$PxFlags@W4Enum@PxHitFlag@physx@@G@2@IPEIAUPxRaycastHit@2@@Z 0000000180126710     GuRaycastTests.obj
 0002:00008724       $chain$2$?raycast_sphere@@YAIAEBVPxGeometry@physx@@AEBVPxTransform@2@AEBVPxVec3@2@2MV?$PxFlags@W4Enum@PxHitFlag@physx@@G@2@IPEIAUPxRaycastHit@2@@Z 0000000180126724     GuRaycastTests.obj
 0002:00008738       $chain$3$?raycast_sphere@@YAIAEBVPxGeometry@physx@@AEBVPxTransform@2@AEBVPxVec3@2@2MV?$PxFlags@W4Enum@PxHitFlag@physx@@G@2@IPEIAUPxRaycastHit@2@@Z 0000000180126738     GuRaycastTests.obj
 0002:00008748       $unwind$?raycast_capsule@@YAIAEBVPxGeometry@physx@@AEBVPxTransform@2@AEBVPxVec3@2@2MV?$PxFlags@W4Enum@PxHitFlag@physx@@G@2@IPEIAUPxRaycastHit@2@@Z 0000000180126748     GuRaycastTests.obj
 0002:00008780       $unwind$?raycast_plane@@YAIAEBVPxGeometry@physx@@AEBVPxTransform@2@AEBVPxVec3@2@2MV?$PxFlags@W4Enum@PxHitFlag@physx@@G@2@IPEIAUPxRaycastHit@2@@Z 0000000180126780     GuRaycastTests.obj
 0002:000087a0       $unwind$?raycast_convexMesh@@YAIAEBVPxGeometry@physx@@AEBVPxTransform@2@AEBVPxVec3@2@2MV?$PxFlags@W4Enum@PxHitFlag@physx@@G@2@IPEIAUPxRaycastHit@2@@Z 00000001801267a0     GuRaycastTests.obj
 0002:000087dc       $unwind$?raycast_triangleMesh@@YAIAEBVPxGeometry@physx@@AEBVPxTransform@2@AEBVPxVec3@2@2MV?$PxFlags@W4Enum@PxHitFlag@physx@@G@2@IPEIAUPxRaycastHit@2@@Z 00000001801267dc     GuRaycastTests.obj
 0002:000087dc       $unwind$?sweepBox_MeshGeom@@YA_NAEBVPxGeometry@physx@@AEBVPxTransform@2@AEBVPxBoxGeometry@2@1AEBVBox@Gu@2@AEBVPxVec3@2@MAEAUPxSweepHit@2@V?$PxFlags@W4Enum@PxHitFlag@physx@@G@2@M@Z 00000001801267dc     GuSweepsMesh.obj
 0002:000087dc       $unwind$?sweepCapsule_MeshGeom@@YA_NAEBVPxGeometry@physx@@AEBVPxTransform@2@AEBVPxCapsuleGeometry@2@1AEBVCapsule@Gu@2@AEBVPxVec3@2@MAEAUPxSweepHit@2@V?$PxFlags@W4Enum@PxHitFlag@physx@@G@2@M@Z 00000001801267dc     GuSweepsMesh.obj
 0002:000087e4       $unwind$?faceHit@HFTraceSegmentCallback@?A0x02500555@@QEAA_NAEBVHeightFieldUtil@Gu@physx@@AEBVPxVec3@5@IMM@Z 00000001801267e4     GuRaycastTests.obj
 0002:00008810       $chain$9$?faceHit@HFTraceSegmentCallback@?A0x02500555@@QEAA_NAEBVHeightFieldUtil@Gu@physx@@AEBVPxVec3@5@IMM@Z 0000000180126810     GuRaycastTests.obj
 0002:00008828       $chain$10$?faceHit@HFTraceSegmentCallback@?A0x02500555@@QEAA_NAEBVHeightFieldUtil@Gu@physx@@AEBVPxVec3@5@IMM@Z 0000000180126828     GuRaycastTests.obj
 0002:0000883c       $chain$11$?faceHit@HFTraceSegmentCallback@?A0x02500555@@QEAA_NAEBVHeightFieldUtil@Gu@physx@@AEBVPxVec3@5@IMM@Z 000000018012683c     GuRaycastTests.obj
 0002:0000884c       $chain$12$?faceHit@HFTraceSegmentCallback@?A0x02500555@@QEAA_NAEBVHeightFieldUtil@Gu@physx@@AEBVPxVec3@5@IMM@Z 000000018012684c     GuRaycastTests.obj
 0002:00008860       $unwind$?raycast_heightField@@YAIAEBVPxGeometry@physx@@AEBVPxTransform@2@AEBVPxVec3@2@2MV?$PxFlags@W4Enum@PxHitFlag@physx@@G@2@IPEIAUPxRaycastHit@2@@Z 0000000180126860     GuRaycastTests.obj
 0002:0000887c       $chain$1$?raycast_heightField@@YAIAEBVPxGeometry@physx@@AEBVPxTransform@2@AEBVPxVec3@2@2MV?$PxFlags@W4Enum@PxHitFlag@physx@@G@2@IPEIAUPxRaycastHit@2@@Z 000000018012687c     GuRaycastTests.obj
 0002:00008894       $chain$7$?raycast_heightField@@YAIAEBVPxGeometry@physx@@AEBVPxTransform@2@AEBVPxVec3@2@2MV?$PxFlags@W4Enum@PxHitFlag@physx@@G@2@IPEIAUPxRaycastHit@2@@Z 0000000180126894     GuRaycastTests.obj
 0002:000088bc       $chain$8$?raycast_heightField@@YAIAEBVPxGeometry@physx@@AEBVPxTransform@2@AEBVPxVec3@2@2MV?$PxFlags@W4Enum@PxHitFlag@physx@@G@2@IPEIAUPxRaycastHit@2@@Z 00000001801268bc     GuRaycastTests.obj
 0002:000088d4       $chain$9$?raycast_heightField@@YAIAEBVPxGeometry@physx@@AEBVPxTransform@2@AEBVPxVec3@2@2MV?$PxFlags@W4Enum@PxHitFlag@physx@@G@2@IPEIAUPxRaycastHit@2@@Z 00000001801268d4     GuRaycastTests.obj
 0002:000088e4       $unwind$??$traceSegment@UHFTraceSegmentCallback@?A0x02500555@@$0A@$0A@@HeightFieldTraceUtil@Gu@physx@@QEBAXAEBVPxVec3@2@0MPEAUHFTraceSegmentCallback@?A0x02500555@@AEBVPxBounds3@2@_NPEBV32@@Z 00000001801268e4     GuRaycastTests.obj
 0002:000088f8       $chain$11$??$traceSegment@UHFTraceSegmentCallback@?A0x02500555@@$0A@$0A@@HeightFieldTraceUtil@Gu@physx@@QEBAXAEBVPxVec3@2@0MPEAUHFTraceSegmentCallback@?A0x02500555@@AEBVPxBounds3@2@_NPEBV32@@Z 00000001801268f8     GuRaycastTests.obj
 0002:00008938       $chain$12$??$traceSegment@UHFTraceSegmentCallback@?A0x02500555@@$0A@$0A@@HeightFieldTraceUtil@Gu@physx@@QEBAXAEBVPxVec3@2@0MPEAUHFTraceSegmentCallback@?A0x02500555@@AEBVPxBounds3@2@_NPEBV32@@Z 0000000180126938     GuRaycastTests.obj
 0002:0000894c       $chain$13$??$traceSegment@UHFTraceSegmentCallback@?A0x02500555@@$0A@$0A@@HeightFieldTraceUtil@Gu@physx@@QEBAXAEBVPxVec3@2@0MPEAUHFTraceSegmentCallback@?A0x02500555@@AEBVPxBounds3@2@_NPEBV32@@Z 000000018012694c     GuRaycastTests.obj
 0002:0000895c       $unwind$?writeWord@physx@@YAXG_NAEAVPxOutputStream@1@@Z 000000018012695c     GuSerialize.obj
 0002:00008964       $unwind$?writeDword@physx@@YAXI_NAEAVPxOutputStream@1@@Z 0000000180126964     GuSerialize.obj
 0002:0000896c       $unwind$?writeFloat@physx@@YAXM_NAEAVPxOutputStream@1@@Z 000000018012696c     GuSerialize.obj
 0002:00008974       $unwind$?WriteHeader@Gu@physx@@YA_NEEEEI_NAEAVPxOutputStream@2@@Z 0000000180126974     GuSerialize.obj
 0002:00008974       $unwind$?writeHeader@physx@@YA_NCCCCI_NAEAVPxOutputStream@1@@Z 0000000180126974     GuSerialize.obj
 0002:00008988       $unwind$?_buildHierarchy@AABBTreeBuildNode@Gu@physx@@QEAAXAEAVAABBTreeBuildParams@23@AEAUBuildStats@23@AEAVNodeAllocator@23@QEAI@Z 0000000180126988     GuAABBTreeBuild.obj
 0002:00008988       $unwind$?fillInNodes@@YAXPEBVAABBTreeNode@Gu@physx@@IIPEAPEBV123@AEAI@Z 0000000180126988     GuBV32Build.obj
 0002:00008988       $unwind$?ReadHeader@Gu@physx@@YA_NEEEEAEAIAEA_NAEAVPxInputStream@2@@Z 0000000180126988     GuSerialize.obj
 0002:00008988       $unwind$?readHeader@physx@@YA_NCCCCAEAIAEA_NAEAVPxInputStream@1@@Z 0000000180126988     GuSerialize.obj
 0002:000089a0       $unwind$?StoreIndices@Gu@physx@@YAXGIPEBGAEAVPxOutputStream@2@_N@Z 00000001801269a0     GuSerialize.obj
 0002:000089a0       $unwind$?StoreIndices@Gu@physx@@YAXIIPEBIAEAVPxOutputStream@2@_N@Z 00000001801269a0     GuSerialize.obj
 0002:000089ac       $chain$0$?StoreIndices@Gu@physx@@YAXIIPEBIAEAVPxOutputStream@2@_N@Z 00000001801269ac     GuSerialize.obj
 0002:000089c0       $chain$2$?StoreIndices@Gu@physx@@YAXIIPEBIAEAVPxOutputStream@2@_N@Z 00000001801269c0     GuSerialize.obj
 0002:000089c0       $chain$4$?StoreIndices@Gu@physx@@YAXIIPEBIAEAVPxOutputStream@2@_N@Z 00000001801269c0     GuSerialize.obj
 0002:000089c0       $chain$6$?StoreIndices@Gu@physx@@YAXIIPEBIAEAVPxOutputStream@2@_N@Z 00000001801269c0     GuSerialize.obj
 0002:000089c0       $chain$8$?StoreIndices@Gu@physx@@YAXIIPEBIAEAVPxOutputStream@2@_N@Z 00000001801269c0     GuSerialize.obj
 0002:000089d4       $chain$9$?StoreIndices@Gu@physx@@YAXIIPEBIAEAVPxOutputStream@2@_N@Z 00000001801269d4     GuSerialize.obj
 0002:000089e4       $chain$0$?StoreIndices@Gu@physx@@YAXGIPEBGAEAVPxOutputStream@2@_N@Z 00000001801269e4     GuSerialize.obj
 0002:000089f8       $chain$2$?StoreIndices@Gu@physx@@YAXGIPEBGAEAVPxOutputStream@2@_N@Z 00000001801269f8     GuSerialize.obj
 0002:000089f8       $chain$4$?StoreIndices@Gu@physx@@YAXGIPEBGAEAVPxOutputStream@2@_N@Z 00000001801269f8     GuSerialize.obj
 0002:00008a0c       $chain$5$?StoreIndices@Gu@physx@@YAXGIPEBGAEAVPxOutputStream@2@_N@Z 0000000180126a0c     GuSerialize.obj
 0002:00008a1c       $unwind$?ReadIndices@Gu@physx@@YAXGIPEAGAEAVPxInputStream@2@_N@Z 0000000180126a1c     GuSerialize.obj
 0002:00008a34       $unwind$?getInverse@PxMat33@physx@@QEBA?BV12@XZ 0000000180126a34     GuSweepMTD.obj
 0002:00008a54       $chain$1$?getInverse@PxMat33@physx@@QEBA?BV12@XZ 0000000180126a54     GuSweepMTD.obj
 0002:00008a6c       $chain$2$?getInverse@PxMat33@physx@@QEBA?BV12@XZ 0000000180126a6c     GuSweepMTD.obj
 0002:00008a7c       $unwind$?init@FastVertex2ShapeScaling@Cm@physx@@QEAAXAEBVPxVec3@3@AEBVPxQuat@3@@Z 0000000180126a7c     GuSweepMTD.obj
 0002:00008ab0       $unwind$??Dphysx@@YA?AVMatrix34@Cm@0@AEBVPxTransform@0@AEBVPxMeshScale@0@@Z 0000000180126ab0     GuSweepMTD.obj
 0002:00008ae0       $unwind$?computeCapsule_TriangleMeshMTD@Gu@physx@@YA_NAEBVPxTriangleMeshGeometry@2@AEBVPxTransform@2@AEAVCapsuleV@12@M_NAEAUPxSweepHit@2@@Z 0000000180126ae0     GuSweepMTD.obj
 0002:00008b20       $unwind$?computeCapsule_HeightFieldMTD@Gu@physx@@YA_NAEBVPxHeightFieldGeometry@2@AEBVPxTransform@2@AEAVCapsuleV@12@M_NIAEAUPxSweepHit@2@@Z 0000000180126b20     GuSweepMTD.obj
 0002:00008b60       $unwind$?computeBox_TriangleMeshMTD@Gu@physx@@YA_NAEBVPxTriangleMeshGeometry@2@AEBVPxTransform@2@AEBVBox@12@1M_NAEAUPxSweepHit@2@@Z 0000000180126b60     GuSweepMTD.obj
 0002:00008b6c       $chain$13$?computeBox_TriangleMeshMTD@Gu@physx@@YA_NAEBVPxTriangleMeshGeometry@2@AEBVPxTransform@2@AEBVBox@12@1M_NAEAUPxSweepHit@2@@Z 0000000180126b6c     GuSweepMTD.obj
 0002:00008bb4       $chain$15$?computeBox_TriangleMeshMTD@Gu@physx@@YA_NAEBVPxTriangleMeshGeometry@2@AEBVPxTransform@2@AEBVBox@12@1M_NAEAUPxSweepHit@2@@Z 0000000180126bb4     GuSweepMTD.obj
 0002:00008bcc       $chain$16$?computeBox_TriangleMeshMTD@Gu@physx@@YA_NAEBVPxTriangleMeshGeometry@2@AEBVPxTransform@2@AEBVBox@12@1M_NAEAUPxSweepHit@2@@Z 0000000180126bcc     GuSweepMTD.obj
 0002:00008bdc       $unwind$?computeBox_HeightFieldMTD@Gu@physx@@YA_NAEBVPxHeightFieldGeometry@2@AEBVPxTransform@2@AEBVBox@12@1M_NIAEAUPxSweepHit@2@@Z 0000000180126bdc     GuSweepMTD.obj
 0002:00008c1c       $unwind$?computeConvex_TriangleMeshMTD@Gu@physx@@YA_NAEBVPxTriangleMeshGeometry@2@AEBVPxTransform@2@AEBVPxConvexMeshGeometry@2@1M_NAEAUPxSweepHit@2@@Z 0000000180126c1c     GuSweepMTD.obj
 0002:00008c28       $chain$12$?computeConvex_TriangleMeshMTD@Gu@physx@@YA_NAEBVPxTriangleMeshGeometry@2@AEBVPxTransform@2@AEBVPxConvexMeshGeometry@2@1M_NAEAUPxSweepHit@2@@Z 0000000180126c28     GuSweepMTD.obj
 0002:00008c6c       $chain$15$?computeConvex_TriangleMeshMTD@Gu@physx@@YA_NAEBVPxTriangleMeshGeometry@2@AEBVPxTransform@2@AEBVPxConvexMeshGeometry@2@1M_NAEAUPxSweepHit@2@@Z 0000000180126c6c     GuSweepMTD.obj
 0002:00008c88       $chain$16$?computeConvex_TriangleMeshMTD@Gu@physx@@YA_NAEBVPxTriangleMeshGeometry@2@AEBVPxTransform@2@AEBVPxConvexMeshGeometry@2@1M_NAEAUPxSweepHit@2@@Z 0000000180126c88     GuSweepMTD.obj
 0002:00008c98       $chain$17$?computeConvex_TriangleMeshMTD@Gu@physx@@YA_NAEBVPxTriangleMeshGeometry@2@AEBVPxTransform@2@AEBVPxConvexMeshGeometry@2@1M_NAEAUPxSweepHit@2@@Z 0000000180126c98     GuSweepMTD.obj
 0002:00008ce8       $unwind$?computeConvex_HeightFieldMTD@Gu@physx@@YA_NAEBVPxHeightFieldGeometry@2@AEBVPxTransform@2@AEBVPxConvexMeshGeometry@2@1M_NIAEAUPxSweepHit@2@@Z 0000000180126ce8     GuSweepMTD.obj
 0002:00008d28       $unwind$?distancePointBoxSquared@Gu@physx@@YAMAEBVPxVec3@2@00AEBVPxMat33@2@PEAV32@@Z 0000000180126d28     GuDistancePointBox.obj
 0002:00008d28       $unwind$?computeSphere_SphereMTD@Gu@physx@@YA_NAEBVSphere@12@0AEAUPxSweepHit@2@@Z 0000000180126d28     GuSweepMTD.obj
 0002:00008d34       $unwind$?computeSphere_CapsuleMTD@Gu@physx@@YA_NAEBVSphere@12@AEBVCapsule@12@AEAUPxSweepHit@2@@Z 0000000180126d34     GuSweepMTD.obj
 0002:00008d4c       $unwind$?computeCapsule_CapsuleMTD@Gu@physx@@YA_NAEBVCapsule@12@0AEAUPxSweepHit@2@@Z 0000000180126d4c     GuSweepMTD.obj
 0002:00008d74       $unwind$?computePlane_CapsuleMTD@Gu@physx@@YA_NAEBVPxPlane@2@AEBVCapsule@12@AEAUPxSweepHit@2@@Z 0000000180126d74     GuSweepMTD.obj
 0002:00008d8c       $unwind$?computePlane_BoxMTD@Gu@physx@@YA_NAEBVPxPlane@2@AEBVBox@12@AEAUPxSweepHit@2@@Z 0000000180126d8c     GuSweepMTD.obj
 0002:00008db0       $unwind$?computePlane_ConvexMTD@Gu@physx@@YA_NAEBVPxPlane@2@AEBVPxConvexMeshGeometry@2@AEBVPxTransform@2@AEAUPxSweepHit@2@@Z 0000000180126db0     GuSweepMTD.obj
 0002:00008dec       $chain$0$?growAndPushBack@?$Array@IVNamedAllocator@shdfnd@physx@@@shdfnd@physx@@IEAAAEAIAEBI@Z 0000000180126dec     GuSweepMTD.obj
 0002:00008e00       $chain$1$?growAndPushBack@?$Array@IVNamedAllocator@shdfnd@physx@@@shdfnd@physx@@IEAAAEAIAEBI@Z 0000000180126e00     GuSweepMTD.obj
 0002:00008e14       $chain$2$?growAndPushBack@?$Array@IVNamedAllocator@shdfnd@physx@@@shdfnd@physx@@IEAAAEAIAEBI@Z 0000000180126e14     GuSweepMTD.obj
 0002:00008e24       $chain$3$?growAndPushBack@?$Array@IVNamedAllocator@shdfnd@physx@@@shdfnd@physx@@IEAAAEAIAEBI@Z 0000000180126e24     GuSweepMTD.obj
 0002:00008e34       $chain$0$?recreate@?$Array@IVNamedAllocator@shdfnd@physx@@@shdfnd@physx@@IEAAXI@Z 0000000180126e34     GuSweepMTD.obj
 0002:00008e48       $chain$1$?recreate@?$Array@IVNamedAllocator@shdfnd@physx@@@shdfnd@physx@@IEAAXI@Z 0000000180126e48     GuSweepMTD.obj
 0002:00008e58       $chain$0$?onEvent@MidPhaseQueryLocalReport@@UEAA_NIPEAI@Z 0000000180126e58     GuSweepMTD.obj
 0002:00008e6c       $chain$1$?onEvent@MidPhaseQueryLocalReport@@UEAA_NIPEAI@Z 0000000180126e6c     GuSweepMTD.obj
 0002:00008e7c       $unwind$?sweepCapsuleTriangles@Gu@physx@@YA_NIPEBVPxTriangle@2@_NAEBVPxCapsuleGeometry@2@AEBVPxTransform@2@AEBVPxVec3@2@MAEAUPxSweepHit@2@PEBIMV?$PxFlags@W4Enum@PxHitFlag@physx@@G@2@@Z 0000000180126e7c     GuSweepSharedTests.obj
 0002:00008e9c       $unwind$?computeSweepConvexPlane@@YAIAEBVPxConvexMeshGeometry@physx@@PEAUConvexHullData@Gu@2@AEBIAEBVPxTransform@2@AEBVPxVec3@2@4@Z 0000000180126e9c     GuSweepSharedTests.obj
 0002:00008ed4       $unwind$?sweepCapsule_SphereGeom@@YA_NAEBVPxGeometry@physx@@AEBVPxTransform@2@AEBVPxCapsuleGeometry@2@1AEBVCapsule@Gu@2@AEBVPxVec3@2@MAEAUPxSweepHit@2@V?$PxFlags@W4Enum@PxHitFlag@physx@@G@2@M@Z 0000000180126ed4     GuSweepSharedTests.obj
 0002:00008ee8       $unwind$?sweepCapsule_PlaneGeom@@YA_NAEBVPxGeometry@physx@@AEBVPxTransform@2@AEBVPxCapsuleGeometry@2@1AEBVCapsule@Gu@2@AEBVPxVec3@2@MAEAUPxSweepHit@2@V?$PxFlags@W4Enum@PxHitFlag@physx@@G@2@M@Z 0000000180126ee8     GuSweepSharedTests.obj
 0002:00008f04       $unwind$?sweepCapsule_CapsuleGeom@@YA_NAEBVPxGeometry@physx@@AEBVPxTransform@2@AEBVPxCapsuleGeometry@2@1AEBVCapsule@Gu@2@AEBVPxVec3@2@MAEAUPxSweepHit@2@V?$PxFlags@W4Enum@PxHitFlag@physx@@G@2@M@Z 0000000180126f04     GuSweepSharedTests.obj
 0002:00008f20       $unwind$?sweepCapsule_ConvexGeom@@YA_NAEBVPxGeometry@physx@@AEBVPxTransform@2@AEBVPxCapsuleGeometry@2@1AEBVCapsule@Gu@2@AEBVPxVec3@2@MAEAUPxSweepHit@2@V?$PxFlags@W4Enum@PxHitFlag@physx@@G@2@M@Z 0000000180126f20     GuSweepSharedTests.obj
 0002:00008f68       $unwind$?sweepBox_PlaneGeom@@YA_NAEBVPxGeometry@physx@@AEBVPxTransform@2@AEBVPxBoxGeometry@2@1AEBVBox@Gu@2@AEBVPxVec3@2@MAEAUPxSweepHit@2@V?$PxFlags@W4Enum@PxHitFlag@physx@@G@2@M@Z 0000000180126f68     GuSweepSharedTests.obj
 0002:00008f8c       $unwind$?sweepBox_ConvexGeom@@YA_NAEBVPxGeometry@physx@@AEBVPxTransform@2@AEBVPxBoxGeometry@2@1AEBVBox@Gu@2@AEBVPxVec3@2@MAEAUPxSweepHit@2@V?$PxFlags@W4Enum@PxHitFlag@physx@@G@2@M@Z 0000000180126f8c     GuSweepSharedTests.obj
 0002:00008fd4       $unwind$?sweepConvex_SphereGeom@@YA_NAEBVPxGeometry@physx@@AEBVPxTransform@2@AEBVPxConvexMeshGeometry@2@1AEBVPxVec3@2@MAEAUPxSweepHit@2@V?$PxFlags@W4Enum@PxHitFlag@physx@@G@2@M@Z 0000000180126fd4     GuSweepSharedTests.obj
 0002:00009018       $unwind$?sweepConvex_PlaneGeom@@YA_NAEBVPxGeometry@physx@@AEBVPxTransform@2@AEBVPxConvexMeshGeometry@2@1AEBVPxVec3@2@MAEAUPxSweepHit@2@V?$PxFlags@W4Enum@PxHitFlag@physx@@G@2@M@Z 0000000180127018     GuSweepSharedTests.obj
 0002:0000905c       $chain$0$?sweepConvex_PlaneGeom@@YA_NAEBVPxGeometry@physx@@AEBVPxTransform@2@AEBVPxConvexMeshGeometry@2@1AEBVPxVec3@2@MAEAUPxSweepHit@2@V?$PxFlags@W4Enum@PxHitFlag@physx@@G@2@M@Z 000000018012705c     GuSweepSharedTests.obj
 0002:00009070       $chain$1$?sweepConvex_PlaneGeom@@YA_NAEBVPxGeometry@physx@@AEBVPxTransform@2@AEBVPxConvexMeshGeometry@2@1AEBVPxVec3@2@MAEAUPxSweepHit@2@V?$PxFlags@W4Enum@PxHitFlag@physx@@G@2@M@Z 0000000180127070     GuSweepSharedTests.obj
 0002:00009080       $unwind$?sweepConvex_CapsuleGeom@@YA_NAEBVPxGeometry@physx@@AEBVPxTransform@2@AEBVPxConvexMeshGeometry@2@1AEBVPxVec3@2@MAEAUPxSweepHit@2@V?$PxFlags@W4Enum@PxHitFlag@physx@@G@2@M@Z 0000000180127080     GuSweepSharedTests.obj
 0002:00009098       $unwind$?sweepConvex_BoxGeom@@YA_NAEBVPxGeometry@physx@@AEBVPxTransform@2@AEBVPxConvexMeshGeometry@2@1AEBVPxVec3@2@MAEAUPxSweepHit@2@V?$PxFlags@W4Enum@PxHitFlag@physx@@G@2@M@Z 0000000180127098     GuSweepSharedTests.obj
 0002:000090ac       $unwind$?sweepConvex_ConvexGeom@@YA_NAEBVPxGeometry@physx@@AEBVPxTransform@2@AEBVPxConvexMeshGeometry@2@1AEBVPxVec3@2@MAEAUPxSweepHit@2@V?$PxFlags@W4Enum@PxHitFlag@physx@@G@2@M@Z 00000001801270ac     GuSweepSharedTests.obj
 0002:000090f4       $unwind$??$gjkRaycastPenetration@U?$RelativeConvex@VConvexHullV@Gu@physx@@@Gu@physx@@U?$LocalConvex@VConvexHullV@Gu@physx@@@23@@Gu@physx@@YA_NAEBU?$RelativeConvex@VConvexHullV@Gu@physx@@@01@AEBU?$LocalConvex@VConvexHullV@Gu@physx@@@01@AEBT__m128@@222AEAT4@33M_N@Z 00000001801270f4     GuSweepSharedTests.obj
 0002:0000910c       $chain$1$??$gjkRaycastPenetration@U?$RelativeConvex@VConvexHullV@Gu@physx@@@Gu@physx@@U?$LocalConvex@VConvexHullV@Gu@physx@@@23@@Gu@physx@@YA_NAEBU?$RelativeConvex@VConvexHullV@Gu@physx@@@01@AEBU?$LocalConvex@VConvexHullV@Gu@physx@@@01@AEBT__m128@@222AEAT4@33M_N@Z 000000018012710c     GuSweepSharedTests.obj
 0002:00009124       $chain$2$??$gjkRaycastPenetration@U?$RelativeConvex@VConvexHullV@Gu@physx@@@Gu@physx@@U?$LocalConvex@VConvexHullV@Gu@physx@@@23@@Gu@physx@@YA_NAEBU?$RelativeConvex@VConvexHullV@Gu@physx@@@01@AEBU?$LocalConvex@VConvexHullV@Gu@physx@@@01@AEBT__m128@@222AEAT4@33M_N@Z 0000000180127124     GuSweepSharedTests.obj
 0002:00009134       $unwind$??$gjkRaycast@U?$LocalConvex@VCapsuleV@Gu@physx@@@Gu@physx@@U?$LocalConvex@VConvexHullV@Gu@physx@@@23@@Gu@physx@@YA_NAEBU?$LocalConvex@VCapsuleV@Gu@physx@@@01@AEBU?$LocalConvex@VConvexHullV@Gu@physx@@@01@AEBT__m128@@222AEAT4@33M@Z 0000000180127134     GuSweepSharedTests.obj
 0002:0000917c       $unwind$??$gjkPenetration@U?$LocalConvex@VCapsuleV@Gu@physx@@@Gu@physx@@U?$LocalConvex@VConvexHullV@Gu@physx@@@23@@Gu@physx@@YA?AW4GjkStatus@01@AEBU?$LocalConvex@VCapsuleV@Gu@physx@@@01@AEBU?$LocalConvex@VConvexHullV@Gu@physx@@@01@AEBT__m128@@2_NPEIAE4AEAEAEAUGjkOutput@01@@Z 000000018012717c     GuSweepSharedTests.obj
 0002:000091c0       $unwind$??$gjkRaycast@U?$RelativeConvex@VBoxV@Gu@physx@@@Gu@physx@@U?$LocalConvex@VConvexHullV@Gu@physx@@@23@@Gu@physx@@YA_NAEBU?$RelativeConvex@VBoxV@Gu@physx@@@01@AEBU?$LocalConvex@VConvexHullV@Gu@physx@@@01@AEBT__m128@@222AEAT4@33M@Z 00000001801271c0     GuSweepSharedTests.obj
 0002:00009208       $unwind$??$gjkPenetration@U?$RelativeConvex@VBoxV@Gu@physx@@@Gu@physx@@U?$LocalConvex@VConvexHullV@Gu@physx@@@23@@Gu@physx@@YA?AW4GjkStatus@01@AEBU?$RelativeConvex@VBoxV@Gu@physx@@@01@AEBU?$LocalConvex@VConvexHullV@Gu@physx@@@01@AEBT__m128@@2_NPEIAE4AEAEAEAUGjkOutput@01@@Z 0000000180127208     GuSweepSharedTests.obj
 0002:0000924c       $unwind$??$gjkRaycast@U?$RelativeConvex@VConvexHullV@Gu@physx@@@Gu@physx@@U?$LocalConvex@VConvexHullV@Gu@physx@@@23@@Gu@physx@@YA_NAEBU?$RelativeConvex@VConvexHullV@Gu@physx@@@01@AEBU?$LocalConvex@VConvexHullV@Gu@physx@@@01@AEBT__m128@@222AEAT4@33M@Z 000000018012724c     GuSweepSharedTests.obj
 0002:00009294       $unwind$??$gjkPenetration@U?$RelativeConvex@VConvexHullNoScaleV@Gu@physx@@@Gu@physx@@U?$LocalConvex@VConvexHullV@Gu@physx@@@23@@Gu@physx@@YA?AW4GjkStatus@01@AEBU?$RelativeConvex@VConvexHullNoScaleV@Gu@physx@@@01@AEBU?$LocalConvex@VConvexHullV@Gu@physx@@@01@AEBT__m128@@2_NPEIAE4AEAEAEAUGjkOutput@01@@Z 0000000180127294     GuPCMContactConvexConvex.obj
 0002:00009294       $unwind$??$gjkPenetration@U?$RelativeConvex@VConvexHullV@Gu@physx@@@Gu@physx@@U?$LocalConvex@VConvexHullV@Gu@physx@@@23@@Gu@physx@@YA?AW4GjkStatus@01@AEBU?$RelativeConvex@VConvexHullV@Gu@physx@@@01@AEBU?$LocalConvex@VConvexHullV@Gu@physx@@@01@AEBT__m128@@2_NPEIAE4AEAEAEAUGjkOutput@01@@Z 0000000180127294     GuSweepSharedTests.obj
 0002:000092d8       $unwind$?sweepBoxTriangles@Gu@physx@@YA_NIPEBVPxTriangle@2@_NAEBVPxBoxGeometry@2@AEBVPxTransform@2@AEBVPxVec3@2@MAEAUPxSweepHit@2@PEBIMV?$PxFlags@W4Enum@PxHitFlag@physx@@G@2@@Z 00000001801272d8     GuSweepTests.obj
 0002:00009320       $chain$14$?sweepBoxTriangles@Gu@physx@@YA_NIPEBVPxTriangle@2@_NAEBVPxBoxGeometry@2@AEBVPxTransform@2@AEBVPxVec3@2@MAEAUPxSweepHit@2@PEBIMV?$PxFlags@W4Enum@PxHitFlag@physx@@G@2@@Z 0000000180127320     GuSweepTests.obj
 0002:00009334       $unwind$?sweepCapsule_BoxGeom@@YA_NAEBVPxGeometry@physx@@AEBVPxTransform@2@AEBVPxCapsuleGeometry@2@1AEBVCapsule@Gu@2@AEBVPxVec3@2@MAEAUPxSweepHit@2@V?$PxFlags@W4Enum@PxHitFlag@physx@@G@2@M@Z 0000000180127334     GuSweepTests.obj
 0002:00009378       $unwind$?sweepBox_SphereGeom@@YA_NAEBVPxGeometry@physx@@AEBVPxTransform@2@AEBVPxBoxGeometry@2@1AEBVBox@Gu@2@AEBVPxVec3@2@MAEAUPxSweepHit@2@V?$PxFlags@W4Enum@PxHitFlag@physx@@G@2@M@Z 0000000180127378     GuSweepTests.obj
 0002:000093bc       $unwind$?sweepBox_CapsuleGeom@@YA_NAEBVPxGeometry@physx@@AEBVPxTransform@2@AEBVPxBoxGeometry@2@1AEBVBox@Gu@2@AEBVPxVec3@2@MAEAUPxSweepHit@2@V?$PxFlags@W4Enum@PxHitFlag@physx@@G@2@M@Z 00000001801273bc     GuSweepTests.obj
 0002:00009400       $unwind$?sweepBox_BoxGeom@@YA_NAEBVPxGeometry@physx@@AEBVPxTransform@2@AEBVPxBoxGeometry@2@1AEBVBox@Gu@2@AEBVPxVec3@2@MAEAUPxSweepHit@2@V?$PxFlags@W4Enum@PxHitFlag@physx@@G@2@M@Z 0000000180127400     GuSweepTests.obj
 0002:00009444       $unwind$?support@?$LocalConvex@VTriangleV@Gu@physx@@@Gu@physx@@UEBA?AT__m128@@AEBT4@AEAH@Z 0000000180127444     GuSweepTests.obj
 0002:00009458       $unwind$??$gjkRaycast@U?$LocalConvex@VCapsuleV@Gu@physx@@@Gu@physx@@U?$LocalConvex@VBoxV@Gu@physx@@@23@@Gu@physx@@YA_NAEBU?$LocalConvex@VCapsuleV@Gu@physx@@@01@AEBU?$LocalConvex@VBoxV@Gu@physx@@@01@AEBT__m128@@222AEAT4@33M@Z 0000000180127458     GuSweepTests.obj
 0002:0000949c       $unwind$??$gjkPenetration@U?$LocalConvex@VCapsuleV@Gu@physx@@@Gu@physx@@U?$LocalConvex@VBoxV@Gu@physx@@@23@@Gu@physx@@YA?AW4GjkStatus@01@AEBU?$LocalConvex@VCapsuleV@Gu@physx@@@01@AEBU?$LocalConvex@VBoxV@Gu@physx@@@01@AEBT__m128@@2_NPEIAE4AEAEAEAUGjkOutput@01@@Z 000000018012749c     GuSweepTests.obj
 0002:000094e0       $unwind$??$gjkRaycast@U?$RelativeConvex@VBoxV@Gu@physx@@@Gu@physx@@U?$LocalConvex@VBoxV@Gu@physx@@@23@@Gu@physx@@YA_NAEBU?$RelativeConvex@VBoxV@Gu@physx@@@01@AEBU?$LocalConvex@VBoxV@Gu@physx@@@01@AEBT__m128@@222AEAT4@33M@Z 00000001801274e0     GuSweepTests.obj
 0002:00009528       $unwind$??$gjkPenetration@U?$RelativeConvex@VBoxV@Gu@physx@@@Gu@physx@@U?$LocalConvex@VBoxV@Gu@physx@@@23@@Gu@physx@@YA?AW4GjkStatus@01@AEBU?$RelativeConvex@VBoxV@Gu@physx@@@01@AEBU?$LocalConvex@VBoxV@Gu@physx@@@01@AEBT__m128@@2_NPEIAE4AEAEAEAUGjkOutput@01@@Z 0000000180127528     GuSweepTests.obj
 0002:0000956c       $unwind$??$gjkRaycast@U?$LocalConvex@VTriangleV@Gu@physx@@@Gu@physx@@U?$LocalConvex@VBoxV@Gu@physx@@@23@@Gu@physx@@YA_NAEBU?$LocalConvex@VTriangleV@Gu@physx@@@01@AEBU?$LocalConvex@VBoxV@Gu@physx@@@01@AEBT__m128@@222AEAT4@33M@Z 000000018012756c     GuSweepTests.obj
 0002:000095b0       $unwind$?subdivide@AABBTreeBuildNode@Gu@physx@@QEAAXAEBVAABBTreeBuildParams@23@AEAUBuildStats@23@AEAVNodeAllocator@23@QEAI@Z 00000001801275b0     GuAABBTreeBuild.obj
 0002:000095c8       $unwind$?release@NodeAllocator@Gu@physx@@QEAAXXZ 00000001801275c8     GuAABBTreeBuild.obj
 0002:000095d4       $chain$2$?release@NodeAllocator@Gu@physx@@QEAAXXZ 00000001801275d4     GuAABBTreeBuild.obj
 0002:000095f0       $chain$3$?release@NodeAllocator@Gu@physx@@QEAAXXZ 00000001801275f0     GuAABBTreeBuild.obj
 0002:00009600       $unwind$?init@NodeAllocator@Gu@physx@@QEAAXII@Z 0000000180127600     GuAABBTreeBuild.obj
 0002:00009614       $unwind$?getBiNode@NodeAllocator@Gu@physx@@QEAAPEAVAABBTreeBuildNode@23@XZ 0000000180127614     GuAABBTreeBuild.obj
 0002:00009624       $chain$1$?allocate@?$Array@USlab@NodeAllocator@Gu@physx@@VNamedAllocator@shdfnd@4@@shdfnd@physx@@IEAAPEAUSlab@NodeAllocator@Gu@3@I@Z 0000000180127624     GuAABBTreeBuild.obj
 0002:0000963c       $chain$2$?allocate@?$Array@USlab@NodeAllocator@Gu@physx@@VNamedAllocator@shdfnd@4@@shdfnd@physx@@IEAAPEAUSlab@NodeAllocator@Gu@3@I@Z 000000018012763c     GuAABBTreeBuild.obj
 0002:0000964c       $chain$0$?growAndPushBack@?$Array@USlab@NodeAllocator@Gu@physx@@VNamedAllocator@shdfnd@4@@shdfnd@physx@@IEAAAEAUSlab@NodeAllocator@Gu@3@AEBU4563@@Z 000000018012764c     GuAABBTreeBuild.obj
 0002:00009660       $chain$1$?growAndPushBack@?$Array@USlab@NodeAllocator@Gu@physx@@VNamedAllocator@shdfnd@4@@shdfnd@physx@@IEAAAEAUSlab@NodeAllocator@Gu@3@AEBU4563@@Z 0000000180127660     GuAABBTreeBuild.obj
 0002:00009674       $chain$2$?growAndPushBack@?$Array@USlab@NodeAllocator@Gu@physx@@VNamedAllocator@shdfnd@4@@shdfnd@physx@@IEAAAEAUSlab@NodeAllocator@Gu@3@AEBU4563@@Z 0000000180127674     GuAABBTreeBuild.obj
 0002:00009684       $chain$3$?growAndPushBack@?$Array@USlab@NodeAllocator@Gu@physx@@VNamedAllocator@shdfnd@4@@shdfnd@physx@@IEAAAEAUSlab@NodeAllocator@Gu@3@AEBU4563@@Z 0000000180127684     GuAABBTreeBuild.obj
 0002:00009694       $unwind$?recreate@?$Array@USlab@NodeAllocator@Gu@physx@@VNamedAllocator@shdfnd@4@@shdfnd@physx@@IEAAXI@Z 0000000180127694     GuAABBTreeBuild.obj
 0002:000096a4       $chain$0$?recreate@?$Array@USlab@NodeAllocator@Gu@physx@@VNamedAllocator@shdfnd@4@@shdfnd@physx@@IEAAXI@Z 00000001801276a4     GuAABBTreeBuild.obj
 0002:000096b8       $chain$1$?recreate@?$Array@USlab@NodeAllocator@Gu@physx@@VNamedAllocator@shdfnd@4@@shdfnd@physx@@IEAAXI@Z 00000001801276b8     GuAABBTreeBuild.obj
 0002:000096c8       $unwind$??4NodeAllocator@Gu@physx@@QEAAAEAV012@AEBV012@@Z 00000001801276c8     GuAABBTreeBuild.obj
 0002:000096c8       $unwind$?growAndPushBack@?$Array@IV?$InlineAllocator@$0BAA@VNamedAllocator@shdfnd@physx@@@shdfnd@physx@@@shdfnd@physx@@IEAAAEAIAEBI@Z 00000001801276c8     GuCCDSweepConvexMesh.obj
 0002:000096c8       $unwind$??0BV4TriangleMesh@Gu@physx@@QEAA@AEAVGuMeshFactory@2@AEAVTriangleMeshData@12@@Z 00000001801276c8     GuTriangleMeshBV4.obj
 0002:000096dc       $unwind$?initAABBTreeBuild@Gu@physx@@YA_NAEAVAABBTreeBuildParams@12@AEAVNodeAllocator@12@AEAUBuildStats@12@AEAPEAI@Z 00000001801276dc     GuAABBTreeBuild.obj
 0002:000096ec       $chain$2$?initAABBTreeBuild@Gu@physx@@YA_NAEAVAABBTreeBuildParams@12@AEAVNodeAllocator@12@AEAUBuildStats@12@AEAPEAI@Z 00000001801276ec     GuAABBTreeBuild.obj
 0002:00009708       $chain$3$?initAABBTreeBuild@Gu@physx@@YA_NAEAVAABBTreeBuildParams@12@AEAVNodeAllocator@12@AEAUBuildStats@12@AEAPEAI@Z 0000000180127708     GuAABBTreeBuild.obj
 0002:00009720       $chain$4$?initAABBTreeBuild@Gu@physx@@YA_NAEAVAABBTreeBuildParams@12@AEAVNodeAllocator@12@AEAUBuildStats@12@AEAPEAI@Z 0000000180127720     GuAABBTreeBuild.obj
 0002:00009730       $unwind$?buildAABBTree@Gu@physx@@YA_NAEAVAABBTreeBuildParams@12@AEAVNodeAllocator@12@AEAUBuildStats@12@AEAPEAI@Z 0000000180127730     GuAABBTreeBuild.obj
 0002:00009730       $unwind$?support@?$RelativeConvex@VConvexHullNoScaleV@Gu@physx@@@Gu@physx@@UEBA?AT__m128@@AEBT4@AEAH@Z 0000000180127730     GuPCMContactConvexConvex.obj
 0002:00009730       $unwind$?addManifoldPoint2@PersistentContactManifold@Gu@physx@@QEAAIAEBT__m128@@000@Z 0000000180127730     GuPersistentContactManifold.obj
 0002:00009730       $unwind$?addManifoldPoint@PersistentContactManifold@Gu@physx@@QEAAIAEBT__m128@@000@Z 0000000180127730     GuPersistentContactManifold.obj
 0002:00009744       $chain$0$??$?_UV?$ReflectionAllocator@VAABBTreeBuildNode@Gu@physx@@@shdfnd@physx@@@UserAllocated@shdfnd@physx@@SAPEAX_KV?$ReflectionAllocator@VAABBTreeBuildNode@Gu@physx@@@12@PEBDH@Z 0000000180127744     GuAABBTreeBuild.obj
 0002:00009758       $chain$1$??$?_UV?$ReflectionAllocator@VAABBTreeBuildNode@Gu@physx@@@shdfnd@physx@@@UserAllocated@shdfnd@physx@@SAPEAX_KV?$ReflectionAllocator@VAABBTreeBuildNode@Gu@physx@@@12@PEBDH@Z 0000000180127758     GuAABBTreeBuild.obj
 0002:00009768       $unwind$?split@@YAIAEBVPxBounds3@physx@@IQEIAIIAEBVAABBTreeBuildParams@Gu@2@@Z 0000000180127768     GuAABBTreeBuild.obj
 0002:00009768       $unwind$?local_Split@@YAIPEIBVAABBTreeNode@Gu@physx@@PEIBVPxBounds3@3@PEIBVPxVec3@3@I@Z 0000000180127768     GuBV4Build.obj
 0002:0000977c       $chain$0$?split@@YAIAEBVPxBounds3@physx@@IQEIAIIAEBVAABBTreeBuildParams@Gu@2@@Z 000000018012777c     GuAABBTreeBuild.obj
 0002:00009790       $chain$1$?split@@YAIAEBVPxBounds3@physx@@IQEIAIIAEBVAABBTreeBuildParams@Gu@2@@Z 0000000180127790     GuAABBTreeBuild.obj
 0002:000097a0       $unwind$?load@BVHStructure@Gu@physx@@QEAA_NAEAVPxInputStream@3@@Z 00000001801277a0     GuBVHStructure.obj
 0002:000097b4       $unwind$?raycast@BVHStructure@Gu@physx@@UEBAIAEBVPxVec3@3@0MIPEIAI@Z 00000001801277b4     GuBVHStructure.obj
 0002:000097c4       $unwind$?sweep@BVHStructure@Gu@physx@@UEBAIAEBVPxBounds3@3@AEBVPxVec3@3@MIPEIAI@Z 00000001801277c4     GuBVHStructure.obj
 0002:000097e0       $unwind$?overlap@BVHStructure@Gu@physx@@UEBAIAEBVPxBounds3@3@IPEIAI@Z 00000001801277e0     GuBVHStructure.obj
 0002:00009808       $unwind$?createVolumes@BVHStructure@Gu@physx@@AEBAXXZ 0000000180127808     GuBVHStructure.obj
 0002:00009810       $chain$0$?createVolumes@BVHStructure@Gu@physx@@AEBAXXZ 0000000180127810     GuBVHStructure.obj
 0002:00009824       $chain$1$?createVolumes@BVHStructure@Gu@physx@@AEBAXXZ 0000000180127824     GuBVHStructure.obj
 0002:00009834       $unwind$??R?$AABBTreeRaycast@$0A@UBVHTree@Gu@physx@@UBVHNode@23@IUBVHCallback@23@@Gu@physx@@QEAA_NPEBIPEBVPxBounds3@2@AEBUBVHTree@12@AEBVPxVec3@2@3AEAM3AEAUBVHCallback@12@@Z 0000000180127834     GuBVHStructure.obj
 0002:0000987c       $unwind$??R?$AABBTreeRaycast@$00UBVHTree@Gu@physx@@UBVHNode@23@IUBVHCallback@23@@Gu@physx@@QEAA_NPEBIPEBVPxBounds3@2@AEBUBVHTree@12@AEBVPxVec3@2@3AEAM3AEAUBVHCallback@12@@Z 000000018012787c     GuBVHStructure.obj
 0002:000098c4       $unwind$??R?$AABBTreeOverlap@UAABBAABBTest@Gu@physx@@UBVHTree@23@UBVHNode@23@IUBVHCallback@23@@Gu@physx@@QEAA_NPEBIPEBVPxBounds3@2@AEBUBVHTree@12@AEBUAABBAABBTest@12@AEAUBVHCallback@12@@Z 00000001801278c4     GuBVHStructure.obj
 0002:000098ec       $unwind$??0?$InlineArray@PEBUBVHNode@Gu@physx@@$0BAA@VNamedAllocator@shdfnd@3@@shdfnd@physx@@QEAA@AEBVNamedAllocator@12@@Z 00000001801278ec     GuBVHStructure.obj
 0002:000098fc       $unwind$?SweepEstimateAnyShapeHeightfield@Gu@physx@@YAMAEBUCCDShape@12@0AEBVPxTransform@2@111MM@Z 00000001801278fc     GuCCDSweepConvexMesh.obj
 0002:0000990c       $chain$2$?SweepEstimateAnyShapeHeightfield@Gu@physx@@YAMAEBUCCDShape@12@0AEBVPxTransform@2@111MM@Z 000000018012790c     GuCCDSweepConvexMesh.obj
 0002:00009928       $chain$5$?SweepEstimateAnyShapeHeightfield@Gu@physx@@YAMAEBUCCDShape@12@0AEBVPxTransform@2@111MM@Z 0000000180127928     GuCCDSweepConvexMesh.obj
 0002:00009944       $chain$14$?SweepEstimateAnyShapeHeightfield@Gu@physx@@YAMAEBUCCDShape@12@0AEBVPxTransform@2@111MM@Z 0000000180127944     GuCCDSweepConvexMesh.obj
 0002:00009974       $chain$6$?SweepEstimateAnyShapeHeightfield@Gu@physx@@YAMAEBUCCDShape@12@0AEBVPxTransform@2@111MM@Z 0000000180127974     GuCCDSweepConvexMesh.obj
 0002:0000998c       $chain$15$?SweepEstimateAnyShapeHeightfield@Gu@physx@@YAMAEBUCCDShape@12@0AEBVPxTransform@2@111MM@Z 000000018012798c     GuCCDSweepConvexMesh.obj
 0002:0000999c       $unwind$?SweepEstimateAnyShapeMesh@Gu@physx@@YAMAEBUCCDShape@12@0AEBVPxTransform@2@111MM@Z 000000018012799c     GuCCDSweepConvexMesh.obj
 0002:000099b8       $unwind$?transformBoxOrthonormal@physx@@YA?AVBox@Gu@1@AEBV231@AEBVPxTransform@1@@Z 00000001801279b8     GuCCDSweepConvexMesh.obj
 0002:000099e0       $chain$0$?onEvent@EntityReportContainerCallback@?A0x58bf8b61@Gu@physx@@UEAA_NIPEAI@Z 00000001801279e0     GuCCDSweepConvexMesh.obj
 0002:000099f4       $chain$1$?onEvent@EntityReportContainerCallback@?A0x58bf8b61@Gu@physx@@UEAA_NIPEAI@Z 00000001801279f4     GuCCDSweepConvexMesh.obj
 0002:00009a04       $unwind$?getPolygonNormal@ConvexTriangles@?A0x58bf8b61@Gu@physx@@QEBA?AVPxVec3@4@I@Z 0000000180127a04     GuCCDSweepConvexMesh.obj
 0002:00009a38       $unwind$?calcCenterAndBounds@ConvexTriangles@?A0x58bf8b61@Gu@physx@@AEBAXAEBVPxTransform@4@@Z 0000000180127a38     GuCCDSweepConvexMesh.obj
 0002:00009a48       $chain$9$?calcCenterAndBounds@ConvexTriangles@?A0x58bf8b61@Gu@physx@@AEBAXAEBVPxTransform@4@@Z 0000000180127a48     GuCCDSweepConvexMesh.obj
 0002:00009a80       $chain$10$?calcCenterAndBounds@ConvexTriangles@?A0x58bf8b61@Gu@physx@@AEBAXAEBVPxTransform@4@@Z 0000000180127a80     GuCCDSweepConvexMesh.obj
 0002:00009a90       $unwind$?SweepAnyShapeHeightfield@Gu@physx@@YAMAEBUCCDShape@12@0AEBVPxTransform@2@111MAEAVPxVec3@2@2MAEAIM@Z 0000000180127a90     GuCCDSweepConvexMesh.obj
 0002:00009ad0       $unwind$?SweepAnyShapeMesh@Gu@physx@@YAMAEBUCCDShape@12@0AEBVPxTransform@2@111MAEAVPxVec3@2@2MAEAIM@Z 0000000180127ad0     GuCCDSweepConvexMesh.obj
 0002:00009ae0       $chain$8$?SweepAnyShapeMesh@Gu@physx@@YAMAEBUCCDShape@12@0AEBVPxTransform@2@111MAEAVPxVec3@2@2MAEAIM@Z 0000000180127ae0     GuCCDSweepConvexMesh.obj
 0002:00009b14       $chain$12$?SweepAnyShapeMesh@Gu@physx@@YAMAEBUCCDShape@12@0AEBVPxTransform@2@111MAEAVPxVec3@2@2MAEAIM@Z 0000000180127b14     GuCCDSweepConvexMesh.obj
 0002:00009b34       $chain$15$?SweepAnyShapeMesh@Gu@physx@@YAMAEBUCCDShape@12@0AEBVPxTransform@2@111MAEAVPxVec3@2@2MAEAIM@Z 0000000180127b34     GuCCDSweepConvexMesh.obj
 0002:00009b50       $chain$16$?SweepAnyShapeMesh@Gu@physx@@YAMAEBUCCDShape@12@0AEBVPxTransform@2@111MAEAVPxVec3@2@2MAEAIM@Z 0000000180127b50     GuCCDSweepConvexMesh.obj
 0002:00009b60       $chain$17$?SweepAnyShapeMesh@Gu@physx@@YAMAEBUCCDShape@12@0AEBVPxTransform@2@111MAEAVPxVec3@2@2MAEAIM@Z 0000000180127b60     GuCCDSweepConvexMesh.obj
 0002:00009b70       $unwind$?processHit@CB@?1??SweepEstimateAnyShapeMesh@Gu@physx@@YAMAEBUCCDShape@34@0AEBVPxTransform@4@111MM@Z@UEAA_NAEBUPxRaycastHit@4@AEBVPxVec3@4@33AEAMPEBI@Z 0000000180127b70     GuCCDSweepConvexMesh.obj
 0002:00009ba0       $chain$1$?processHit@CB@?1??SweepEstimateAnyShapeMesh@Gu@physx@@YAMAEBUCCDShape@34@0AEBVPxTransform@4@111MM@Z@UEAA_NAEBUPxRaycastHit@4@AEBVPxVec3@4@33AEAMPEBI@Z 0000000180127ba0     GuCCDSweepConvexMesh.obj
 0002:00009bb8       $chain$2$?processHit@CB@?1??SweepEstimateAnyShapeMesh@Gu@physx@@YAMAEBUCCDShape@34@0AEBVPxTransform@4@111MM@Z@UEAA_NAEBUPxRaycastHit@4@AEBVPxVec3@4@33AEAMPEBI@Z 0000000180127bb8     GuCCDSweepConvexMesh.obj
 0002:00009bc8       $unwind$?BV4_OverlapSphereAny@@YAHAEBVSphere@Gu@physx@@AEBVBV4Tree@23@PEIBVPxMat44@3@@Z 0000000180127bc8     GuBV4_SphereOverlap.obj
 0002:00009bc8       $unwind$??$SweepGeomGeom@VCapsuleV@Gu@physx@@V123@@Gu@physx@@YAMAEBUCCDShape@01@0AEBVPxTransform@1@111MAEAVPxVec3@1@2MAEAIM@Z 0000000180127bc8     GuCCDSweepPrimitives.obj
 0002:00009bd0       $unwind$??$SweepGeomGeom@VCapsuleV@Gu@physx@@VBoxV@23@@Gu@physx@@YAMAEBUCCDShape@01@0AEBVPxTransform@1@111MAEAVPxVec3@1@2MAEAIM@Z 0000000180127bd0     GuCCDSweepPrimitives.obj
 0002:00009bdc       $unwind$??$SweepGeomGeom@VCapsuleV@Gu@physx@@VConvexHullV@23@@Gu@physx@@YAMAEBUCCDShape@01@0AEBVPxTransform@1@111MAEAVPxVec3@1@2MAEAIM@Z 0000000180127bdc     GuCCDSweepPrimitives.obj
 0002:00009bf4       $chain$1$??$SweepGeomGeom@VCapsuleV@Gu@physx@@VConvexHullV@23@@Gu@physx@@YAMAEBUCCDShape@01@0AEBVPxTransform@1@111MAEAVPxVec3@1@2MAEAIM@Z 0000000180127bf4     GuCCDSweepPrimitives.obj
 0002:00009c0c       $chain$6$??$SweepGeomGeom@VCapsuleV@Gu@physx@@VConvexHullV@23@@Gu@physx@@YAMAEBUCCDShape@01@0AEBVPxTransform@1@111MAEAVPxVec3@1@2MAEAIM@Z 0000000180127c0c     GuCCDSweepPrimitives.obj
 0002:00009c30       $chain$7$??$SweepGeomGeom@VCapsuleV@Gu@physx@@VConvexHullV@23@@Gu@physx@@YAMAEBUCCDShape@01@0AEBVPxTransform@1@111MAEAVPxVec3@1@2MAEAIM@Z 0000000180127c30     GuCCDSweepPrimitives.obj
 0002:00009c40       $chain$8$??$SweepGeomGeom@VCapsuleV@Gu@physx@@VConvexHullV@23@@Gu@physx@@YAMAEBUCCDShape@01@0AEBVPxTransform@1@111MAEAVPxVec3@1@2MAEAIM@Z 0000000180127c40     GuCCDSweepPrimitives.obj
 0002:00009c50       $unwind$??$SweepGeomGeom@VBoxV@Gu@physx@@V123@@Gu@physx@@YAMAEBUCCDShape@01@0AEBVPxTransform@1@111MAEAVPxVec3@1@2MAEAIM@Z 0000000180127c50     GuCCDSweepPrimitives.obj
 0002:00009c60       $unwind$??$SweepGeomGeom@VBoxV@Gu@physx@@VConvexHullV@23@@Gu@physx@@YAMAEBUCCDShape@01@0AEBVPxTransform@1@111MAEAVPxVec3@1@2MAEAIM@Z 0000000180127c60     GuCCDSweepPrimitives.obj
 0002:00009c7c       $chain$1$??$SweepGeomGeom@VBoxV@Gu@physx@@VConvexHullV@23@@Gu@physx@@YAMAEBUCCDShape@01@0AEBVPxTransform@1@111MAEAVPxVec3@1@2MAEAIM@Z 0000000180127c7c     GuCCDSweepPrimitives.obj
 0002:00009c94       $chain$5$??$SweepGeomGeom@VBoxV@Gu@physx@@VConvexHullV@23@@Gu@physx@@YAMAEBUCCDShape@01@0AEBVPxTransform@1@111MAEAVPxVec3@1@2MAEAIM@Z 0000000180127c94     GuCCDSweepPrimitives.obj
 0002:00009cb4       $chain$6$??$SweepGeomGeom@VBoxV@Gu@physx@@VConvexHullV@23@@Gu@physx@@YAMAEBUCCDShape@01@0AEBVPxTransform@1@111MAEAVPxVec3@1@2MAEAIM@Z 0000000180127cb4     GuCCDSweepPrimitives.obj
 0002:00009cc4       $chain$7$??$SweepGeomGeom@VBoxV@Gu@physx@@VConvexHullV@23@@Gu@physx@@YAMAEBUCCDShape@01@0AEBVPxTransform@1@111MAEAVPxVec3@1@2MAEAIM@Z 0000000180127cc4     GuCCDSweepPrimitives.obj
 0002:00009cd4       $unwind$??$SweepGeomGeom@VConvexHullV@Gu@physx@@V123@@Gu@physx@@YAMAEBUCCDShape@01@0AEBVPxTransform@1@111MAEAVPxVec3@1@2MAEAIM@Z 0000000180127cd4     GuCCDSweepPrimitives.obj
 0002:00009d08       $unwind$??$SweepGeomTriangles@VCapsuleV@Gu@physx@@@Gu@physx@@YAMAEBVGeometryUnion@01@0AEBVPxTransform@1@111MAEAVPxVec3@1@2AEBVFastVertex2ShapeScaling@Cm@1@AEAVTriangleV@01@M@Z 0000000180127d08     GuCCDSweepPrimitives.obj
 0002:00009d10       $unwind$??$SweepGeomTriangles@VBoxV@Gu@physx@@@Gu@physx@@YAMAEBVGeometryUnion@01@0AEBVPxTransform@1@111MAEAVPxVec3@1@2AEBVFastVertex2ShapeScaling@Cm@1@AEAVTriangleV@01@M@Z 0000000180127d10     GuCCDSweepPrimitives.obj
 0002:00009d18       $unwind$??$SweepGeomTriangles@VConvexHullV@Gu@physx@@@Gu@physx@@YAMAEBVGeometryUnion@01@0AEBVPxTransform@1@111MAEAVPxVec3@1@2AEBVFastVertex2ShapeScaling@Cm@1@AEAVTriangleV@01@M@Z 0000000180127d18     GuCCDSweepPrimitives.obj
 0002:00009d30       $chain$1$??$SweepGeomTriangles@VConvexHullV@Gu@physx@@@Gu@physx@@YAMAEBVGeometryUnion@01@0AEBVPxTransform@1@111MAEAVPxVec3@1@2AEBVFastVertex2ShapeScaling@Cm@1@AEAVTriangleV@01@M@Z 0000000180127d30     GuCCDSweepPrimitives.obj
 0002:00009d48       $chain$6$??$SweepGeomTriangles@VConvexHullV@Gu@physx@@@Gu@physx@@YAMAEBVGeometryUnion@01@0AEBVPxTransform@1@111MAEAVPxVec3@1@2AEBVFastVertex2ShapeScaling@Cm@1@AEAVTriangleV@01@M@Z 0000000180127d48     GuCCDSweepPrimitives.obj
 0002:00009d6c       $chain$7$??$SweepGeomTriangles@VConvexHullV@Gu@physx@@@Gu@physx@@YAMAEBVGeometryUnion@01@0AEBVPxTransform@1@111MAEAVPxVec3@1@2AEBVFastVertex2ShapeScaling@Cm@1@AEAVTriangleV@01@M@Z 0000000180127d6c     GuCCDSweepPrimitives.obj
 0002:00009d7c       $chain$8$??$SweepGeomTriangles@VConvexHullV@Gu@physx@@@Gu@physx@@YAMAEBVGeometryUnion@01@0AEBVPxTransform@1@111MAEAVPxVec3@1@2AEBVFastVertex2ShapeScaling@Cm@1@AEAVTriangleV@01@M@Z 0000000180127d7c     GuCCDSweepPrimitives.obj
 0002:00009d8c       $unwind$??$CCDSweep@VBoxV@Gu@physx@@V123@@Gu@physx@@YAMAEAVBoxV@01@0AEBVPxTransform@1@111AEBT__m128@@AEAVPxVec3@1@3M@Z 0000000180127d8c     GuCCDSweepPrimitives.obj
 0002:00009d8c       $unwind$??$CCDSweep@VBoxV@Gu@physx@@VConvexHullV@23@@Gu@physx@@YAMAEAVBoxV@01@AEAVConvexHullV@01@AEBVPxTransform@1@222AEBT__m128@@AEAVPxVec3@1@4M@Z 0000000180127d8c     GuCCDSweepPrimitives.obj
 0002:00009d8c       $unwind$??$CCDSweep@VCapsuleV@Gu@physx@@V123@@Gu@physx@@YAMAEAVCapsuleV@01@0AEBVPxTransform@1@111AEBT__m128@@AEAVPxVec3@1@3M@Z 0000000180127d8c     GuCCDSweepPrimitives.obj
 0002:00009d8c       $unwind$??$CCDSweep@VCapsuleV@Gu@physx@@VBoxV@23@@Gu@physx@@YAMAEAVCapsuleV@01@AEAVBoxV@01@AEBVPxTransform@1@222AEBT__m128@@AEAVPxVec3@1@4M@Z 0000000180127d8c     GuCCDSweepPrimitives.obj
 0002:00009d8c       $unwind$??$CCDSweep@VCapsuleV@Gu@physx@@VConvexHullV@23@@Gu@physx@@YAMAEAVCapsuleV@01@AEAVConvexHullV@01@AEBVPxTransform@1@222AEBT__m128@@AEAVPxVec3@1@4M@Z 0000000180127d8c     GuCCDSweepPrimitives.obj
 0002:00009d8c       $unwind$??$CCDSweep@VConvexHullV@Gu@physx@@V123@@Gu@physx@@YAMAEAVConvexHullV@01@0AEBVPxTransform@1@111AEBT__m128@@AEAVPxVec3@1@3M@Z 0000000180127d8c     GuCCDSweepPrimitives.obj
 0002:00009d8c       $unwind$??$CCDSweep@VTriangleV@Gu@physx@@VBoxV@23@@Gu@physx@@YAMAEAVTriangleV@01@AEAVBoxV@01@AEBVPxTransform@1@222AEBT__m128@@AEAVPxVec3@1@4M@Z 0000000180127d8c     GuCCDSweepPrimitives.obj
 0002:00009d8c       $unwind$??$CCDSweep@VTriangleV@Gu@physx@@VCapsuleV@23@@Gu@physx@@YAMAEAVTriangleV@01@AEAVCapsuleV@01@AEBVPxTransform@1@222AEBT__m128@@AEAVPxVec3@1@4M@Z 0000000180127d8c     GuCCDSweepPrimitives.obj
 0002:00009d8c       $unwind$??$CCDSweep@VTriangleV@Gu@physx@@VConvexHullV@23@@Gu@physx@@YAMAEAVTriangleV@01@AEAVConvexHullV@01@AEBVPxTransform@1@222AEBT__m128@@AEAVPxVec3@1@4M@Z 0000000180127d8c     GuCCDSweepPrimitives.obj
 0002:00009dc8       $unwind$?support@?$RelativeConvex@VTriangleV@Gu@physx@@@Gu@physx@@UEBA?AT__m128@@AEBT4@@Z 0000000180127dc8     GuCCDSweepPrimitives.obj
 0002:00009dd8       $unwind$?support@?$RelativeConvex@VTriangleV@Gu@physx@@@Gu@physx@@UEBA?AT__m128@@AEBT4@AEAH@Z 0000000180127dd8     GuCCDSweepPrimitives.obj
 0002:00009dec       $unwind$??$gjkRaycast@U?$RelativeConvex@VCapsuleV@Gu@physx@@@Gu@physx@@U?$LocalConvex@VCapsuleV@Gu@physx@@@23@@Gu@physx@@YA_NAEBU?$RelativeConvex@VCapsuleV@Gu@physx@@@01@AEBU?$LocalConvex@VCapsuleV@Gu@physx@@@01@AEBT__m128@@222AEAT4@33M@Z 0000000180127dec     GuCCDSweepPrimitives.obj
 0002:00009e34       $unwind$??$gjkPenetration@U?$RelativeConvex@VCapsuleV@Gu@physx@@@Gu@physx@@U?$LocalConvex@VBoxV@Gu@physx@@@23@@Gu@physx@@YA?AW4GjkStatus@01@AEBU?$RelativeConvex@VCapsuleV@Gu@physx@@@01@AEBU?$LocalConvex@VBoxV@Gu@physx@@@01@AEBT__m128@@2_NPEIAE4AEAEAEAUGjkOutput@01@@Z 0000000180127e34     GuCCDSweepPrimitives.obj
 0002:00009e34       $unwind$??$gjkPenetration@U?$RelativeConvex@VCapsuleV@Gu@physx@@@Gu@physx@@U?$LocalConvex@VCapsuleV@Gu@physx@@@23@@Gu@physx@@YA?AW4GjkStatus@01@AEBU?$RelativeConvex@VCapsuleV@Gu@physx@@@01@AEBU?$LocalConvex@VCapsuleV@Gu@physx@@@01@AEBT__m128@@2_NPEIAE4AEAEAEAUGjkOutput@01@@Z 0000000180127e34     GuCCDSweepPrimitives.obj
 0002:00009e78       $unwind$??$gjkRaycast@U?$RelativeConvex@VCapsuleV@Gu@physx@@@Gu@physx@@U?$LocalConvex@VBoxV@Gu@physx@@@23@@Gu@physx@@YA_NAEBU?$RelativeConvex@VCapsuleV@Gu@physx@@@01@AEBU?$LocalConvex@VBoxV@Gu@physx@@@01@AEBT__m128@@222AEAT4@33M@Z 0000000180127e78     GuCCDSweepPrimitives.obj
 0002:00009ec0       $unwind$??$gjkRaycast@U?$RelativeConvex@VCapsuleV@Gu@physx@@@Gu@physx@@U?$LocalConvex@VConvexHullV@Gu@physx@@@23@@Gu@physx@@YA_NAEBU?$RelativeConvex@VCapsuleV@Gu@physx@@@01@AEBU?$LocalConvex@VConvexHullV@Gu@physx@@@01@AEBT__m128@@222AEAT4@33M@Z 0000000180127ec0     GuCCDSweepPrimitives.obj
 0002:00009f08       $unwind$??$gjkPenetration@U?$RelativeConvex@VCapsuleV@Gu@physx@@@Gu@physx@@U?$LocalConvex@VConvexHullV@Gu@physx@@@23@@Gu@physx@@YA?AW4GjkStatus@01@AEBU?$RelativeConvex@VCapsuleV@Gu@physx@@@01@AEBU?$LocalConvex@VConvexHullV@Gu@physx@@@01@AEBT__m128@@2_NPEIAE4AEAEAEAUGjkOutput@01@@Z 0000000180127f08     GuCCDSweepPrimitives.obj
 0002:00009f4c       $unwind$??$gjkRaycast@U?$RelativeConvex@VTriangleV@Gu@physx@@@Gu@physx@@U?$LocalConvex@VCapsuleV@Gu@physx@@@23@@Gu@physx@@YA_NAEBU?$RelativeConvex@VTriangleV@Gu@physx@@@01@AEBU?$LocalConvex@VCapsuleV@Gu@physx@@@01@AEBT__m128@@222AEAT4@33M@Z 0000000180127f4c     GuCCDSweepPrimitives.obj
 0002:00009f94       $unwind$??$gjkPenetration@U?$RelativeConvex@VTriangleV@Gu@physx@@@Gu@physx@@U?$LocalConvex@VBoxV@Gu@physx@@@23@@Gu@physx@@YA?AW4GjkStatus@01@AEBU?$RelativeConvex@VTriangleV@Gu@physx@@@01@AEBU?$LocalConvex@VBoxV@Gu@physx@@@01@AEBT__m128@@2_NPEIAE4AEAEAEAUGjkOutput@01@@Z 0000000180127f94     GuCCDSweepPrimitives.obj
 0002:00009f94       $unwind$??$gjkPenetration@U?$RelativeConvex@VTriangleV@Gu@physx@@@Gu@physx@@U?$LocalConvex@VCapsuleV@Gu@physx@@@23@@Gu@physx@@YA?AW4GjkStatus@01@AEBU?$RelativeConvex@VTriangleV@Gu@physx@@@01@AEBU?$LocalConvex@VCapsuleV@Gu@physx@@@01@AEBT__m128@@2_NPEIAE4AEAEAEAUGjkOutput@01@@Z 0000000180127f94     GuCCDSweepPrimitives.obj
 0002:00009fd8       $unwind$??$gjkRaycast@U?$RelativeConvex@VTriangleV@Gu@physx@@@Gu@physx@@U?$LocalConvex@VBoxV@Gu@physx@@@23@@Gu@physx@@YA_NAEBU?$RelativeConvex@VTriangleV@Gu@physx@@@01@AEBU?$LocalConvex@VBoxV@Gu@physx@@@01@AEBT__m128@@222AEAT4@33M@Z 0000000180127fd8     GuCCDSweepPrimitives.obj
 0002:0000a020       $unwind$??$gjkRaycast@U?$RelativeConvex@VTriangleV@Gu@physx@@@Gu@physx@@U?$LocalConvex@VConvexHullV@Gu@physx@@@23@@Gu@physx@@YA_NAEBU?$RelativeConvex@VTriangleV@Gu@physx@@@01@AEBU?$LocalConvex@VConvexHullV@Gu@physx@@@01@AEBT__m128@@222AEAT4@33M@Z 0000000180128020     GuCCDSweepPrimitives.obj
 0002:0000a068       $unwind$??$gjkPenetration@U?$RelativeConvex@VTriangleV@Gu@physx@@@Gu@physx@@U?$LocalConvex@VConvexHullV@Gu@physx@@@23@@Gu@physx@@YA?AW4GjkStatus@01@AEBU?$RelativeConvex@VTriangleV@Gu@physx@@@01@AEBU?$LocalConvex@VConvexHullV@Gu@physx@@@01@AEBT__m128@@2_NPEIAE4AEAEAEAUGjkOutput@01@@Z 0000000180128068     GuCCDSweepPrimitives.obj
 0002:0000a0ac       $unwind$?barycentricCoordinates@Gu@physx@@YAXAEBT__m128@@000AEAT3@1@Z 00000001801280ac     GuBarycentricCoordinates.obj
 0002:0000a0c4       $unwind$?addAxis@SeparatingAxes@Gu@physx@@QEAA_NAEBVPxVec3@3@@Z 00000001801280c4     GuSeparatingAxes.obj
 0002:0000a0d4       $unwind$?contactBoxBox@Gu@physx@@YA_NAEBVGeometryUnion@12@0AEBVPxTransform@2@1AEBUNarrowPhaseParams@12@AEAUCache@12@AEAVContactBuffer@12@PEAVRenderOutput@Cm@2@@Z 00000001801280d4     GuContactBoxBox.obj
 0002:0000a104       $unwind$?doBoxBoxContactGeneration@@YAHAEAVContactBuffer@Gu@physx@@AEBVPxVec3@3@1AEAIAEBVMatrix34@Cm@3@3M@Z 0000000180128104     GuContactBoxBox.obj
 0002:0000a140       $unwind$?generateContacts@@YAHAEAVContactBuffer@Gu@physx@@AEBVPxVec3@3@MM1AEBVMatrix34@Cm@3@2M@Z 0000000180128140     GuContactBoxBox.obj
 0002:0000a154       $chain$10$?generateContacts@@YAHAEAVContactBuffer@Gu@physx@@AEBVPxVec3@3@MM1AEBVMatrix34@Cm@3@2M@Z 0000000180128154     GuContactBoxBox.obj
 0002:0000a190       $chain$13$?generateContacts@@YAHAEAVContactBuffer@Gu@physx@@AEBVPxVec3@3@MM1AEBVMatrix34@Cm@3@2M@Z 0000000180128190     GuContactBoxBox.obj
 0002:0000a1ac       $chain$14$?generateContacts@@YAHAEAVContactBuffer@Gu@physx@@AEBVPxVec3@3@MM1AEBVMatrix34@Cm@3@2M@Z 00000001801281ac     GuContactBoxBox.obj
 0002:0000a1bc       $unwind$?contactCapsuleBox@Gu@physx@@YA_NAEBVGeometryUnion@12@0AEBVPxTransform@2@1AEBUNarrowPhaseParams@12@AEAUCache@12@AEAVContactBuffer@12@PEAVRenderOutput@Cm@2@@Z 00000001801281bc     GuContactCapsuleBox.obj
 0002:0000a1ec       $unwind$?intersectEdgeEdgePreca@@YA_NAEBVPxVec3@physx@@00AEBVPxPlane@2@IIM000AEAMAEAV12@@Z 00000001801281ec     GuContactCapsuleBox.obj
 0002:0000a20c       $unwind$?GuGenerateVFContacts@@YAXAEAVContactBuffer@Gu@physx@@AEBVSegment@23@MAEBVBox@23@AEBVPxVec3@3@M@Z 000000018012820c     GuContactCapsuleBox.obj
 0002:0000a230       $unwind$?GuGenerateEEContacts@@YAXAEAVContactBuffer@Gu@physx@@AEBVSegment@23@MAEBVBox@23@AEBVPxVec3@3@@Z 0000000180128230     GuContactCapsuleBox.obj
 0002:0000a26c       $unwind$?GuGenerateEEContacts2@@YAXAEAVContactBuffer@Gu@physx@@AEBVSegment@23@MAEBVBox@23@AEBVPxVec3@3@M@Z 000000018012826c     GuContactCapsuleBox.obj
 0002:0000a2a8       $unwind$?contactCapsuleCapsule@Gu@physx@@YA_NAEBVGeometryUnion@12@0AEBVPxTransform@2@1AEBUNarrowPhaseParams@12@AEAUCache@12@AEAVContactBuffer@12@PEAVRenderOutput@Cm@2@@Z 00000001801282a8     GuContactCapsuleCapsule.obj
 0002:0000a2e0       $chain$3$?contactCapsuleCapsule@Gu@physx@@YA_NAEBVGeometryUnion@12@0AEBVPxTransform@2@1AEBUNarrowPhaseParams@12@AEAUCache@12@AEAVContactBuffer@12@PEAVRenderOutput@Cm@2@@Z 00000001801282e0     GuContactCapsuleCapsule.obj
 0002:0000a300       $chain$4$?contactCapsuleCapsule@Gu@physx@@YA_NAEBVGeometryUnion@12@0AEBVPxTransform@2@1AEBUNarrowPhaseParams@12@AEAUCache@12@AEAVContactBuffer@12@PEAVRenderOutput@Cm@2@@Z 0000000180128300     GuContactCapsuleCapsule.obj
 0002:0000a310       $unwind$?contactCapsuleConvex@Gu@physx@@YA_NAEBVGeometryUnion@12@0AEBVPxTransform@2@1AEBUNarrowPhaseParams@12@AEAUCache@12@AEAVContactBuffer@12@PEAVRenderOutput@Cm@2@@Z 0000000180128310     GuContactCapsuleConvex.obj
 0002:0000a350       $unwind$?GuCapsuleConvexOverlap@@YA_NAEBVSegment@Gu@physx@@MAEBUPolygonalData@23@AEBVFastVertex2ShapeScaling@Cm@3@AEBVPxTransform@3@PEAMPEAVPxVec3@3@_N@Z 0000000180128350     GuContactCapsuleConvex.obj
 0002:0000a390       $unwind$?GuGenerateVFContacts2@@YAXAEAVContactBuffer@Gu@physx@@AEBVPxTransform@3@AEBUPolygonalData@23@AEBVPxMeshScale@3@IPEIBVPxVec3@3@MAEBV73@M@Z 0000000180128390     GuContactCapsuleConvex.obj
 0002:0000a3c4       $chain$1$?GuGenerateVFContacts2@@YAXAEAVContactBuffer@Gu@physx@@AEBVPxTransform@3@AEBUPolygonalData@23@AEBVPxMeshScale@3@IPEIBVPxVec3@3@MAEBV73@M@Z 00000001801283c4     GuContactCapsuleConvex.obj
 0002:0000a3dc       $chain$2$?GuGenerateVFContacts2@@YAXAEAVContactBuffer@Gu@physx@@AEBVPxTransform@3@AEBUPolygonalData@23@AEBVPxMeshScale@3@IPEIBVPxVec3@3@MAEBV73@M@Z 00000001801283dc     GuContactCapsuleConvex.obj
 0002:0000a3ec       $unwind$?GuGenerateEEContacts@@YAXAEAVContactBuffer@Gu@physx@@AEBVSegment@23@MMAEBUPolygonalData@23@AEBVPxTransform@3@AEBVFastVertex2ShapeScaling@Cm@3@AEBVPxVec3@3@@Z 00000001801283ec     GuContactCapsuleConvex.obj
 0002:0000a418       $chain$3$?GuGenerateEEContacts@@YAXAEAVContactBuffer@Gu@physx@@AEBVSegment@23@MMAEBUPolygonalData@23@AEBVPxTransform@3@AEBVFastVertex2ShapeScaling@Cm@3@AEBVPxVec3@3@@Z 0000000180128418     GuContactCapsuleConvex.obj
 0002:0000a438       $chain$4$?GuGenerateEEContacts@@YAXAEAVContactBuffer@Gu@physx@@AEBVSegment@23@MMAEBUPolygonalData@23@AEBVPxTransform@3@AEBVFastVertex2ShapeScaling@Cm@3@AEBVPxVec3@3@@Z 0000000180128438     GuContactCapsuleConvex.obj
 0002:0000a448       $unwind$?GuGenerateEEContacts2b@@YAXAEAVContactBuffer@Gu@physx@@AEBVSegment@23@MAEBVMatrix34@Cm@3@AEBUPolygonalData@23@AEBVFastVertex2ShapeScaling@63@AEBVPxVec3@3@M@Z 0000000180128448     GuContactCapsuleConvex.obj
 0002:0000a474       $chain$0$?GuGenerateEEContacts2b@@YAXAEAVContactBuffer@Gu@physx@@AEBVSegment@23@MAEBVMatrix34@Cm@3@AEBUPolygonalData@23@AEBVFastVertex2ShapeScaling@63@AEBVPxVec3@3@M@Z 0000000180128474     GuContactCapsuleConvex.obj
 0002:0000a488       $chain$5$?GuGenerateEEContacts2b@@YAXAEAVContactBuffer@Gu@physx@@AEBVSegment@23@MAEBVMatrix34@Cm@3@AEBUPolygonalData@23@AEBVFastVertex2ShapeScaling@63@AEBVPxVec3@3@M@Z 0000000180128488     GuContactCapsuleConvex.obj
 0002:0000a4a8       $chain$1$?GuGenerateEEContacts2b@@YAXAEAVContactBuffer@Gu@physx@@AEBVSegment@23@MAEBVMatrix34@Cm@3@AEBUPolygonalData@23@AEBVFastVertex2ShapeScaling@63@AEBVPxVec3@3@M@Z 00000001801284a8     GuContactCapsuleConvex.obj
 0002:0000a4b8       $unwind$?contactCapsuleMesh@Gu@physx@@YA_NAEBVGeometryUnion@12@0AEBVPxTransform@2@1AEBUNarrowPhaseParams@12@AEAUCache@12@AEAVContactBuffer@12@PEAVRenderOutput@Cm@2@@Z 00000001801284b8     GuContactCapsuleMesh.obj
 0002:0000a4f4       $unwind$?contactCapsuleHeightfield@Gu@physx@@YA_NAEBVGeometryUnion@12@0AEBVPxTransform@2@1AEBUNarrowPhaseParams@12@AEAUCache@12@AEAVContactBuffer@12@PEAVRenderOutput@Cm@2@@Z 00000001801284f4     GuContactCapsuleMesh.obj
 0002:0000a534       $unwind$?transformFast@PxBounds3@physx@@SA?AV12@AEBVPxTransform@2@AEBV12@@Z 0000000180128534     GuContactCapsuleMesh.obj
 0002:0000a564       $unwind$?transformQueryBounds@FastVertex2ShapeScaling@Cm@physx@@QEBAXAEAVPxVec3@3@0AEAVPxMat33@3@@Z 0000000180128564     GuContactCapsuleMesh.obj
 0002:0000a570       $unwind$?PxcTestAxis@@YA_NAEBVPxVec3@physx@@AEBVSegment@Gu@2@MPEIBV12@AEAM@Z 0000000180128570     GuContactCapsuleMesh.obj
 0002:0000a584       $unwind$?PxcCapsuleTriOverlap3@@YA_NEAEBVSegment@Gu@physx@@MPEIBVPxVec3@3@PEIAMPEIAV43@@Z 0000000180128584     GuContactCapsuleMesh.obj
 0002:0000a5ac       $chain$3$?PxcCapsuleTriOverlap3@@YA_NEAEBVSegment@Gu@physx@@MPEIBVPxVec3@3@PEIAMPEIAV43@@Z 00000001801285ac     GuContactCapsuleMesh.obj
 0002:0000a5cc       $unwind$?PxcGenerateVFContacts@@YAXAEBVMatrix34@Cm@physx@@AEAVContactBuffer@Gu@3@AEBVSegment@53@MPEIBVPxVec3@3@AEBV73@IM@Z 00000001801285cc     GuContactCapsuleMesh.obj
 0002:0000a604       $unwind$?PxcGenerateEEContacts@@YAXAEBVMatrix34@Cm@physx@@AEAVContactBuffer@Gu@3@AEBVSegment@53@MPEIBVPxVec3@3@AEBV73@I@Z 0000000180128604     GuContactCapsuleMesh.obj
 0002:0000a63c       $chain$2$?PxcGenerateEEContacts@@YAXAEBVMatrix34@Cm@physx@@AEAVContactBuffer@Gu@3@AEBVSegment@53@MPEIBVPxVec3@3@AEBV73@I@Z 000000018012863c     GuContactCapsuleMesh.obj
 0002:0000a658       $unwind$?PxcGenerateEEContacts2@@YAXAEBVMatrix34@Cm@physx@@AEAVContactBuffer@Gu@3@AEBVSegment@53@MPEIBVPxVec3@3@AEBV73@IM@Z 0000000180128658     GuContactCapsuleMesh.obj
 0002:0000a690       $chain$2$?PxcGenerateEEContacts2@@YAXAEBVMatrix34@Cm@physx@@AEAVContactBuffer@Gu@3@AEBVSegment@53@MPEIBVPxVec3@3@AEBV73@IM@Z 0000000180128690     GuContactCapsuleMesh.obj
 0002:0000a6ac       $unwind$??0CapsuleMeshContactGeneration@?A0xd0a6ead9@@QEAA@AEAVContactBuffer@Gu@physx@@AEBVPxTransform@4@AEBVSegment@34@MMM@Z 00000001801286ac     GuContactCapsuleMesh.obj
 0002:0000a6d4       $unwind$?processTriangle@CapsuleMeshContactGeneration@?A0xd0a6ead9@@QEAAXIAEBVTrianglePadded@Gu@physx@@E@Z 00000001801286d4     GuContactCapsuleMesh.obj
 0002:0000a6f0       $chain$0$?processTriangle@CapsuleMeshContactGeneration@?A0xd0a6ead9@@QEAAXIAEBVTrianglePadded@Gu@physx@@E@Z 00000001801286f0     GuContactCapsuleMesh.obj
 0002:0000a704       $chain$3$?processTriangle@CapsuleMeshContactGeneration@?A0xd0a6ead9@@QEAAXIAEBVTrianglePadded@Gu@physx@@E@Z 0000000180128704     GuContactCapsuleMesh.obj
 0002:0000a720       $chain$5$?processTriangle@CapsuleMeshContactGeneration@?A0xd0a6ead9@@QEAAXIAEBVTrianglePadded@Gu@physx@@E@Z 0000000180128720     GuContactCapsuleMesh.obj
 0002:0000a738       $chain$6$?processTriangle@CapsuleMeshContactGeneration@?A0xd0a6ead9@@QEAAXIAEBVTrianglePadded@Gu@physx@@E@Z 0000000180128738     GuContactCapsuleMesh.obj
 0002:0000a748       $chain$7$?processTriangle@CapsuleMeshContactGeneration@?A0xd0a6ead9@@QEAAXIAEBVTrianglePadded@Gu@physx@@E@Z 0000000180128748     GuContactCapsuleMesh.obj
 0002:0000a758       $chain$8$?processTriangle@CapsuleMeshContactGeneration@?A0xd0a6ead9@@QEAAXIAEBVTrianglePadded@Gu@physx@@E@Z 0000000180128758     GuContactCapsuleMesh.obj
 0002:0000a768       $chain$9$?processTriangle@CapsuleMeshContactGeneration@?A0xd0a6ead9@@QEAAXIAEBVTrianglePadded@Gu@physx@@E@Z 0000000180128768     GuContactCapsuleMesh.obj
 0002:0000a788       $unwind$?processHit@CapsuleMeshContactGenerationCallback_NoScale@?A0xd0a6ead9@@UEAA_NAEBUPxRaycastHit@physx@@AEBVPxVec3@4@11AEAMPEBI@Z 0000000180128788     GuContactCapsuleMesh.obj
 0002:0000a788       $unwind$?testEpaPenetration@Gu@physx@@YA?AW4GjkStatus@12@AEAUGjkConvex@12@0PEBE1EAEAUGjkOutput@12@@Z 0000000180128788     GuGJKTest.obj
 0002:0000a788       $unwind$?testGjkPenetration@Gu@physx@@YA?AW4GjkStatus@12@AEAUGjkConvex@12@0AEBT__m128@@1PEAE2AEAEAEAUGjkOutput@12@@Z 0000000180128788     GuGJKTest.obj
 0002:0000a788       $unwind$?GeomOverlapCallback_ConvexHeightfield@@YA_NAEBVPxGeometry@physx@@AEBVPxTransform@2@01PEAUTriggerCache@Gu@2@@Z 0000000180128788     GuOverlapTestsHF.obj
 0002:0000a790       $unwind$?processHit@CapsuleMeshContactGenerationCallback_Scale@?A0xd0a6ead9@@UEAA_NAEBUPxRaycastHit@physx@@AEBVPxVec3@4@11AEAMPEBI@Z 0000000180128790     GuContactCapsuleMesh.obj
 0002:0000a7ac       $unwind$?onEvent@CapsuleHeightfieldContactGenerationCallback@?A0xd0a6ead9@@UEAA_NIPEAI@Z 00000001801287ac     GuContactCapsuleMesh.obj
 0002:0000a7ac       $unwind$?onEvent@ConvexVsHeightfieldContactGenerationCallback@?A0xae1ce05b@@UEAA_NIPEAI@Z 00000001801287ac     GuContactConvexMesh.obj
 0002:0000a7bc       $chain$14$?onEvent@CapsuleHeightfieldContactGenerationCallback@?A0xd0a6ead9@@UEAA_NIPEAI@Z 00000001801287bc     GuContactCapsuleMesh.obj
 0002:0000a808       $chain$15$?onEvent@CapsuleHeightfieldContactGenerationCallback@?A0xd0a6ead9@@UEAA_NIPEAI@Z 0000000180128808     GuContactCapsuleMesh.obj
 0002:0000a818       $unwind$?transformPlaneToShapeSpace@FastVertex2ShapeScaling@Cm@physx@@QEBAXAEBVPxVec3@3@MAEAV43@AEAM@Z 0000000180128818     GuContactConvexConvex.obj
 0002:0000a82c       $unwind$?contactBoxConvex@Gu@physx@@YA_NAEBVGeometryUnion@12@0AEBVPxTransform@2@1AEBUNarrowPhaseParams@12@AEAUCache@12@AEAVContactBuffer@12@PEAVRenderOutput@Cm@2@@Z 000000018012882c     GuContactConvexConvex.obj
 0002:0000a844       $unwind$?contactConvexConvex@Gu@physx@@YA_NAEBVGeometryUnion@12@0AEBVPxTransform@2@1AEBUNarrowPhaseParams@12@AEAUCache@12@AEAVContactBuffer@12@PEAVRenderOutput@Cm@2@@Z 0000000180128844     GuContactConvexConvex.obj
 0002:0000a860       $unwind$?PxcSegmentAABBIntersect@@YA_NAEBVPxVec3@physx@@000AEBVMatrix34@Cm@2@@Z 0000000180128860     GuContactConvexConvex.obj
 0002:0000a890       $unwind$?PxcFindSeparatingAxes@@YAXAEAVSeparatingAxes@Gu@physx@@PEIBIIAEBUPolygonalData@23@AEBVMatrix34@Cm@3@AEBVPxPlane@3@3AEBVPxBounds3@3@MAEBVFastVertex2ShapeScaling@63@@Z 0000000180128890     GuContactConvexConvex.obj
 0002:0000a89c       $chain$16$?PxcFindSeparatingAxes@@YAXAEAVSeparatingAxes@Gu@physx@@PEIBIIAEBUPolygonalData@23@AEBVMatrix34@Cm@3@AEBVPxPlane@3@3AEBVPxBounds3@3@MAEBVFastVertex2ShapeScaling@63@@Z 000000018012889c     GuContactConvexConvex.obj
 0002:0000a8f0       $chain$17$?PxcFindSeparatingAxes@@YAXAEAVSeparatingAxes@Gu@physx@@PEIBIIAEBUPolygonalData@23@AEBVMatrix34@Cm@3@AEBVPxPlane@3@3AEBVPxBounds3@3@MAEBVFastVertex2ShapeScaling@63@@Z 00000001801288f0     GuContactConvexConvex.obj
 0002:0000a900       $unwind$?PxcTestFacesSepAxesBackface@@YA_NAEBUPolygonalData@Gu@physx@@0AEBVMatrix34@Cm@3@1AEBVFastVertex2ShapeScaling@53@21AEBVPxVec3@3@AEAMAEAV73@AEAIPEIAI6MM3@Z 0000000180128900     GuContactConvexConvex.obj
 0002:0000a91c       $chain$9$?PxcTestFacesSepAxesBackface@@YA_NAEBUPolygonalData@Gu@physx@@0AEBVMatrix34@Cm@3@1AEBVFastVertex2ShapeScaling@53@21AEBVPxVec3@3@AEAMAEAV73@AEAIPEIAI6MM3@Z 000000018012891c     GuContactConvexConvex.obj
 0002:0000a954       $unwind$?prepareData@@YAXAEAVPxPlane@physx@@0AEAVPxBounds3@2@1AEBV32@2AEBV12@3AEBVFastVertex2ShapeScaling@Cm@2@4AEBVMatrix34@52@5M@Z 0000000180128954     GuContactConvexConvex.obj
 0002:0000a970       $unwind$?PxcBruteForceOverlapBackface@@YA_NAEBVPxBounds3@physx@@0AEBUPolygonalData@Gu@2@1AEBVMatrix34@Cm@2@2AEBVFastVertex2ShapeScaling@62@322AEBVPxVec3@2@AEAI5AEAMAEAV82@AEAW4PxcSepAxisType@42@MM@Z 0000000180128970     GuContactConvexConvex.obj
 0002:0000a9b4       $unwind$?GuTestFacesSepAxesBackfaceRoughPass@@YA_NAEBUPolygonalData@Gu@physx@@0AEBVMatrix34@Cm@3@1AEBVFastVertex2ShapeScaling@53@21AEBVPxVec3@3@3AEAMAEAV73@AEAIMM3@Z 00000001801289b4     GuContactConvexConvex.obj
 0002:0000a9f8       $unwind$?GuContactHullHull@@YA_NAEBUPolygonalData@Gu@physx@@0AEBVPxBounds3@3@1AEBVPxTransform@3@2AEBUNarrowPhaseParams@23@AEAVContactBuffer@23@AEBVFastVertex2ShapeScaling@Cm@3@5_N6@Z 00000001801289f8     GuContactConvexConvex.obj
 0002:0000aa3c       $unwind$?contactBoxMesh@Gu@physx@@YA_NAEBVGeometryUnion@12@0AEBVPxTransform@2@1AEBUNarrowPhaseParams@12@AEAUCache@12@AEAVContactBuffer@12@PEAVRenderOutput@Cm@2@@Z 0000000180128a3c     GuContactConvexMesh.obj
 0002:0000aa58       $unwind$?contactConvexMesh@Gu@physx@@YA_NAEBVGeometryUnion@12@0AEBVPxTransform@2@1AEBUNarrowPhaseParams@12@AEAUCache@12@AEAVContactBuffer@12@PEAVRenderOutput@Cm@2@@Z 0000000180128a58     GuContactConvexMesh.obj
 0002:0000aa74       $unwind$?contactBoxHeightfield@Gu@physx@@YA_NAEBVGeometryUnion@12@0AEBVPxTransform@2@1AEBUNarrowPhaseParams@12@AEAUCache@12@AEAVContactBuffer@12@PEAVRenderOutput@Cm@2@@Z 0000000180128a74     GuContactConvexMesh.obj
 0002:0000aa8c       $unwind$?contactConvexHeightfield@Gu@physx@@YA_NAEBVGeometryUnion@12@0AEBVPxTransform@2@1AEBUNarrowPhaseParams@12@AEAUCache@12@AEAVContactBuffer@12@PEAVRenderOutput@Cm@2@@Z 0000000180128a8c     GuContactConvexMesh.obj
 0002:0000aaa4       $unwind$?testFacesSepAxesBackface@@YA_NAEBUPolygonalData@Gu@physx@@AEBVMatrix34@Cm@3@11AEBVPxVec3@3@PEIBV63@AEBVFastVertex2ShapeScaling@53@AEAIPEAIAEAMAEAV63@5M_N@Z 0000000180128aa4     GuContactConvexMesh.obj
 0002:0000aaec       $unwind$?performEETests@@YA_NAEBUPolygonalData@Gu@physx@@EAEBVMatrix34@Cm@3@1PEIBVPxVec3@3@IPEIBIAEBVPxPlane@3@AEBVFastVertex2ShapeScaling@53@AEAV63@AEAMMMII@Z 0000000180128aec     GuContactConvexMesh.obj
 0002:0000ab2c       $chain$0$?performEETests@@YA_NAEBUPolygonalData@Gu@physx@@EAEBVMatrix34@Cm@3@1PEIBVPxVec3@3@IPEIBIAEBVPxPlane@3@AEBVFastVertex2ShapeScaling@53@AEAV63@AEAMMMII@Z 0000000180128b2c     GuContactConvexMesh.obj
 0002:0000ab40       $unwind$?triangleConvexTest@@YA_NAEBUPolygonalData@Gu@physx@@EIPEIBVPxVec3@3@AEBVPxPlane@3@AEBV43@AEBVMatrix34@Cm@3@444AEBVFastVertex2ShapeScaling@73@MMAEAV43@AEAMAEA_N_N@Z 0000000180128b40     GuContactConvexMesh.obj
 0002:0000ab74       $unwind$??0ConvexMeshContactGeneration@?A0xae1ce05b@@QEAA@AEAV?$InlineArray@I$0EEA@VNamedAllocator@shdfnd@physx@@@shdfnd@physx@@AEBVPxTransform@4@1AEBUPolygonalData@Gu@4@AEBVMatrix34@Cm@4@3AEBVFastVertex2ShapeScaling@94@MM_NM11AEAVContactBuffer@74@@Z 0000000180128b74     GuContactConvexMesh.obj
 0002:0000abac       $unwind$?processTriangle@ConvexMeshContactGeneration@?A0xae1ce05b@@QEAAXPEBVPxVec3@physx@@IEPEBI@Z 0000000180128bac     GuContactConvexMesh.obj
 0002:0000abd8       $chain$3$?processTriangle@ConvexMeshContactGeneration@?A0xae1ce05b@@QEAAXPEBVPxVec3@physx@@IEPEBI@Z 0000000180128bd8     GuContactConvexMesh.obj
 0002:0000abf8       $chain$4$?processTriangle@ConvexMeshContactGeneration@?A0xae1ce05b@@QEAAXPEBVPxVec3@physx@@IEPEBI@Z 0000000180128bf8     GuContactConvexMesh.obj
 0002:0000ac08       $chain$5$?processTriangle@ConvexMeshContactGeneration@?A0xae1ce05b@@QEAAXPEBVPxVec3@physx@@IEPEBI@Z 0000000180128c08     GuContactConvexMesh.obj
 0002:0000ac1c       $chain$6$?processTriangle@ConvexMeshContactGeneration@?A0xae1ce05b@@QEAAXPEBVPxVec3@physx@@IEPEBI@Z 0000000180128c1c     GuContactConvexMesh.obj
 0002:0000ac2c       $unwind$?generateLastContacts@ConvexMeshContactGeneration@?A0xae1ce05b@@QEAAXXZ 0000000180128c2c     GuContactConvexMesh.obj
 0002:0000ac38       $chain$0$?generateLastContacts@ConvexMeshContactGeneration@?A0xae1ce05b@@QEAAXXZ 0000000180128c38     GuContactConvexMesh.obj
 0002:0000ac4c       $chain$12$?generateLastContacts@ConvexMeshContactGeneration@?A0xae1ce05b@@QEAAXXZ 0000000180128c4c     GuContactConvexMesh.obj
 0002:0000ac8c       $chain$13$?generateLastContacts@ConvexMeshContactGeneration@?A0xae1ce05b@@QEAAXXZ 0000000180128c8c     GuContactConvexMesh.obj
 0002:0000ac9c       $chain$14$?generateLastContacts@ConvexMeshContactGeneration@?A0xae1ce05b@@QEAAXXZ 0000000180128c9c     GuContactConvexMesh.obj
 0002:0000acac       $unwind$?generateContacts@ConvexMeshContactGeneration@?A0xae1ce05b@@QEBA_NAEBVPxPlane@physx@@PEIBVPxVec3@4@AEBV54@AEAV54@MI@Z 0000000180128cac     GuContactConvexMesh.obj
 0002:0000acf0       $unwind$??0?$InlineArray@I$0EEA@VNamedAllocator@shdfnd@physx@@@shdfnd@physx@@QEAA@AEBVNamedAllocator@12@@Z 0000000180128cf0     GuContactConvexMesh.obj
 0002:0000ad00       $unwind$?processHit@ConvexMeshContactGenerationCallback@@UEAA_NAEBUPxRaycastHit@physx@@AEBVPxVec3@3@11AEAMPEBI@Z 0000000180128d00     GuContactConvexMesh.obj
 0002:0000ad1c       $chain$9$?processHit@ConvexMeshContactGenerationCallback@@UEAA_NAEBUPxRaycastHit@physx@@AEBVPxVec3@3@11AEAMPEBI@Z 0000000180128d1c     GuContactConvexMesh.obj
 0002:0000ad54       $chain$10$?processHit@ConvexMeshContactGenerationCallback@@UEAA_NAEBUPxRaycastHit@physx@@AEBVPxVec3@3@11AEAMPEBI@Z 0000000180128d54     GuContactConvexMesh.obj
 0002:0000ad64       $unwind$?computeFeatureCode@@YA?AW4FeatureCode@@AEBVPxVec3@physx@@PEBV23@@Z 0000000180128d64     GuContactConvexMesh.obj
 0002:0000ad90       $unwind$?contactHullMesh2@@YA_NAEBUPolygonalData@Gu@physx@@AEBVPxBounds3@3@AEBUPxTriangleMeshGeometryLL@3@AEBVPxTransform@3@3AEBUNarrowPhaseParams@23@AEAVContactBuffer@23@AEBVFastVertex2ShapeScaling@Cm@3@6_N7@Z 0000000180128d90     GuContactConvexMesh.obj
 0002:0000add8       $chain$14$?onEvent@ConvexVsHeightfieldContactGenerationCallback@?A0xae1ce05b@@UEAA_NIPEAI@Z 0000000180128dd8     GuContactConvexMesh.obj
 0002:0000ae24       $chain$15$?onEvent@ConvexVsHeightfieldContactGenerationCallback@?A0xae1ce05b@@UEAA_NIPEAI@Z 0000000180128e24     GuContactConvexMesh.obj
 0002:0000ae34       $unwind$?contactHullHeightfield2@@YA_NAEBUPolygonalData@Gu@physx@@AEBVPxBounds3@3@AEBVPxHeightFieldGeometry@3@AEBVPxTransform@3@3AEBUNarrowPhaseParams@23@AEAVContactBuffer@23@AEBVFastVertex2ShapeScaling@Cm@3@_N@Z 0000000180128e34     GuContactConvexMesh.obj
 0002:0000ae78       $unwind$?contactPlaneBox@Gu@physx@@YA_NAEBVGeometryUnion@12@0AEBVPxTransform@2@1AEBUNarrowPhaseParams@12@AEAUCache@12@AEAVContactBuffer@12@PEAVRenderOutput@Cm@2@@Z 0000000180128e78     GuContactPlaneBox.obj
 0002:0000aeac       $unwind$?contactPlaneCapsule@Gu@physx@@YA_NAEBVGeometryUnion@12@0AEBVPxTransform@2@1AEBUNarrowPhaseParams@12@AEAUCache@12@AEAVContactBuffer@12@PEAVRenderOutput@Cm@2@@Z 0000000180128eac     GuContactPlaneCapsule.obj
 0002:0000aee4       $unwind$?contactPlaneConvex@Gu@physx@@YA_NAEBVGeometryUnion@12@0AEBVPxTransform@2@1AEBUNarrowPhaseParams@12@AEAUCache@12@AEAVContactBuffer@12@PEAVRenderOutput@Cm@2@@Z 0000000180128ee4     GuContactPlaneConvex.obj
 0002:0000af20       $unwind$?findRotationMatrixFromZ@Gu@physx@@YA?AVPxMat33@2@AEBVPxVec3@2@@Z 0000000180128f20     GuContactPolygonPolygon.obj
 0002:0000af30       $chain$4$?findRotationMatrixFromZ@Gu@physx@@YA?AVPxMat33@2@AEBVPxVec3@2@@Z 0000000180128f30     GuContactPolygonPolygon.obj
 0002:0000af54       $chain$5$?findRotationMatrixFromZ@Gu@physx@@YA?AVPxMat33@2@AEBVPxVec3@2@@Z 0000000180128f54     GuContactPolygonPolygon.obj
 0002:0000af64       $unwind$?contactPolygonPolygonExt@Gu@physx@@YA_NIPEBVPxVec3@2@PEBEAEBVMatrix34@Cm@2@AEBVPxPlane@2@AEBVPxMat33@2@I01234AEBV32@22IIAEAVContactBuffer@12@_N5M@Z 0000000180128f64     GuContactPolygonPolygon.obj
 0002:0000afa8       $unwind$?ContactReductionAllIn@@YAXAEAVContactBuffer@Gu@physx@@IIAEBVPxMat33@3@PEIBVPxVec3@3@PEIBE@Z 0000000180128fa8     GuContactPolygonPolygon.obj
 0002:0000afbc       $chain$1$?ContactReductionAllIn@@YAXAEAVContactBuffer@Gu@physx@@IIAEBVPxMat33@3@PEIBVPxVec3@3@PEIBE@Z 0000000180128fbc     GuContactPolygonPolygon.obj
 0002:0000afd4       $chain$2$?ContactReductionAllIn@@YAXAEAVContactBuffer@Gu@physx@@IIAEBVPxMat33@3@PEIBVPxVec3@3@PEIBE@Z 0000000180128fd4     GuContactPolygonPolygon.obj
 0002:0000afe8       $chain$6$?ContactReductionAllIn@@YAXAEAVContactBuffer@Gu@physx@@IIAEBVPxMat33@3@PEIBVPxVec3@3@PEIBE@Z 0000000180128fe8     GuContactPolygonPolygon.obj
 0002:0000b008       $chain$12$?ContactReductionAllIn@@YAXAEAVContactBuffer@Gu@physx@@IIAEBVPxMat33@3@PEIBVPxVec3@3@PEIBE@Z 0000000180129008     GuContactPolygonPolygon.obj
 0002:0000b030       $chain$13$?ContactReductionAllIn@@YAXAEAVContactBuffer@Gu@physx@@IIAEBVPxMat33@3@PEIBVPxVec3@3@PEIBE@Z 0000000180129030     GuContactPolygonPolygon.obj
 0002:0000b050       $chain$14$?ContactReductionAllIn@@YAXAEAVContactBuffer@Gu@physx@@IIAEBVPxMat33@3@PEIBVPxVec3@3@PEIBE@Z 0000000180129050     GuContactPolygonPolygon.obj
 0002:0000b060       $chain$15$?ContactReductionAllIn@@YAXAEAVContactBuffer@Gu@physx@@IIAEBVPxMat33@3@PEIBVPxVec3@3@PEIBE@Z 0000000180129060     GuContactPolygonPolygon.obj
 0002:0000b070       $chain$16$?ContactReductionAllIn@@YAXAEAVContactBuffer@Gu@physx@@IIAEBVPxMat33@3@PEIBVPxVec3@3@PEIBE@Z 0000000180129070     GuContactPolygonPolygon.obj
 0002:0000b080       $unwind$?transformVertices@@YAXAEAM000PEIAMIPEIBVPxVec3@physx@@PEIBEAEBVPxMat33@2@@Z 0000000180129080     GuContactPolygonPolygon.obj
 0002:0000b0a8       $chain$6$?transformVertices@@YAXAEAM000PEIAMIPEIBVPxVec3@physx@@PEIBEAEBVPxMat33@2@@Z 00000001801290a8     GuContactPolygonPolygon.obj
 0002:0000b0d4       $chain$8$?transformVertices@@YAXAEAM000PEIAMIPEIBVPxVec3@physx@@PEIBEAEBVPxMat33@2@@Z 00000001801290d4     GuContactPolygonPolygon.obj
 0002:0000b0ec       $chain$9$?transformVertices@@YAXAEAM000PEIAMIPEIBVPxVec3@physx@@PEIBEAEBVPxMat33@2@@Z 00000001801290ec     GuContactPolygonPolygon.obj
 0002:0000b0fc       $chain$10$?transformVertices@@YAXAEAM000PEIAMIPEIBVPxVec3@physx@@PEIBEAEBVPxMat33@2@@Z 00000001801290fc     GuContactPolygonPolygon.obj
 0002:0000b10c       $unwind$?PointInConvexPolygon2D_OutCodes@@YA_NPEIBMIMMMMAEAE@Z 000000018012910c     GuContactPolygonPolygon.obj
 0002:0000b120       $chain$3$?PointInConvexPolygon2D_OutCodes@@YA_NPEIBMIMMMMAEAE@Z 0000000180129120     GuContactPolygonPolygon.obj
 0002:0000b140       $chain$4$?PointInConvexPolygon2D_OutCodes@@YA_NPEIBMIMMMMAEAE@Z 0000000180129140     GuContactPolygonPolygon.obj
 0002:0000b15c       $chain$5$?PointInConvexPolygon2D_OutCodes@@YA_NPEIBMIMMMMAEAE@Z 000000018012915c     GuContactPolygonPolygon.obj
 0002:0000b16c       $unwind$?contactSphereBox@Gu@physx@@YA_NAEBVGeometryUnion@12@0AEBVPxTransform@2@1AEBUNarrowPhaseParams@12@AEAUCache@12@AEAVContactBuffer@12@PEAVRenderOutput@Cm@2@@Z 000000018012916c     GuContactSphereBox.obj
 0002:0000b19c       $unwind$?contactSphereCapsule@Gu@physx@@YA_NAEBVGeometryUnion@12@0AEBVPxTransform@2@1AEBUNarrowPhaseParams@12@AEAUCache@12@AEAVContactBuffer@12@PEAVRenderOutput@Cm@2@@Z 000000018012919c     GuContactSphereCapsule.obj
 0002:0000b1cc       $unwind$?contactSphereMesh@Gu@physx@@YA_NAEBVGeometryUnion@12@0AEBVPxTransform@2@1AEBUNarrowPhaseParams@12@AEAUCache@12@AEAVContactBuffer@12@PEAVRenderOutput@Cm@2@@Z 00000001801291cc     GuContactSphereMesh.obj
 0002:0000b210       $unwind$?contactSphereHeightfield@Gu@physx@@YA_NAEBVGeometryUnion@12@0AEBVPxTransform@2@1AEBUNarrowPhaseParams@12@AEAUCache@12@AEAVContactBuffer@12@PEAVRenderOutput@Cm@2@@Z 0000000180129210     GuContactSphereMesh.obj
 0002:0000b244       $chain$5$?contactSphereHeightfield@Gu@physx@@YA_NAEBVGeometryUnion@12@0AEBVPxTransform@2@1AEBUNarrowPhaseParams@12@AEAUCache@12@AEAVContactBuffer@12@PEAVRenderOutput@Cm@2@@Z 0000000180129244     GuContactSphereMesh.obj
 0002:0000b26c       $chain$6$?contactSphereHeightfield@Gu@physx@@YA_NAEBVGeometryUnion@12@0AEBVPxTransform@2@1AEBUNarrowPhaseParams@12@AEAUCache@12@AEAVContactBuffer@12@PEAVRenderOutput@Cm@2@@Z 000000018012926c     GuContactSphereMesh.obj
 0002:0000b27c       $unwind$?closestPtPointTriangle@@YA?AVPxVec3@physx@@AEBV12@000AEAM1AEAW4FeatureCode@Gu@2@@Z 000000018012927c     GuContactSphereMesh.obj
 0002:0000b27c       $unwind$?closestPtPointTriangle@Gu@physx@@YA?AVPxVec3@2@AEBV32@000AEAM1@Z 000000018012927c     GuDistancePointTriangle.obj
 0002:0000b2ac       $unwind$?processTriangle@SphereMeshContactGeneration@?A0x54a6cc4f@@QEAAXIAEBVPxVec3@physx@@00PEBI@Z 00000001801292ac     GuContactSphereMesh.obj
 0002:0000b2d4       $chain$5$?processTriangle@SphereMeshContactGeneration@?A0x54a6cc4f@@QEAAXIAEBVPxVec3@physx@@00PEBI@Z 00000001801292d4     GuContactSphereMesh.obj
 0002:0000b2fc       $chain$6$?processTriangle@SphereMeshContactGeneration@?A0x54a6cc4f@@QEAAXIAEBVPxVec3@physx@@00PEBI@Z 00000001801292fc     GuContactSphereMesh.obj
 0002:0000b30c       $unwind$?generateLastContacts@SphereMeshContactGeneration@?A0x54a6cc4f@@QEAAXXZ 000000018012930c     GuContactSphereMesh.obj
 0002:0000b318       $chain$1$?generateLastContacts@SphereMeshContactGeneration@?A0x54a6cc4f@@QEAAXXZ 0000000180129318     GuContactSphereMesh.obj
 0002:0000b330       $chain$15$?generateLastContacts@SphereMeshContactGeneration@?A0x54a6cc4f@@QEAAXXZ 0000000180129330     GuContactSphereMesh.obj
 0002:0000b378       $chain$16$?generateLastContacts@SphereMeshContactGeneration@?A0x54a6cc4f@@QEAAXXZ 0000000180129378     GuContactSphereMesh.obj
 0002:0000b388       $chain$17$?generateLastContacts@SphereMeshContactGeneration@?A0x54a6cc4f@@QEAAXXZ 0000000180129388     GuContactSphereMesh.obj
 0002:0000b398       $unwind$??$sort@USortKey@@U?$Less@USortKey@@@shdfnd@physx@@VNullAllocator@?A0x54a6cc4f@@@shdfnd@physx@@YAXPEAUSortKey@@IAEBU?$Less@USortKey@@@01@AEBVNullAllocator@?A0x54a6cc4f@@I@Z 0000000180129398     GuContactSphereMesh.obj
 0002:0000b3b8       $unwind$?processHit@SphereMeshContactGenerationCallback_Scale@?A0x54a6cc4f@@UEAA_NAEBUPxRaycastHit@physx@@AEBVPxVec3@4@11AEAMPEBI@Z 00000001801293b8     GuContactSphereMesh.obj
 0002:0000b3e8       $unwind$?onEvent@SphereHeightfieldContactGenerationCallback@?A0x54a6cc4f@@UEAA_NIPEAI@Z 00000001801293e8     GuContactSphereMesh.obj
 0002:0000b3f4       $chain$2$?onEvent@SphereHeightfieldContactGenerationCallback@?A0x54a6cc4f@@UEAA_NIPEAI@Z 00000001801293f4     GuContactSphereMesh.obj
 0002:0000b410       $chain$3$?onEvent@SphereHeightfieldContactGenerationCallback@?A0x54a6cc4f@@UEAA_NIPEAI@Z 0000000180129410     GuContactSphereMesh.obj
 0002:0000b420       $unwind$?contactSpherePlane@Gu@physx@@YA_NAEBVGeometryUnion@12@0AEBVPxTransform@2@1AEBUNarrowPhaseParams@12@AEAUCache@12@AEAVContactBuffer@12@PEAVRenderOutput@Cm@2@@Z 0000000180129420     GuContactSpherePlane.obj
 0002:0000b44c       $unwind$?contactSphereSphere@Gu@physx@@YA_NAEBVGeometryUnion@12@0AEBVPxTransform@2@1AEBUNarrowPhaseParams@12@AEAUCache@12@AEAVContactBuffer@12@PEAVRenderOutput@Cm@2@@Z 000000018012944c     GuContactSphereSphere.obj
 0002:0000b460       $unwind$?Load@BigConvexData@physx@@QEAA_NAEAVPxInputStream@2@@Z 0000000180129460     GuBigConvexData.obj
 0002:0000b46c       $chain$0$?Load@BigConvexData@physx@@QEAA_NAEAVPxInputStream@2@@Z 000000018012946c     GuBigConvexData.obj
 0002:0000b480       $chain$1$?Load@BigConvexData@physx@@QEAA_NAEAVPxInputStream@2@@Z 0000000180129480     GuBigConvexData.obj
 0002:0000b490       $unwind$?VLoad@BigConvexData@physx@@IEAA_NAEAVPxInputStream@2@@Z 0000000180129490     GuBigConvexData.obj
 0002:0000b49c       $chain$1$?VLoad@BigConvexData@physx@@IEAA_NAEAVPxInputStream@2@@Z 000000018012949c     GuBigConvexData.obj
 0002:0000b4b4       $chain$2$?VLoad@BigConvexData@physx@@IEAA_NAEAVPxInputStream@2@@Z 00000001801294b4     GuBigConvexData.obj
 0002:0000b4c4       $unwind$?getScaledConvex@Gu@physx@@YAXAEAPEAVPxVec3@2@AEAPEAEPEAV32@PEAE_NPEBV32@PEBEIAEBVFastVertex2ShapeScaling@Cm@2@@Z 00000001801294c4     GuConvexHelper.obj
 0002:0000b4d0       $chain$4$?getScaledConvex@Gu@physx@@YAXAEAPEAVPxVec3@2@AEAPEAEPEAV32@PEAE_NPEBV32@PEBEIAEBVFastVertex2ShapeScaling@Cm@2@@Z 00000001801294d0     GuConvexHelper.obj
 0002:0000b4f0       $chain$5$?getScaledConvex@Gu@physx@@YAXAEAPEAVPxVec3@2@AEAPEAEPEAV32@PEAE_NPEBV32@PEBEIAEBVFastVertex2ShapeScaling@Cm@2@@Z 00000001801294f0     GuConvexHelper.obj
 0002:0000b500       $unwind$?getConvexData@Gu@physx@@YA_NAEBVGeometryUnion@12@AEAVFastVertex2ShapeScaling@Cm@2@AEAVPxBounds3@2@AEAUPolygonalData@12@@Z 0000000180129500     GuConvexHelper.obj
 0002:0000b500       $unwind$?getPCMConvexData@Gu@physx@@YA_NAEBVGeometryUnion@12@AEAVFastVertex2ShapeScaling@Cm@2@AEAVPxBounds3@2@AEAUPolygonalData@12@@Z 0000000180129500     GuPCMShapeConvex.obj
 0002:0000b540       $unwind$?findUniqueConvexEdges@Gu@physx@@YAIIPEIAUConvexEdge@12@IPEIBUHullPolygonData@12@PEIBE@Z 0000000180129540     GuConvexHelper.obj
 0002:0000b55c       $chain$0$??_EPxConvexMesh@physx@@MEAAPEAXI@Z 000000018012955c     GuConvexMesh.obj
 0002:0000b55c       $chain$0$??_EPxHeightField@physx@@MEAAPEAXI@Z 000000018012955c     GuHeightField.obj
 0002:0000b570       $chain$1$??_EPxConvexMesh@physx@@MEAAPEAXI@Z 0000000180129570     GuConvexMesh.obj
 0002:0000b570       $chain$1$??_EPxHeightField@physx@@MEAAPEAXI@Z 0000000180129570     GuHeightField.obj
 0002:0000b580       $unwind$?load@ConvexMesh@Gu@physx@@QEAA_NAEAVPxInputStream@3@@Z 0000000180129580     GuConvexMesh.obj
 0002:0000b590       $chain$0$?load@ConvexMesh@Gu@physx@@QEAA_NAEAVPxInputStream@3@@Z 0000000180129590     GuConvexMesh.obj
 0002:0000b5a4       $chain$1$?load@ConvexMesh@Gu@physx@@QEAA_NAEAVPxInputStream@3@@Z 00000001801295a4     GuConvexMesh.obj
 0002:0000b5b8       $chain$2$?load@ConvexMesh@Gu@physx@@QEAA_NAEAVPxInputStream@3@@Z 00000001801295b8     GuConvexMesh.obj
 0002:0000b5c8       $chain$3$?load@ConvexMesh@Gu@physx@@QEAA_NAEAVPxInputStream@3@@Z 00000001801295c8     GuConvexMesh.obj
 0002:0000b5d8       $unwind$?getLocalBounds@ConvexMesh@Gu@physx@@UEBA?AVPxBounds3@3@XZ 00000001801295d8     GuConvexMesh.obj
 0002:0000b5d8       $unwind$?getLocalBounds@TriangleMesh@Gu@physx@@UEBA?AVPxBounds3@3@XZ 00000001801295d8     GuTriangleMesh.obj
 0002:0000b5ec       $chain$0$??1ConvexMesh@Gu@physx@@UEAA@XZ 00000001801295ec     GuConvexMesh.obj
 0002:0000b600       $chain$1$??1ConvexMesh@Gu@physx@@UEAA@XZ 0000000180129600     GuConvexMesh.obj
 0002:0000b610       $chain$2$??_EConvexMesh@Gu@physx@@UEAAPEAXI@Z 0000000180129610     GuConvexMesh.obj
 0002:0000b62c       $chain$3$??_EConvexMesh@Gu@physx@@UEAAPEAXI@Z 000000018012962c     GuConvexMesh.obj
 0002:0000b62c       $chain$5$??_EConvexMesh@Gu@physx@@UEAAPEAXI@Z 000000018012962c     GuConvexMesh.obj
 0002:0000b640       $chain$6$??_EConvexMesh@Gu@physx@@UEAAPEAXI@Z 0000000180129640     GuConvexMesh.obj
 0002:0000b650       $unwind$?convexHullLoad@@YA_NAEAUConvexHullData@Gu@physx@@AEAVPxInputStream@3@AEAV?$PxBitAndDataT@I$0IAAAAAAA@@3@@Z 0000000180129650     GuConvexMesh.obj
 0002:0000b660       $chain$3$?convexHullLoad@@YA_NAEAUConvexHullData@Gu@physx@@AEAVPxInputStream@3@AEAV?$PxBitAndDataT@I$0IAAAAAAA@@3@@Z 0000000180129660     GuConvexMesh.obj
 0002:0000b680       $chain$4$?convexHullLoad@@YA_NAEAUConvexHullData@Gu@physx@@AEAVPxInputStream@3@AEAV?$PxBitAndDataT@I$0IAAAAAAA@@3@@Z 0000000180129680     GuConvexMesh.obj
 0002:0000b680       $chain$6$?convexHullLoad@@YA_NAEAUConvexHullData@Gu@physx@@AEAVPxInputStream@3@AEAV?$PxBitAndDataT@I$0IAAAAAAA@@3@@Z 0000000180129680     GuConvexMesh.obj
 0002:0000b694       $chain$7$?convexHullLoad@@YA_NAEAUConvexHullData@Gu@physx@@AEAVPxInputStream@3@AEAV?$PxBitAndDataT@I$0IAAAAAAA@@3@@Z 0000000180129694     GuConvexMesh.obj
 0002:0000b6a4       $unwind$?computeHullOBB@Gu@physx@@YAXAEAVBox@12@AEBVPxBounds3@2@MAEBVMatrix34@Cm@2@2AEBVFastVertex2ShapeScaling@62@_N@Z 00000001801296a4     GuConvexUtilsInternal.obj
 0002:0000b6d4       $unwind$?computeVertexSpaceOBB@Gu@physx@@YAXAEAVBox@12@AEBV312@AEBVPxTransform@2@AEBVPxMeshScale@2@@Z 00000001801296d4     GuConvexUtilsInternal.obj
 0002:0000b70c       $unwind$?computeOBBAroundConvex@Gu@physx@@YAXAEAVBox@12@AEBVPxConvexMeshGeometry@2@PEBVPxConvexMesh@2@AEBVPxTransform@2@@Z 000000018012970c     GuConvexUtilsInternal.obj
 0002:0000b744       $unwind$??Dphysx@@YA?AVMatrix34@Cm@0@AEBVPxMeshScale@0@AEBV120@@Z 0000000180129744     GuConvexUtilsInternal.obj
 0002:0000b774       $unwind$?transform@physx@@YA?AVBox@Gu@1@AEBVMatrix34@Cm@1@AEBV231@@Z 0000000180129774     GuConvexUtilsInternal.obj
 0002:0000b780       $unwind$?localSearch@physx@@YAXAEAIAEBVPxVec3@1@PEBV21@PEBUBigConvexRawData@Gu@1@@Z 0000000180129780     GuHillClimbing.obj
 0002:0000b79c       $unwind$??0PCMPolygonalBox@Gu@physx@@QEAA@AEBVPxVec3@2@@Z 000000018012979c     GuPCMShapeConvex.obj
 0002:0000b79c       $unwind$??0PolygonalBox@Gu@physx@@QEAA@AEBVPxVec3@2@@Z 000000018012979c     GuShapeConvex.obj
 0002:0000b7a8       $unwind$?getPolygonalData_Convex@Gu@physx@@YAXPEIAUPolygonalData@12@PEIBUConvexHullData@12@AEBVFastVertex2ShapeScaling@Cm@2@@Z 00000001801297a8     GuShapeConvex.obj
 0002:0000b7bc       $unwind$?SelectClosestEdgeCB_Convex@@YAIAEBUPolygonalData@Gu@physx@@AEBVFastVertex2ShapeScaling@Cm@3@AEBVPxVec3@3@@Z 00000001801297bc     GuShapeConvex.obj
 0002:0000b7d4       $chain$0$?SelectClosestEdgeCB_Convex@@YAIAEBUPolygonalData@Gu@physx@@AEBVFastVertex2ShapeScaling@Cm@3@AEBVPxVec3@3@@Z 00000001801297d4     GuShapeConvex.obj
 0002:0000b7e8       $chain$5$?SelectClosestEdgeCB_Convex@@YAIAEBUPolygonalData@Gu@physx@@AEBVFastVertex2ShapeScaling@Cm@3@AEBVPxVec3@3@@Z 00000001801297e8     GuShapeConvex.obj
 0002:0000b80c       $chain$6$?SelectClosestEdgeCB_Convex@@YAIAEBUPolygonalData@Gu@physx@@AEBVFastVertex2ShapeScaling@Cm@3@AEBVPxVec3@3@@Z 000000018012980c     GuShapeConvex.obj
 0002:0000b820       $chain$7$?SelectClosestEdgeCB_Convex@@YAIAEBUPolygonalData@Gu@physx@@AEBVFastVertex2ShapeScaling@Cm@3@AEBVPxVec3@3@@Z 0000000180129820     GuShapeConvex.obj
 0002:0000b830       $chain$8$?SelectClosestEdgeCB_Convex@@YAIAEBUPolygonalData@Gu@physx@@AEBVFastVertex2ShapeScaling@Cm@3@AEBVPxVec3@3@@Z 0000000180129830     GuShapeConvex.obj
 0002:0000b84c       $chain$9$?SelectClosestEdgeCB_Convex@@YAIAEBUPolygonalData@Gu@physx@@AEBVFastVertex2ShapeScaling@Cm@3@AEBVPxVec3@3@@Z 000000018012984c     GuShapeConvex.obj
 0002:0000b85c       $unwind$?HullProjectionCB_SmallConvex@@YAXAEBUPolygonalData@Gu@physx@@AEBVPxVec3@3@AEBVMatrix34@Cm@3@AEBVFastVertex2ShapeScaling@63@AEAM4@Z 000000018012985c     GuShapeConvex.obj
 0002:0000b878       $unwind$?HullProjectionCB_BigConvex@@YAXAEBUPolygonalData@Gu@physx@@AEBVPxVec3@3@AEBVMatrix34@Cm@3@AEBVFastVertex2ShapeScaling@63@AEAM4@Z 0000000180129878     GuShapeConvex.obj
 0002:0000b898       $unwind$?SelectClosestEdgeCB_Box@@YAIAEBUPolygonalData@Gu@physx@@AEBVFastVertex2ShapeScaling@Cm@3@AEBVPxVec3@3@@Z 0000000180129898     GuShapeConvex.obj
 0002:0000b8d0       $unwind$?HullProjectionCB_Box@@YAXAEBUPolygonalData@Gu@physx@@AEBVPxVec3@3@AEBVMatrix34@Cm@3@AEBVFastVertex2ShapeScaling@63@AEAM4@Z 00000001801298d0     GuShapeConvex.obj
 0002:0000b8e8       $unwind$?distancePointTriangleSquared@Gu@physx@@YA?AT__m128@@AEBT3@000AEAT3@11@Z 00000001801298e8     GuDistancePointTriangle.obj
 0002:0000b918       $unwind$?distanceSegmentBoxSquared@Gu@physx@@YAMAEBVPxVec3@2@000AEBVPxMat33@2@PEAMPEAV32@@Z 0000000180129918     GuDistanceSegmentBox.obj
 0002:0000b92c       $unwind$?face@@YAXIIIAEAVPxVec3@physx@@AEBV12@11PEAMAEAM@Z 000000018012992c     GuDistanceSegmentBox.obj
 0002:0000b950       $chain$0$?face@@YAXIIIAEAVPxVec3@physx@@AEBV12@11PEAMAEAM@Z 0000000180129950     GuDistanceSegmentBox.obj
 0002:0000b964       $chain$1$?face@@YAXIIIAEAVPxVec3@physx@@AEBV12@11PEAMAEAM@Z 0000000180129964     GuDistanceSegmentBox.obj
 0002:0000b974       $chain$2$?face@@YAXIIIAEAVPxVec3@physx@@AEBV12@11PEAMAEAM@Z 0000000180129974     GuDistanceSegmentBox.obj
 0002:0000b988       $chain$3$?face@@YAXIIIAEAVPxVec3@physx@@AEBV12@11PEAMAEAM@Z 0000000180129988     GuDistanceSegmentBox.obj
 0002:0000b99c       $chain$4$?face@@YAXIIIAEAVPxVec3@physx@@AEBV12@11PEAMAEAM@Z 000000018012999c     GuDistanceSegmentBox.obj
 0002:0000b9ac       $chain$5$?face@@YAXIIIAEAVPxVec3@physx@@AEBV12@11PEAMAEAM@Z 00000001801299ac     GuDistanceSegmentBox.obj
 0002:0000b9bc       $chain$6$?face@@YAXIIIAEAVPxVec3@physx@@AEBV12@11PEAMAEAM@Z 00000001801299bc     GuDistanceSegmentBox.obj
 0002:0000b9d4       $unwind$?case0@@YAXIIIAEAVPxVec3@physx@@AEBV12@1PEAMAEAM@Z 00000001801299d4     GuDistanceSegmentBox.obj
 0002:0000b9e8       $unwind$?distanceLineBoxSquared@@YAMAEBVPxVec3@physx@@000AEBVPxMat33@2@PEAMPEAV12@@Z 00000001801299e8     GuDistanceSegmentBox.obj
 0002:0000ba08       $chain$5$?distanceLineBoxSquared@@YAMAEBVPxVec3@physx@@000AEBVPxMat33@2@PEAMPEAV12@@Z 0000000180129a08     GuDistanceSegmentBox.obj
 0002:0000ba30       $chain$8$?distanceLineBoxSquared@@YAMAEBVPxVec3@physx@@000AEBVPxMat33@2@PEAMPEAV12@@Z 0000000180129a30     GuDistanceSegmentBox.obj
 0002:0000ba50       $chain$9$?distanceLineBoxSquared@@YAMAEBVPxVec3@physx@@000AEBVPxMat33@2@PEAMPEAV12@@Z 0000000180129a50     GuDistanceSegmentBox.obj
 0002:0000ba68       $unwind$?distanceSegmentSegmentSquared@Gu@physx@@YAMAEBVPxVec3@2@0M00MPEAM1@Z 0000000180129a68     GuDistanceSegmentSegment.obj
 0002:0000ba98       $unwind$?distanceSegmentSegmentSquared@Gu@physx@@YAMAEBVPxVec3@2@000PEAM1@Z 0000000180129a98     GuDistanceSegmentSegment.obj
 0002:0000bab0       $chain$3$?distanceSegmentSegmentSquared@Gu@physx@@YAMAEBVPxVec3@2@000PEAM1@Z 0000000180129ab0     GuDistanceSegmentSegment.obj
 0002:0000bad0       $chain$5$?distanceSegmentSegmentSquared@Gu@physx@@YAMAEBVPxVec3@2@000PEAM1@Z 0000000180129ad0     GuDistanceSegmentSegment.obj
 0002:0000bae8       $chain$6$?distanceSegmentSegmentSquared@Gu@physx@@YAMAEBVPxVec3@2@000PEAM1@Z 0000000180129ae8     GuDistanceSegmentSegment.obj
 0002:0000bafc       $chain$7$?distanceSegmentSegmentSquared@Gu@physx@@YAMAEBVPxVec3@2@000PEAM1@Z 0000000180129afc     GuDistanceSegmentSegment.obj
 0002:0000bb10       $unwind$?distanceSegmentSegmentSquared@Gu@physx@@YA?AT__m128@@AEBT3@000AEAT3@1@Z 0000000180129b10     GuDistanceSegmentSegment.obj
 0002:0000bb38       $unwind$?distanceSegmentSegmentSquared4@Gu@physx@@YA?AT__m128@@AEBT3@000000000AEAT3@1@Z 0000000180129b38     GuDistanceSegmentSegment.obj
 0002:0000bb64       $unwind$?distanceSegmentTriangleSquared@Gu@physx@@YAMAEBVPxVec3@2@0000PEAM11@Z 0000000180129b64     GuDistanceSegmentTriangle.obj
 0002:0000bb84       $chain$8$?distanceSegmentTriangleSquared@Gu@physx@@YAMAEBVPxVec3@2@0000PEAM11@Z 0000000180129b84     GuDistanceSegmentTriangle.obj
 0002:0000bbb8       $chain$9$?distanceSegmentTriangleSquared@Gu@physx@@YAMAEBVPxVec3@2@0000PEAM11@Z 0000000180129bb8     GuDistanceSegmentTriangle.obj
 0002:0000bbd0       $chain$10$?distanceSegmentTriangleSquared@Gu@physx@@YAMAEBVPxVec3@2@0000PEAM11@Z 0000000180129bd0     GuDistanceSegmentTriangle.obj
 0002:0000bbe0       $unwind$?distanceSegmentTriangleSquared@Gu@physx@@YA?AT__m128@@AEBT3@0000AEAT3@1@Z 0000000180129be0     GuDistanceSegmentTriangle.obj
 0002:0000bc20       $unwind$?epaPenetration@Gu@physx@@YA?AW4GjkStatus@12@AEBUGjkConvex@12@0PEIBE1E_NT__m128@@AEAUGjkOutput@12@@Z 0000000180129c20     GuEPA.obj
 0002:0000bc38       $chain$1$?epaPenetration@Gu@physx@@YA?AW4GjkStatus@12@AEBUGjkConvex@12@0PEIBE1E_NT__m128@@AEAUGjkOutput@12@@Z 0000000180129c38     GuEPA.obj
 0002:0000bc50       $chain$2$?epaPenetration@Gu@physx@@YA?AW4GjkStatus@12@AEBUGjkConvex@12@0PEIBE1E_NT__m128@@AEAUGjkOutput@12@@Z 0000000180129c50     GuEPA.obj
 0002:0000bc60       $unwind$?silhouette@Facet@Gu@physx@@QEAAXAEBT__m128@@PEIBT4@1AEAVEdgeBuffer@23@AEAV?$InlineDeferredIDPool@$0EA@@Cm@3@@Z 0000000180129c60     GuEPA.obj
 0002:0000bc80       $unwind$?PenetrationDepth@EPA@Gu@physx@@QEAA?AW4GjkStatus@23@AEBUGjkConvex@23@0PEIBT__m128@@1E_NT6@AEAUGjkOutput@23@@Z 0000000180129c80     GuEPA.obj
 0002:0000bcb8       $unwind$?addFacet@EPA@Gu@physx@@QEAAPEAVFacet@23@IIIAEBT__m128@@@Z 0000000180129cb8     GuEPA.obj
 0002:0000bcc4       $unwind$?calculateContactInformation@Gu@physx@@YAXPEIBT__m128@@0PEAVFacet@12@AEBUGjkConvex@12@2_NAEAUGjkOutput@12@@Z 0000000180129cc4     GuEPA.obj
 0002:0000bcec       $unwind$?closestPtPointTetrahedron@Gu@physx@@YA?AT__m128@@PEIAT3@00AEAI@Z 0000000180129cec     GuGJKSimplex.obj
 0002:0000bd28       $unwind$?closestPtPointTetrahedron@Gu@physx@@YA?AT__m128@@PEIAT3@00PEIAH1AEAI@Z 0000000180129d28     GuGJKSimplex.obj
 0002:0000bd68       $chain$0$?closestPtPointTetrahedron@Gu@physx@@YA?AT__m128@@PEIAT3@00PEIAH1AEAI@Z 0000000180129d68     GuGJKSimplex.obj
 0002:0000bd7c       $chain$1$?closestPtPointTetrahedron@Gu@physx@@YA?AT__m128@@PEIAT3@00PEIAH1AEAI@Z 0000000180129d7c     GuGJKSimplex.obj
 0002:0000bd8c       $unwind$?getClosestPtPointTriangle@Gu@physx@@YA?AT__m128@@PEIAT3@AEBT3@PEAIAEAI@Z 0000000180129d8c     GuGJKSimplex.obj
 0002:0000bdc0       $chain$0$?getClosestPtPointTriangle@Gu@physx@@YA?AT__m128@@PEIAT3@AEBT3@PEAIAEAI@Z 0000000180129dc0     GuGJKSimplex.obj
 0002:0000bdd4       $chain$2$?getClosestPtPointTriangle@Gu@physx@@YA?AT__m128@@PEIAT3@AEBT3@PEAIAEAI@Z 0000000180129dd4     GuGJKSimplex.obj
 0002:0000bdec       $chain$3$?getClosestPtPointTriangle@Gu@physx@@YA?AT__m128@@PEIAT3@AEBT3@PEAIAEAI@Z 0000000180129dec     GuGJKSimplex.obj
 0002:0000be00       $chain$4$?getClosestPtPointTriangle@Gu@physx@@YA?AT__m128@@PEIAT3@AEBT3@PEAIAEAI@Z 0000000180129e00     GuGJKSimplex.obj
 0002:0000be10       $chain$5$?getClosestPtPointTriangle@Gu@physx@@YA?AT__m128@@PEIAT3@AEBT3@PEAIAEAI@Z 0000000180129e10     GuGJKSimplex.obj
 0002:0000be20       $unwind$??$gjk@UGjkConvex@Gu@physx@@U123@@Gu@physx@@YA?AW4GjkStatus@01@AEBUGjkConvex@01@0AEBT__m128@@1AEAT4@222@Z 0000000180129e20     GuGJKTest.obj
 0002:0000be60       $unwind$??$gjkPenetration@UGjkConvex@Gu@physx@@U123@@Gu@physx@@YA?AW4GjkStatus@01@AEBUGjkConvex@01@0AEBT__m128@@1_NPEIAE3AEAEAEAUGjkOutput@01@@Z 0000000180129e60     GuGJKTest.obj
 0002:0000bea4       $unwind$?modifySamples@HeightField@Gu@physx@@UEAA_NHHAEBVPxHeightFieldDesc@3@_N@Z 0000000180129ea4     GuHeightField.obj
 0002:0000beb4       $chain$3$?modifySamples@HeightField@Gu@physx@@UEAA_NHHAEBVPxHeightFieldDesc@3@_N@Z 0000000180129eb4     GuHeightField.obj
 0002:0000bed4       $chain$6$?modifySamples@HeightField@Gu@physx@@UEAA_NHHAEBVPxHeightFieldDesc@3@_N@Z 0000000180129ed4     GuHeightField.obj
 0002:0000bef0       $chain$7$?modifySamples@HeightField@Gu@physx@@UEAA_NHHAEBVPxHeightFieldDesc@3@_N@Z 0000000180129ef0     GuHeightField.obj
 0002:0000bf00       $chain$8$?modifySamples@HeightField@Gu@physx@@UEAA_NHHAEBVPxHeightFieldDesc@3@_N@Z 0000000180129f00     GuHeightField.obj
 0002:0000bf18       $unwind$?loadFromDesc@HeightField@Gu@physx@@QEAA_NAEBVPxHeightFieldDesc@3@@Z 0000000180129f18     GuHeightField.obj
 0002:0000bf24       $chain$1$?loadFromDesc@HeightField@Gu@physx@@QEAA_NAEBVPxHeightFieldDesc@3@@Z 0000000180129f24     GuHeightField.obj
 0002:0000bf3c       $chain$3$?loadFromDesc@HeightField@Gu@physx@@QEAA_NAEBVPxHeightFieldDesc@3@@Z 0000000180129f3c     GuHeightField.obj
 0002:0000bf54       $chain$4$?loadFromDesc@HeightField@Gu@physx@@QEAA_NAEBVPxHeightFieldDesc@3@@Z 0000000180129f54     GuHeightField.obj
 0002:0000bf64       $unwind$?load@HeightField@Gu@physx@@QEAA_NAEAVPxInputStream@3@@Z 0000000180129f64     GuHeightField.obj
 0002:0000bf7c       $chain$4$?load@HeightField@Gu@physx@@QEAA_NAEAVPxInputStream@3@@Z 0000000180129f7c     GuHeightField.obj
 0002:0000bfa0       $chain$5$?load@HeightField@Gu@physx@@QEAA_NAEAVPxInputStream@3@@Z 0000000180129fa0     GuHeightField.obj
 0002:0000bfb0       $unwind$?computeCellCoordinates@HeightField@Gu@physx@@QEBAIMMAEAM0@Z 0000000180129fb0     GuHeightField.obj
 0002:0000bfc0       $unwind$?isSolidVertex@HeightField@Gu@physx@@QEBA_NIIIGAEA_N@Z 0000000180129fc0     GuHeightField.obj
 0002:0000bfdc       $chain$0$?isSolidVertex@HeightField@Gu@physx@@QEBA_NIIIGAEA_N@Z 0000000180129fdc     GuHeightField.obj
 0002:0000bff0       $chain$1$?isSolidVertex@HeightField@Gu@physx@@QEBA_NIIIGAEA_N@Z 0000000180129ff0     GuHeightField.obj
 0002:0000c000       $unwind$?parseTrianglesForCollisionVertices@HeightField@Gu@physx@@QEAAXG@Z 000000018012a000     GuHeightField.obj
 0002:0000c010       $chain$4$?parseTrianglesForCollisionVertices@HeightField@Gu@physx@@QEAAXG@Z 000000018012a010     GuHeightField.obj
 0002:0000c034       $chain$5$?parseTrianglesForCollisionVertices@HeightField@Gu@physx@@QEAAXG@Z 000000018012a034     GuHeightField.obj
 0002:0000c044       $chain$0$?releaseMemory@HeightField@Gu@physx@@QEAAXXZ 000000018012a044     GuHeightField.obj
 0002:0000c058       $chain$1$?releaseMemory@HeightField@Gu@physx@@QEAAXXZ 000000018012a058     GuHeightField.obj
 0002:0000c068       $chain$0$??1HeightField@Gu@physx@@UEAA@XZ 000000018012a068     GuHeightField.obj
 0002:0000c07c       $chain$1$??1HeightField@Gu@physx@@UEAA@XZ 000000018012a07c     GuHeightField.obj
 0002:0000c08c       $unwind$??_EHeightField@Gu@physx@@UEAAPEAXI@Z 000000018012a08c     GuHeightField.obj
 0002:0000c0a0       $chain$1$??_EHeightField@Gu@physx@@UEAAPEAXI@Z 000000018012a0a0     GuHeightField.obj
 0002:0000c0b8       $chain$2$??_EHeightField@Gu@physx@@UEAAPEAXI@Z 000000018012a0b8     GuHeightField.obj
 0002:0000c0b8       $chain$4$??_EHeightField@Gu@physx@@UEAAPEAXI@Z 000000018012a0b8     GuHeightField.obj
 0002:0000c0cc       $chain$5$??_EHeightField@Gu@physx@@UEAAPEAXI@Z 000000018012a0cc     GuHeightField.obj
 0002:0000c0dc       $unwind$?getVertexEdgeIndices@physx@@YAIAEBVHeightField@Gu@1@IIIQEAUEdgeData@1@@Z 000000018012a0dc     GuHeightField.obj
 0002:0000c0f0       $chain$0$?getVertexEdgeIndices@physx@@YAIAEBVHeightField@Gu@1@IIIQEAUEdgeData@1@@Z 000000018012a0f0     GuHeightField.obj
 0002:0000c104       $chain$1$?getVertexEdgeIndices@physx@@YAIAEBVHeightField@Gu@1@IIIQEAUEdgeData@1@@Z 000000018012a104     GuHeightField.obj
 0002:0000c114       $unwind$?getEdgeTriangleIndices@physx@@YAIAEBVHeightField@Gu@1@AEBUEdgeData@1@PEIAI@Z 000000018012a114     GuHeightField.obj
 0002:0000c12c       $unwind$?resizeAndClear@?$BitMapBase@VNonTrackingAllocator@shdfnd@physx@@@Cm@physx@@QEAAXI@Z 000000018012a12c     GuHeightField.obj
 0002:0000c12c       $unwind$?onRefCountZero@TriangleMesh@Gu@physx@@UEAAXXZ 000000018012a12c     GuTriangleMesh.obj
 0002:0000c138       $chain$0$?resizeAndClear@?$BitMapBase@VNonTrackingAllocator@shdfnd@physx@@@Cm@physx@@QEAAXI@Z 000000018012a138     GuHeightField.obj
 0002:0000c14c       $chain$1$?resizeAndClear@?$BitMapBase@VNonTrackingAllocator@shdfnd@physx@@@Cm@physx@@QEAAXI@Z 000000018012a14c     GuHeightField.obj
 0002:0000c15c       $unwind$?getEdge@HeightFieldUtil@Gu@physx@@QEBAXIIIIAEAVPxVec3@3@0@Z 000000018012a15c     GuHeightFieldUtil.obj
 0002:0000c15c       $unwind$?getTriangleAdjacencyIndices@HeightField@Gu@physx@@QEBAXIIIIAEAI00@Z 000000018012a15c     GuHeightFieldUtil.obj
 0002:0000c164       $chain$0$?getTriangleAdjacencyIndices@HeightField@Gu@physx@@QEBAXIIIIAEAI00@Z 000000018012a164     GuHeightFieldUtil.obj
 0002:0000c178       $chain$2$?getTriangleAdjacencyIndices@HeightField@Gu@physx@@QEBAXIIIIAEAI00@Z 000000018012a178     GuHeightFieldUtil.obj
 0002:0000c18c       $chain$3$?getTriangleAdjacencyIndices@HeightField@Gu@physx@@QEBAXIIIIAEAI00@Z 000000018012a18c     GuHeightFieldUtil.obj
 0002:0000c19c       $unwind$?getFaceIndexAtShapePoint@HeightFieldUtil@Gu@physx@@QEBAIMM@Z 000000018012a19c     GuHeightFieldUtil.obj
 0002:0000c1a4       $chain$0$?getFaceIndexAtShapePoint@HeightFieldUtil@Gu@physx@@QEBAIMM@Z 000000018012a1a4     GuHeightFieldUtil.obj
 0002:0000c1b8       $chain$1$?getFaceIndexAtShapePoint@HeightFieldUtil@Gu@physx@@QEBAIMM@Z 000000018012a1b8     GuHeightFieldUtil.obj
 0002:0000c1c8       $unwind$?getVertexNormal@HeightFieldUtil@Gu@physx@@QEBA?AVPxVec3@3@III@Z 000000018012a1c8     GuHeightFieldUtil.obj
 0002:0000c1e8       $chain$0$?getVertexNormal@HeightFieldUtil@Gu@physx@@QEBA?AVPxVec3@3@III@Z 000000018012a1e8     GuHeightFieldUtil.obj
 0002:0000c1fc       $chain$7$?getVertexNormal@HeightFieldUtil@Gu@physx@@QEBA?AVPxVec3@3@III@Z 000000018012a1fc     GuHeightFieldUtil.obj
 0002:0000c228       $chain$8$?getVertexNormal@HeightFieldUtil@Gu@physx@@QEBA?AVPxVec3@3@III@Z 000000018012a228     GuHeightFieldUtil.obj
 0002:0000c238       $chain$9$?getVertexNormal@HeightFieldUtil@Gu@physx@@QEBA?AVPxVec3@3@III@Z 000000018012a238     GuHeightFieldUtil.obj
 0002:0000c248       $unwind$?getVertexFaceIndex@HeightFieldUtil@Gu@physx@@QEBAIIII@Z 000000018012a248     GuHeightFieldUtil.obj
 0002:0000c264       $chain$2$?getEdge@HeightFieldUtil@Gu@physx@@QEBAXIIIIAEAVPxVec3@3@0@Z 000000018012a264     GuHeightFieldUtil.obj
 0002:0000c280       $chain$3$?getEdge@HeightFieldUtil@Gu@physx@@QEBAXIIIIAEAVPxVec3@3@0@Z 000000018012a280     GuHeightFieldUtil.obj
 0002:0000c290       $unwind$?getEdgeFaceIndex@HeightFieldUtil@Gu@physx@@QEBAII@Z 000000018012a290     GuHeightFieldUtil.obj
 0002:0000c2a0       $unwind$?findClosestPointsOnCell@HeightFieldUtil@Gu@physx@@QEBAIIIVPxVec3@3@PEIAV43@PEIAI_N33@Z 000000018012a2a0     GuHeightFieldUtil.obj
 0002:0000c2b8       $chain$1$?findClosestPointsOnCell@HeightFieldUtil@Gu@physx@@QEBAIIIVPxVec3@3@PEIAV43@PEIAI_N33@Z 000000018012a2b8     GuHeightFieldUtil.obj
 0002:0000c2d0       $chain$2$?findClosestPointsOnCell@HeightFieldUtil@Gu@physx@@QEBAIIIVPxVec3@3@PEIAV43@PEIAI_N33@Z 000000018012a2d0     GuHeightFieldUtil.obj
 0002:0000c2d0       $chain$4$?findClosestPointsOnCell@HeightFieldUtil@Gu@physx@@QEBAIIIVPxVec3@3@PEIAV43@PEIAI_N33@Z 000000018012a2d0     GuHeightFieldUtil.obj
 0002:0000c2e0       $chain$3$?findClosestPointsOnCell@HeightFieldUtil@Gu@physx@@QEBAIIIVPxVec3@3@PEIAV43@PEIAI_N33@Z 000000018012a2e0     GuHeightFieldUtil.obj
 0002:0000c2e0       $chain$5$?findClosestPointsOnCell@HeightFieldUtil@Gu@physx@@QEBAIIIVPxVec3@3@PEIAV43@PEIAI_N33@Z 000000018012a2e0     GuHeightFieldUtil.obj
 0002:0000c2f8       $unwind$?findProjectionOnTriangle@HeightFieldUtil@Gu@physx@@QEBA_NIIIAEBVPxVec3@3@AEAV43@@Z 000000018012a2f8     GuHeightFieldUtil.obj
 0002:0000c32c       $unwind$?findClosestPointOnEdge@HeightFieldUtil@Gu@physx@@QEBAMIIIIAEBVPxVec3@3@AEAV43@@Z 000000018012a32c     GuHeightFieldUtil.obj
 0002:0000c348       $unwind$?getTriangle@HeightFieldUtil@Gu@physx@@QEBAIAEBVPxTransform@3@AEAVPxTriangle@3@PEAI2I_N3@Z 000000018012a348     GuHeightFieldUtil.obj
 0002:0000c360       $chain$2$?getTriangle@HeightFieldUtil@Gu@physx@@QEBAIAEBVPxTransform@3@AEAVPxTriangle@3@PEAI2I_N3@Z 000000018012a360     GuHeightFieldUtil.obj
 0002:0000c37c       $chain$8$?getTriangle@HeightFieldUtil@Gu@physx@@QEBAIAEBVPxTransform@3@AEAVPxTriangle@3@PEAI2I_N3@Z 000000018012a37c     GuHeightFieldUtil.obj
 0002:0000c3a4       $chain$9$?getTriangle@HeightFieldUtil@Gu@physx@@QEBAIAEBVPxTransform@3@AEAVPxTriangle@3@PEAI2I_N3@Z 000000018012a3a4     GuHeightFieldUtil.obj
 0002:0000c3b4       $chain$10$?getTriangle@HeightFieldUtil@Gu@physx@@QEBAIAEBVPxTransform@3@AEAVPxTriangle@3@PEAI2I_N3@Z 000000018012a3b4     GuHeightFieldUtil.obj
 0002:0000c3c4       $unwind$?overlapAABBTriangles@HeightFieldUtil@Gu@physx@@QEBA_NAEBVPxTransform@3@AEBVPxBounds3@3@IPEAV?$EntityReport@I@23@@Z 000000018012a3c4     GuHeightFieldUtil.obj
 0002:0000c3e0       $chain$2$?overlapAABBTriangles@HeightFieldUtil@Gu@physx@@QEBA_NAEBVPxTransform@3@AEBVPxBounds3@3@IPEAV?$EntityReport@I@23@@Z 000000018012a3e0     GuHeightFieldUtil.obj
 0002:0000c3fc       $chain$5$?overlapAABBTriangles@HeightFieldUtil@Gu@physx@@QEBA_NAEBVPxTransform@3@AEBVPxBounds3@3@IPEAV?$EntityReport@I@23@@Z 000000018012a3fc     GuHeightFieldUtil.obj
 0002:0000c414       $chain$6$?overlapAABBTriangles@HeightFieldUtil@Gu@physx@@QEBA_NAEBVPxTransform@3@AEBVPxBounds3@3@IPEAV?$EntityReport@I@23@@Z 000000018012a414     GuHeightFieldUtil.obj
 0002:0000c428       $chain$9$?overlapAABBTriangles@HeightFieldUtil@Gu@physx@@QEBA_NAEBVPxTransform@3@AEBVPxBounds3@3@IPEAV?$EntityReport@I@23@@Z 000000018012a428     GuHeightFieldUtil.obj
 0002:0000c444       $chain$10$?overlapAABBTriangles@HeightFieldUtil@Gu@physx@@QEBA_NAEBVPxTransform@3@AEBVPxBounds3@3@IPEAV?$EntityReport@I@23@@Z 000000018012a444     GuHeightFieldUtil.obj
 0002:0000c454       $chain$11$?overlapAABBTriangles@HeightFieldUtil@Gu@physx@@QEBA_NAEBVPxTransform@3@AEBVPxBounds3@3@IPEAV?$EntityReport@I@23@@Z 000000018012a454     GuHeightFieldUtil.obj
 0002:0000c464       $unwind$?checkOverlapAABB_heightFieldGeom@Gu@physx@@YA_NAEBVPxGeometry@2@AEBVPxTransform@2@AEBVPxBounds3@2@@Z 000000018012a464     GuOverlapTestsHF.obj
 0002:0000c494       $unwind$?intersectHeightFieldSphere@@YA_NAEBVHeightFieldUtil@Gu@physx@@AEBVSphere@23@@Z 000000018012a494     GuOverlapTestsHF.obj
 0002:0000c4b8       $chain$0$?intersectHeightFieldSphere@@YA_NAEBVHeightFieldUtil@Gu@physx@@AEBVSphere@23@@Z 000000018012a4b8     GuOverlapTestsHF.obj
 0002:0000c4cc       $chain$1$?intersectHeightFieldSphere@@YA_NAEBVHeightFieldUtil@Gu@physx@@AEBVSphere@23@@Z 000000018012a4cc     GuOverlapTestsHF.obj
 0002:0000c4dc       $unwind$?intersectHeightFieldCapsule@@YA_NAEBVHeightFieldUtil@Gu@physx@@AEBVPxCapsuleGeometry@3@AEBVPxTransform@3@@Z 000000018012a4dc     GuOverlapTestsHF.obj
 0002:0000c51c       $unwind$??$traceSegment@UTriggerTraceSegmentCallback@Gu@physx@@$0A@$0A@@HeightFieldTraceUtil@Gu@physx@@QEBAXAEBVPxVec3@2@0MPEAUTriggerTraceSegmentCallback@12@AEBVPxBounds3@2@_NPEBV32@@Z 000000018012a51c     GuOverlapTestsHF.obj
 0002:0000c530       $chain$13$??$traceSegment@UTriggerTraceSegmentCallback@Gu@physx@@$0A@$0A@@HeightFieldTraceUtil@Gu@physx@@QEBAXAEBVPxVec3@2@0MPEAUTriggerTraceSegmentCallback@12@AEBVPxBounds3@2@_NPEBV32@@Z 000000018012a530     GuOverlapTestsHF.obj
 0002:0000c578       $chain$14$??$traceSegment@UTriggerTraceSegmentCallback@Gu@physx@@$0A@$0A@@HeightFieldTraceUtil@Gu@physx@@QEBAXAEBVPxVec3@2@0MPEAUTriggerTraceSegmentCallback@12@AEBVPxBounds3@2@_NPEBV32@@Z 000000018012a578     GuOverlapTestsHF.obj
 0002:0000c588       $unwind$?intersectHeightFieldBox@@YA_NAEBVHeightFieldTraceUtil@Gu@physx@@AEBVBox@23@@Z 000000018012a588     GuOverlapTestsHF.obj
 0002:0000c5c4       $chain$0$?intersectHeightFieldBox@@YA_NAEBVHeightFieldTraceUtil@Gu@physx@@AEBVBox@23@@Z 000000018012a5c4     GuOverlapTestsHF.obj
 0002:0000c5d8       $chain$1$?intersectHeightFieldBox@@YA_NAEBVHeightFieldTraceUtil@Gu@physx@@AEBVBox@23@@Z 000000018012a5d8     GuOverlapTestsHF.obj
 0002:0000c5ec       $chain$2$?intersectHeightFieldBox@@YA_NAEBVHeightFieldTraceUtil@Gu@physx@@AEBVBox@23@@Z 000000018012a5ec     GuOverlapTestsHF.obj
 0002:0000c600       $unwind$?multiplyInverseRTLeft@@YA?AVMatrix34@Cm@physx@@AEBV123@0@Z 000000018012a600     GuOverlapTestsHF.obj
 0002:0000c630       $unwind$?intersectHeightFieldConvex@@YA_NAEBVHeightFieldTraceUtil@Gu@physx@@AEBVPxTransform@3@AEBVConvexMesh@23@1AEBVPxMeshScale@3@@Z 000000018012a630     GuOverlapTestsHF.obj
 0002:0000c674       $unwind$?GeomOverlapCallback_SphereHeightfield@@YA_NAEBVPxGeometry@physx@@AEBVPxTransform@2@01PEAUTriggerCache@Gu@2@@Z 000000018012a674     GuOverlapTestsHF.obj
 0002:0000c698       $unwind$?GeomOverlapCallback_CapsuleHeightfield@@YA_NAEBVPxGeometry@physx@@AEBVPxTransform@2@01PEAUTriggerCache@Gu@2@@Z 000000018012a698     GuOverlapTestsHF.obj
 0002:0000c6cc       $unwind$?GeomOverlapCallback_BoxHeightfield@@YA_NAEBVPxGeometry@physx@@AEBVPxTransform@2@01PEAUTriggerCache@Gu@2@@Z 000000018012a6cc     GuOverlapTestsHF.obj
 0002:0000c704       $unwind$?onEvent@CapsuleTraceSegmentReport@@UEAA_NIPEAI@Z 000000018012a704     GuSweepsHF.obj
 0002:0000c714       $chain$1$?onEvent@CapsuleTraceSegmentReport@@UEAA_NIPEAI@Z 000000018012a714     GuSweepsHF.obj
 0002:0000c72c       $chain$4$?onEvent@CapsuleTraceSegmentReport@@UEAA_NIPEAI@Z 000000018012a72c     GuSweepsHF.obj
 0002:0000c748       $chain$5$?onEvent@CapsuleTraceSegmentReport@@UEAA_NIPEAI@Z 000000018012a748     GuSweepsHF.obj
 0002:0000c758       $chain$6$?onEvent@CapsuleTraceSegmentReport@@UEAA_NIPEAI@Z 000000018012a758     GuSweepsHF.obj
 0002:0000c768       $unwind$?sweepCapsule_HeightFieldGeom@@YA_NAEBVPxGeometry@physx@@AEBVPxTransform@2@AEBVPxCapsuleGeometry@2@1AEBVCapsule@Gu@2@AEBVPxVec3@2@MAEAUPxSweepHit@2@V?$PxFlags@W4Enum@PxHitFlag@physx@@G@2@M@Z 000000018012a768     GuSweepsHF.obj
 0002:0000c7a8       $unwind$??0ConvexTraceSegmentReport@@QEAA@AEBVHeightFieldUtil@Gu@physx@@AEBUConvexHullData@23@AEBVPxMeshScale@3@AEBVPxTransform@3@3AEBVPxVec3@3@MV?$PxFlags@W4Enum@PxHitFlag@physx@@G@3@M@Z 000000018012a7a8     GuSweepsHF.obj
 0002:0000c7d8       $unwind$?onEvent@ConvexTraceSegmentReport@@UEAA_NIPEAI@Z 000000018012a7d8     GuSweepsHF.obj
 0002:0000c820       $unwind$?sweepConvex_HeightFieldGeom@@YA_NAEBVPxGeometry@physx@@AEBVPxTransform@2@AEBVPxConvexMeshGeometry@2@1AEBVPxVec3@2@MAEAUPxSweepHit@2@V?$PxFlags@W4Enum@PxHitFlag@physx@@G@2@M@Z 000000018012a820     GuSweepsHF.obj
 0002:0000c864       $unwind$?onEvent@BoxTraceSegmentReport@@UEAA_NIPEAI@Z 000000018012a864     GuSweepsHF.obj
 0002:0000c8ac       $unwind$?sweepBox_HeightFieldGeom@@YA_NAEBVPxGeometry@physx@@AEBVPxTransform@2@AEBVPxBoxGeometry@2@1AEBVBox@Gu@2@AEBVPxVec3@2@MAEAUPxSweepHit@2@V?$PxFlags@W4Enum@PxHitFlag@physx@@G@2@M@Z 000000018012a8ac     GuSweepsHF.obj
 0002:0000c8ec       $unwind$??$gjkRaycast@U?$LocalConvex@VTriangleV@Gu@physx@@@Gu@physx@@U?$LocalConvex@VConvexHullV@Gu@physx@@@23@@Gu@physx@@YA_NAEBU?$LocalConvex@VTriangleV@Gu@physx@@@01@AEBU?$LocalConvex@VConvexHullV@Gu@physx@@@01@AEBT__m128@@222AEAT4@33M@Z 000000018012a8ec     GuSweepsHF.obj
 0002:0000c934       $unwind$??$traceSegment@VBoxTraceSegmentReport@@$0A@$00@HeightFieldTraceUtil@Gu@physx@@QEBAXAEBVPxVec3@2@0MPEAVBoxTraceSegmentReport@@AEBVPxBounds3@2@_NPEBV32@@Z 000000018012a934     GuSweepsHF.obj
 0002:0000c934       $unwind$??$traceSegment@VCapsuleTraceSegmentReport@@$0A@$00@HeightFieldTraceUtil@Gu@physx@@QEBAXAEBVPxVec3@2@0MPEAVCapsuleTraceSegmentReport@@AEBVPxBounds3@2@_NPEBV32@@Z 000000018012a934     GuSweepsHF.obj
 0002:0000c934       $unwind$??$traceSegment@VConvexTraceSegmentReport@@$0A@$00@HeightFieldTraceUtil@Gu@physx@@QEBAXAEBVPxVec3@2@0MPEAVConvexTraceSegmentReport@@AEBVPxBounds3@2@_NPEBV32@@Z 000000018012a934     GuSweepsHF.obj
 0002:0000c948       $chain$8$??$traceSegment@VBoxTraceSegmentReport@@$0A@$00@HeightFieldTraceUtil@Gu@physx@@QEBAXAEBVPxVec3@2@0MPEAVBoxTraceSegmentReport@@AEBVPxBounds3@2@_NPEBV32@@Z 000000018012a948     GuSweepsHF.obj
 0002:0000c948       $chain$8$??$traceSegment@VCapsuleTraceSegmentReport@@$0A@$00@HeightFieldTraceUtil@Gu@physx@@QEBAXAEBVPxVec3@2@0MPEAVCapsuleTraceSegmentReport@@AEBVPxBounds3@2@_NPEBV32@@Z 000000018012a948     GuSweepsHF.obj
 0002:0000c948       $chain$8$??$traceSegment@VConvexTraceSegmentReport@@$0A@$00@HeightFieldTraceUtil@Gu@physx@@QEBAXAEBVPxVec3@2@0MPEAVConvexTraceSegmentReport@@AEBVPxBounds3@2@_NPEBV32@@Z 000000018012a948     GuSweepsHF.obj
 0002:0000c97c       $chain$12$??$traceSegment@VBoxTraceSegmentReport@@$0A@$00@HeightFieldTraceUtil@Gu@physx@@QEBAXAEBVPxVec3@2@0MPEAVBoxTraceSegmentReport@@AEBVPxBounds3@2@_NPEBV32@@Z 000000018012a97c     GuSweepsHF.obj
 0002:0000c97c       $chain$12$??$traceSegment@VCapsuleTraceSegmentReport@@$0A@$00@HeightFieldTraceUtil@Gu@physx@@QEBAXAEBVPxVec3@2@0MPEAVCapsuleTraceSegmentReport@@AEBVPxBounds3@2@_NPEBV32@@Z 000000018012a97c     GuSweepsHF.obj
 0002:0000c97c       $chain$12$??$traceSegment@VConvexTraceSegmentReport@@$0A@$00@HeightFieldTraceUtil@Gu@physx@@QEBAXAEBVPxVec3@2@0MPEAVConvexTraceSegmentReport@@AEBVPxBounds3@2@_NPEBV32@@Z 000000018012a97c     GuSweepsHF.obj
 0002:0000c99c       $chain$13$??$traceSegment@VBoxTraceSegmentReport@@$0A@$00@HeightFieldTraceUtil@Gu@physx@@QEBAXAEBVPxVec3@2@0MPEAVBoxTraceSegmentReport@@AEBVPxBounds3@2@_NPEBV32@@Z 000000018012a99c     GuSweepsHF.obj
 0002:0000c99c       $chain$13$??$traceSegment@VCapsuleTraceSegmentReport@@$0A@$00@HeightFieldTraceUtil@Gu@physx@@QEBAXAEBVPxVec3@2@0MPEAVCapsuleTraceSegmentReport@@AEBVPxBounds3@2@_NPEBV32@@Z 000000018012a99c     GuSweepsHF.obj
 0002:0000c99c       $chain$13$??$traceSegment@VConvexTraceSegmentReport@@$0A@$00@HeightFieldTraceUtil@Gu@physx@@QEBAXAEBVPxVec3@2@0MPEAVConvexTraceSegmentReport@@AEBVPxBounds3@2@_NPEBV32@@Z 000000018012a99c     GuSweepsHF.obj
 0002:0000c9b4       $chain$14$??$traceSegment@VBoxTraceSegmentReport@@$0A@$00@HeightFieldTraceUtil@Gu@physx@@QEBAXAEBVPxVec3@2@0MPEAVBoxTraceSegmentReport@@AEBVPxBounds3@2@_NPEBV32@@Z 000000018012a9b4     GuSweepsHF.obj
 0002:0000c9b4       $chain$14$??$traceSegment@VCapsuleTraceSegmentReport@@$0A@$00@HeightFieldTraceUtil@Gu@physx@@QEBAXAEBVPxVec3@2@0MPEAVCapsuleTraceSegmentReport@@AEBVPxBounds3@2@_NPEBV32@@Z 000000018012a9b4     GuSweepsHF.obj
 0002:0000c9b4       $chain$14$??$traceSegment@VConvexTraceSegmentReport@@$0A@$00@HeightFieldTraceUtil@Gu@physx@@QEBAXAEBVPxVec3@2@0MPEAVConvexTraceSegmentReport@@AEBVPxBounds3@2@_NPEBV32@@Z 000000018012a9b4     GuSweepsHF.obj
 0002:0000c9c4       $unwind$?prepare@?$OverlapTraceSegment@VBoxTraceSegmentReport@@@HeightFieldTraceUtil@Gu@physx@@QEAAXAEBVPxVec3@4@00AEAM1@Z 000000018012a9c4     GuSweepsHF.obj
 0002:0000c9c4       $unwind$?prepare@?$OverlapTraceSegment@VCapsuleTraceSegmentReport@@@HeightFieldTraceUtil@Gu@physx@@QEAAXAEBVPxVec3@4@00AEAM1@Z 000000018012a9c4     GuSweepsHF.obj
 0002:0000c9c4       $unwind$?prepare@?$OverlapTraceSegment@VConvexTraceSegmentReport@@@HeightFieldTraceUtil@Gu@physx@@QEAAXAEBVPxVec3@4@00AEAM1@Z 000000018012a9c4     GuSweepsHF.obj
 0002:0000c9c4       $unwind$?DloadObtainSection@@YAPEAXPEAK0@Z 000000018012a9c4     Delayimp:delayhlp.obj
 0002:0000c9d4       $unwind$?visitCells@?$OverlapTraceSegment@VBoxTraceSegmentReport@@@HeightFieldTraceUtil@Gu@physx@@QEAA_NAEBUOverlapRectangle@1234@@Z 000000018012a9d4     GuSweepsHF.obj
 0002:0000c9d4       $unwind$?visitCells@?$OverlapTraceSegment@VCapsuleTraceSegmentReport@@@HeightFieldTraceUtil@Gu@physx@@QEAA_NAEBUOverlapRectangle@1234@@Z 000000018012a9d4     GuSweepsHF.obj
 0002:0000c9d4       $unwind$?visitCells@?$OverlapTraceSegment@VConvexTraceSegmentReport@@@HeightFieldTraceUtil@Gu@physx@@QEAA_NAEBUOverlapRectangle@1234@@Z 000000018012a9d4     GuSweepsHF.obj
 0002:0000c9f0       $unwind$?intersectOBBOBB@Gu@physx@@YA_NAEBVPxVec3@2@0AEBVPxMat33@2@001_N@Z 000000018012a9f0     GuIntersectionBoxBox.obj
 0002:0000ca20       $chain$0$?intersectOBBOBB@Gu@physx@@YA_NAEBVPxVec3@2@0AEBVPxMat33@2@001_N@Z 000000018012aa20     GuIntersectionBoxBox.obj
 0002:0000ca34       $unwind$?intersectCapsuleTriangle@Gu@physx@@YA_NAEBVPxVec3@2@000AEBVCapsule@12@AEBUCapsuleTriangleOverlapData@12@@Z 000000018012aa34     GuIntersectionCapsuleTriangle.obj
 0002:0000ca60       $chain$0$?intersectCapsuleTriangle@Gu@physx@@YA_NAEBVPxVec3@2@000AEBVCapsule@12@AEBUCapsuleTriangleOverlapData@12@@Z 000000018012aa60     GuIntersectionCapsuleTriangle.obj
 0002:0000ca74       $unwind$?intersectEdgeEdge@Gu@physx@@YA_NAEBVPxVec3@2@0000AEAMAEAV32@@Z 000000018012aa74     GuIntersectionEdgeEdge.obj
 0002:0000ca9c       $unwind$?rayAABBIntersect2@Gu@physx@@YAIAEBVPxVec3@2@000AEAV32@AEAM@Z 000000018012aa9c     GuIntersectionRayBox.obj
 0002:0000caa8       $unwind$?intersectRayAABB@Gu@physx@@YAHAEBVPxVec3@2@000AEAM1@Z 000000018012aaa8     GuIntersectionRayBox.obj
 0002:0000cab8       $unwind$?intersectRayAABB2@Gu@physx@@YA_NAEBVPxVec3@2@000MAEAM1@Z 000000018012aab8     GuIntersectionRayBox.obj
 0002:0000cad4       $unwind$?intersectRayCapsuleInternal@Gu@physx@@YAIAEBVPxVec3@2@000MQEAM@Z 000000018012aad4     GuIntersectionRayCapsule.obj
 0002:0000cb04       $unwind$?intersectRaySphereBasic@Gu@physx@@YA_NAEBVPxVec3@2@0M0MAEAMPEAV32@@Z 000000018012ab04     GuIntersectionRaySphere.obj
 0002:0000cb14       $unwind$?intersectRaySphere@Gu@physx@@YA_NAEBVPxVec3@2@0M0MAEAMPEAV32@@Z 000000018012ab14     GuIntersectionRaySphere.obj
 0002:0000cb20       $unwind$?intersectSphereBox@Gu@physx@@YA_NAEBVSphere@12@AEBVBox@12@@Z 000000018012ab20     GuIntersectionSphereBox.obj
 0002:0000cb50       $unwind$?intersectTriangleBox_ReferenceCode@Gu@physx@@YAHAEBVPxVec3@2@0000@Z 000000018012ab50     GuIntersectionTriangleBox.obj
 0002:0000cb80       $unwind$?intersectTriangleBox_Unsafe@Gu@physx@@YAHAEBVPxVec3@2@0000@Z 000000018012ab80     GuIntersectionTriangleBox.obj
 0002:0000cb94       $chain$6$?intersectTriangleBox_Unsafe@Gu@physx@@YAHAEBVPxVec3@2@0000@Z 000000018012ab94     GuIntersectionTriangleBox.obj
 0002:0000cbc0       $chain$7$?intersectTriangleBox_Unsafe@Gu@physx@@YAHAEBVPxVec3@2@0000@Z 000000018012abc0     GuIntersectionTriangleBox.obj
 0002:0000cbd0       $unwind$?intersectTriangleBox@Gu@physx@@YAHAEBVBoxPadded@12@AEBVPxVec3@2@11@Z 000000018012abd0     GuIntersectionTriangleBox.obj
 0002:0000cc00       $unwind$?intersectTriangleBoxBV4@@YAHAEBVPxVec3@physx@@00AEBVPxMat33@2@00@Z 000000018012ac00     GuIntersectionTriangleBox.obj
 0002:0000cc20       $chain$3$?intersectTriangleBoxBV4@@YAHAEBVPxVec3@physx@@00AEBVPxMat33@2@00@Z 000000018012ac20     GuIntersectionTriangleBox.obj
 0002:0000cc40       $chain$4$?intersectTriangleBoxBV4@@YAHAEBVPxVec3@physx@@00AEBVPxMat33@2@00@Z 000000018012ac40     GuIntersectionTriangleBox.obj
 0002:0000cc50       $unwind$?remapTopology@SourceMesh@Gu@physx@@QEAAXPEBI@Z 000000018012ac50     GuBV4.obj
 0002:0000cc5c       $chain$1$?remapTopology@SourceMesh@Gu@physx@@QEAAXPEBI@Z 000000018012ac5c     GuBV4.obj
 0002:0000cc74       $chain$2$?remapTopology@SourceMesh@Gu@physx@@QEAAXPEBI@Z 000000018012ac74     GuBV4.obj
 0002:0000cc88       $chain$3$?remapTopology@SourceMesh@Gu@physx@@QEAAXPEBI@Z 000000018012ac88     GuBV4.obj
 0002:0000cc98       $chain$4$?remapTopology@SourceMesh@Gu@physx@@QEAAXPEBI@Z 000000018012ac98     GuBV4.obj
 0002:0000cca8       $chain$0$??1BV4Tree@Gu@physx@@QEAA@XZ 000000018012aca8     GuBV4.obj
 0002:0000ccbc       $chain$1$??1BV4Tree@Gu@physx@@QEAA@XZ 000000018012acbc     GuBV4.obj
 0002:0000cccc       $unwind$?load@BV4Tree@Gu@physx@@QEAA_NAEAVPxInputStream@3@_N@Z 000000018012accc     GuBV4.obj
 0002:0000cce4       $unwind$?buildFromMesh@AABBTree@Gu@physx@@QEAA_NAEAVSourceMesh@23@I@Z 000000018012ace4     GuBV4Build.obj
 0002:0000ccf4       $chain$3$?buildFromMesh@AABBTree@Gu@physx@@QEAA_NAEAVSourceMesh@23@I@Z 000000018012acf4     GuBV4Build.obj
 0002:0000cd14       $chain$4$?buildFromMesh@AABBTree@Gu@physx@@QEAA_NAEAVSourceMesh@23@I@Z 000000018012ad14     GuBV4Build.obj
 0002:0000cd2c       $chain$5$?buildFromMesh@AABBTree@Gu@physx@@QEAA_NAEAVSourceMesh@23@I@Z 000000018012ad2c     GuBV4Build.obj
 0002:0000cd40       $unwind$?walk@AABBTree@Gu@physx@@QEBAIP6A_NPEBVAABBTreeNode@23@IPEAX@Z1@Z 000000018012ad40     GuBV4Build.obj
 0002:0000cd50       $unwind$?BuildBV4Ex@Gu@physx@@YA_NAEAVBV4Tree@12@AEAVSourceMesh@12@MI@Z 000000018012ad50     GuBV4Build.obj
 0002:0000cd60       $chain$4$?BuildBV4Ex@Gu@physx@@YA_NAEAVBV4Tree@12@AEAVSourceMesh@12@MI@Z 000000018012ad60     GuBV4Build.obj
 0002:0000cd84       $chain$5$?BuildBV4Ex@Gu@physx@@YA_NAEAVBV4Tree@12@AEAVSourceMesh@12@MI@Z 000000018012ad84     GuBV4Build.obj
 0002:0000cd98       $chain$6$?BuildBV4Ex@Gu@physx@@YA_NAEAVBV4Tree@12@AEAVSourceMesh@12@MI@Z 000000018012ad98     GuBV4Build.obj
 0002:0000cda8       $chain$7$?BuildBV4Ex@Gu@physx@@YA_NAEAVBV4Tree@12@AEAVSourceMesh@12@MI@Z 000000018012ada8     GuBV4Build.obj
 0002:0000cdbc       $chain$8$?BuildBV4Ex@Gu@physx@@YA_NAEAVBV4Tree@12@AEAVSourceMesh@12@MI@Z 000000018012adbc     GuBV4Build.obj
 0002:0000cdcc       $chain$0$?local_Split@@YAIPEIBVAABBTreeNode@Gu@physx@@PEIBVPxBounds3@3@PEIBVPxVec3@3@I@Z 000000018012adcc     GuBV4Build.obj
 0002:0000cde0       $chain$1$?local_Split@@YAIPEIBVAABBTreeNode@Gu@physx@@PEIBVPxBounds3@3@PEIBVPxVec3@3@I@Z 000000018012ade0     GuBV4Build.obj
 0002:0000cdf0       $unwind$?local_Subdivide@@YA_NPEIAVAABBTreeNode@Gu@physx@@PEIBVPxBounds3@3@PEIBVPxVec3@3@AEAUBuildStats@23@QEIBV123@I@Z 000000018012adf0     GuBV4Build.obj
 0002:0000ce00       $chain$1$?local_Subdivide@@YA_NPEIAVAABBTreeNode@Gu@physx@@PEIBVPxBounds3@3@PEIBVPxVec3@3@AEAUBuildStats@23@QEIBV123@I@Z 000000018012ae00     GuBV4Build.obj
 0002:0000ce18       $chain$2$?local_Subdivide@@YA_NPEIAVAABBTreeNode@Gu@physx@@PEIBVPxBounds3@3@PEIBVPxVec3@3@AEAUBuildStats@23@QEIBV123@I@Z 000000018012ae18     GuBV4Build.obj
 0002:0000ce2c       $chain$3$?local_Subdivide@@YA_NPEIAVAABBTreeNode@Gu@physx@@PEIBVPxBounds3@3@PEIBVPxVec3@3@AEAUBuildStats@23@QEIBV123@I@Z 000000018012ae2c     GuBV4Build.obj
 0002:0000ce3c       $unwind$?local_BuildHierarchy@@YAXPEIAVAABBTreeNode@Gu@physx@@PEIBVPxBounds3@3@PEIBVPxVec3@3@AEAUBuildStats@23@QEIBV123@I@Z 000000018012ae3c     GuBV4Build.obj
 0002:0000ce50       $chain$1$?local_BuildHierarchy@@YAXPEIAVAABBTreeNode@Gu@physx@@PEIBVPxBounds3@3@PEIBVPxVec3@3@AEAUBuildStats@23@QEIBV123@I@Z 000000018012ae50     GuBV4Build.obj
 0002:0000ce68       $chain$2$?local_BuildHierarchy@@YAXPEIAVAABBTreeNode@Gu@physx@@PEIBVPxBounds3@3@PEIBVPxVec3@3@AEAUBuildStats@23@QEIBV123@I@Z 000000018012ae68     GuBV4Build.obj
 0002:0000ce78       $unwind$?_Walk@Local@?1??walk@AABBTree@Gu@physx@@QEBAIP6A_NPEBVAABBTreeNode@45@IPEAX@Z1@Z@SAX0AEAI321@Z 000000018012ae78     GuBV4Build.obj
 0002:0000ce8c       $chain$0$?_Walk@Local@?1??walk@AABBTree@Gu@physx@@QEBAIP6A_NPEBVAABBTreeNode@45@IPEAX@Z1@Z@SAX0AEAI321@Z 000000018012ae8c     GuBV4Build.obj
 0002:0000cea0       $chain$1$?_Walk@Local@?1??walk@AABBTree@Gu@physx@@QEBAIP6A_NPEBVAABBTreeNode@45@IPEAX@Z1@Z@SAX0AEAI321@Z 000000018012aea0     GuBV4Build.obj
 0002:0000ceb0       $unwind$?precomputeNodeSorting@@YAIAEBVPxBounds3@physx@@0@Z 000000018012aeb0     GuBV4Build.obj
 0002:0000cee4       $unwind$?allocateNode@BV4BuildParams@@QEAAPEAUBV4Node@@XZ 000000018012aee4     GuBV4Build.obj
 0002:0000cef4       $chain$0$?allocateNode@BV4BuildParams@@QEAAPEAUBV4Node@@XZ 000000018012aef4     GuBV4Build.obj
 0002:0000cf08       $chain$1$?allocateNode@BV4BuildParams@@QEAAPEAUBV4Node@@XZ 000000018012af08     GuBV4Build.obj
 0002:0000cf18       $chain$0$?releaseNodes@BV4BuildParams@@QEAAXXZ 000000018012af18     GuBV4Build.obj
 0002:0000cf2c       $chain$1$?releaseNodes@BV4BuildParams@@QEAAXXZ 000000018012af2c     GuBV4Build.obj
 0002:0000cf3c       $unwind$?setPrimitive@@YAXAEBVAABBTree@Gu@physx@@PEAUBV4Node@@IPEBVAABBTreeNode@23@M@Z 000000018012af3c     GuBV4Build.obj
 0002:0000cf50       $unwind$?setNode@@YAPEAUBV4Node@@AEBVAABBTree@Gu@physx@@PEAU1@IPEBVAABBTreeNode@34@AEAUBV4BuildParams@@@Z 000000018012af50     GuBV4Build.obj
 0002:0000cf5c       $chain$3$?setNode@@YAPEAUBV4Node@@AEBVAABBTree@Gu@physx@@PEAU1@IPEBVAABBTreeNode@34@AEAUBV4BuildParams@@@Z 000000018012af5c     GuBV4Build.obj
 0002:0000cf78       $chain$4$?setNode@@YAPEAUBV4Node@@AEBVAABBTree@Gu@physx@@PEAU1@IPEBVAABBTreeNode@34@AEAUBV4BuildParams@@@Z 000000018012af78     GuBV4Build.obj
 0002:0000cf8c       $unwind$?_BuildBV4@@YAXAEBVAABBTree@Gu@physx@@PEAUBV4Node@@PEBVAABBTreeNode@23@AEAUBV4BuildParams@@@Z 000000018012af8c     GuBV4Build.obj
 0002:0000cfa8       $unwind$?_ComputeMaxValues@@YAXPEBUBV4Node@@AEAVPxVec3@physx@@1@Z 000000018012afa8     GuBV4Build.obj
 0002:0000cfd0       $unwind$?_FlattenQ@@YAXQEAU?$BVDataPackedT@VQuantizedAABB@Gu@physx@@@Gu@physx@@IAEAIPEBUBV4Node@@11AEBVPxVec3@3@333@Z 000000018012afd0     GuBV4Build.obj
 0002:0000cfec       $chain$2$?_FlattenQ@@YAXQEAU?$BVDataPackedT@VQuantizedAABB@Gu@physx@@@Gu@physx@@IAEAIPEBUBV4Node@@11AEBVPxVec3@3@333@Z 000000018012afec     GuBV4Build.obj
 0002:0000d008       $chain$3$?_FlattenQ@@YAXQEAU?$BVDataPackedT@VQuantizedAABB@Gu@physx@@@Gu@physx@@IAEAIPEBUBV4Node@@11AEBVPxVec3@3@333@Z 000000018012b008     GuBV4Build.obj
 0002:0000d018       $unwind$?BuildBV4FromRoot@@YA_NAEAVBV4Tree@Gu@physx@@PEAUBV4Node@@AEAUBV4BuildParams@@_NM@Z 000000018012b018     GuBV4Build.obj
 0002:0000d030       $chain$0$?BuildBV4FromRoot@@YA_NAEAVBV4Tree@Gu@physx@@PEAUBV4Node@@AEAUBV4BuildParams@@_NM@Z 000000018012b030     GuBV4Build.obj
 0002:0000d044       $chain$8$?BuildBV4FromRoot@@YA_NAEAVBV4Tree@Gu@physx@@PEAUBV4Node@@AEAUBV4BuildParams@@_NM@Z 000000018012b044     GuBV4Build.obj
 0002:0000d074       $chain$9$?BuildBV4FromRoot@@YA_NAEAVBV4Tree@Gu@physx@@PEAUBV4Node@@AEAUBV4BuildParams@@_NM@Z 000000018012b074     GuBV4Build.obj
 0002:0000d084       $chain$10$?BuildBV4FromRoot@@YA_NAEAVBV4Tree@Gu@physx@@PEAUBV4Node@@AEAUBV4BuildParams@@_NM@Z 000000018012b084     GuBV4Build.obj
 0002:0000d094       $chain$1$?_Check@Local@?5??BuildBV32Internal@@YA_NAEAVBV32Tree@Gu@physx@@AEBVAABBTree@45@PEAVSourceMesh@45@M@Z@SAXPEAVAABBTreeNode@45@@Z 000000018012b094     GuBV32Build.obj
 0002:0000d094       $chain$1$?_Check@Local@?4??BuildBV4Internal@@YA_NAEAVBV4Tree@Gu@physx@@AEBVAABBTree@45@PEAVSourceMesh@45@M_N@Z@SAXPEAVAABBTreeNode@45@@Z 000000018012b094     GuBV4Build.obj
 0002:0000d0ac       $chain$2$?_Check@Local@?5??BuildBV32Internal@@YA_NAEAVBV32Tree@Gu@physx@@AEBVAABBTree@45@PEAVSourceMesh@45@M@Z@SAXPEAVAABBTreeNode@45@@Z 000000018012b0ac     GuBV32Build.obj
 0002:0000d0ac       $chain$2$?_Check@Local@?4??BuildBV4Internal@@YA_NAEAVBV4Tree@Gu@physx@@AEBVAABBTree@45@PEAVSourceMesh@45@M_N@Z@SAXPEAVAABBTreeNode@45@@Z 000000018012b0ac     GuBV4Build.obj
 0002:0000d0bc       $unwind$?prepareSweepData@@YAXAEBVBox@Gu@physx@@AEBVPxVec3@3@MPEIAUBoxSweepParams@?A0x788c2204@@@Z 000000018012b0bc     GuBV4_AABBSweep.obj
 0002:0000d0bc       $unwind$?prepareSweepData@@YAXAEBVBox@Gu@physx@@AEBVPxVec3@3@MPEIAUBoxSweepParams@?A0xf567e8b1@@@Z 000000018012b0bc     GuBV4_CapsuleSweepAA.obj
 0002:0000d0ec       $unwind$?triBoxSweep@@YA_NPEIAUBoxSweepParams@?A0x788c2204@@I_N@Z 000000018012b0ec     GuBV4_AABBSweep.obj
 0002:0000d100       $chain$7$?triBoxSweep@@YA_NPEIAUBoxSweepParams@?A0x788c2204@@I_N@Z 000000018012b100     GuBV4_AABBSweep.obj
 0002:0000d130       $chain$8$?triBoxSweep@@YA_NPEIAUBoxSweepParams@?A0x788c2204@@I_N@Z 000000018012b130     GuBV4_AABBSweep.obj
 0002:0000d140       $unwind$?Sweep_AABB_BV4@@YAHAEBVBox@Gu@physx@@AEBVPxVec3@3@MAEBVBV4Tree@23@PEIAVSweepHit@23@I@Z 000000018012b140     GuBV4_AABBSweep.obj
 0002:0000d158       $chain$0$?Sweep_AABB_BV4@@YAHAEBVBox@Gu@physx@@AEBVPxVec3@3@MAEBVBV4Tree@23@PEIAVSweepHit@23@I@Z 000000018012b158     GuBV4_AABBSweep.obj
 0002:0000d16c       $chain$1$?Sweep_AABB_BV4@@YAHAEBVBox@Gu@physx@@AEBVPxVec3@3@MAEBVBV4Tree@23@PEIAVSweepHit@23@I@Z 000000018012b16c     GuBV4_AABBSweep.obj
 0002:0000d17c       $chain$2$?Sweep_AABB_BV4@@YAHAEBVBox@Gu@physx@@AEBVPxVec3@3@MAEBVBV4Tree@23@PEIAVSweepHit@23@I@Z 000000018012b17c     GuBV4_AABBSweep.obj
 0002:0000d190       $chain$10$?Sweep_AABB_BV4@@YAHAEBVBox@Gu@physx@@AEBVPxVec3@3@MAEBVBV4Tree@23@PEIAVSweepHit@23@I@Z 000000018012b190     GuBV4_AABBSweep.obj
 0002:0000d1c0       $chain$11$?Sweep_AABB_BV4@@YAHAEBVBox@Gu@physx@@AEBVPxVec3@3@MAEBVBV4Tree@23@PEIAVSweepHit@23@I@Z 000000018012b1c0     GuBV4_AABBSweep.obj
 0002:0000d1d0       $chain$12$?Sweep_AABB_BV4@@YAHAEBVBox@Gu@physx@@AEBVPxVec3@3@MAEBVBV4Tree@23@PEIAVSweepHit@23@I@Z 000000018012b1d0     GuBV4_AABBSweep.obj
 0002:0000d1e0       $unwind$?GenericSweep_AABB_CB@@YAXAEBVBox@Gu@physx@@AEBVPxVec3@3@MAEBVBV4Tree@23@P6A_NPEAX111IAEAM@Z3I@Z 000000018012b1e0     GuBV4_AABBSweep.obj
 0002:0000d1f0       $unwind$??$doBruteForceTests@VLeafFunction_BoxSweepAnyCB@?A0x788c2204@@VLeafFunction_BoxSweepClosestCB@2@UGenericSweepParamsCB@2@@Gu@physx@@YAXIPEIAUGenericSweepParamsCB@?A0x788c2204@@@Z 000000018012b1f0     GuBV4_AABBSweep.obj
 0002:0000d200       $chain$1$??$doBruteForceTests@VLeafFunction_BoxSweepAnyCB@?A0x788c2204@@VLeafFunction_BoxSweepClosestCB@2@UGenericSweepParamsCB@2@@Gu@physx@@YAXIPEIAUGenericSweepParamsCB@?A0x788c2204@@@Z 000000018012b200     GuBV4_AABBSweep.obj
 0002:0000d218       $chain$2$??$doBruteForceTests@VLeafFunction_BoxSweepAnyCB@?A0x788c2204@@VLeafFunction_BoxSweepClosestCB@2@UGenericSweepParamsCB@2@@Gu@physx@@YAXIPEIAUGenericSweepParamsCB@?A0x788c2204@@@Z 000000018012b218     GuBV4_AABBSweep.obj
 0002:0000d228       $unwind$??$BV4_ProcessStreamKajiyaNoOrderQ@$00VLeafFunction_BoxSweepAny@?A0x788c2204@@UBoxSweepParams@2@@@YAHPEIBU?$BVDataPackedT@VQuantizedAABB@Gu@physx@@@Gu@physx@@IPEIAUBoxSweepParams@?A0x788c2204@@@Z 000000018012b228     GuBV4_AABBSweep.obj
 0002:0000d270       $unwind$??$BV4_ProcessStreamKajiyaOrderedQ@$00VLeafFunction_BoxSweepClosest@?A0x788c2204@@UBoxSweepParams@2@@@YAXPEIBU?$BVDataPackedT@VQuantizedAABB@Gu@physx@@@Gu@physx@@IPEIAUBoxSweepParams@?A0x788c2204@@@Z 000000018012b270     GuBV4_AABBSweep.obj
 0002:0000d2b0       $chain$0$??$BV4_ProcessStreamKajiyaOrderedQ@$00VLeafFunction_BoxSweepClosest@?A0x788c2204@@UBoxSweepParams@2@@@YAXPEIBU?$BVDataPackedT@VQuantizedAABB@Gu@physx@@@Gu@physx@@IPEIAUBoxSweepParams@?A0x788c2204@@@Z 000000018012b2b0     GuBV4_AABBSweep.obj
 0002:0000d2c4       $unwind$??$BV4_ProcessStreamKajiyaNoOrderQ@$00VLeafFunction_BoxSweepAnyCB@?A0x788c2204@@UGenericSweepParamsCB@2@@@YAHPEIBU?$BVDataPackedT@VQuantizedAABB@Gu@physx@@@Gu@physx@@IPEIAUGenericSweepParamsCB@?A0x788c2204@@@Z 000000018012b2c4     GuBV4_AABBSweep.obj
 0002:0000d30c       $unwind$??$BV4_ProcessStreamKajiyaOrderedQ@$00VLeafFunction_BoxSweepClosestCB@?A0x788c2204@@UGenericSweepParamsCB@2@@@YAXPEIBU?$BVDataPackedT@VQuantizedAABB@Gu@physx@@@Gu@physx@@IPEIAUGenericSweepParamsCB@?A0x788c2204@@@Z 000000018012b30c     GuBV4_AABBSweep.obj
 0002:0000d350       $unwind$?BV4_OverlapBoxAny@@YAHAEBVBox@Gu@physx@@AEBVBV4Tree@23@PEIBVPxMat44@3@@Z 000000018012b350     GuBV4_BoxOverlap.obj
 0002:0000d35c       $chain$9$?BV4_OverlapBoxAny@@YAHAEBVBox@Gu@physx@@AEBVBV4Tree@23@PEIBVPxMat44@3@@Z 000000018012b35c     GuBV4_BoxOverlap.obj
 0002:0000d394       $chain$12$?BV4_OverlapBoxAny@@YAHAEBVBox@Gu@physx@@AEBVBV4Tree@23@PEIBVPxMat44@3@@Z 000000018012b394     GuBV4_BoxOverlap.obj
 0002:0000d3ac       $unwind$?BV4_OverlapBoxAll@@YAIAEBVBox@Gu@physx@@AEBVBV4Tree@23@PEIBVPxMat44@3@PEAIIAEA_N@Z 000000018012b3ac     GuBV4_BoxOverlap.obj
 0002:0000d3ac       $unwind$?BV4_OverlapBoxCB@@YAXAEBVBox@Gu@physx@@AEBVBV4Tree@23@P6A_NPEAXAEBVPxVec3@3@33IPEBI@Z2@Z 000000018012b3ac     GuBV4_BoxOverlap.obj
 0002:0000d3b8       $chain$9$?BV4_OverlapBoxAll@@YAIAEBVBox@Gu@physx@@AEBVBV4Tree@23@PEIBVPxMat44@3@PEAIIAEA_N@Z 000000018012b3b8     GuBV4_BoxOverlap.obj
 0002:0000d3f0       $chain$12$?BV4_OverlapBoxAll@@YAIAEBVBox@Gu@physx@@AEBVBV4Tree@23@PEIBVPxMat44@3@PEAIIAEA_N@Z 000000018012b3f0     GuBV4_BoxOverlap.obj
 0002:0000d408       $chain$9$?BV4_OverlapBoxCB@@YAXAEBVBox@Gu@physx@@AEBVBV4Tree@23@P6A_NPEAXAEBVPxVec3@3@33IPEBI@Z2@Z 000000018012b408     GuBV4_BoxOverlap.obj
 0002:0000d440       $chain$17$?BV4_OverlapBoxCB@@YAXAEBVBox@Gu@physx@@AEBVBV4Tree@23@P6A_NPEAXAEBVPxVec3@3@33IPEBI@Z2@Z 000000018012b440     GuBV4_BoxOverlap.obj
 0002:0000d46c       $unwind$?CapsuleVsTriangle_SAT@@YA_NAEBVPxVec3@physx@@00PEIBUCapsuleParamsAny@@@Z 000000018012b46c     GuBV4_BoxOverlap.obj
 0002:0000d49c       $unwind$?BV4_OverlapCapsuleAny@@YAHAEBVCapsule@Gu@physx@@AEBVBV4Tree@23@PEIBVPxMat44@3@@Z 000000018012b49c     GuBV4_BoxOverlap.obj
 0002:0000d4d4       $unwind$?BV4_OverlapCapsuleAll@@YAIAEBVCapsule@Gu@physx@@AEBVBV4Tree@23@PEIBVPxMat44@3@PEAIIAEA_N@Z 000000018012b4d4     GuBV4_BoxOverlap.obj
 0002:0000d50c       $unwind$??$BV4_ProcessStreamSwizzledNoOrderQ@VLeafFunction_BoxOverlapAll@?A0x723b9c56@@UOBBParamsAll@@@@YAHPEIBU?$BVDataPackedT@VQuantizedAABB@Gu@physx@@@Gu@physx@@IPEIAUOBBParamsAll@@@Z 000000018012b50c     GuBV4_BoxOverlap.obj
 0002:0000d50c       $unwind$??$BV4_ProcessStreamSwizzledNoOrderQ@VLeafFunction_BoxOverlapAny@?A0x723b9c56@@UOBBParams@@@@YAHPEIBU?$BVDataPackedT@VQuantizedAABB@Gu@physx@@@Gu@physx@@IPEIAUOBBParams@@@Z 000000018012b50c     GuBV4_BoxOverlap.obj
 0002:0000d530       $unwind$??$BV4_ProcessStreamSwizzledNoOrderQ@VLeafFunction_BoxOverlapCB@?A0x723b9c56@@UOBBParamsCB@@@@YAHPEIBU?$BVDataPackedT@VQuantizedAABB@Gu@physx@@@Gu@physx@@IPEIAUOBBParamsCB@@@Z 000000018012b530     GuBV4_BoxOverlap.obj
 0002:0000d554       $unwind$??$BV4_ProcessStreamSwizzledNoOrderQ@VLeafFunction_CapsuleOverlapAll@?A0x723b9c56@@UCapsuleParamsAll@@@@YAHPEIBU?$BVDataPackedT@VQuantizedAABB@Gu@physx@@@Gu@physx@@IPEIAUCapsuleParamsAll@@@Z 000000018012b554     GuBV4_BoxOverlap.obj
 0002:0000d554       $unwind$??$BV4_ProcessStreamSwizzledNoOrderQ@VLeafFunction_CapsuleOverlapAny@?A0x723b9c56@@UCapsuleParamsAny@@@@YAHPEIBU?$BVDataPackedT@VQuantizedAABB@Gu@physx@@@Gu@physx@@IPEIAUCapsuleParamsAny@@@Z 000000018012b554     GuBV4_BoxOverlap.obj
 0002:0000d578       $unwind$?prepareSweepData@@YAXAEBVBox@Gu@physx@@AEBVPxVec3@3@MPEIAUBoxSweepParams@?A0xd6379ba5@@@Z 000000018012b578     GuBV4_CapsuleSweep.obj
 0002:0000d578       $unwind$?prepareSweepData@@YAXAEBVBox@Gu@physx@@AEBVPxVec3@3@MPEIAUBoxSweepParams@?A0x5eaefbf3@@@Z 000000018012b578     GuBV4_OBBSweep.obj
 0002:0000d5a8       $unwind$?testTri@@YA_NPEIBUCapsuleSweepParams@?A0xd6379ba5@@AEBVPxVec3@physx@@1111MMAEAMAEA_N@Z 000000018012b5a8     GuBV4_CapsuleSweep.obj
 0002:0000d5a8       $unwind$?testTri@@YA_NPEIBUCapsuleSweepParams@?A0xf567e8b1@@AEBVPxVec3@physx@@1111MMAEAMAEA_N@Z 000000018012b5a8     GuBV4_CapsuleSweepAA.obj
 0002:0000d5dc       $unwind$?testQuad@@YAXPEIBUCapsuleSweepParams@?A0xd6379ba5@@AEBVPxVec3@physx@@11111MMAEAMAEA_N@Z 000000018012b5dc     GuBV4_CapsuleSweep.obj
 0002:0000d5dc       $unwind$?testQuad@@YAXPEIBUCapsuleSweepParams@?A0xf567e8b1@@AEBVPxVec3@physx@@11111MMAEAMAEA_N@Z 000000018012b5dc     GuBV4_CapsuleSweepAA.obj
 0002:0000d610       $unwind$?triCapsuleSweep@@YA_NPEIAUCapsuleSweepParams@?A0xd6379ba5@@I_N@Z 000000018012b610     GuBV4_CapsuleSweep.obj
 0002:0000d64c       $chain$2$?triCapsuleSweep@@YA_NPEIAUCapsuleSweepParams@?A0xd6379ba5@@I_N@Z 000000018012b64c     GuBV4_CapsuleSweep.obj
 0002:0000d664       $chain$3$?triCapsuleSweep@@YA_NPEIAUCapsuleSweepParams@?A0xd6379ba5@@I_N@Z 000000018012b664     GuBV4_CapsuleSweep.obj
 0002:0000d678       $chain$4$?triCapsuleSweep@@YA_NPEIAUCapsuleSweepParams@?A0xd6379ba5@@I_N@Z 000000018012b678     GuBV4_CapsuleSweep.obj
 0002:0000d688       $unwind$?computeBoxAroundCapsule@@YAXAEBVCapsule@Gu@physx@@AEAVBox@23@AEAVPxVec3@3@@Z 000000018012b688     GuBV4_CapsuleSweep.obj
 0002:0000d688       $unwind$?computeBoxAroundCapsule@@YAXAEBVCapsule@Gu@physx@@AEAVBox@23@AEAVPxVec3@3@@Z 000000018012b688     GuBV4_CapsuleSweepAA.obj
 0002:0000d694       $unwind$?BV4_CapsuleSweepSingle@@YAHAEBVCapsule@Gu@physx@@AEBVPxVec3@3@MAEBVBV4Tree@23@PEIAVSweepHit@23@I@Z 000000018012b694     GuBV4_CapsuleSweep.obj
 0002:0000d6b0       $chain$0$?BV4_CapsuleSweepSingle@@YAHAEBVCapsule@Gu@physx@@AEBVPxVec3@3@MAEBVBV4Tree@23@PEIAVSweepHit@23@I@Z 000000018012b6b0     GuBV4_CapsuleSweep.obj
 0002:0000d6c4       $chain$1$?BV4_CapsuleSweepSingle@@YAHAEBVCapsule@Gu@physx@@AEBVPxVec3@3@MAEBVBV4Tree@23@PEIAVSweepHit@23@I@Z 000000018012b6c4     GuBV4_CapsuleSweep.obj
 0002:0000d6d4       $chain$4$?BV4_CapsuleSweepSingle@@YAHAEBVCapsule@Gu@physx@@AEBVPxVec3@3@MAEBVBV4Tree@23@PEIAVSweepHit@23@I@Z 000000018012b6d4     GuBV4_CapsuleSweep.obj
 0002:0000d6f0       $chain$6$?BV4_CapsuleSweepSingle@@YAHAEBVCapsule@Gu@physx@@AEBVPxVec3@3@MAEBVBV4Tree@23@PEIAVSweepHit@23@I@Z 000000018012b6f0     GuBV4_CapsuleSweep.obj
 0002:0000d708       $chain$9$?BV4_CapsuleSweepSingle@@YAHAEBVCapsule@Gu@physx@@AEBVPxVec3@3@MAEBVBV4Tree@23@PEIAVSweepHit@23@I@Z 000000018012b708     GuBV4_CapsuleSweep.obj
 0002:0000d724       $chain$10$?BV4_CapsuleSweepSingle@@YAHAEBVCapsule@Gu@physx@@AEBVPxVec3@3@MAEBVBV4Tree@23@PEIAVSweepHit@23@I@Z 000000018012b724     GuBV4_CapsuleSweep.obj
 0002:0000d734       $chain$11$?BV4_CapsuleSweepSingle@@YAHAEBVCapsule@Gu@physx@@AEBVPxVec3@3@MAEBVBV4Tree@23@PEIAVSweepHit@23@I@Z 000000018012b734     GuBV4_CapsuleSweep.obj
 0002:0000d744       $chain$12$?BV4_CapsuleSweepSingle@@YAHAEBVCapsule@Gu@physx@@AEBVPxVec3@3@MAEBVBV4Tree@23@PEIAVSweepHit@23@I@Z 000000018012b744     GuBV4_CapsuleSweep.obj
 0002:0000d754       $unwind$??$BV4_ProcessStreamSwizzledNoOrderQ@VLeafFunction_CapsuleSweepAny@?A0xd6379ba5@@UCapsuleSweepParams@2@@@YAHPEIBU?$BVDataPackedT@VQuantizedAABB@Gu@physx@@@Gu@physx@@IPEIAUCapsuleSweepParams@?A0xd6379ba5@@@Z 000000018012b754     GuBV4_CapsuleSweep.obj
 0002:0000d754       $unwind$??$BV4_ProcessStreamSwizzledNoOrderQ@VLeafFunction_BoxSweepAny@?A0x5eaefbf3@@UBoxSweepParams@2@@@YAHPEIBU?$BVDataPackedT@VQuantizedAABB@Gu@physx@@@Gu@physx@@IPEIAUBoxSweepParams@?A0x5eaefbf3@@@Z 000000018012b754     GuBV4_OBBSweep.obj
 0002:0000d778       $unwind$??$BV4_ProcessStreamSwizzledOrderedQ@VLeafFunction_CapsuleSweepClosest@?A0xd6379ba5@@UCapsuleSweepParams@2@@@YAXPEIBU?$BVDataPackedT@VQuantizedAABB@Gu@physx@@@Gu@physx@@IPEIAUCapsuleSweepParams@?A0xd6379ba5@@@Z 000000018012b778     GuBV4_CapsuleSweep.obj
 0002:0000d778       $unwind$??$BV4_ProcessStreamSwizzledOrderedQ@VLeafFunction_BoxSweepClosest@?A0x5eaefbf3@@UBoxSweepParams@2@@@YAXPEIBU?$BVDataPackedT@VQuantizedAABB@Gu@physx@@@Gu@physx@@IPEIAUBoxSweepParams@?A0x5eaefbf3@@@Z 000000018012b778     GuBV4_OBBSweep.obj
 0002:0000d798       $unwind$?triCapsuleSweep@@YA_NPEIAUCapsuleSweepParams@?A0xf567e8b1@@I_N@Z 000000018012b798     GuBV4_CapsuleSweepAA.obj
 0002:0000d7d0       $chain$2$?triCapsuleSweep@@YA_NPEIAUCapsuleSweepParams@?A0xf567e8b1@@I_N@Z 000000018012b7d0     GuBV4_CapsuleSweepAA.obj
 0002:0000d7ec       $chain$3$?triCapsuleSweep@@YA_NPEIAUCapsuleSweepParams@?A0xf567e8b1@@I_N@Z 000000018012b7ec     GuBV4_CapsuleSweepAA.obj
 0002:0000d804       $chain$4$?triCapsuleSweep@@YA_NPEIAUCapsuleSweepParams@?A0xf567e8b1@@I_N@Z 000000018012b804     GuBV4_CapsuleSweepAA.obj
 0002:0000d814       $unwind$?BV4_CapsuleSweepSingleAA@@YAHAEBVCapsule@Gu@physx@@AEBVPxVec3@3@MAEBVBV4Tree@23@PEIAVSweepHit@23@I@Z 000000018012b814     GuBV4_CapsuleSweepAA.obj
 0002:0000d84c       $chain$0$?BV4_CapsuleSweepSingleAA@@YAHAEBVCapsule@Gu@physx@@AEBVPxVec3@3@MAEBVBV4Tree@23@PEIAVSweepHit@23@I@Z 000000018012b84c     GuBV4_CapsuleSweepAA.obj
 0002:0000d860       $chain$1$?BV4_CapsuleSweepSingleAA@@YAHAEBVCapsule@Gu@physx@@AEBVPxVec3@3@MAEBVBV4Tree@23@PEIAVSweepHit@23@I@Z 000000018012b860     GuBV4_CapsuleSweepAA.obj
 0002:0000d870       $chain$3$?BV4_CapsuleSweepSingleAA@@YAHAEBVCapsule@Gu@physx@@AEBVPxVec3@3@MAEBVBV4Tree@23@PEIAVSweepHit@23@I@Z 000000018012b870     GuBV4_CapsuleSweepAA.obj
 0002:0000d888       $chain$4$?BV4_CapsuleSweepSingleAA@@YAHAEBVCapsule@Gu@physx@@AEBVPxVec3@3@MAEBVBV4Tree@23@PEIAVSweepHit@23@I@Z 000000018012b888     GuBV4_CapsuleSweepAA.obj
 0002:0000d898       $unwind$??$BV4_ProcessStreamKajiyaNoOrderQ@$00VLeafFunction_CapsuleSweepAny@?A0xf567e8b1@@UCapsuleSweepParams@2@@@YAHPEIBU?$BVDataPackedT@VQuantizedAABB@Gu@physx@@@Gu@physx@@IPEIAUCapsuleSweepParams@?A0xf567e8b1@@@Z 000000018012b898     GuBV4_CapsuleSweepAA.obj
 0002:0000d8e0       $unwind$??$BV4_ProcessStreamKajiyaOrderedQ@$00VLeafFunction_CapsuleSweepClosest@?A0xf567e8b1@@UCapsuleSweepParams@2@@@YAXPEIBU?$BVDataPackedT@VQuantizedAABB@Gu@physx@@@Gu@physx@@IPEIAUCapsuleSweepParams@?A0xf567e8b1@@@Z 000000018012b8e0     GuBV4_CapsuleSweepAA.obj
 0002:0000d924       $unwind$?triBoxSweep@@YA_NPEIAUBoxSweepParams@?A0x5eaefbf3@@I_N@Z 000000018012b924     GuBV4_OBBSweep.obj
 0002:0000d93c       $chain$0$?triBoxSweep@@YA_NPEIAUBoxSweepParams@?A0x5eaefbf3@@I_N@Z 000000018012b93c     GuBV4_OBBSweep.obj
 0002:0000d950       $chain$1$?triBoxSweep@@YA_NPEIAUBoxSweepParams@?A0x5eaefbf3@@I_N@Z 000000018012b950     GuBV4_OBBSweep.obj
 0002:0000d960       $chain$9$?triBoxSweep@@YA_NPEIAUBoxSweepParams@?A0x5eaefbf3@@I_N@Z 000000018012b960     GuBV4_OBBSweep.obj
 0002:0000d990       $chain$10$?triBoxSweep@@YA_NPEIAUBoxSweepParams@?A0x5eaefbf3@@I_N@Z 000000018012b990     GuBV4_OBBSweep.obj
 0002:0000d9a0       $unwind$?Sweep_OBB_BV4@@YAHAEBVBox@Gu@physx@@AEBVPxVec3@3@MAEBVBV4Tree@23@PEIAVSweepHit@23@I@Z 000000018012b9a0     GuBV4_OBBSweep.obj
 0002:0000d9b8       $chain$0$?Sweep_OBB_BV4@@YAHAEBVBox@Gu@physx@@AEBVPxVec3@3@MAEBVBV4Tree@23@PEIAVSweepHit@23@I@Z 000000018012b9b8     GuBV4_OBBSweep.obj
 0002:0000d9cc       $chain$1$?Sweep_OBB_BV4@@YAHAEBVBox@Gu@physx@@AEBVPxVec3@3@MAEBVBV4Tree@23@PEIAVSweepHit@23@I@Z 000000018012b9cc     GuBV4_OBBSweep.obj
 0002:0000d9dc       $chain$2$?Sweep_OBB_BV4@@YAHAEBVBox@Gu@physx@@AEBVPxVec3@3@MAEBVBV4Tree@23@PEIAVSweepHit@23@I@Z 000000018012b9dc     GuBV4_OBBSweep.obj
 0002:0000d9f0       $chain$8$?Sweep_OBB_BV4@@YAHAEBVBox@Gu@physx@@AEBVPxVec3@3@MAEBVBV4Tree@23@PEIAVSweepHit@23@I@Z 000000018012b9f0     GuBV4_OBBSweep.obj
 0002:0000da18       $chain$9$?Sweep_OBB_BV4@@YAHAEBVBox@Gu@physx@@AEBVPxVec3@3@MAEBVBV4Tree@23@PEIAVSweepHit@23@I@Z 000000018012ba18     GuBV4_OBBSweep.obj
 0002:0000da28       $chain$10$?Sweep_OBB_BV4@@YAHAEBVBox@Gu@physx@@AEBVPxVec3@3@MAEBVBV4Tree@23@PEIAVSweepHit@23@I@Z 000000018012ba28     GuBV4_OBBSweep.obj
 0002:0000da38       $unwind$??$doBruteForceTests@VLeafFunction_BoxSweepAnyCB@?A0x5eaefbf3@@VLeafFunction_BoxSweepClosestCB@2@UGenericSweepParamsCB@2@@Gu@physx@@YAXIPEIAUGenericSweepParamsCB@?A0x5eaefbf3@@@Z 000000018012ba38     GuBV4_OBBSweep.obj
 0002:0000da44       $chain$5$??$doBruteForceTests@VLeafFunction_BoxSweepAnyCB@?A0x5eaefbf3@@VLeafFunction_BoxSweepClosestCB@2@UGenericSweepParamsCB@2@@Gu@physx@@YAXIPEIAUGenericSweepParamsCB@?A0x5eaefbf3@@@Z 000000018012ba44     GuBV4_OBBSweep.obj
 0002:0000da6c       $chain$6$??$doBruteForceTests@VLeafFunction_BoxSweepAnyCB@?A0x5eaefbf3@@VLeafFunction_BoxSweepClosestCB@2@UGenericSweepParamsCB@2@@Gu@physx@@YAXIPEIAUGenericSweepParamsCB@?A0x5eaefbf3@@@Z 000000018012ba6c     GuBV4_OBBSweep.obj
 0002:0000da7c       $unwind$?BV4_BoxSweepSingle@@YAHAEBVBox@Gu@physx@@AEBVPxVec3@3@MAEBVBV4Tree@23@PEIBVPxMat44@3@PEIAVSweepHit@23@I@Z 000000018012ba7c     GuBV4_OBBSweep.obj
 0002:0000dab4       $chain$0$?BV4_BoxSweepSingle@@YAHAEBVBox@Gu@physx@@AEBVPxVec3@3@MAEBVBV4Tree@23@PEIBVPxMat44@3@PEIAVSweepHit@23@I@Z 000000018012bab4     GuBV4_OBBSweep.obj
 0002:0000dac8       $unwind$?BV4_GenericSweepCB@@YAXAEBVBox@Gu@physx@@AEBVPxVec3@3@MAEBVBV4Tree@23@P6A_NPEAX111IAEAM@Z3_N@Z 000000018012bac8     GuBV4_OBBSweep.obj
 0002:0000dad4       $chain$0$?BV4_GenericSweepCB@@YAXAEBVBox@Gu@physx@@AEBVPxVec3@3@MAEBVBV4Tree@23@P6A_NPEAX111IAEAM@Z3_N@Z 000000018012bad4     GuBV4_OBBSweep.obj
 0002:0000dae8       $chain$2$?BV4_GenericSweepCB@@YAXAEBVBox@Gu@physx@@AEBVPxVec3@3@MAEBVBV4Tree@23@P6A_NPEAX111IAEAM@Z3_N@Z 000000018012bae8     GuBV4_OBBSweep.obj
 0002:0000dae8       $chain$4$?BV4_GenericSweepCB@@YAXAEBVBox@Gu@physx@@AEBVPxVec3@3@MAEBVBV4Tree@23@P6A_NPEAX111IAEAM@Z3_N@Z 000000018012bae8     GuBV4_OBBSweep.obj
 0002:0000dafc       $chain$5$?BV4_GenericSweepCB@@YAXAEBVBox@Gu@physx@@AEBVPxVec3@3@MAEBVBV4Tree@23@P6A_NPEAX111IAEAM@Z3_N@Z 000000018012bafc     GuBV4_OBBSweep.obj
 0002:0000db0c       $unwind$??$BV4_ProcessStreamSwizzledNoOrderQ@VLeafFunction_BoxSweepAnyCB@?A0x5eaefbf3@@UGenericSweepParamsCB@2@@@YAHPEIBU?$BVDataPackedT@VQuantizedAABB@Gu@physx@@@Gu@physx@@IPEIAUGenericSweepParamsCB@?A0x5eaefbf3@@@Z 000000018012bb0c     GuBV4_OBBSweep.obj
 0002:0000db30       $unwind$??$BV4_ProcessStreamSwizzledOrderedQ@VLeafFunction_BoxSweepClosestCB@?A0x5eaefbf3@@UGenericSweepParamsCB@2@@@YAXPEIBU?$BVDataPackedT@VQuantizedAABB@Gu@physx@@@Gu@physx@@IPEIAUGenericSweepParamsCB@?A0x5eaefbf3@@@Z 000000018012bb30     GuBV4_OBBSweep.obj
 0002:0000db64       $unwind$?doLeafTest@LeafFunction_RaycastClosest@?A0xdeb1923c@@SAHPEIAURayParams@@I@Z 000000018012bb64     GuBV4_Raycast.obj
 0002:0000db9c       $unwind$?doLeafTest@LeafFunction_RaycastAny@?A0xdeb1923c@@SAHPEIAURayParams@@I@Z 000000018012bb9c     GuBV4_Raycast.obj
 0002:0000dbd4       $unwind$?BV4_RaycastSingle@@YAHAEBVPxVec3@physx@@0AEBVBV4Tree@Gu@2@PEIBVPxMat44@2@PEIAUPxRaycastHit@2@MMIV?$PxFlags@W4Enum@PxHitFlag@physx@@G@2@@Z 000000018012bbd4     GuBV4_Raycast.obj
 0002:0000dbf0       $chain$2$?BV4_RaycastSingle@@YAHAEBVPxVec3@physx@@0AEBVBV4Tree@Gu@2@PEIBVPxMat44@2@PEIAUPxRaycastHit@2@MMIV?$PxFlags@W4Enum@PxHitFlag@physx@@G@2@@Z 000000018012bbf0     GuBV4_Raycast.obj
 0002:0000dc0c       $chain$7$?BV4_RaycastSingle@@YAHAEBVPxVec3@physx@@0AEBVBV4Tree@Gu@2@PEIBVPxMat44@2@PEIAUPxRaycastHit@2@MMIV?$PxFlags@W4Enum@PxHitFlag@physx@@G@2@@Z 000000018012bc0c     GuBV4_Raycast.obj
 0002:0000dc30       $chain$8$?BV4_RaycastSingle@@YAHAEBVPxVec3@physx@@0AEBVBV4Tree@Gu@2@PEIBVPxMat44@2@PEIAUPxRaycastHit@2@MMIV?$PxFlags@W4Enum@PxHitFlag@physx@@G@2@@Z 000000018012bc30     GuBV4_Raycast.obj
 0002:0000dc40       $chain$9$?BV4_RaycastSingle@@YAHAEBVPxVec3@physx@@0AEBVBV4Tree@Gu@2@PEIBVPxMat44@2@PEIAUPxRaycastHit@2@MMIV?$PxFlags@W4Enum@PxHitFlag@physx@@G@2@@Z 000000018012bc40     GuBV4_Raycast.obj
 0002:0000dc50       $unwind$?doLeafTest@LeafFunction_RaycastCB@?A0xdeb1923c@@SAHPEIAURayParamsCB@2@I@Z 000000018012bc50     GuBV4_Raycast.obj
 0002:0000dc88       $unwind$?BV4_RaycastCB@@YAXAEBVPxVec3@physx@@0AEBVBV4Tree@Gu@2@PEIBVPxMat44@2@MMIP6A?AW4HitCode@42@PEAX000IMMM@Z3@Z 000000018012bc88     GuBV4_Raycast.obj
 0002:0000dc94       $chain$2$?BV4_RaycastCB@@YAXAEBVPxVec3@physx@@0AEBVBV4Tree@Gu@2@PEIBVPxMat44@2@MMIP6A?AW4HitCode@42@PEAX000IMMM@Z3@Z 000000018012bc94     GuBV4_Raycast.obj
 0002:0000dcb0       $chain$9$?BV4_RaycastCB@@YAXAEBVPxVec3@physx@@0AEBVBV4Tree@Gu@2@PEIBVPxMat44@2@MMIP6A?AW4HitCode@42@PEAX000IMMM@Z3@Z 000000018012bcb0     GuBV4_Raycast.obj
 0002:0000dcdc       $chain$10$?BV4_RaycastCB@@YAXAEBVPxVec3@physx@@0AEBVBV4Tree@Gu@2@PEIBVPxMat44@2@MMIP6A?AW4HitCode@42@PEAX000IMMM@Z3@Z 000000018012bcdc     GuBV4_Raycast.obj
 0002:0000dcec       $chain$11$?BV4_RaycastCB@@YAXAEBVPxVec3@physx@@0AEBVBV4Tree@Gu@2@PEIBVPxMat44@2@MMIP6A?AW4HitCode@42@PEAX000IMMM@Z3@Z 000000018012bcec     GuBV4_Raycast.obj
 0002:0000dcfc       $unwind$??$BV4_ProcessStreamKajiyaNoOrderQ@$0A@VLeafFunction_RaycastAny@?A0xdeb1923c@@URayParams@@@@YAHPEIBU?$BVDataPackedT@VQuantizedAABB@Gu@physx@@@Gu@physx@@IPEIAURayParams@@@Z 000000018012bcfc     GuBV4_Raycast.obj
 0002:0000dd40       $unwind$??$BV4_ProcessStreamKajiyaOrderedQ@$0A@VLeafFunction_RaycastClosest@?A0xdeb1923c@@URayParams@@@@YAXPEIBU?$BVDataPackedT@VQuantizedAABB@Gu@physx@@@Gu@physx@@IPEIAURayParams@@@Z 000000018012bd40     GuBV4_Raycast.obj
 0002:0000dd84       $unwind$??$BV4_ProcessStreamKajiyaNoOrderQ@$0A@VLeafFunction_RaycastCB@?A0xdeb1923c@@URayParamsCB@2@@@YAHPEIBU?$BVDataPackedT@VQuantizedAABB@Gu@physx@@@Gu@physx@@IPEIAURayParamsCB@?A0xdeb1923c@@@Z 000000018012bd84     GuBV4_Raycast.obj
 0002:0000ddc8       $unwind$?__SphereTriangle@@YAHPEIBUSphereParams@@I@Z 000000018012bdc8     GuBV4_SphereOverlap.obj
 0002:0000dde0       $chain$5$?__SphereTriangle@@YAHPEIBUSphereParams@@I@Z 000000018012bde0     GuBV4_SphereOverlap.obj
 0002:0000de08       $chain$6$?__SphereTriangle@@YAHPEIBUSphereParams@@I@Z 000000018012be08     GuBV4_SphereOverlap.obj
 0002:0000de18       $chain$9$?BV4_OverlapSphereAny@@YAHAEBVSphere@Gu@physx@@AEBVBV4Tree@23@PEIBVPxMat44@3@@Z 000000018012be18     GuBV4_SphereOverlap.obj
 0002:0000de50       $chain$12$?BV4_OverlapSphereAny@@YAHAEBVSphere@Gu@physx@@AEBVBV4Tree@23@PEIBVPxMat44@3@@Z 000000018012be50     GuBV4_SphereOverlap.obj
 0002:0000de68       $unwind$?BV4_OverlapSphereAll@@YAIAEBVSphere@Gu@physx@@AEBVBV4Tree@23@PEIBVPxMat44@3@PEAIIAEA_N@Z 000000018012be68     GuBV4_SphereOverlap.obj
 0002:0000de78       $chain$9$?BV4_OverlapSphereAll@@YAIAEBVSphere@Gu@physx@@AEBVBV4Tree@23@PEIBVPxMat44@3@PEAIIAEA_N@Z 000000018012be78     GuBV4_SphereOverlap.obj
 0002:0000deb0       $chain$10$?BV4_OverlapSphereAll@@YAIAEBVSphere@Gu@physx@@AEBVBV4Tree@23@PEIBVPxMat44@3@PEAIIAEA_N@Z 000000018012beb0     GuBV4_SphereOverlap.obj
 0002:0000dec0       $chain$12$?BV4_OverlapSphereAll@@YAIAEBVSphere@Gu@physx@@AEBVBV4Tree@23@PEIBVPxMat44@3@PEAIIAEA_N@Z 000000018012bec0     GuBV4_SphereOverlap.obj
 0002:0000ded8       $chain$14$?BV4_OverlapSphereAll@@YAIAEBVSphere@Gu@physx@@AEBVBV4Tree@23@PEIBVPxMat44@3@PEAIIAEA_N@Z 000000018012bed8     GuBV4_SphereOverlap.obj
 0002:0000def0       $unwind$??$BV4_ProcessStreamSwizzledNoOrderQ@VLeafFunction_SphereOverlapAll@?A0x5cc2e679@@USphereParamsAll@@@@YAHPEIBU?$BVDataPackedT@VQuantizedAABB@Gu@physx@@@Gu@physx@@IPEIAUSphereParamsAll@@@Z 000000018012bef0     GuBV4_SphereOverlap.obj
 0002:0000def0       $unwind$??$BV4_ProcessStreamSwizzledNoOrderQ@VLeafFunction_SphereOverlapAny@?A0x5cc2e679@@USphereParams@@@@YAHPEIBU?$BVDataPackedT@VQuantizedAABB@Gu@physx@@@Gu@physx@@IPEIAUSphereParams@@@Z 000000018012bef0     GuBV4_SphereOverlap.obj
 0002:0000df20       $unwind$?triSphereSweep@@YA_NPEIAUSphereSweepParams@?A0x0ebb234c@@I_N@Z 000000018012bf20     GuBV4_SphereSweep.obj
 0002:0000df4c       $unwind$?BV4_SphereSweepSingle@@YAHAEBVSphere@Gu@physx@@AEBVPxVec3@3@MAEBVBV4Tree@23@PEIBVPxMat44@3@PEIAVSweepHit@23@I@Z 000000018012bf4c     GuBV4_SphereSweep.obj
 0002:0000df8c       $chain$0$?BV4_SphereSweepSingle@@YAHAEBVSphere@Gu@physx@@AEBVPxVec3@3@MAEBVBV4Tree@23@PEIBVPxMat44@3@PEIAVSweepHit@23@I@Z 000000018012bf8c     GuBV4_SphereSweep.obj
 0002:0000dfa0       $chain$1$?BV4_SphereSweepSingle@@YAHAEBVSphere@Gu@physx@@AEBVPxVec3@3@MAEBVBV4Tree@23@PEIBVPxMat44@3@PEIAVSweepHit@23@I@Z 000000018012bfa0     GuBV4_SphereSweep.obj
 0002:0000dfb4       $chain$2$?BV4_SphereSweepSingle@@YAHAEBVSphere@Gu@physx@@AEBVPxVec3@3@MAEBVBV4Tree@23@PEIBVPxMat44@3@PEIAVSweepHit@23@I@Z 000000018012bfb4     GuBV4_SphereSweep.obj
 0002:0000dfc4       $unwind$?BV4_GenericSweepCB_Old@@YAXAEBVPxVec3@physx@@00MAEBVBV4Tree@Gu@2@PEIBVPxMat44@2@P6A_NPEAX000IAEAM@Z3@Z 000000018012bfc4     GuBV4_SphereSweep.obj
 0002:0000dfe0       $chain$8$?BV4_GenericSweepCB_Old@@YAXAEBVPxVec3@physx@@00MAEBVBV4Tree@Gu@2@PEIBVPxMat44@2@P6A_NPEAX000IAEAM@Z3@Z 000000018012bfe0     GuBV4_SphereSweep.obj
 0002:0000e014       $chain$9$?BV4_GenericSweepCB_Old@@YAXAEBVPxVec3@physx@@00MAEBVBV4Tree@Gu@2@PEIBVPxMat44@2@P6A_NPEAX000IAEAM@Z3@Z 000000018012c014     GuBV4_SphereSweep.obj
 0002:0000e024       $chain$11$?BV4_GenericSweepCB_Old@@YAXAEBVPxVec3@physx@@00MAEBVBV4Tree@Gu@2@PEIBVPxMat44@2@P6A_NPEAX000IAEAM@Z3@Z 000000018012c024     GuBV4_SphereSweep.obj
 0002:0000e03c       $chain$12$?BV4_GenericSweepCB_Old@@YAXAEBVPxVec3@physx@@00MAEBVBV4Tree@Gu@2@PEIBVPxMat44@2@P6A_NPEAX000IAEAM@Z3@Z 000000018012c03c     GuBV4_SphereSweep.obj
 0002:0000e04c       $unwind$??$BV4_ProcessStreamKajiyaNoOrderQ@$00VLeafFunction_SphereSweepAny@?A0x0ebb234c@@USphereSweepParams@2@@@YAHPEIBU?$BVDataPackedT@VQuantizedAABB@Gu@physx@@@Gu@physx@@IPEIAUSphereSweepParams@?A0x0ebb234c@@@Z 000000018012c04c     GuBV4_SphereSweep.obj
 0002:0000e094       $unwind$??$BV4_ProcessStreamKajiyaOrderedQ@$00VLeafFunction_SphereSweepClosest@?A0x0ebb234c@@USphereSweepParams@2@@@YAXPEIBU?$BVDataPackedT@VQuantizedAABB@Gu@physx@@@Gu@physx@@IPEIAUSphereSweepParams@?A0x0ebb234c@@@Z 000000018012c094     GuBV4_SphereSweep.obj
 0002:0000e0d8       $unwind$??$BV4_ProcessStreamKajiyaOrderedQ@$00VExLeafTestSweepCB@?A0x0ebb234c@@UBoxSweepParamsCB@2@@@YAXPEIBU?$BVDataPackedT@VQuantizedAABB@Gu@physx@@@Gu@physx@@IPEIAUBoxSweepParamsCB@?A0x0ebb234c@@@Z 000000018012c0d8     GuBV4_SphereSweep.obj
 0002:0000e11c       $unwind$?transform@PxMeshScale@physx@@QEBA?AVPxVec3@2@AEBV32@@Z 000000018012c11c     GuMidphaseBV4.obj
 0002:0000e144       $unwind$?computeSweepData@physx@@YAMAEBVPxTriangleMeshGeometry@1@AEAVPxVec3@1@11M@Z 000000018012c144     GuMidphaseBV4.obj
 0002:0000e178       $unwind$?raycast_triangleMesh_BV4@Gu@physx@@YAIPEBVTriangleMesh@12@AEBVPxTriangleMeshGeometry@2@AEBVPxTransform@2@AEBVPxVec3@2@3MV?$PxFlags@W4Enum@PxHitFlag@physx@@G@2@IPEIAUPxRaycastHit@2@@Z 000000018012c178     GuMidphaseBV4.obj
 0002:0000e1b4       $chain$10$?raycast_triangleMesh_BV4@Gu@physx@@YAIPEBVTriangleMesh@12@AEBVPxTriangleMeshGeometry@2@AEBVPxTransform@2@AEBVPxVec3@2@3MV?$PxFlags@W4Enum@PxHitFlag@physx@@G@2@IPEIAUPxRaycastHit@2@@Z 000000018012c1b4     GuMidphaseBV4.obj
 0002:0000e1cc       $chain$11$?raycast_triangleMesh_BV4@Gu@physx@@YAIPEBVTriangleMesh@12@AEBVPxTriangleMeshGeometry@2@AEBVPxTransform@2@AEBVPxVec3@2@3MV?$PxFlags@W4Enum@PxHitFlag@physx@@G@2@IPEIAUPxRaycastHit@2@@Z 000000018012c1cc     GuMidphaseBV4.obj
 0002:0000e1dc       $unwind$?intersectSphereVsMesh_BV4@Gu@physx@@YA_NAEBVSphere@12@AEBVTriangleMesh@12@AEBVPxTransform@2@AEBVPxMeshScale@2@PEAULimitedResults@12@@Z 000000018012c1dc     GuMidphaseBV4.obj
 0002:0000e208       $chain$0$?intersectSphereVsMesh_BV4@Gu@physx@@YA_NAEBVSphere@12@AEBVTriangleMesh@12@AEBVPxTransform@2@AEBVPxMeshScale@2@PEAULimitedResults@12@@Z 000000018012c208     GuMidphaseBV4.obj
 0002:0000e21c       $chain$1$?intersectSphereVsMesh_BV4@Gu@physx@@YA_NAEBVSphere@12@AEBVTriangleMesh@12@AEBVPxTransform@2@AEBVPxMeshScale@2@PEAULimitedResults@12@@Z 000000018012c21c     GuMidphaseBV4.obj
 0002:0000e22c       $chain$2$?intersectSphereVsMesh_BV4@Gu@physx@@YA_NAEBVSphere@12@AEBVTriangleMesh@12@AEBVPxTransform@2@AEBVPxMeshScale@2@PEAULimitedResults@12@@Z 000000018012c22c     GuMidphaseBV4.obj
 0002:0000e240       $chain$6$?intersectSphereVsMesh_BV4@Gu@physx@@YA_NAEBVSphere@12@AEBVTriangleMesh@12@AEBVPxTransform@2@AEBVPxMeshScale@2@PEAULimitedResults@12@@Z 000000018012c240     GuMidphaseBV4.obj
 0002:0000e25c       $unwind$?intersectBoxVsMesh_BV4@Gu@physx@@YA_NAEBVBox@12@AEBVTriangleMesh@12@AEBVPxTransform@2@AEBVPxMeshScale@2@PEAULimitedResults@12@@Z 000000018012c25c     GuMidphaseBV4.obj
 0002:0000e288       $chain$0$?intersectBoxVsMesh_BV4@Gu@physx@@YA_NAEBVBox@12@AEBVTriangleMesh@12@AEBVPxTransform@2@AEBVPxMeshScale@2@PEAULimitedResults@12@@Z 000000018012c288     GuMidphaseBV4.obj
 0002:0000e29c       $chain$1$?intersectBoxVsMesh_BV4@Gu@physx@@YA_NAEBVBox@12@AEBVTriangleMesh@12@AEBVPxTransform@2@AEBVPxMeshScale@2@PEAULimitedResults@12@@Z 000000018012c29c     GuMidphaseBV4.obj
 0002:0000e2ac       $chain$2$?intersectBoxVsMesh_BV4@Gu@physx@@YA_NAEBVBox@12@AEBVTriangleMesh@12@AEBVPxTransform@2@AEBVPxMeshScale@2@PEAULimitedResults@12@@Z 000000018012c2ac     GuMidphaseBV4.obj
 0002:0000e2c0       $chain$6$?intersectBoxVsMesh_BV4@Gu@physx@@YA_NAEBVBox@12@AEBVTriangleMesh@12@AEBVPxTransform@2@AEBVPxMeshScale@2@PEAULimitedResults@12@@Z 000000018012c2c0     GuMidphaseBV4.obj
 0002:0000e2dc       $unwind$?intersectCapsuleVsMesh_BV4@Gu@physx@@YA_NAEBVCapsule@12@AEBVTriangleMesh@12@AEBVPxTransform@2@AEBVPxMeshScale@2@PEAULimitedResults@12@@Z 000000018012c2dc     GuMidphaseBV4.obj
 0002:0000e30c       $chain$2$?intersectCapsuleVsMesh_BV4@Gu@physx@@YA_NAEBVCapsule@12@AEBVTriangleMesh@12@AEBVPxTransform@2@AEBVPxMeshScale@2@PEAULimitedResults@12@@Z 000000018012c30c     GuMidphaseBV4.obj
 0002:0000e328       $chain$3$?intersectCapsuleVsMesh_BV4@Gu@physx@@YA_NAEBVCapsule@12@AEBVTriangleMesh@12@AEBVPxTransform@2@AEBVPxMeshScale@2@PEAULimitedResults@12@@Z 000000018012c328     GuMidphaseBV4.obj
 0002:0000e338       $unwind$?sweepCapsule_MeshGeom_BV4@Gu@physx@@YA_NPEBVTriangleMesh@12@AEBVPxTriangleMeshGeometry@2@AEBVPxTransform@2@AEBVCapsule@12@AEBVPxVec3@2@MAEAUPxSweepHit@2@V?$PxFlags@W4Enum@PxHitFlag@physx@@G@2@M@Z 000000018012c338     GuMidphaseBV4.obj
 0002:0000e37c       $unwind$?sweepBox_MeshGeom_BV4@Gu@physx@@YA_NPEBVTriangleMesh@12@AEBVPxTriangleMeshGeometry@2@AEBVPxTransform@2@AEBVBox@12@AEBVPxVec3@2@MAEAUPxSweepHit@2@V?$PxFlags@W4Enum@PxHitFlag@physx@@G@2@M@Z 000000018012c37c     GuMidphaseBV4.obj
 0002:0000e3c0       $unwind$?boxSweepVsMesh@@YAHAEAVSweepHit@Gu@physx@@AEBVBV4Tree@23@PEBM2AEBVBox@23@AEBVPxVec3@3@M_N55@Z 000000018012c3c0     GuMidphaseBV4.obj
 0002:0000e3cc       $chain$6$?boxSweepVsMesh@@YAHAEAVSweepHit@Gu@physx@@AEBVBV4Tree@23@PEBM2AEBVBox@23@AEBVPxVec3@3@M_N55@Z 000000018012c3cc     GuMidphaseBV4.obj
 0002:0000e3f8       $chain$7$?boxSweepVsMesh@@YAHAEAVSweepHit@Gu@physx@@AEBVBV4Tree@23@PEBM2AEBVBox@23@AEBVPxVec3@3@M_N55@Z 000000018012c3f8     GuMidphaseBV4.obj
 0002:0000e408       $unwind$?capsuleSweepVsMesh@@YA_NAEAVSweepHit@Gu@physx@@AEBVBV4Tree@23@AEBVCapsule@23@AEBVPxVec3@3@MPEBVPxMat44@3@I@Z 000000018012c408     GuMidphaseBV4.obj
 0002:0000e438       $chain$1$?capsuleSweepVsMesh@@YA_NAEAVSweepHit@Gu@physx@@AEBVBV4Tree@23@AEBVCapsule@23@AEBVPxVec3@3@MPEBVPxMat44@3@I@Z 000000018012c438     GuMidphaseBV4.obj
 0002:0000e450       $chain$2$?capsuleSweepVsMesh@@YA_NAEAVSweepHit@Gu@physx@@AEBVBV4Tree@23@AEBVCapsule@23@AEBVPxVec3@3@MPEBVPxMat44@3@I@Z 000000018012c450     GuMidphaseBV4.obj
 0002:0000e460       $unwind$?gRayCallback@@YA?AW4HitCode@Gu@physx@@PEAXAEBVPxVec3@3@11IMMM@Z 000000018012c460     GuMidphaseBV4.obj
 0002:0000e478       $chain$9$?gRayCallback@@YA?AW4HitCode@Gu@physx@@PEAXAEBVPxVec3@3@11IMMM@Z 000000018012c478     GuMidphaseBV4.obj
 0002:0000e4b0       $chain$10$?gRayCallback@@YA?AW4HitCode@Gu@physx@@PEAXAEBVPxVec3@3@11IMMM@Z 000000018012c4b0     GuMidphaseBV4.obj
 0002:0000e4c4       $chain$11$?gRayCallback@@YA?AW4HitCode@Gu@physx@@PEAXAEBVPxVec3@3@11IMMM@Z 000000018012c4c4     GuMidphaseBV4.obj
 0002:0000e4d4       $chain$12$?gRayCallback@@YA?AW4HitCode@Gu@physx@@PEAXAEBVPxVec3@3@11IMMM@Z 000000018012c4d4     GuMidphaseBV4.obj
 0002:0000e4e4       $unwind$?gSphereVsMeshCallback@@YA_NPEAXAEBVPxVec3@physx@@11IPEBI@Z 000000018012c4e4     GuMidphaseBV4.obj
 0002:0000e518       $unwind$?gCapsuleVsMeshCallback@@YA_NPEAXAEBVPxVec3@physx@@11IPEBI@Z 000000018012c518     GuMidphaseBV4.obj
 0002:0000e54c       $unwind$?gBoxVsMeshCallback@@YA_NPEAXAEBVPxVec3@physx@@11IPEBI@Z 000000018012c54c     GuMidphaseBV4.obj
 0002:0000e580       $unwind$?gVolumeCallback@@YA_NPEAXAEBVPxVec3@physx@@11IPEBI@Z 000000018012c580     GuMidphaseBV4.obj
 0002:0000e580       $unwind$?drawLine@MultiplePersistentContactManifold@Gu@physx@@SAXAEAVRenderOutput@Cm@3@AEBT__m128@@1I@Z 000000018012c580     GuPersistentContactManifold.obj
 0002:0000e580       $unwind$?drawLine@MultiplePersistentContactManifold@Gu@physx@@SAXAEAVRenderOutput@Cm@3@VPxVec3@3@1I@Z 000000018012c580     GuPersistentContactManifold.obj
 0002:0000e588       $unwind$?gBoxMeshSweepCallback@@YA_NPEAXAEBVPxVec3@physx@@11IAEAM@Z 000000018012c588     GuMidphaseBV4.obj
 0002:0000e588       $unwind$?gCapsuleMeshSweepCallback@@YA_NPEAXAEBVPxVec3@physx@@11IAEAM@Z 000000018012c588     GuMidphaseBV4.obj
 0002:0000e588       $unwind$?gConvexVsMeshSweepCallback@@YA_NPEAXAEBVPxVec3@physx@@11IAEAM@Z 000000018012c588     GuMidphaseBV4.obj
 0002:0000e590       $unwind$?getTriangle@PxMeshQuery@physx@@SAXAEBVPxTriangleMeshGeometry@2@AEBVPxTransform@2@IAEAVPxTriangle@2@PEAI3@Z 000000018012c590     GuMeshQuery.obj
 0002:0000e5a8       $chain$0$?getTriangle@PxMeshQuery@physx@@SAXAEBVPxTriangleMeshGeometry@2@AEBVPxTransform@2@IAEAVPxTriangle@2@PEAI3@Z 000000018012c5a8     GuMeshQuery.obj
 0002:0000e5bc       $chain$7$?getTriangle@PxMeshQuery@physx@@SAXAEBVPxTriangleMeshGeometry@2@AEBVPxTransform@2@IAEAVPxTriangle@2@PEAI3@Z 000000018012c5bc     GuMeshQuery.obj
 0002:0000e5e8       $chain$8$?getTriangle@PxMeshQuery@physx@@SAXAEBVPxTriangleMeshGeometry@2@AEBVPxTransform@2@IAEAVPxTriangle@2@PEAI3@Z 000000018012c5e8     GuMeshQuery.obj
 0002:0000e5f8       $chain$9$?getTriangle@PxMeshQuery@physx@@SAXAEBVPxTriangleMeshGeometry@2@AEBVPxTransform@2@IAEAVPxTriangle@2@PEAI3@Z 000000018012c5f8     GuMeshQuery.obj
 0002:0000e608       $unwind$?getTriangle@PxMeshQuery@physx@@SAXAEBVPxHeightFieldGeometry@2@AEBVPxTransform@2@IAEAVPxTriangle@2@PEAI3@Z 000000018012c608     GuMeshQuery.obj
 0002:0000e610       $unwind$?findOverlapTriangleMesh@PxMeshQuery@physx@@SAIAEBVPxGeometry@2@AEBVPxTransform@2@AEBVPxTriangleMeshGeometry@2@1PEAIIIAEA_N@Z 000000018012c610     GuMeshQuery.obj
 0002:0000e62c       $chain$0$?findOverlapTriangleMesh@PxMeshQuery@physx@@SAIAEBVPxGeometry@2@AEBVPxTransform@2@AEBVPxTriangleMeshGeometry@2@1PEAIIIAEA_N@Z 000000018012c62c     GuMeshQuery.obj
 0002:0000e640       $chain$1$?findOverlapTriangleMesh@PxMeshQuery@physx@@SAIAEBVPxGeometry@2@AEBVPxTransform@2@AEBVPxTriangleMeshGeometry@2@1PEAIIIAEA_N@Z 000000018012c640     GuMeshQuery.obj
 0002:0000e650       $unwind$?findOverlapHeightField@PxMeshQuery@physx@@SAIAEBVPxGeometry@2@AEBVPxTransform@2@AEBVPxHeightFieldGeometry@2@1PEAIIIAEA_N@Z 000000018012c650     GuMeshQuery.obj
 0002:0000e68c       $unwind$?sweep@PxMeshQuery@physx@@SA_NAEBVPxVec3@2@MAEBVPxGeometry@2@AEBVPxTransform@2@IPEBVPxTriangle@2@AEAUPxSweepHit@2@V?$PxFlags@W4Enum@PxHitFlag@physx@@G@2@PEBIM_N@Z 000000018012c68c     GuMeshQuery.obj
 0002:0000e6a8       $chain$1$?sweep@PxMeshQuery@physx@@SA_NAEBVPxVec3@2@MAEBVPxGeometry@2@AEBVPxTransform@2@IPEBVPxTriangle@2@AEAUPxSweepHit@2@V?$PxFlags@W4Enum@PxHitFlag@physx@@G@2@PEBIM_N@Z 000000018012c6a8     GuMeshQuery.obj
 0002:0000e6c0       $chain$2$?sweep@PxMeshQuery@physx@@SA_NAEBVPxVec3@2@MAEBVPxGeometry@2@AEBVPxTransform@2@IPEBVPxTriangle@2@AEAUPxSweepHit@2@V?$PxFlags@W4Enum@PxHitFlag@physx@@G@2@PEBIM_N@Z 000000018012c6c0     GuMeshQuery.obj
 0002:0000e6d0       $unwind$?onEvent@HfTrianglesEntityReport2@?A0x53027822@@UEAA_NIPEAI@Z 000000018012c6d0     GuMeshQuery.obj
 0002:0000e6ec       $unwind$?raycast_triangleMesh_RTREE@Gu@physx@@YAIPEBVTriangleMesh@12@AEBVPxTriangleMeshGeometry@2@AEBVPxTransform@2@AEBVPxVec3@2@3MV?$PxFlags@W4Enum@PxHitFlag@physx@@G@2@IPEIAUPxRaycastHit@2@@Z 000000018012c6ec     GuMidphaseRTree.obj
 0002:0000e700       $chain$10$?raycast_triangleMesh_RTREE@Gu@physx@@YAIPEBVTriangleMesh@12@AEBVPxTriangleMeshGeometry@2@AEBVPxTransform@2@AEBVPxVec3@2@3MV?$PxFlags@W4Enum@PxHitFlag@physx@@G@2@IPEIAUPxRaycastHit@2@@Z 000000018012c700     GuMidphaseRTree.obj
 0002:0000e73c       $chain$11$?raycast_triangleMesh_RTREE@Gu@physx@@YAIPEBVTriangleMesh@12@AEBVPxTriangleMeshGeometry@2@AEBVPxTransform@2@AEBVPxVec3@2@3MV?$PxFlags@W4Enum@PxHitFlag@physx@@G@2@IPEIAUPxRaycastHit@2@@Z 000000018012c73c     GuMidphaseRTree.obj
 0002:0000e750       $chain$12$?raycast_triangleMesh_RTREE@Gu@physx@@YAIPEBVTriangleMesh@12@AEBVPxTriangleMeshGeometry@2@AEBVPxTransform@2@AEBVPxVec3@2@3MV?$PxFlags@W4Enum@PxHitFlag@physx@@G@2@IPEIAUPxRaycastHit@2@@Z 000000018012c750     GuMidphaseRTree.obj
 0002:0000e760       $chain$13$?raycast_triangleMesh_RTREE@Gu@physx@@YAIPEBVTriangleMesh@12@AEBVPxTriangleMeshGeometry@2@AEBVPxTransform@2@AEBVPxVec3@2@3MV?$PxFlags@W4Enum@PxHitFlag@physx@@G@2@IPEIAUPxRaycastHit@2@@Z 000000018012c760     GuMidphaseRTree.obj
 0002:0000e770       $unwind$?sweepCapsule_MeshGeom_RTREE@Gu@physx@@YA_NPEBVTriangleMesh@12@AEBVPxTriangleMeshGeometry@2@AEBVPxTransform@2@AEBVCapsule@12@AEBVPxVec3@2@MAEAUPxSweepHit@2@V?$PxFlags@W4Enum@PxHitFlag@physx@@G@2@M@Z 000000018012c770     GuMidphaseRTree.obj
 0002:0000e7b0       $unwind$?sweepBox_MeshGeom_RTREE@Gu@physx@@YA_NPEBVTriangleMesh@12@AEBVPxTriangleMeshGeometry@2@AEBVPxTransform@2@AEBVBox@12@AEBVPxVec3@2@MAEAUPxSweepHit@2@V?$PxFlags@W4Enum@PxHitFlag@physx@@G@2@M@Z 000000018012c7b0     GuMidphaseRTree.obj
 0002:0000e7f4       $unwind$?sweepConvex_MeshGeom_RTREE@Gu@physx@@YAXPEBVTriangleMesh@12@AEBVBox@12@AEBVPxVec3@2@MAEAUSweepConvexMeshHitCallback@12@_N@Z 000000018012c7f4     GuMidphaseRTree.obj
 0002:0000e7fc       $unwind$?collideOBB@MeshRayCollider@@SAXAEBVBox@Gu@physx@@_NPEBVRTreeTriangleMesh@34@AEAU?$MeshHitCallback@UPxRaycastHit@physx@@@34@1@Z 000000018012c7fc     GuMidphaseRTree.obj
 0002:0000e808       $chain$4$?collideOBB@MeshRayCollider@@SAXAEBVBox@Gu@physx@@_NPEBVRTreeTriangleMesh@34@AEAU?$MeshHitCallback@UPxRaycastHit@physx@@@34@1@Z 000000018012c808     GuMidphaseRTree.obj
 0002:0000e82c       $chain$6$?collideOBB@MeshRayCollider@@SAXAEBVBox@Gu@physx@@_NPEBVRTreeTriangleMesh@34@AEAU?$MeshHitCallback@UPxRaycastHit@physx@@@34@1@Z 000000018012c82c     GuMidphaseRTree.obj
 0002:0000e844       $chain$7$?collideOBB@MeshRayCollider@@SAXAEBVBox@Gu@physx@@_NPEBVRTreeTriangleMesh@34@AEAU?$MeshHitCallback@UPxRaycastHit@physx@@@34@1@Z 000000018012c844     GuMidphaseRTree.obj
 0002:0000e854       $chain$8$?collideOBB@MeshRayCollider@@SAXAEBVBox@Gu@physx@@_NPEBVRTreeTriangleMesh@34@AEAU?$MeshHitCallback@UPxRaycastHit@physx@@@34@1@Z 000000018012c854     GuMidphaseRTree.obj
 0002:0000e864       $unwind$?processResults@?$RayRTreeCallback@$00$0A@@@UEAA_NIPEAIAEAM@Z 000000018012c864     GuMidphaseRTree.obj
 0002:0000e864       $unwind$?processResults@?$RayRTreeCallback@$0A@$0A@@@UEAA_NIPEAIAEAM@Z 000000018012c864     GuMidphaseRTree.obj
 0002:0000e880       $unwind$?processResults@?$RayRTreeCallback@$00$0A@@@UEAA_NIPEAI@Z 000000018012c880     GuMidphaseRTree.obj
 0002:0000e880       $unwind$?processResults@?$RayRTreeCallback@$0A@$0A@@@UEAA_NIPEAI@Z 000000018012c880     GuMidphaseRTree.obj
 0002:0000e89c       $unwind$??1?$RayRTreeCallback@$00$00@@UEAA@XZ 000000018012c89c     GuMidphaseRTree.obj
 0002:0000e89c       $unwind$??1?$RayRTreeCallback@$00$0A@@@UEAA@XZ 000000018012c89c     GuMidphaseRTree.obj
 0002:0000e89c       $unwind$??1?$RayRTreeCallback@$0A@$00@@UEAA@XZ 000000018012c89c     GuMidphaseRTree.obj
 0002:0000e89c       $unwind$??1?$RayRTreeCallback@$0A@$0A@@@UEAA@XZ 000000018012c89c     GuMidphaseRTree.obj
 0002:0000e8a4       $chain$0$??1?$RayRTreeCallback@$00$0A@@@UEAA@XZ 000000018012c8a4     GuMidphaseRTree.obj
 0002:0000e8a4       $chain$0$??1?$RayRTreeCallback@$0A@$0A@@@UEAA@XZ 000000018012c8a4     GuMidphaseRTree.obj
 0002:0000e8b8       $chain$1$??1?$RayRTreeCallback@$00$0A@@@UEAA@XZ 000000018012c8b8     GuMidphaseRTree.obj
 0002:0000e8b8       $chain$1$??1?$RayRTreeCallback@$0A@$0A@@@UEAA@XZ 000000018012c8b8     GuMidphaseRTree.obj
 0002:0000e8c8       $unwind$??$collide@$00$0A@@MeshRayCollider@@SAXAEBVPxVec3@physx@@0M_NPEBVRTreeTriangleMesh@Gu@2@AEAU?$MeshHitCallback@UPxRaycastHit@physx@@@42@PEBV12@@Z 000000018012c8c8     GuMidphaseRTree.obj
 0002:0000e8e8       $unwind$??$collide@$0A@$00@MeshRayCollider@@SAXAEBVPxVec3@physx@@0M_NPEBVRTreeTriangleMesh@Gu@2@AEAU?$MeshHitCallback@UPxRaycastHit@physx@@@42@PEBV12@@Z 000000018012c8e8     GuMidphaseRTree.obj
 0002:0000e924       $unwind$??$collide@$00$00@MeshRayCollider@@SAXAEBVPxVec3@physx@@0M_NPEBVRTreeTriangleMesh@Gu@2@AEAU?$MeshHitCallback@UPxRaycastHit@physx@@@42@PEBV12@@Z 000000018012c924     GuMidphaseRTree.obj
 0002:0000e94c       $chain$2$??$collide@$00$00@MeshRayCollider@@SAXAEBVPxVec3@physx@@0M_NPEBVRTreeTriangleMesh@Gu@2@AEAU?$MeshHitCallback@UPxRaycastHit@physx@@@42@PEBV12@@Z 000000018012c94c     GuMidphaseRTree.obj
 0002:0000e968       $chain$3$??$collide@$00$00@MeshRayCollider@@SAXAEBVPxVec3@physx@@0M_NPEBVRTreeTriangleMesh@Gu@2@AEAU?$MeshHitCallback@UPxRaycastHit@physx@@@42@PEBV12@@Z 000000018012c968     GuMidphaseRTree.obj
 0002:0000e978       $unwind$?processHit@RayMeshColliderCallback@@UEAA_NAEBUPxRaycastHit@physx@@AEBVPxVec3@3@11AEAMPEBI@Z 000000018012c978     GuMidphaseRTree.obj
 0002:0000e9a8       $unwind$?computeSweptAABBAroundOBB@@YAXAEBVBox@Gu@physx@@AEAVPxVec3@3@11AEAM@Z 000000018012c9a8     GuMidphaseRTree.obj
 0002:0000e9d8       $unwind$??$intersectAnyVsMesh@$0A@@@YA_NPEBVSphere@Gu@physx@@PEBVCapsule@12@PEBVBox@12@AEBVTriangleMesh@12@AEBVPxTransform@2@AEBVPxMeshScale@2@PEAULimitedResults@12@@Z 000000018012c9d8     GuMidphaseRTree.obj
 0002:0000e9e4       $chain$7$??$intersectAnyVsMesh@$0A@@@YA_NPEBVSphere@Gu@physx@@PEBVCapsule@12@PEBVBox@12@AEBVTriangleMesh@12@AEBVPxTransform@2@AEBVPxMeshScale@2@PEAULimitedResults@12@@Z 000000018012c9e4     GuMidphaseRTree.obj
 0002:0000ea14       $chain$8$??$intersectAnyVsMesh@$0A@@@YA_NPEBVSphere@Gu@physx@@PEBVCapsule@12@PEBVBox@12@AEBVTriangleMesh@12@AEBVPxTransform@2@AEBVPxMeshScale@2@PEAULimitedResults@12@@Z 000000018012ca14     GuMidphaseRTree.obj
 0002:0000ea24       $unwind$?processResults@?$RayRTreeCallback@$0A@$00@@UEAA_NIPEAIAEAM@Z 000000018012ca24     GuMidphaseRTree.obj
 0002:0000ea68       $unwind$?processResults@?$RayRTreeCallback@$0A@$00@@UEAA_NIPEAI@Z 000000018012ca68     GuMidphaseRTree.obj
 0002:0000eaa8       $chain$0$??1?$RayRTreeCallback@$0A@$00@@UEAA@XZ 000000018012caa8     GuMidphaseRTree.obj
 0002:0000eabc       $chain$1$??1?$RayRTreeCallback@$0A@$00@@UEAA@XZ 000000018012cabc     GuMidphaseRTree.obj
 0002:0000eacc       $unwind$?processResults@?$RayRTreeCallback@$00$00@@UEAA_NIPEAIAEAM@Z 000000018012cacc     GuMidphaseRTree.obj
 0002:0000eaf0       $unwind$?processResults@?$RayRTreeCallback@$00$00@@UEAA_NIPEAI@Z 000000018012caf0     GuMidphaseRTree.obj
 0002:0000eb14       $chain$0$??1?$RayRTreeCallback@$00$00@@UEAA@XZ 000000018012cb14     GuMidphaseRTree.obj
 0002:0000eb28       $chain$1$??1?$RayRTreeCallback@$00$00@@UEAA@XZ 000000018012cb28     GuMidphaseRTree.obj
 0002:0000eb38       $unwind$??$intersectAnyVsMeshT@$0A@$0A@@@YA_NPEBVSphere@Gu@physx@@PEBVCapsule@12@PEBVBox@12@AEBVTriangleMesh@12@AEBVPxTransform@2@AEBVPxMeshScale@2@PEAULimitedResults@12@@Z 000000018012cb38     GuMidphaseRTree.obj
 0002:0000eb78       $unwind$??$intersectAnyVsMeshT@$01$00@@YA_NPEBVSphere@Gu@physx@@PEBVCapsule@12@PEBVBox@12@AEBVTriangleMesh@12@AEBVPxTransform@2@AEBVPxMeshScale@2@PEAULimitedResults@12@@Z 000000018012cb78     GuMidphaseRTree.obj
 0002:0000ebb0       $unwind$??$intersectAnyVsMeshT@$01$0A@@@YA_NPEBVSphere@Gu@physx@@PEBVCapsule@12@PEBVBox@12@AEBVTriangleMesh@12@AEBVPxTransform@2@AEBVPxMeshScale@2@PEAULimitedResults@12@@Z 000000018012cbb0     GuMidphaseRTree.obj
 0002:0000ebf4       $unwind$??$intersectAnyVsMeshT@$00$00@@YA_NPEBVSphere@Gu@physx@@PEBVCapsule@12@PEBVBox@12@AEBVTriangleMesh@12@AEBVPxTransform@2@AEBVPxMeshScale@2@PEAULimitedResults@12@@Z 000000018012cbf4     GuMidphaseRTree.obj
 0002:0000ec28       $unwind$??$intersectAnyVsMeshT@$00$0A@@@YA_NPEBVSphere@Gu@physx@@PEBVCapsule@12@PEBVBox@12@AEBVTriangleMesh@12@AEBVPxTransform@2@AEBVPxMeshScale@2@PEAULimitedResults@12@@Z 000000018012cc28     GuMidphaseRTree.obj
 0002:0000ec68       $unwind$?processHit@?$IntersectSphereVsMeshCallback@$00@?A0xa8ceae12@@UEAA_NAEBUPxRaycastHit@physx@@AEBVPxVec3@4@11AEAMPEBI@Z 000000018012cc68     GuMidphaseRTree.obj
 0002:0000ec78       $unwind$?processHit@?$IntersectCapsuleVsMeshCallback@$00@?A0xa8ceae12@@UEAA_NAEBUPxRaycastHit@physx@@AEBVPxVec3@4@11AEAMPEBI@Z 000000018012cc78     GuMidphaseRTree.obj
 0002:0000ec8c       $unwind$?processHit@?$IntersectBoxVsMeshCallback@$00@?A0xa8ceae12@@UEAA_NAEBUPxRaycastHit@physx@@AEBVPxVec3@4@11AEAMPEBI@Z 000000018012cc8c     GuMidphaseRTree.obj
 0002:0000ecb4       $unwind$?processHit@?$IntersectSphereVsMeshCallback@$0A@@?A0xa8ceae12@@UEAA_NAEBUPxRaycastHit@physx@@AEBVPxVec3@4@11AEAMPEBI@Z 000000018012ccb4     GuMidphaseRTree.obj
 0002:0000ecc8       $unwind$?processHit@?$IntersectCapsuleVsMeshCallback@$0A@@?A0xa8ceae12@@UEAA_NAEBUPxRaycastHit@physx@@AEBVPxVec3@4@11AEAMPEBI@Z 000000018012ccc8     GuMidphaseRTree.obj
 0002:0000ed00       $unwind$?processHit@?$IntersectBoxVsMeshCallback@$0A@@?A0xa8ceae12@@UEAA_NAEBUPxRaycastHit@physx@@AEBVPxVec3@4@11AEAMPEBI@Z 000000018012cd00     GuMidphaseRTree.obj
 0002:0000ed38       $unwind$?checkOverlapAABB_triangleGeom@Gu@physx@@YA_NAEBVPxGeometry@2@AEBVPxTransform@2@AEBVPxBounds3@2@@Z 000000018012cd38     GuOverlapTestsMesh.obj
 0002:0000ed48       $unwind$?GeomOverlapCallback_CapsuleMesh@@YA_NAEBVPxGeometry@physx@@AEBVPxTransform@2@01PEAUTriggerCache@Gu@2@@Z 000000018012cd48     GuOverlapTestsMesh.obj
 0002:0000ed58       $unwind$?GeomOverlapCallback_BoxMesh@@YA_NAEBVPxGeometry@physx@@AEBVPxTransform@2@01PEAUTriggerCache@Gu@2@@Z 000000018012cd58     GuOverlapTestsMesh.obj
 0002:0000ed64       $unwind$??0ConvexVsMeshOverlapCallback@@QEAA@AEBVConvexMesh@Gu@physx@@AEBVPxMeshScale@3@AEBVFastVertex2ShapeScaling@Cm@3@AEBVPxTransform@3@3_NAEBVBox@23@@Z 000000018012cd64     GuOverlapTestsMesh.obj
 0002:0000ed9c       $unwind$?processHit@ConvexVsMeshOverlapCallback@@UEAA_NAEBUPxRaycastHit@physx@@AEBVPxVec3@3@11AEAMPEBI@Z 000000018012cd9c     GuOverlapTestsMesh.obj
 0002:0000edcc       $unwind$?GeomOverlapCallback_ConvexMesh@@YA_NAEBVPxGeometry@physx@@AEBVPxTransform@2@01PEAUTriggerCache@Gu@2@@Z 000000018012cdcc     GuOverlapTestsMesh.obj
 0002:0000ee14       $unwind$?load@RTree@Gu@physx@@QEAA_NAEAVPxInputStream@3@I_N@Z 000000018012ce14     GuRTree.obj
 0002:0000ee2c       $unwind$?refitAllStaticTree@RTree@Gu@physx@@QEAAXAEAUCallbackRefit@123@PEAVPxBounds3@3@@Z 000000018012ce2c     GuRTree.obj
 0002:0000ee3c       $chain$1$?refitAllStaticTree@RTree@Gu@physx@@QEAAXAEAUCallbackRefit@123@PEAVPxBounds3@3@@Z 000000018012ce3c     GuRTree.obj
 0002:0000ee54       $chain$4$?refitAllStaticTree@RTree@Gu@physx@@QEAAXAEAUCallbackRefit@123@PEAVPxBounds3@3@@Z 000000018012ce54     GuRTree.obj
 0002:0000ee70       $chain$5$?refitAllStaticTree@RTree@Gu@physx@@QEAAXAEAUCallbackRefit@123@PEAVPxBounds3@3@@Z 000000018012ce70     GuRTree.obj
 0002:0000ee80       $chain$6$?refitAllStaticTree@RTree@Gu@physx@@QEAAXAEAUCallbackRefit@123@PEAVPxBounds3@3@@Z 000000018012ce80     GuRTree.obj
 0002:0000ee90       $chain$11$?refitAllStaticTree@RTree@Gu@physx@@QEAAXAEAUCallbackRefit@123@PEAVPxBounds3@3@@Z 000000018012ce90     GuRTree.obj
 0002:0000eeb4       $chain$12$?refitAllStaticTree@RTree@Gu@physx@@QEAAXAEAUCallbackRefit@123@PEAVPxBounds3@3@@Z 000000018012ceb4     GuRTree.obj
 0002:0000eec4       $unwind$?validate@RTree@Gu@physx@@QEAAXPEAUCallbackRefit@123@@Z 000000018012cec4     GuRTree.obj
 0002:0000eed8       $chain$2$?validate@RTree@Gu@physx@@QEAAXPEAUCallbackRefit@123@@Z 000000018012ced8     GuRTree.obj
 0002:0000eef4       $chain$3$?validate@RTree@Gu@physx@@QEAAXPEAUCallbackRefit@123@@Z 000000018012cef4     GuRTree.obj
 0002:0000ef04       $unwind$?validateRecursive@RTree@Gu@physx@@IEAAXIURTreeNodeQ@23@PEAURTreePage@23@PEAUCallbackRefit@123@@Z 000000018012cf04     GuRTree.obj
 0002:0000ef10       $chain$2$?validateRecursive@RTree@Gu@physx@@IEAAXIURTreeNodeQ@23@PEAURTreePage@23@PEAUCallbackRefit@123@@Z 000000018012cf10     GuRTree.obj
 0002:0000ef2c       $chain$3$?validateRecursive@RTree@Gu@physx@@IEAAXIURTreeNodeQ@23@PEAURTreePage@23@PEAUCallbackRefit@123@@Z 000000018012cf2c     GuRTree.obj
 0002:0000ef3c       $unwind$?traverseAABB@RTree@Gu@physx@@QEBAXAEBVPxVec3@3@0IPEAIPEAUCallback@123@@Z 000000018012cf3c     GuRTreeQueries.obj
 0002:0000ef74       $unwind$?traverseOBB@RTree@Gu@physx@@QEBAXAEBVBox@23@IPEAIPEAUCallback@123@@Z 000000018012cf74     GuRTreeQueries.obj
 0002:0000efbc       $unwind$??$traverseRay@$0A@@RTree@Gu@physx@@QEBAXAEBVPxVec3@2@0IPEAIPEAUCallbackRaycast@012@PEBV32@M@Z 000000018012cfbc     GuRTreeQueries.obj
 0002:0000efec       $chain$2$??$traverseRay@$0A@@RTree@Gu@physx@@QEBAXAEBVPxVec3@2@0IPEAIPEAUCallbackRaycast@012@PEBV32@M@Z 000000018012cfec     GuRTreeQueries.obj
 0002:0000f008       $chain$3$??$traverseRay@$0A@@RTree@Gu@physx@@QEBAXAEBVPxVec3@2@0IPEAIPEAUCallbackRaycast@012@PEBV32@M@Z 000000018012d008     GuRTreeQueries.obj
 0002:0000f018       $unwind$??$traverseRay@$00@RTree@Gu@physx@@QEBAXAEBVPxVec3@2@0IPEAIPEAUCallbackRaycast@012@PEBV32@M@Z 000000018012d018     GuRTreeQueries.obj
 0002:0000f048       $chain$2$??$traverseRay@$00@RTree@Gu@physx@@QEBAXAEBVPxVec3@2@0IPEAIPEAUCallbackRaycast@012@PEBV32@M@Z 000000018012d048     GuRTreeQueries.obj
 0002:0000f064       $chain$3$??$traverseRay@$00@RTree@Gu@physx@@QEBAXAEBVPxVec3@2@0IPEAIPEAUCallbackRaycast@012@PEBV32@M@Z 000000018012d064     GuRTreeQueries.obj
 0002:0000f074       $unwind$?processHit@SweepCapsuleMeshHitCallback@Gu@physx@@UEAA_NAEBUPxRaycastHit@3@AEBVPxVec3@3@11AEAMPEBI@Z 000000018012d074     GuSweepsMesh.obj
 0002:0000f0ac       $unwind$?finalizeHit@SweepCapsuleMeshHitCallback@Gu@physx@@QEBA_NAEAUPxSweepHit@3@AEBVCapsule@23@AEBVPxTriangleMeshGeometry@3@AEBVPxTransform@3@_N@Z 000000018012d0ac     GuSweepsMesh.obj
 0002:0000f0c0       $unwind$?processHit@SweepBoxMeshHitCallback@Gu@physx@@UEAA_NAEBUPxRaycastHit@3@AEBVPxVec3@3@11AEAMPEBI@Z 000000018012d0c0     GuSweepsMesh.obj
 0002:0000f0f8       $chain$1$?processHit@SweepBoxMeshHitCallback@Gu@physx@@UEAA_NAEBUPxRaycastHit@3@AEBVPxVec3@3@11AEAMPEBI@Z 000000018012d0f8     GuSweepsMesh.obj
 0002:0000f110       $chain$2$?processHit@SweepBoxMeshHitCallback@Gu@physx@@UEAA_NAEBUPxRaycastHit@3@AEBVPxVec3@3@11AEAMPEBI@Z 000000018012d110     GuSweepsMesh.obj
 0002:0000f120       $unwind$?finalizeHit@SweepBoxMeshHitCallback@Gu@physx@@QEBA_NAEAUPxSweepHit@3@AEBVPxTriangleMeshGeometry@3@AEBVPxTransform@3@2AEBVPxVec3@3@_N4@Z 000000018012d120     GuSweepsMesh.obj
 0002:0000f138       $chain$10$?finalizeHit@SweepBoxMeshHitCallback@Gu@physx@@QEBA_NAEAUPxSweepHit@3@AEBVPxTriangleMeshGeometry@3@AEBVPxTransform@3@2AEBVPxVec3@3@_N4@Z 000000018012d138     GuSweepsMesh.obj
 0002:0000f16c       $chain$11$?finalizeHit@SweepBoxMeshHitCallback@Gu@physx@@QEBA_NAEAUPxSweepHit@3@AEBVPxTriangleMeshGeometry@3@AEBVPxTransform@3@2AEBVPxVec3@3@_N4@Z 000000018012d16c     GuSweepsMesh.obj
 0002:0000f17c       $unwind$??0SweepConvexMeshHitCallback@Gu@physx@@QEAA@AEBUConvexHullData@12@AEBVPxMeshScale@2@AEBVFastVertex2ShapeScaling@Cm@2@AEBVPxTransform@2@3AEBVPxVec3@2@MV?$PxFlags@W4Enum@PxHitFlag@physx@@G@2@_NM6M@Z 000000018012d17c     GuSweepsMesh.obj
 0002:0000f1b4       $unwind$?processHit@SweepConvexMeshHitCallback@Gu@physx@@UEAA_NAEBUPxRaycastHit@3@AEBVPxVec3@3@11AEAMPEBI@Z 000000018012d1b4     GuSweepsMesh.obj
 0002:0000f1ec       $unwind$?finalizeHit@SweepConvexMeshHitCallback@Gu@physx@@QEAA_NAEAUPxSweepHit@3@AEBVPxTriangleMeshGeometry@3@AEBVPxTransform@3@AEBVPxConvexMeshGeometry@3@2AEBVPxVec3@3@M_N555@Z 000000018012d1ec     GuSweepsMesh.obj
 0002:0000f1fc       $chain$2$?finalizeHit@SweepConvexMeshHitCallback@Gu@physx@@QEAA_NAEAUPxSweepHit@3@AEBVPxTriangleMeshGeometry@3@AEBVPxTransform@3@AEBVPxConvexMeshGeometry@3@2AEBVPxVec3@3@M_N555@Z 000000018012d1fc     GuSweepsMesh.obj
 0002:0000f218       $chain$6$?finalizeHit@SweepConvexMeshHitCallback@Gu@physx@@QEAA_NAEAUPxSweepHit@3@AEBVPxTriangleMeshGeometry@3@AEBVPxTransform@3@AEBVPxConvexMeshGeometry@3@2AEBVPxVec3@3@M_N555@Z 000000018012d218     GuSweepsMesh.obj
 0002:0000f238       $chain$9$?finalizeHit@SweepConvexMeshHitCallback@Gu@physx@@QEAA_NAEAUPxSweepHit@3@AEBVPxTriangleMeshGeometry@3@AEBVPxTransform@3@AEBVPxConvexMeshGeometry@3@2AEBVPxVec3@3@M_N555@Z 000000018012d238     GuSweepsMesh.obj
 0002:0000f254       $chain$10$?finalizeHit@SweepConvexMeshHitCallback@Gu@physx@@QEAA_NAEAUPxSweepHit@3@AEBVPxTriangleMeshGeometry@3@AEBVPxTransform@3@AEBVPxConvexMeshGeometry@3@2AEBVPxVec3@3@M_N555@Z 000000018012d254     GuSweepsMesh.obj
 0002:0000f264       $chain$11$?finalizeHit@SweepConvexMeshHitCallback@Gu@physx@@QEAA_NAEAUPxSweepHit@3@AEBVPxTriangleMeshGeometry@3@AEBVPxTransform@3@AEBVPxConvexMeshGeometry@3@2AEBVPxVec3@3@M_N555@Z 000000018012d264     GuSweepsMesh.obj
 0002:0000f274       $unwind$?sweepSphereTriangle@@YA_NAEBVPxTriangle@physx@@AEBVPxVec3@2@M1MAEAUPxSweepHit@2@AEAV32@V?$PxFlags@W4Enum@PxHitFlag@physx@@G@2@_N@Z 000000018012d274     GuSweepsMesh.obj
 0002:0000f2a4       $unwind$?sweepConvex_MeshGeom@@YA_NAEBVPxGeometry@physx@@AEBVPxTransform@2@AEBVPxConvexMeshGeometry@2@1AEBVPxVec3@2@MAEAUPxSweepHit@2@V?$PxFlags@W4Enum@PxHitFlag@physx@@G@2@M@Z 000000018012d2a4     GuSweepsMesh.obj
 0002:0000f2e4       $chain$0$?exportExtraData@TriangleMesh@Gu@physx@@UEAAXAEAVPxSerializationContext@3@@Z 000000018012d2e4     GuTriangleMesh.obj
 0002:0000f2f8       $chain$1$?exportExtraData@TriangleMesh@Gu@physx@@UEAAXAEAVPxSerializationContext@3@@Z 000000018012d2f8     GuTriangleMesh.obj
 0002:0000f308       $chain$0$?onRefCountZero@TriangleMesh@Gu@physx@@UEAAXXZ 000000018012d308     GuTriangleMesh.obj
 0002:0000f31c       $chain$1$?onRefCountZero@TriangleMesh@Gu@physx@@UEAAXXZ 000000018012d31c     GuTriangleMesh.obj
 0002:0000f32c       $chain$1$??1TriangleMesh@Gu@physx@@UEAA@XZ 000000018012d32c     GuTriangleMesh.obj
 0002:0000f344       $chain$2$??1TriangleMesh@Gu@physx@@UEAA@XZ 000000018012d344     GuTriangleMesh.obj
 0002:0000f358       $chain$3$??1TriangleMesh@Gu@physx@@UEAA@XZ 000000018012d358     GuTriangleMesh.obj
 0002:0000f368       $unwind$?refitBVH@TriangleMesh@Gu@physx@@UEAA?AVPxBounds3@3@XZ 000000018012d368     GuTriangleMesh.obj
 0002:0000f380       $unwind$?refitBVH@RTreeTriangleMesh@Gu@physx@@UEAA?AVPxBounds3@3@XZ 000000018012d380     GuTriangleMeshRTree.obj
 0002:0000f398       $chain$0$?refitBVH@RTreeTriangleMesh@Gu@physx@@UEAA?AVPxBounds3@3@XZ 000000018012d398     GuTriangleMeshRTree.obj
 0002:0000f3ac       $chain$1$?refitBVH@RTreeTriangleMesh@Gu@physx@@UEAA?AVPxBounds3@3@XZ 000000018012d3ac     GuTriangleMeshRTree.obj
 0002:0000f3bc       $chain$0$??_GRTreeTriangleMesh@Gu@physx@@UEAAPEAXI@Z 000000018012d3bc     GuTriangleMeshRTree.obj
 0002:0000f3d0       $chain$1$??_GRTreeTriangleMesh@Gu@physx@@UEAAPEAXI@Z 000000018012d3d0     GuTriangleMeshRTree.obj
 0002:0000f3e0       $unwind$?recomputeBounds@?$RefitCallback@G@physx@@UEAAXIAEAT__m128@@0@Z 000000018012d3e0     GuTriangleMeshRTree.obj
 0002:0000f3e0       $unwind$?recomputeBounds@?$RefitCallback@I@physx@@UEAAXIAEAT__m128@@0@Z 000000018012d3e0     GuTriangleMeshRTree.obj
 0002:0000f3fc       $chain$0$?recomputeBounds@?$RefitCallback@G@physx@@UEAAXIAEAT__m128@@0@Z 000000018012d3fc     GuTriangleMeshRTree.obj
 0002:0000f410       $chain$1$?recomputeBounds@?$RefitCallback@G@physx@@UEAAXIAEAT__m128@@0@Z 000000018012d410     GuTriangleMeshRTree.obj
 0002:0000f420       $chain$0$?recomputeBounds@?$RefitCallback@I@physx@@UEAAXIAEAT__m128@@0@Z 000000018012d420     GuTriangleMeshRTree.obj
 0002:0000f434       $chain$1$?recomputeBounds@?$RefitCallback@I@physx@@UEAAXIAEAT__m128@@0@Z 000000018012d434     GuTriangleMeshRTree.obj
 0002:0000f444       $unwind$?load@BV32Tree@Gu@physx@@QEAA_NAEAVPxInputStream@3@_N@Z 000000018012d444     GuBV32.obj
 0002:0000f454       $chain$0$?load@BV32Tree@Gu@physx@@QEAA_NAEAVPxInputStream@3@_N@Z 000000018012d454     GuBV32.obj
 0002:0000f468       $chain$1$?load@BV32Tree@Gu@physx@@QEAA_NAEAVPxInputStream@3@_N@Z 000000018012d468     GuBV32.obj
 0002:0000f47c       $chain$2$?load@BV32Tree@Gu@physx@@QEAA_NAEAVPxInputStream@3@_N@Z 000000018012d47c     GuBV32.obj
 0002:0000f490       $chain$3$?load@BV32Tree@Gu@physx@@QEAA_NAEAVPxInputStream@3@_N@Z 000000018012d490     GuBV32.obj
 0002:0000f4a0       $chain$4$?load@BV32Tree@Gu@physx@@QEAA_NAEAVPxInputStream@3@_N@Z 000000018012d4a0     GuBV32.obj
 0002:0000f4b0       $chain$5$?load@BV32Tree@Gu@physx@@QEAA_NAEAVPxInputStream@3@_N@Z 000000018012d4b0     GuBV32.obj
 0002:0000f4c0       $unwind$?calculateLeafNode@BV32Tree@Gu@physx@@QEAAXAEAUBV32Data@23@@Z 000000018012d4c0     GuBV32.obj
 0002:0000f4c8       $chain$3$?calculateLeafNode@BV32Tree@Gu@physx@@QEAAXAEAUBV32Data@23@@Z 000000018012d4c8     GuBV32.obj
 0002:0000f4e8       $chain$9$?calculateLeafNode@BV32Tree@Gu@physx@@QEAAXAEAUBV32Data@23@@Z 000000018012d4e8     GuBV32.obj
 0002:0000f510       $chain$10$?calculateLeafNode@BV32Tree@Gu@physx@@QEAAXAEAUBV32Data@23@@Z 000000018012d510     GuBV32.obj
 0002:0000f520       $chain$11$?calculateLeafNode@BV32Tree@Gu@physx@@QEAAXAEAUBV32Data@23@@Z 000000018012d520     GuBV32.obj
 0002:0000f530       $unwind$?createSOAformatNode@BV32Tree@Gu@physx@@QEAAXAEAUBV32DataPacked@23@AEBUBV32Data@23@IAEAI2@Z 000000018012d530     GuBV32.obj
 0002:0000f550       $chain$0$?release@BV32Tree@Gu@physx@@QEAAXXZ 000000018012d550     GuBV32.obj
 0002:0000f564       $chain$1$?release@BV32Tree@Gu@physx@@QEAAXXZ 000000018012d564     GuBV32.obj
 0002:0000f574       $unwind$?BuildBV32Ex@Gu@physx@@YA_NAEAVBV32Tree@12@AEAVSourceMesh@12@MI@Z 000000018012d574     GuBV32Build.obj
 0002:0000f590       $unwind$?setNode@@YAPEAUBV32Node@@AEBVAABBTree@Gu@physx@@PEAU1@IPEBVAABBTreeNode@34@M@Z 000000018012d590     GuBV32Build.obj
 0002:0000f59c       $chain$0$?setNode@@YAPEAUBV32Node@@AEBVAABBTree@Gu@physx@@PEAU1@IPEBVAABBTreeNode@34@M@Z 000000018012d59c     GuBV32Build.obj
 0002:0000f5b0       $chain$1$?setNode@@YAPEAUBV32Node@@AEBVAABBTree@Gu@physx@@PEAU1@IPEBVAABBTreeNode@34@M@Z 000000018012d5b0     GuBV32Build.obj
 0002:0000f5c4       $chain$2$?setNode@@YAPEAUBV32Node@@AEBVAABBTree@Gu@physx@@PEAU1@IPEBVAABBTreeNode@34@M@Z 000000018012d5c4     GuBV32Build.obj
 0002:0000f5d4       $chain$3$?setNode@@YAPEAUBV32Node@@AEBVAABBTree@Gu@physx@@PEAU1@IPEBVAABBTreeNode@34@M@Z 000000018012d5d4     GuBV32Build.obj
 0002:0000f5e4       $unwind$?_BuildBV32@@YAXAEBVAABBTree@Gu@physx@@PEAUBV32Node@@PEBVAABBTreeNode@23@MAEAI@Z 000000018012d5e4     GuBV32Build.obj
 0002:0000f600       $chain$0$?_BuildBV32@@YAXAEBVAABBTree@Gu@physx@@PEAUBV32Node@@PEBVAABBTreeNode@23@MAEAI@Z 000000018012d600     GuBV32Build.obj
 0002:0000f614       $chain$1$?_BuildBV32@@YAXAEBVAABBTree@Gu@physx@@PEAUBV32Node@@PEBVAABBTreeNode@23@MAEAI@Z 000000018012d614     GuBV32Build.obj
 0002:0000f624       $unwind$?BuildBV32Internal@@YA_NAEAVBV32Tree@Gu@physx@@AEBVAABBTree@23@PEAVSourceMesh@23@M@Z 000000018012d624     GuBV32Build.obj
 0002:0000f638       $chain$1$?BuildBV32Internal@@YA_NAEAVBV32Tree@Gu@physx@@AEBVAABBTree@23@PEAVSourceMesh@23@M@Z 000000018012d638     GuBV32Build.obj
 0002:0000f650       $chain$2$?BuildBV32Internal@@YA_NAEAVBV32Tree@Gu@physx@@AEBVAABBTree@23@PEAVSourceMesh@23@M@Z 000000018012d650     GuBV32Build.obj
 0002:0000f664       $chain$3$?BuildBV32Internal@@YA_NAEAVBV32Tree@Gu@physx@@AEBVAABBTree@23@PEAVSourceMesh@23@M@Z 000000018012d664     GuBV32Build.obj
 0002:0000f678       $chain$4$?BuildBV32Internal@@YA_NAEAVBV32Tree@Gu@physx@@AEBVAABBTree@23@PEAVSourceMesh@23@M@Z 000000018012d678     GuBV32Build.obj
 0002:0000f688       $chain$5$?BuildBV32Internal@@YA_NAEAVBV32Tree@Gu@physx@@AEBVAABBTree@23@PEAVSourceMesh@23@M@Z 000000018012d688     GuBV32Build.obj
 0002:0000f698       $unwind$?_Flatten@Local@?8??BuildBV32Internal@@YA_NAEAVBV32Tree@Gu@physx@@AEBVAABBTree@45@PEAVSourceMesh@45@M@Z@SAXQEAUBV32Data@45@IAEAIPEBUBV32Node@@44I@Z 000000018012d698     GuBV32Build.obj
 0002:0000f6b4       $chain$0$?_Flatten@Local@?8??BuildBV32Internal@@YA_NAEAVBV32Tree@Gu@physx@@AEBVAABBTree@45@PEAVSourceMesh@45@M@Z@SAXQEAUBV32Data@45@IAEAIPEBUBV32Node@@44I@Z 000000018012d6b4     GuBV32Build.obj
 0002:0000f6c8       $chain$1$?_Flatten@Local@?8??BuildBV32Internal@@YA_NAEAVBV32Tree@Gu@physx@@AEBVAABBTree@45@PEAVSourceMesh@45@M@Z@SAXQEAUBV32Data@45@IAEAIPEBUBV32Node@@44I@Z 000000018012d6c8     GuBV32Build.obj
 0002:0000f6d8       $unwind$?pcmContactBoxBox@Gu@physx@@YA_NAEBVGeometryUnion@12@0AEBVPxTransform@2@1AEBUNarrowPhaseParams@12@AEAUCache@12@AEAVContactBuffer@12@PEAVRenderOutput@Cm@2@@Z 000000018012d6d8     GuPCMContactBoxBox.obj
 0002:0000f710       $chain$2$?pcmContactBoxBox@Gu@physx@@YA_NAEBVGeometryUnion@12@0AEBVPxTransform@2@1AEBUNarrowPhaseParams@12@AEAUCache@12@AEAVContactBuffer@12@PEAVRenderOutput@Cm@2@@Z 000000018012d710     GuPCMContactBoxBox.obj
 0002:0000f72c       $chain$3$?pcmContactBoxBox@Gu@physx@@YA_NAEBVGeometryUnion@12@0AEBVPxTransform@2@1AEBUNarrowPhaseParams@12@AEAUCache@12@AEAVContactBuffer@12@PEAVRenderOutput@Cm@2@@Z 000000018012d72c     GuPCMContactBoxBox.obj
 0002:0000f740       $chain$4$?pcmContactBoxBox@Gu@physx@@YA_NAEBVGeometryUnion@12@0AEBVPxTransform@2@1AEBUNarrowPhaseParams@12@AEAUCache@12@AEAVContactBuffer@12@PEAVRenderOutput@Cm@2@@Z 000000018012d740     GuPCMContactBoxBox.obj
 0002:0000f750       $unwind$?getIncidentPolygon@Gu@physx@@YAXPEAT__m128@@AEAT3@AEBT3@AEBVPsMatTransformV@aos@shdfnd@2@2@Z 000000018012d750     GuPCMContactBoxBox.obj
 0002:0000f778       $unwind$?calculateContacts@Gu@physx@@YAXAEBT__m128@@0PEAT3@00PEAVPersistentContact@12@AEAI0@Z 000000018012d778     GuPCMContactBoxBox.obj
 0002:0000f7a0       $chain$3$?calculateContacts@Gu@physx@@YAXAEBT__m128@@0PEAT3@00PEAVPersistentContact@12@AEAI0@Z 000000018012d7a0     GuPCMContactBoxBox.obj
 0002:0000f7c0       $chain$5$?calculateContacts@Gu@physx@@YAXAEBT__m128@@0PEAT3@00PEAVPersistentContact@12@AEAI0@Z 000000018012d7c0     GuPCMContactBoxBox.obj
 0002:0000f7d8       $chain$6$?calculateContacts@Gu@physx@@YAXAEBT__m128@@0PEAT3@00PEAVPersistentContact@12@AEAI0@Z 000000018012d7d8     GuPCMContactBoxBox.obj
 0002:0000f7ec       $chain$7$?calculateContacts@Gu@physx@@YAXAEBT__m128@@0PEAT3@00PEAVPersistentContact@12@AEAI0@Z 000000018012d7ec     GuPCMContactBoxBox.obj
 0002:0000f7fc       $chain$8$?calculateContacts@Gu@physx@@YAXAEBT__m128@@0PEAT3@00PEAVPersistentContact@12@AEAI0@Z 000000018012d7fc     GuPCMContactBoxBox.obj
 0002:0000f80c       $chain$9$?calculateContacts@Gu@physx@@YAXAEBT__m128@@0PEAT3@00PEAVPersistentContact@12@AEAI0@Z 000000018012d80c     GuPCMContactBoxBox.obj
 0002:0000f81c       $unwind$?doBoxBoxGenerateContacts@Gu@physx@@YAIAEBT__m128@@0AEBVPsMatTransformV@aos@shdfnd@2@10PEAVPersistentContact@12@AEAI@Z 000000018012d81c     GuPCMContactBoxBox.obj
 0002:0000f864       $unwind$?pcmContactBoxConvex@Gu@physx@@YA_NAEBVGeometryUnion@12@0AEBVPxTransform@2@1AEBUNarrowPhaseParams@12@AEAUCache@12@AEAVContactBuffer@12@PEAVRenderOutput@Cm@2@@Z 000000018012d864     GuPCMContactBoxConvex.obj
 0002:0000f8a8       $unwind$?fullContactsGenerationBoxConvex@Gu@physx@@YA_NPEBUGjkConvex@12@0AEBVPsTransformV@aos@shdfnd@2@1PEAVPersistentContact@12@AEAVContactBuffer@12@AEAVPersistentContactManifold@12@AEAT__m128@@AEBT__m128@@66_N7PEAVRenderOutput@Cm@2@M@Z 000000018012d8a8     GuPCMContactBoxConvex.obj
 0002:0000f8c8       $unwind$?generateOrProcessContactsBoxConvex@Gu@physx@@YA_NPEBUGjkConvex@12@0AEBVPsTransformV@aos@shdfnd@2@1AEBVPsMatTransformV@562@W4GjkStatus@12@AEAUGjkOutput@12@AEAVPersistentContactManifold@12@AEAVContactBuffer@12@IT__m128@@7_NMPEAVRenderOutput@Cm@2@@Z 000000018012d8c8     GuPCMContactBoxConvex.obj
 0002:0000f8c8       $unwind$?generateOrProcessContactsConvexConvex@Gu@physx@@YA_NPEBUGjkConvex@12@0AEBVPsTransformV@aos@shdfnd@2@1AEBVPsMatTransformV@562@W4GjkStatus@12@AEAUGjkOutput@12@AEAVPersistentContactManifold@12@AEAVContactBuffer@12@IT__m128@@7_N8MPEAVRenderOutput@Cm@2@@Z 000000018012d8c8     GuPCMContactConvexConvex.obj
 0002:0000f8dc       $chain$5$?generateOrProcessContactsBoxConvex@Gu@physx@@YA_NPEBUGjkConvex@12@0AEBVPsTransformV@aos@shdfnd@2@1AEBVPsMatTransformV@562@W4GjkStatus@12@AEAUGjkOutput@12@AEAVPersistentContactManifold@12@AEAVContactBuffer@12@IT__m128@@7_NMPEAVRenderOutput@Cm@2@@Z 000000018012d8dc     GuPCMContactBoxConvex.obj
 0002:0000f904       $chain$6$?generateOrProcessContactsBoxConvex@Gu@physx@@YA_NPEBUGjkConvex@12@0AEBVPsTransformV@aos@shdfnd@2@1AEBVPsMatTransformV@562@W4GjkStatus@12@AEAUGjkOutput@12@AEAVPersistentContactManifold@12@AEAVContactBuffer@12@IT__m128@@7_NMPEAVRenderOutput@Cm@2@@Z 000000018012d904     GuPCMContactBoxConvex.obj
 0002:0000f914       $unwind$??$gjkPenetration@U?$RelativeConvex@VBoxV@Gu@physx@@@Gu@physx@@U?$LocalConvex@VConvexHullNoScaleV@Gu@physx@@@23@@Gu@physx@@YA?AW4GjkStatus@01@AEBU?$RelativeConvex@VBoxV@Gu@physx@@@01@AEBU?$LocalConvex@VConvexHullNoScaleV@Gu@physx@@@01@AEBT__m128@@2_NPEIAE4AEAEAEAUGjkOutput@01@@Z 000000018012d914     GuPCMContactBoxConvex.obj
 0002:0000f958       $unwind$?pcmContactCapsuleBox@Gu@physx@@YA_NAEBVGeometryUnion@12@0AEBVPxTransform@2@1AEBUNarrowPhaseParams@12@AEAUCache@12@AEAVContactBuffer@12@PEAVRenderOutput@Cm@2@@Z 000000018012d958     GuPCMContactCapsuleBox.obj
 0002:0000f994       $chain$0$?pcmContactCapsuleBox@Gu@physx@@YA_NAEBVGeometryUnion@12@0AEBVPxTransform@2@1AEBUNarrowPhaseParams@12@AEAUCache@12@AEAVContactBuffer@12@PEAVRenderOutput@Cm@2@@Z 000000018012d994     GuPCMContactCapsuleBox.obj
 0002:0000f9a8       $chain$1$?pcmContactCapsuleBox@Gu@physx@@YA_NAEBVGeometryUnion@12@0AEBVPxTransform@2@1AEBUNarrowPhaseParams@12@AEAUCache@12@AEAVContactBuffer@12@PEAVRenderOutput@Cm@2@@Z 000000018012d9a8     GuPCMContactCapsuleBox.obj
 0002:0000f9b8       $chain$3$?pcmContactCapsuleBox@Gu@physx@@YA_NAEBVGeometryUnion@12@0AEBVPxTransform@2@1AEBUNarrowPhaseParams@12@AEAUCache@12@AEAVContactBuffer@12@PEAVRenderOutput@Cm@2@@Z 000000018012d9b8     GuPCMContactCapsuleBox.obj
 0002:0000f9d0       $chain$4$?pcmContactCapsuleBox@Gu@physx@@YA_NAEBVGeometryUnion@12@0AEBVPxTransform@2@1AEBUNarrowPhaseParams@12@AEAUCache@12@AEAVContactBuffer@12@PEAVRenderOutput@Cm@2@@Z 000000018012d9d0     GuPCMContactCapsuleBox.obj
 0002:0000f9e0       $unwind$?pcmContactCapsuleCapsule@Gu@physx@@YA_NAEBVGeometryUnion@12@0AEBVPxTransform@2@1AEBUNarrowPhaseParams@12@AEAUCache@12@AEAVContactBuffer@12@PEAVRenderOutput@Cm@2@@Z 000000018012d9e0     GuPCMContactCapsuleCapsule.obj
 0002:0000fa14       $unwind$?pcmContactCapsuleConvex@Gu@physx@@YA_NAEBVGeometryUnion@12@0AEBVPxTransform@2@1AEBUNarrowPhaseParams@12@AEAUCache@12@AEAVContactBuffer@12@PEAVRenderOutput@Cm@2@@Z 000000018012da14     GuPCMContactCapsuleConvex.obj
 0002:0000fa4c       $chain$2$?pcmContactCapsuleConvex@Gu@physx@@YA_NAEBVGeometryUnion@12@0AEBVPxTransform@2@1AEBUNarrowPhaseParams@12@AEAUCache@12@AEAVContactBuffer@12@PEAVRenderOutput@Cm@2@@Z 000000018012da4c     GuPCMContactCapsuleConvex.obj
 0002:0000fa68       $chain$3$?pcmContactCapsuleConvex@Gu@physx@@YA_NAEBVGeometryUnion@12@0AEBVPxTransform@2@1AEBUNarrowPhaseParams@12@AEAUCache@12@AEAVContactBuffer@12@PEAVRenderOutput@Cm@2@@Z 000000018012da68     GuPCMContactCapsuleConvex.obj
 0002:0000fa7c       $chain$4$?pcmContactCapsuleConvex@Gu@physx@@YA_NAEBVGeometryUnion@12@0AEBVPxTransform@2@1AEBUNarrowPhaseParams@12@AEAUCache@12@AEAVContactBuffer@12@PEAVRenderOutput@Cm@2@@Z 000000018012da7c     GuPCMContactCapsuleConvex.obj
 0002:0000fa8c       $unwind$?fullContactsGenerationCapsuleConvex@Gu@physx@@YA_NAEBVCapsuleV@12@AEBVConvexHullV@12@AEBVPsMatTransformV@aos@shdfnd@2@AEBVPsTransformV@672@3PEAVPersistentContact@12@AEAVContactBuffer@12@_NAEAVPersistentContactManifold@12@AEAT__m128@@AEBT__m128@@M96PEAVRenderOutput@Cm@2@M@Z 000000018012da8c     GuPCMContactCapsuleConvex.obj
 0002:0000faa8       $chain$0$?fullContactsGenerationCapsuleConvex@Gu@physx@@YA_NAEBVCapsuleV@12@AEBVConvexHullV@12@AEBVPsMatTransformV@aos@shdfnd@2@AEBVPsTransformV@672@3PEAVPersistentContact@12@AEAVContactBuffer@12@_NAEAVPersistentContactManifold@12@AEAT__m128@@AEBT__m128@@M96PEAVRenderOutput@Cm@2@M@Z 000000018012daa8     GuPCMContactCapsuleConvex.obj
 0002:0000fabc       $chain$1$?fullContactsGenerationCapsuleConvex@Gu@physx@@YA_NAEBVCapsuleV@12@AEBVConvexHullV@12@AEBVPsMatTransformV@aos@shdfnd@2@AEBVPsTransformV@672@3PEAVPersistentContact@12@AEAVContactBuffer@12@_NAEAVPersistentContactManifold@12@AEAT__m128@@AEBT__m128@@M96PEAVRenderOutput@Cm@2@M@Z 000000018012dabc     GuPCMContactCapsuleConvex.obj
 0002:0000facc       $chain$2$?fullContactsGenerationCapsuleConvex@Gu@physx@@YA_NAEBVCapsuleV@12@AEBVConvexHullV@12@AEBVPsMatTransformV@aos@shdfnd@2@AEBVPsTransformV@672@3PEAVPersistentContact@12@AEAVContactBuffer@12@_NAEAVPersistentContactManifold@12@AEAT__m128@@AEBT__m128@@M96PEAVRenderOutput@Cm@2@M@Z 000000018012dacc     GuPCMContactCapsuleConvex.obj
 0002:0000fae0       $chain$3$?fullContactsGenerationCapsuleConvex@Gu@physx@@YA_NAEBVCapsuleV@12@AEBVConvexHullV@12@AEBVPsMatTransformV@aos@shdfnd@2@AEBVPsTransformV@672@3PEAVPersistentContact@12@AEAVContactBuffer@12@_NAEAVPersistentContactManifold@12@AEAT__m128@@AEBT__m128@@M96PEAVRenderOutput@Cm@2@M@Z 000000018012dae0     GuPCMContactCapsuleConvex.obj
 0002:0000faf0       $unwind$??$gjkPenetration@U?$LocalConvex@VCapsuleV@Gu@physx@@@Gu@physx@@U?$LocalConvex@VConvexHullNoScaleV@Gu@physx@@@23@@Gu@physx@@YA?AW4GjkStatus@01@AEBU?$LocalConvex@VCapsuleV@Gu@physx@@@01@AEBU?$LocalConvex@VConvexHullNoScaleV@Gu@physx@@@01@AEBT__m128@@2_NPEIAE4AEAEAEAUGjkOutput@01@@Z 000000018012daf0     GuPCMContactCapsuleConvex.obj
 0002:0000fb34       $unwind$?pcmContactCapsuleHeightField@Gu@physx@@YA_NAEBVGeometryUnion@12@0AEBVPxTransform@2@1AEBUNarrowPhaseParams@12@AEAUCache@12@AEAVContactBuffer@12@PEAVRenderOutput@Cm@2@@Z 000000018012db34     GuPCMContactCapsuleHeightField.obj
 0002:0000fb7c       $unwind$??0PCMMeshContactGeneration@Gu@physx@@QEAA@AEBT__m128@@0AEBVPsTransformV@aos@shdfnd@2@1AEAVMultiplePersistentContactManifold@12@AEAVContactBuffer@12@PEAV?$InlineArray@I$0EEA@VNamedAllocator@shdfnd@physx@@@62@PEAVRenderOutput@Cm@2@@Z 000000018012db7c     GuPCMContactCapsuleHeightField.obj
 0002:0000fbbc       $unwind$?onEvent@?$PCMHeightfieldContactGenerationCallback@UPCMCapsuleVsHeightfieldContactGenerationCallback@physx@@@Gu@physx@@UEAA_NIPEAI@Z 000000018012dbbc     GuPCMContactCapsuleHeightField.obj
 0002:0000fbbc       $unwind$?onEvent@?$PCMHeightfieldContactGenerationCallback@UPCMConvexVsHeightfieldContactGenerationCallback@physx@@@Gu@physx@@UEAA_NIPEAI@Z 000000018012dbbc     GuPCMContactConvexHeightField.obj
 0002:0000fbbc       $unwind$?onEvent@?$PCMHeightfieldContactGenerationCallback@UPCMSphereVsHeightfieldContactGenerationCallback@physx@@@Gu@physx@@UEAA_NIPEAI@Z 000000018012dbbc     GuPCMContactSphereHeightField.obj
 0002:0000fbc8       $chain$15$?onEvent@?$PCMHeightfieldContactGenerationCallback@UPCMCapsuleVsHeightfieldContactGenerationCallback@physx@@@Gu@physx@@UEAA_NIPEAI@Z 000000018012dbc8     GuPCMContactCapsuleHeightField.obj
 0002:0000fc18       $chain$16$?onEvent@?$PCMHeightfieldContactGenerationCallback@UPCMCapsuleVsHeightfieldContactGenerationCallback@physx@@@Gu@physx@@UEAA_NIPEAI@Z 000000018012dc18     GuPCMContactCapsuleHeightField.obj
 0002:0000fc28       $unwind$?pcmContactCapsuleMesh@Gu@physx@@YA_NAEBVGeometryUnion@12@0AEBVPxTransform@2@1AEBUNarrowPhaseParams@12@AEAUCache@12@AEAVContactBuffer@12@PEAVRenderOutput@Cm@2@@Z 000000018012dc28     GuPCMContactCapsuleMesh.obj
 0002:0000fc68       $unwind$?processHit@?$PCMMeshContactGenerationCallback@UPCMCapsuleVsMeshContactGenerationCallback@physx@@@Gu@physx@@UEAA_NAEBUPxRaycastHit@3@AEBVPxVec3@3@11AEAMPEBI@Z 000000018012dc68     GuPCMContactCapsuleMesh.obj
 0002:0000fc68       $unwind$?processHit@?$PCMMeshContactGenerationCallback@UPCMSphereVsMeshContactGenerationCallback@physx@@@Gu@physx@@UEAA_NAEBUPxRaycastHit@3@AEBVPxVec3@3@11AEAMPEBI@Z 000000018012dc68     GuPCMContactSphereMesh.obj
 0002:0000fca4       $chain$0$?processHit@?$PCMMeshContactGenerationCallback@UPCMCapsuleVsMeshContactGenerationCallback@physx@@@Gu@physx@@UEAA_NAEBUPxRaycastHit@3@AEBVPxVec3@3@11AEAMPEBI@Z 000000018012dca4     GuPCMContactCapsuleMesh.obj
 0002:0000fcb8       $chain$1$?processHit@?$PCMMeshContactGenerationCallback@UPCMCapsuleVsMeshContactGenerationCallback@physx@@@Gu@physx@@UEAA_NAEBUPxRaycastHit@3@AEBVPxVec3@3@11AEAMPEBI@Z 000000018012dcb8     GuPCMContactCapsuleMesh.obj
 0002:0000fcc8       $unwind$??$processTriangleCache@$0BA@@PCMCapsuleVsMeshContactGenerationCallback@physx@@QEAAXAEAU?$TriangleCache@$0BA@@Gu@1@@Z 000000018012dcc8     GuPCMContactCapsuleMesh.obj
 0002:0000fcc8       $unwind$??$processTriangleCache@$0BA@@PCMConvexVsMeshContactGenerationCallback@physx@@QEAAXAEAU?$TriangleCache@$0BA@@Gu@1@@Z 000000018012dcc8     GuPCMContactConvexMesh.obj
 0002:0000fcc8       $unwind$??$processTriangleCache@$0BA@@PCMSphereVsMeshContactGenerationCallback@physx@@QEAAXAEAU?$TriangleCache@$0BA@@Gu@1@@Z 000000018012dcc8     GuPCMContactSphereMesh.obj
 0002:0000fcdc       $chain$0$??$processTriangleCache@$0BA@@PCMCapsuleVsMeshContactGenerationCallback@physx@@QEAAXAEAU?$TriangleCache@$0BA@@Gu@1@@Z 000000018012dcdc     GuPCMContactCapsuleMesh.obj
 0002:0000fcf0       $chain$1$??$processTriangleCache@$0BA@@PCMCapsuleVsMeshContactGenerationCallback@physx@@QEAAXAEAU?$TriangleCache@$0BA@@Gu@1@@Z 000000018012dcf0     GuPCMContactCapsuleMesh.obj
 0002:0000fd00       $unwind$?generateLastContacts@PCMConvexVsMeshContactGeneration@Gu@physx@@QEAAXXZ 000000018012dd00     GuPCMContactConvexCommon.obj
 0002:0000fd0c       $chain$8$?generateLastContacts@PCMConvexVsMeshContactGeneration@Gu@physx@@QEAAXXZ 000000018012dd0c     GuPCMContactConvexCommon.obj
 0002:0000fd40       $chain$9$?generateLastContacts@PCMConvexVsMeshContactGeneration@Gu@physx@@QEAAXXZ 000000018012dd40     GuPCMContactConvexCommon.obj
 0002:0000fd50       $chain$10$?generateLastContacts@PCMConvexVsMeshContactGeneration@Gu@physx@@QEAAXXZ 000000018012dd50     GuPCMContactConvexCommon.obj
 0002:0000fd84       $unwind$?addContactsToPatch@PCMConvexVsMeshContactGeneration@Gu@physx@@QEAAXAEBT__m128@@I@Z 000000018012dd84     GuPCMContactConvexCommon.obj
 0002:0000fd94       $chain$1$?addContactsToPatch@PCMConvexVsMeshContactGeneration@Gu@physx@@QEAAXAEBT__m128@@I@Z 000000018012dd94     GuPCMContactConvexCommon.obj
 0002:0000fdac       $chain$4$?addContactsToPatch@PCMConvexVsMeshContactGeneration@Gu@physx@@QEAAXAEBT__m128@@I@Z 000000018012ddac     GuPCMContactConvexCommon.obj
 0002:0000fdc8       $chain$7$?addContactsToPatch@PCMConvexVsMeshContactGeneration@Gu@physx@@QEAAXAEBT__m128@@I@Z 000000018012ddc8     GuPCMContactConvexCommon.obj
 0002:0000fde4       $chain$9$?addContactsToPatch@PCMConvexVsMeshContactGeneration@Gu@physx@@QEAAXAEBT__m128@@I@Z 000000018012dde4     GuPCMContactConvexCommon.obj
 0002:0000fdf8       $chain$10$?addContactsToPatch@PCMConvexVsMeshContactGeneration@Gu@physx@@QEAAXAEBT__m128@@I@Z 000000018012ddf8     GuPCMContactConvexCommon.obj
 0002:0000fe14       $chain$11$?addContactsToPatch@PCMConvexVsMeshContactGeneration@Gu@physx@@QEAAXAEBT__m128@@I@Z 000000018012de14     GuPCMContactConvexCommon.obj
 0002:0000fe30       $chain$12$?addContactsToPatch@PCMConvexVsMeshContactGeneration@Gu@physx@@QEAAXAEBT__m128@@I@Z 000000018012de30     GuPCMContactConvexCommon.obj
 0002:0000fe44       $chain$13$?addContactsToPatch@PCMConvexVsMeshContactGeneration@Gu@physx@@QEAAXAEBT__m128@@I@Z 000000018012de44     GuPCMContactConvexCommon.obj
 0002:0000fe58       $chain$14$?addContactsToPatch@PCMConvexVsMeshContactGeneration@Gu@physx@@QEAAXAEBT__m128@@I@Z 000000018012de58     GuPCMContactConvexCommon.obj
 0002:0000fe68       $chain$15$?addContactsToPatch@PCMConvexVsMeshContactGeneration@Gu@physx@@QEAAXAEBT__m128@@I@Z 000000018012de68     GuPCMContactConvexCommon.obj
 0002:0000fe78       $unwind$?processTriangle@PCMConvexVsMeshContactGeneration@Gu@physx@@QEAA_NPEBVPxVec3@3@IEPEBI@Z 000000018012de78     GuPCMContactConvexCommon.obj
 0002:0000fe8c       $chain$1$?processTriangle@PCMConvexVsMeshContactGeneration@Gu@physx@@QEAA_NPEBVPxVec3@3@IEPEBI@Z 000000018012de8c     GuPCMContactConvexCommon.obj
 0002:0000fea4       $chain$2$?processTriangle@PCMConvexVsMeshContactGeneration@Gu@physx@@QEAA_NPEBVPxVec3@3@IEPEBI@Z 000000018012dea4     GuPCMContactConvexCommon.obj
 0002:0000feb8       $chain$3$?processTriangle@PCMConvexVsMeshContactGeneration@Gu@physx@@QEAA_NPEBVPxVec3@3@IEPEBI@Z 000000018012deb8     GuPCMContactConvexCommon.obj
 0002:0000fec8       $chain$4$?processTriangle@PCMConvexVsMeshContactGeneration@Gu@physx@@QEAA_NPEBVPxVec3@3@IEPEBI@Z 000000018012dec8     GuPCMContactConvexCommon.obj
 0002:0000fedc       $chain$5$?processTriangle@PCMConvexVsMeshContactGeneration@Gu@physx@@QEAA_NPEBVPxVec3@3@IEPEBI@Z 000000018012dedc     GuPCMContactConvexCommon.obj
 0002:0000fef0       $chain$6$?processTriangle@PCMConvexVsMeshContactGeneration@Gu@physx@@QEAA_NPEBVPxVec3@3@IEPEBI@Z 000000018012def0     GuPCMContactConvexCommon.obj
 0002:0000ff00       $chain$7$?processTriangle@PCMConvexVsMeshContactGeneration@Gu@physx@@QEAA_NPEBVPxVec3@3@IEPEBI@Z 000000018012df00     GuPCMContactConvexCommon.obj
 0002:0000ff10       $chain$8$?processTriangle@PCMConvexVsMeshContactGeneration@Gu@physx@@QEAA_NPEBVPxVec3@3@IEPEBI@Z 000000018012df10     GuPCMContactConvexCommon.obj
 0002:0000ff20       $unwind$?processTriangle@PCMConvexVsMeshContactGeneration@Gu@physx@@SA_NAEBUPolygonalData@23@PEAVSupportLocal@23@PEBVPxVec3@3@IEAEBT__m128@@_NAEBVPsTransformV@aos@shdfnd@3@AEBVPsMatTransformV@9shdfnd@3@PEAVMeshPersistentContact@23@AEAI@Z 000000018012df20     GuPCMContactConvexCommon.obj
 0002:0000ff38       $unwind$?processTriangle@PCMSphereVsMeshContactGeneration@Gu@physx@@QEAA_NPEBVPxVec3@3@IEPEBI@Z 000000018012df38     GuPCMContactConvexCommon.obj
 0002:0000ff54       $chain$0$?processTriangle@PCMSphereVsMeshContactGeneration@Gu@physx@@QEAA_NPEBVPxVec3@3@IEPEBI@Z 000000018012df54     GuPCMContactConvexCommon.obj
 0002:0000ff68       $chain$4$?processTriangle@PCMSphereVsMeshContactGeneration@Gu@physx@@QEAA_NPEBVPxVec3@3@IEPEBI@Z 000000018012df68     GuPCMContactConvexCommon.obj
 0002:0000ff88       $chain$5$?processTriangle@PCMSphereVsMeshContactGeneration@Gu@physx@@QEAA_NPEBVPxVec3@3@IEPEBI@Z 000000018012df88     GuPCMContactConvexCommon.obj
 0002:0000ff9c       $chain$6$?processTriangle@PCMSphereVsMeshContactGeneration@Gu@physx@@QEAA_NPEBVPxVec3@3@IEPEBI@Z 000000018012df9c     GuPCMContactConvexCommon.obj
 0002:0000ffac       $chain$7$?processTriangle@PCMSphereVsMeshContactGeneration@Gu@physx@@QEAA_NPEBVPxVec3@3@IEPEBI@Z 000000018012dfac     GuPCMContactConvexCommon.obj
 0002:0000ffbc       $chain$8$?processTriangle@PCMSphereVsMeshContactGeneration@Gu@physx@@QEAA_NPEBVPxVec3@3@IEPEBI@Z 000000018012dfbc     GuPCMContactConvexCommon.obj
 0002:0000ffcc       $unwind$?generateLastContacts@PCMSphereVsMeshContactGeneration@Gu@physx@@QEAAXXZ 000000018012dfcc     GuPCMContactConvexCommon.obj
 0002:0000ffd8       $chain$1$?generateLastContacts@PCMSphereVsMeshContactGeneration@Gu@physx@@QEAAXXZ 000000018012dfd8     GuPCMContactConvexCommon.obj
 0002:0000fff0       $chain$4$?generateLastContacts@PCMSphereVsMeshContactGeneration@Gu@physx@@QEAAXXZ 000000018012dff0     GuPCMContactConvexCommon.obj
 0002:0001000c       $chain$5$?generateLastContacts@PCMSphereVsMeshContactGeneration@Gu@physx@@QEAAXXZ 000000018012e00c     GuPCMContactConvexCommon.obj
 0002:0001001c       $chain$6$?generateLastContacts@PCMSphereVsMeshContactGeneration@Gu@physx@@QEAAXXZ 000000018012e01c     GuPCMContactConvexCommon.obj
 0002:0001002c       $unwind$?addToPatch@PCMSphereVsMeshContactGeneration@Gu@physx@@QEAAXAEBT__m128@@0T4@I@Z 000000018012e02c     GuPCMContactConvexCommon.obj
 0002:00010038       $chain$3$?addToPatch@PCMSphereVsMeshContactGeneration@Gu@physx@@QEAAXAEBT__m128@@0T4@I@Z 000000018012e038     GuPCMContactConvexCommon.obj
 0002:00010058       $chain$5$?addToPatch@PCMSphereVsMeshContactGeneration@Gu@physx@@QEAAXAEBT__m128@@0T4@I@Z 000000018012e058     GuPCMContactConvexCommon.obj
 0002:00010070       $chain$6$?addToPatch@PCMSphereVsMeshContactGeneration@Gu@physx@@QEAAXAEBT__m128@@0T4@I@Z 000000018012e070     GuPCMContactConvexCommon.obj
 0002:00010080       $chain$7$?addToPatch@PCMSphereVsMeshContactGeneration@Gu@physx@@QEAAXAEBT__m128@@0T4@I@Z 000000018012e080     GuPCMContactConvexCommon.obj
 0002:00010090       $unwind$?generateEE@PCMCapsuleVsMeshContactGeneration@Gu@physx@@QEAAXAEBT__m128@@000I00PEAVMeshPersistentContact@23@AEAI@Z 000000018012e090     GuPCMContactConvexCommon.obj
 0002:000100b8       $unwind$?generateContacts@PCMCapsuleVsMeshContactGeneration@Gu@physx@@SA_NAEBT__m128@@0000I000PEAVMeshPersistentContact@23@AEAI@Z 000000018012e0b8     GuPCMContactConvexCommon.obj
 0002:000100f0       $unwind$?generateEEMTD@PCMCapsuleVsMeshContactGeneration@Gu@physx@@SAXAEBT__m128@@000I00PEAVMeshPersistentContact@23@AEAI@Z 000000018012e0f0     GuPCMContactConvexCommon.obj
 0002:00010118       $unwind$?processTriangle@PCMCapsuleVsMeshContactGeneration@Gu@physx@@QEAA_NPEBVPxVec3@3@IEPEBI@Z 000000018012e118     GuPCMContactConvexCommon.obj
 0002:0001013c       $chain$1$?processTriangle@PCMCapsuleVsMeshContactGeneration@Gu@physx@@QEAA_NPEBVPxVec3@3@IEPEBI@Z 000000018012e13c     GuPCMContactConvexCommon.obj
 0002:00010154       $chain$3$?processTriangle@PCMCapsuleVsMeshContactGeneration@Gu@physx@@QEAA_NPEBVPxVec3@3@IEPEBI@Z 000000018012e154     GuPCMContactConvexCommon.obj
 0002:0001016c       $chain$4$?processTriangle@PCMCapsuleVsMeshContactGeneration@Gu@physx@@QEAA_NPEBVPxVec3@3@IEPEBI@Z 000000018012e16c     GuPCMContactConvexCommon.obj
 0002:0001017c       $chain$5$?processTriangle@PCMCapsuleVsMeshContactGeneration@Gu@physx@@QEAA_NPEBVPxVec3@3@IEPEBI@Z 000000018012e17c     GuPCMContactConvexCommon.obj
 0002:0001018c       $unwind$?processTriangle@PCMCapsuleVsMeshContactGeneration@Gu@physx@@SA_NAEBVTriangleV@23@IAEBVCapsuleV@23@AEBT__m128@@EPEAVMeshPersistentContact@23@AEAI@Z 000000018012e18c     GuPCMContactConvexCommon.obj
 0002:000101b8       $chain$1$?processTriangle@PCMCapsuleVsMeshContactGeneration@Gu@physx@@SA_NAEBVTriangleV@23@IAEBVCapsuleV@23@AEBT__m128@@EPEAVMeshPersistentContact@23@AEAI@Z 000000018012e1b8     GuPCMContactConvexCommon.obj
 0002:000101d0       $chain$2$?processTriangle@PCMCapsuleVsMeshContactGeneration@Gu@physx@@SA_NAEBVTriangleV@23@IAEBVCapsuleV@23@AEBT__m128@@EPEAVMeshPersistentContact@23@AEAI@Z 000000018012e1d0     GuPCMContactConvexCommon.obj
 0002:000101e0       $chain$3$?processTriangle@PCMCapsuleVsMeshContactGeneration@Gu@physx@@SA_NAEBVTriangleV@23@IAEBVCapsuleV@23@AEBT__m128@@EPEAVMeshPersistentContact@23@AEAI@Z 000000018012e1e0     GuPCMContactConvexCommon.obj
 0002:000101f8       $unwind$?populateVerts@?$SupportLocalImpl@VTriangleV@Gu@physx@@@Gu@physx@@UEBAXPEBEIPEBVPxVec3@3@PEAT__m128@@@Z 000000018012e1f8     GuPCMContactConvexCommon.obj
 0002:000101f8       $unwind$?fromBuffer@MultiplePersistentContactManifold@Gu@physx@@QEAAXPEIAE@Z 000000018012e1f8     GuPersistentContactManifold.obj
 0002:00010204       $chain$1$?populateVerts@?$SupportLocalImpl@VTriangleV@Gu@physx@@@Gu@physx@@UEBAXPEBEIPEBVPxVec3@3@PEAT__m128@@@Z 000000018012e204     GuPCMContactConvexCommon.obj
 0002:0001021c       $chain$2$?populateVerts@?$SupportLocalImpl@VTriangleV@Gu@physx@@@Gu@physx@@UEBAXPEBEIPEBVPxVec3@3@PEAT__m128@@@Z 000000018012e21c     GuPCMContactConvexCommon.obj
 0002:0001022c       $unwind$?pcmDistancePointTriangleSquared@Gu@physx@@YA?AT__m128@@AEBT3@000EAEAT3@AEA_N2@Z 000000018012e22c     GuPCMContactConvexCommon.obj
 0002:0001025c       $unwind$?pcmDistanceSegmentTriangleSquared@Gu@physx@@YA?AT__m128@@AEBT3@0000AEAT3@11@Z 000000018012e25c     GuPCMContactConvexCommon.obj
 0002:0001028c       $unwind$??$sort@USortedTriangle@Gu@physx@@U?$Less@USortedTriangle@Gu@physx@@@shdfnd@3@VNamedAllocator@53@@shdfnd@physx@@YAXPEAUSortedTriangle@Gu@1@IAEBU?$Less@USortedTriangle@Gu@physx@@@01@AEBVNamedAllocator@01@I@Z 000000018012e28c     GuPCMContactConvexCommon.obj
 0002:000102ac       $unwind$?pcmContactConvexConvex@Gu@physx@@YA_NAEBVGeometryUnion@12@0AEBVPxTransform@2@1AEBUNarrowPhaseParams@12@AEAUCache@12@AEAVContactBuffer@12@PEAVRenderOutput@Cm@2@@Z 000000018012e2ac     GuPCMContactConvexConvex.obj
 0002:000102f4       $unwind$?fullContactsGenerationConvexConvex@Gu@physx@@YA_NPEBUGjkConvex@12@0AEBVPsTransformV@aos@shdfnd@2@1_N2PEAVPersistentContact@12@AEAVContactBuffer@12@AEAVPersistentContactManifold@12@AEAT__m128@@AEBT__m128@@772PEAVRenderOutput@Cm@2@M@Z 000000018012e2f4     GuPCMContactConvexConvex.obj
 0002:00010318       $chain$5$?generateOrProcessContactsConvexConvex@Gu@physx@@YA_NPEBUGjkConvex@12@0AEBVPsTransformV@aos@shdfnd@2@1AEBVPsMatTransformV@562@W4GjkStatus@12@AEAUGjkOutput@12@AEAVPersistentContactManifold@12@AEAVContactBuffer@12@IT__m128@@7_N8MPEAVRenderOutput@Cm@2@@Z 000000018012e318     GuPCMContactConvexConvex.obj
 0002:00010340       $chain$6$?generateOrProcessContactsConvexConvex@Gu@physx@@YA_NPEBUGjkConvex@12@0AEBVPsTransformV@aos@shdfnd@2@1AEBVPsMatTransformV@562@W4GjkStatus@12@AEAUGjkOutput@12@AEAVPersistentContactManifold@12@AEAVContactBuffer@12@IT__m128@@7_N8MPEAVRenderOutput@Cm@2@@Z 000000018012e340     GuPCMContactConvexConvex.obj
 0002:00010350       $unwind$?convexHullHasScale0@Gu@physx@@YA_NAEBVConvexHullV@12@0AEBVPsTransformV@aos@shdfnd@2@1AEBVPsMatTransformV@562@AEAUGjkOutput@12@AEAVPersistentContactManifold@12@AEAVContactBuffer@12@IT__m128@@6_NMPEAVRenderOutput@Cm@2@@Z 000000018012e350     GuPCMContactConvexConvex.obj
 0002:00010350       $unwind$?convexHullNoScale0@Gu@physx@@YA_NAEBVConvexHullV@12@0AEBVPsTransformV@aos@shdfnd@2@1AEBVPsMatTransformV@562@AEAUGjkOutput@12@AEAVPersistentContactManifold@12@AEAVContactBuffer@12@IT__m128@@6_NMPEAVRenderOutput@Cm@2@@Z 000000018012e350     GuPCMContactConvexConvex.obj
 0002:00010374       $unwind$??$gjkPenetration@U?$RelativeConvex@VConvexHullNoScaleV@Gu@physx@@@Gu@physx@@U?$LocalConvex@VConvexHullNoScaleV@Gu@physx@@@23@@Gu@physx@@YA?AW4GjkStatus@01@AEBU?$RelativeConvex@VConvexHullNoScaleV@Gu@physx@@@01@AEBU?$LocalConvex@VConvexHullNoScaleV@Gu@physx@@@01@AEBT__m128@@2_NPEIAE4AEAEAEAUGjkOutput@01@@Z 000000018012e374     GuPCMContactConvexConvex.obj
 0002:000103b8       $unwind$??$gjkPenetration@U?$RelativeConvex@VConvexHullV@Gu@physx@@@Gu@physx@@U?$LocalConvex@VConvexHullNoScaleV@Gu@physx@@@23@@Gu@physx@@YA?AW4GjkStatus@01@AEBU?$RelativeConvex@VConvexHullV@Gu@physx@@@01@AEBU?$LocalConvex@VConvexHullNoScaleV@Gu@physx@@@01@AEBT__m128@@2_NPEIAE4AEAEAEAUGjkOutput@01@@Z 000000018012e3b8     GuPCMContactConvexConvex.obj
 0002:000103fc       $unwind$?pcmContactBoxHeightField@Gu@physx@@YA_NAEBVGeometryUnion@12@0AEBVPxTransform@2@1AEBUNarrowPhaseParams@12@AEAUCache@12@AEAVContactBuffer@12@PEAVRenderOutput@Cm@2@@Z 000000018012e3fc     GuPCMContactConvexHeightField.obj
 0002:00010418       $unwind$?pcmContactConvexHeightField@Gu@physx@@YA_NAEBVGeometryUnion@12@0AEBVPxTransform@2@1AEBUNarrowPhaseParams@12@AEAUCache@12@AEAVContactBuffer@12@PEAVRenderOutput@Cm@2@@Z 000000018012e418     GuPCMContactConvexHeightField.obj
 0002:00010430       $chain$0$?pcmContactConvexHeightField@Gu@physx@@YA_NAEBVGeometryUnion@12@0AEBVPxTransform@2@1AEBUNarrowPhaseParams@12@AEAUCache@12@AEAVContactBuffer@12@PEAVRenderOutput@Cm@2@@Z 000000018012e430     GuPCMContactConvexHeightField.obj
 0002:00010444       $chain$5$?pcmContactConvexHeightField@Gu@physx@@YA_NAEBVGeometryUnion@12@0AEBVPxTransform@2@1AEBUNarrowPhaseParams@12@AEAUCache@12@AEAVContactBuffer@12@PEAVRenderOutput@Cm@2@@Z 000000018012e444     GuPCMContactConvexHeightField.obj
 0002:00010468       $chain$6$?pcmContactConvexHeightField@Gu@physx@@YA_NAEBVGeometryUnion@12@0AEBVPxTransform@2@1AEBUNarrowPhaseParams@12@AEAUCache@12@AEAVContactBuffer@12@PEAVRenderOutput@Cm@2@@Z 000000018012e468     GuPCMContactConvexHeightField.obj
 0002:00010488       $chain$12$?pcmContactConvexHeightField@Gu@physx@@YA_NAEBVGeometryUnion@12@0AEBVPxTransform@2@1AEBUNarrowPhaseParams@12@AEAUCache@12@AEAVContactBuffer@12@PEAVRenderOutput@Cm@2@@Z 000000018012e488     GuPCMContactConvexHeightField.obj
 0002:000104b0       $chain$13$?pcmContactConvexHeightField@Gu@physx@@YA_NAEBVGeometryUnion@12@0AEBVPxTransform@2@1AEBUNarrowPhaseParams@12@AEAUCache@12@AEAVContactBuffer@12@PEAVRenderOutput@Cm@2@@Z 000000018012e4b0     GuPCMContactConvexHeightField.obj
 0002:000104c0       $chain$14$?pcmContactConvexHeightField@Gu@physx@@YA_NAEBVGeometryUnion@12@0AEBVPxTransform@2@1AEBUNarrowPhaseParams@12@AEAUCache@12@AEAVContactBuffer@12@PEAVRenderOutput@Cm@2@@Z 000000018012e4c0     GuPCMContactConvexHeightField.obj
 0002:000104d0       $unwind$?PCMContactConvexHeightfield@Gu@physx@@YA_NAEBUPolygonalData@12@PEAVSupportLocal@12@AEBT__m128@@AEBVPxBounds3@2@AEBVPxHeightFieldGeometry@2@AEBVPxTransform@2@5MAEAVContactBuffer@12@AEBVFastVertex2ShapeScaling@Cm@2@_NAEAVMultiplePersistentContactManifold@12@PEAVRenderOutput@Cm@2@@Z 000000018012e4d0     GuPCMContactConvexHeightField.obj
 0002:00010514       $chain$0$?PCMContactConvexHeightfield@Gu@physx@@YA_NAEBUPolygonalData@12@PEAVSupportLocal@12@AEBT__m128@@AEBVPxBounds3@2@AEBVPxHeightFieldGeometry@2@AEBVPxTransform@2@5MAEAVContactBuffer@12@AEBVFastVertex2ShapeScaling@Cm@2@_NAEAVMultiplePersistentContactManifold@12@PEAVRenderOutput@Cm@2@@Z 000000018012e514     GuPCMContactConvexHeightField.obj
 0002:00010528       $chain$1$?PCMContactConvexHeightfield@Gu@physx@@YA_NAEBUPolygonalData@12@PEAVSupportLocal@12@AEBT__m128@@AEBVPxBounds3@2@AEBVPxHeightFieldGeometry@2@AEBVPxTransform@2@5MAEAVContactBuffer@12@AEBVFastVertex2ShapeScaling@Cm@2@_NAEAVMultiplePersistentContactManifold@12@PEAVRenderOutput@Cm@2@@Z 000000018012e528     GuPCMContactConvexHeightField.obj
 0002:00010538       $chain$15$?onEvent@?$PCMHeightfieldContactGenerationCallback@UPCMConvexVsHeightfieldContactGenerationCallback@physx@@@Gu@physx@@UEAA_NIPEAI@Z 000000018012e538     GuPCMContactConvexHeightField.obj
 0002:00010588       $chain$16$?onEvent@?$PCMHeightfieldContactGenerationCallback@UPCMConvexVsHeightfieldContactGenerationCallback@physx@@@Gu@physx@@UEAA_NIPEAI@Z 000000018012e588     GuPCMContactConvexHeightField.obj
 0002:00010598       $unwind$?pcmContactBoxMesh@Gu@physx@@YA_NAEBVGeometryUnion@12@0AEBVPxTransform@2@1AEBUNarrowPhaseParams@12@AEAUCache@12@AEAVContactBuffer@12@PEAVRenderOutput@Cm@2@@Z 000000018012e598     GuPCMContactConvexMesh.obj
 0002:000105bc       $unwind$?pcmContactConvexMesh@Gu@physx@@YA_NAEBVGeometryUnion@12@0AEBVPxTransform@2@1AEBUNarrowPhaseParams@12@AEAUCache@12@AEAVContactBuffer@12@PEAVRenderOutput@Cm@2@@Z 000000018012e5bc     GuPCMContactConvexMesh.obj
 0002:000105e8       $chain$0$?pcmContactConvexMesh@Gu@physx@@YA_NAEBVGeometryUnion@12@0AEBVPxTransform@2@1AEBUNarrowPhaseParams@12@AEAUCache@12@AEAVContactBuffer@12@PEAVRenderOutput@Cm@2@@Z 000000018012e5e8     GuPCMContactConvexMesh.obj
 0002:000105fc       $chain$1$?pcmContactConvexMesh@Gu@physx@@YA_NAEBVGeometryUnion@12@0AEBVPxTransform@2@1AEBUNarrowPhaseParams@12@AEAUCache@12@AEAVContactBuffer@12@PEAVRenderOutput@Cm@2@@Z 000000018012e5fc     GuPCMContactConvexMesh.obj
 0002:0001060c       $chain$2$?pcmContactConvexMesh@Gu@physx@@YA_NAEBVGeometryUnion@12@0AEBVPxTransform@2@1AEBUNarrowPhaseParams@12@AEAUCache@12@AEAVContactBuffer@12@PEAVRenderOutput@Cm@2@@Z 000000018012e60c     GuPCMContactConvexMesh.obj
 0002:00010620       $chain$7$?pcmContactConvexMesh@Gu@physx@@YA_NAEBVGeometryUnion@12@0AEBVPxTransform@2@1AEBUNarrowPhaseParams@12@AEAUCache@12@AEAVContactBuffer@12@PEAVRenderOutput@Cm@2@@Z 000000018012e620     GuPCMContactConvexMesh.obj
 0002:00010644       $chain$8$?pcmContactConvexMesh@Gu@physx@@YA_NAEBVGeometryUnion@12@0AEBVPxTransform@2@1AEBUNarrowPhaseParams@12@AEAUCache@12@AEAVContactBuffer@12@PEAVRenderOutput@Cm@2@@Z 000000018012e644     GuPCMContactConvexMesh.obj
 0002:00010654       $chain$9$?pcmContactConvexMesh@Gu@physx@@YA_NAEBVGeometryUnion@12@0AEBVPxTransform@2@1AEBUNarrowPhaseParams@12@AEAUCache@12@AEAVContactBuffer@12@PEAVRenderOutput@Cm@2@@Z 000000018012e654     GuPCMContactConvexMesh.obj
 0002:00010664       $unwind$?PCMContactConvexMesh@Gu@physx@@YA_NAEBUPolygonalData@12@PEAVSupportLocal@12@AEBT__m128@@AEBVPxBounds3@2@AEBUPxTriangleMeshGeometryLL@2@AEBVPxTransform@2@5MAEAVContactBuffer@12@AEBVFastVertex2ShapeScaling@Cm@2@7_N8AEAVMultiplePersistentContactManifold@12@PEAVRenderOutput@Cm@2@@Z 000000018012e664     GuPCMContactConvexMesh.obj
 0002:000106a4       $chain$0$?PCMContactConvexMesh@Gu@physx@@YA_NAEBUPolygonalData@12@PEAVSupportLocal@12@AEBT__m128@@AEBVPxBounds3@2@AEBUPxTriangleMeshGeometryLL@2@AEBVPxTransform@2@5MAEAVContactBuffer@12@AEBVFastVertex2ShapeScaling@Cm@2@7_N8AEAVMultiplePersistentContactManifold@12@PEAVRenderOutput@Cm@2@@Z 000000018012e6a4     GuPCMContactConvexMesh.obj
 0002:000106b8       $chain$1$?PCMContactConvexMesh@Gu@physx@@YA_NAEBUPolygonalData@12@PEAVSupportLocal@12@AEBT__m128@@AEBVPxBounds3@2@AEBUPxTriangleMeshGeometryLL@2@AEBVPxTransform@2@5MAEAVContactBuffer@12@AEBVFastVertex2ShapeScaling@Cm@2@7_N8AEAVMultiplePersistentContactManifold@12@PEAVRenderOutput@Cm@2@@Z 000000018012e6b8     GuPCMContactConvexMesh.obj
 0002:000106c8       $unwind$?processHit@?$PCMMeshContactGenerationCallback@UPCMConvexVsMeshContactGenerationCallback@physx@@@Gu@physx@@UEAA_NAEBUPxRaycastHit@3@AEBVPxVec3@3@11AEAMPEBI@Z 000000018012e6c8     GuPCMContactConvexMesh.obj
 0002:000106e4       $chain$8$?processHit@?$PCMMeshContactGenerationCallback@UPCMConvexVsMeshContactGenerationCallback@physx@@@Gu@physx@@UEAA_NAEBUPxRaycastHit@3@AEBVPxVec3@3@11AEAMPEBI@Z 000000018012e6e4     GuPCMContactConvexMesh.obj
 0002:00010718       $chain$9$?processHit@?$PCMMeshContactGenerationCallback@UPCMConvexVsMeshContactGenerationCallback@physx@@@Gu@physx@@UEAA_NAEBUPxRaycastHit@3@AEBVPxVec3@3@11AEAMPEBI@Z 000000018012e718     GuPCMContactConvexMesh.obj
 0002:0001072c       $chain$10$?processHit@?$PCMMeshContactGenerationCallback@UPCMConvexVsMeshContactGenerationCallback@physx@@@Gu@physx@@UEAA_NAEBUPxRaycastHit@3@AEBVPxVec3@3@11AEAMPEBI@Z 000000018012e72c     GuPCMContactConvexMesh.obj
 0002:0001073c       $chain$11$?processHit@?$PCMMeshContactGenerationCallback@UPCMConvexVsMeshContactGenerationCallback@physx@@@Gu@physx@@UEAA_NAEBUPxRaycastHit@3@AEBVPxVec3@3@11AEAMPEBI@Z 000000018012e73c     GuPCMContactConvexMesh.obj
 0002:0001074c       $chain$0$??$processTriangleCache@$0BA@@PCMConvexVsMeshContactGenerationCallback@physx@@QEAAXAEAU?$TriangleCache@$0BA@@Gu@1@@Z 000000018012e74c     GuPCMContactConvexMesh.obj
 0002:00010760       $chain$1$??$processTriangleCache@$0BA@@PCMConvexVsMeshContactGenerationCallback@physx@@QEAAXAEAU?$TriangleCache@$0BA@@Gu@1@@Z 000000018012e760     GuPCMContactConvexMesh.obj
 0002:00010770       $unwind$?generateFullContactManifold@Gu@physx@@YA_NAEAUPolygonalData@12@0PEAVSupportLocal@12@1PEAVPersistentContact@12@AEAIAEBT__m128@@444MM_NPEAVRenderOutput@Cm@2@M@Z 000000018012e770     GuPCMContactGenBoxConvex.obj
 0002:000107b4       $unwind$?addGJKEPAContacts@Gu@physx@@YA_NPEBUGjkConvex@12@0AEBVPsMatTransformV@aos@shdfnd@2@W4GjkStatus@12@PEAVPersistentContact@12@T__m128@@4AEAUGjkOutput@12@AEAVPersistentContactManifold@12@@Z 000000018012e7b4     GuPCMContactGenBoxConvex.obj
 0002:000107c4       $chain$0$?addGJKEPAContacts@Gu@physx@@YA_NPEBUGjkConvex@12@0AEBVPsMatTransformV@aos@shdfnd@2@W4GjkStatus@12@PEAVPersistentContact@12@T__m128@@4AEAUGjkOutput@12@AEAVPersistentContactManifold@12@@Z 000000018012e7c4     GuPCMContactGenBoxConvex.obj
 0002:000107d8       $chain$1$?addGJKEPAContacts@Gu@physx@@YA_NPEBUGjkConvex@12@0AEBVPsMatTransformV@aos@shdfnd@2@W4GjkStatus@12@PEAVPersistentContact@12@T__m128@@4AEAUGjkOutput@12@AEAVPersistentContactManifold@12@@Z 000000018012e7d8     GuPCMContactGenBoxConvex.obj
 0002:000107d8       $chain$3$?addGJKEPAContacts@Gu@physx@@YA_NPEBUGjkConvex@12@0AEBVPsMatTransformV@aos@shdfnd@2@W4GjkStatus@12@PEAVPersistentContact@12@T__m128@@4AEAUGjkOutput@12@AEAVPersistentContactManifold@12@@Z 000000018012e7d8     GuPCMContactGenBoxConvex.obj
 0002:000107e8       $chain$2$?addGJKEPAContacts@Gu@physx@@YA_NPEBUGjkConvex@12@0AEBVPsMatTransformV@aos@shdfnd@2@W4GjkStatus@12@PEAVPersistentContact@12@T__m128@@4AEAUGjkOutput@12@AEAVPersistentContactManifold@12@@Z 000000018012e7e8     GuPCMContactGenBoxConvex.obj
 0002:000107fc       $chain$4$?addGJKEPAContacts@Gu@physx@@YA_NPEBUGjkConvex@12@0AEBVPsMatTransformV@aos@shdfnd@2@W4GjkStatus@12@PEAVPersistentContact@12@T__m128@@4AEAUGjkOutput@12@AEAVPersistentContactManifold@12@@Z 000000018012e7fc     GuPCMContactGenBoxConvex.obj
 0002:00010810       $chain$6$?addGJKEPAContacts@Gu@physx@@YA_NPEBUGjkConvex@12@0AEBVPsMatTransformV@aos@shdfnd@2@W4GjkStatus@12@PEAVPersistentContact@12@T__m128@@4AEAUGjkOutput@12@AEAVPersistentContactManifold@12@@Z 000000018012e810     GuPCMContactGenBoxConvex.obj
 0002:00010824       $unwind$?computeMTD@Gu@physx@@YA_NAEAUPolygonalData@12@0PEAVSupportLocal@12@1AEAT__m128@@2@Z 000000018012e824     GuPCMContactGenBoxConvex.obj
 0002:00010864       $unwind$?buildPartialHull@Gu@physx@@YAXAEBUPolygonalData@12@PEAVSupportLocal@12@AEAVSeparatingAxes@12@AEBT__m128@@3@Z 000000018012e864     GuPCMContactGenBoxConvex.obj
 0002:00010880       $chain$7$?buildPartialHull@Gu@physx@@YAXAEBUPolygonalData@12@PEAVSupportLocal@12@AEAVSeparatingAxes@12@AEBT__m128@@3@Z 000000018012e880     GuPCMContactGenBoxConvex.obj
 0002:000108b0       $chain$8$?buildPartialHull@Gu@physx@@YAXAEBUPolygonalData@12@PEAVSupportLocal@12@AEAVSeparatingAxes@12@AEBT__m128@@3@Z 000000018012e8b0     GuPCMContactGenBoxConvex.obj
 0002:000108c0       $unwind$?testFaceNormal@Gu@physx@@YA_NAEBUPolygonalData@12@0PEAVSupportLocal@12@1AEBVPsMatTransformV@aos@shdfnd@2@2AEBT__m128@@AEAT8@AEAI4W4FeatureStatus@12@AEAW4912@@Z 000000018012e8c0     GuPCMContactGenBoxConvex.obj
 0002:00010908       $unwind$?testEdgeNormal@Gu@physx@@YA_NAEBUPolygonalData@12@0PEAVSupportLocal@12@1AEBVPsMatTransformV@aos@shdfnd@2@2AEBT__m128@@AEAT8@4W4FeatureStatus@12@AEAW4912@@Z 000000018012e908     GuPCMContactGenBoxConvex.obj
 0002:00010950       $unwind$?generatedContacts@Gu@physx@@YAXAEAUPolygonalData@12@0AEBUHullPolygonData@12@1PEAVSupportLocal@12@2AEBVPsMatTransformV@aos@shdfnd@2@PEAVPersistentContact@12@AEAIAEBT__m128@@PEAVRenderOutput@Cm@2@@Z 000000018012e950     GuPCMContactGenBoxConvex.obj
 0002:00010994       $unwind$?generateFullContactManifold@Gu@physx@@YA_NAEBVCapsuleV@12@AEAUPolygonalData@12@PEAVSupportLocal@12@AEBVPsMatTransformV@aos@shdfnd@2@PEAVPersistentContact@12@AEAIAEBT__m128@@AEAT__m128@@6M_NM@Z 000000018012e994     GuPCMContactGenSphereCapsule.obj
 0002:000109c0       $chain$5$?generateFullContactManifold@Gu@physx@@YA_NAEBVCapsuleV@12@AEAUPolygonalData@12@PEAVSupportLocal@12@AEBVPsMatTransformV@aos@shdfnd@2@PEAVPersistentContact@12@AEAIAEBT__m128@@AEAT__m128@@6M_NM@Z 000000018012e9c0     GuPCMContactGenSphereCapsule.obj
 0002:000109e8       $chain$6$?generateFullContactManifold@Gu@physx@@YA_NAEBVCapsuleV@12@AEAUPolygonalData@12@PEAVSupportLocal@12@AEBVPsMatTransformV@aos@shdfnd@2@PEAVPersistentContact@12@AEAIAEBT__m128@@AEAT__m128@@6M_NM@Z 000000018012e9e8     GuPCMContactGenSphereCapsule.obj
 0002:000109f8       $unwind$?generateCapsuleBoxFullContactManifold@Gu@physx@@YA_NAEBVCapsuleV@12@AEAUPolygonalData@12@PEAVSupportLocal@12@AEBVPsMatTransformV@aos@shdfnd@2@PEAVPersistentContact@12@AEAIAEBT__m128@@AEAT__m128@@6M_NMPEAVRenderOutput@Cm@2@@Z 000000018012e9f8     GuPCMContactGenSphereCapsule.obj
 0002:00010a20       $chain$5$?generateCapsuleBoxFullContactManifold@Gu@physx@@YA_NAEBVCapsuleV@12@AEAUPolygonalData@12@PEAVSupportLocal@12@AEBVPsMatTransformV@aos@shdfnd@2@PEAVPersistentContact@12@AEAIAEBT__m128@@AEAT__m128@@6M_NMPEAVRenderOutput@Cm@2@@Z 000000018012ea20     GuPCMContactGenSphereCapsule.obj
 0002:00010a48       $chain$6$?generateCapsuleBoxFullContactManifold@Gu@physx@@YA_NAEBVCapsuleV@12@AEAUPolygonalData@12@PEAVSupportLocal@12@AEBVPsMatTransformV@aos@shdfnd@2@PEAVPersistentContact@12@AEAIAEBT__m128@@AEAT__m128@@6M_NMPEAVRenderOutput@Cm@2@@Z 000000018012ea48     GuPCMContactGenSphereCapsule.obj
 0002:00010a5c       $chain$7$?generateCapsuleBoxFullContactManifold@Gu@physx@@YA_NAEBVCapsuleV@12@AEAUPolygonalData@12@PEAVSupportLocal@12@AEBVPsMatTransformV@aos@shdfnd@2@PEAVPersistentContact@12@AEAIAEBT__m128@@AEAT__m128@@6M_NMPEAVRenderOutput@Cm@2@@Z 000000018012ea5c     GuPCMContactGenSphereCapsule.obj
 0002:00010a6c       $chain$8$?generateCapsuleBoxFullContactManifold@Gu@physx@@YA_NAEBVCapsuleV@12@AEAUPolygonalData@12@PEAVSupportLocal@12@AEBVPsMatTransformV@aos@shdfnd@2@PEAVPersistentContact@12@AEAIAEBT__m128@@AEAT__m128@@6M_NMPEAVRenderOutput@Cm@2@@Z 000000018012ea6c     GuPCMContactGenSphereCapsule.obj
 0002:00010a7c       $unwind$?computeMTD@Gu@physx@@YA_NAEBVCapsuleV@12@AEAUPolygonalData@12@PEAVSupportLocal@12@AEAT__m128@@3@Z 000000018012ea7c     GuPCMContactGenSphereCapsule.obj
 0002:00010a8c       $unwind$?generateSphereFullContactManifold@Gu@physx@@YA_NAEBVCapsuleV@12@AEAUPolygonalData@12@PEAVSupportLocal@12@PEAVPersistentContact@12@AEAIAEBT__m128@@AEAT7@_N@Z 000000018012ea8c     GuPCMContactGenSphereCapsule.obj
 0002:00010ad4       $unwind$?testSATCapsulePoly@Gu@physx@@YA_NAEBVCapsuleV@12@AEBUPolygonalData@12@PEAVSupportLocal@12@AEBT__m128@@AEAT6@4@Z 000000018012ead4     GuPCMContactGenSphereCapsule.obj
 0002:00010b1c       $unwind$?generatedCapsuleBoxFaceContacts@Gu@physx@@YAXAEBVCapsuleV@12@AEAUPolygonalData@12@AEBUHullPolygonData@12@PEAVSupportLocal@12@AEBVPsMatTransformV@aos@shdfnd@2@PEAVPersistentContact@12@AEAIAEBT__m128@@7@Z 000000018012eb1c     GuPCMContactGenSphereCapsule.obj
 0002:00010b64       $unwind$?generatedFaceContacts@Gu@physx@@YAXAEBVCapsuleV@12@AEAUPolygonalData@12@PEAVSupportLocal@12@AEBVPsMatTransformV@aos@shdfnd@2@PEAVPersistentContact@12@AEAIAEBT__m128@@6@Z 000000018012eb64     GuPCMContactGenSphereCapsule.obj
 0002:00010bac       $unwind$?generatedContactsEEContacts@Gu@physx@@YAXAEBVCapsuleV@12@AEAUPolygonalData@12@AEBUHullPolygonData@12@PEAVSupportLocal@12@AEBVPsMatTransformV@aos@shdfnd@2@PEAVPersistentContact@12@AEAIAEBT__m128@@7@Z 000000018012ebac     GuPCMContactGenSphereCapsule.obj
 0002:00010bec       $unwind$?pcmContactPlaneBox@Gu@physx@@YA_NAEBVGeometryUnion@12@0AEBVPxTransform@2@1AEBUNarrowPhaseParams@12@AEAUCache@12@AEAVContactBuffer@12@PEAVRenderOutput@Cm@2@@Z 000000018012ebec     GuPCMContactPlaneBox.obj
 0002:00010c20       $chain$0$?pcmContactPlaneBox@Gu@physx@@YA_NAEBVGeometryUnion@12@0AEBVPxTransform@2@1AEBUNarrowPhaseParams@12@AEAUCache@12@AEAVContactBuffer@12@PEAVRenderOutput@Cm@2@@Z 000000018012ec20     GuPCMContactPlaneBox.obj
 0002:00010c34       $chain$1$?pcmContactPlaneBox@Gu@physx@@YA_NAEBVGeometryUnion@12@0AEBVPxTransform@2@1AEBUNarrowPhaseParams@12@AEAUCache@12@AEAVContactBuffer@12@PEAVRenderOutput@Cm@2@@Z 000000018012ec34     GuPCMContactPlaneBox.obj
 0002:00010c44       $unwind$?pcmContactPlaneCapsule@Gu@physx@@YA_NAEBVGeometryUnion@12@0AEBVPxTransform@2@1AEBUNarrowPhaseParams@12@AEAUCache@12@AEAVContactBuffer@12@PEAVRenderOutput@Cm@2@@Z 000000018012ec44     GuPCMContactPlaneCapsule.obj
 0002:00010c7c       $unwind$?pcmContactPlaneConvex@Gu@physx@@YA_NAEBVGeometryUnion@12@0AEBVPxTransform@2@1AEBUNarrowPhaseParams@12@AEAUCache@12@AEAVContactBuffer@12@PEAVRenderOutput@Cm@2@@Z 000000018012ec7c     GuPCMContactPlaneConvex.obj
 0002:00010cb4       $chain$1$?pcmContactPlaneConvex@Gu@physx@@YA_NAEBVGeometryUnion@12@0AEBVPxTransform@2@1AEBUNarrowPhaseParams@12@AEAUCache@12@AEAVContactBuffer@12@PEAVRenderOutput@Cm@2@@Z 000000018012ecb4     GuPCMContactPlaneConvex.obj
 0002:00010ccc       $chain$2$?pcmContactPlaneConvex@Gu@physx@@YA_NAEBVGeometryUnion@12@0AEBVPxTransform@2@1AEBUNarrowPhaseParams@12@AEAUCache@12@AEAVContactBuffer@12@PEAVRenderOutput@Cm@2@@Z 000000018012eccc     GuPCMContactPlaneConvex.obj
 0002:00010cdc       $unwind$?pcmContactSphereBox@Gu@physx@@YA_NAEBVGeometryUnion@12@0AEBVPxTransform@2@1AEBUNarrowPhaseParams@12@AEAUCache@12@AEAVContactBuffer@12@PEAVRenderOutput@Cm@2@@Z 000000018012ecdc     GuPCMContactSphereBox.obj
 0002:00010d08       $chain$0$?pcmContactSphereBox@Gu@physx@@YA_NAEBVGeometryUnion@12@0AEBVPxTransform@2@1AEBUNarrowPhaseParams@12@AEAUCache@12@AEAVContactBuffer@12@PEAVRenderOutput@Cm@2@@Z 000000018012ed08     GuPCMContactSphereBox.obj
 0002:00010d1c       $chain$1$?pcmContactSphereBox@Gu@physx@@YA_NAEBVGeometryUnion@12@0AEBVPxTransform@2@1AEBUNarrowPhaseParams@12@AEAUCache@12@AEAVContactBuffer@12@PEAVRenderOutput@Cm@2@@Z 000000018012ed1c     GuPCMContactSphereBox.obj
 0002:00010d2c       $unwind$?pcmContactSphereCapsule@Gu@physx@@YA_NAEBVGeometryUnion@12@0AEBVPxTransform@2@1AEBUNarrowPhaseParams@12@AEAUCache@12@AEAVContactBuffer@12@PEAVRenderOutput@Cm@2@@Z 000000018012ed2c     GuPCMContactSphereCapsule.obj
 0002:00010d50       $unwind$?pcmContactSphereConvex@Gu@physx@@YA_NAEBVGeometryUnion@12@0AEBVPxTransform@2@1AEBUNarrowPhaseParams@12@AEAUCache@12@AEAVContactBuffer@12@PEAVRenderOutput@Cm@2@@Z 000000018012ed50     GuPCMContactSphereConvex.obj
 0002:00010d88       $chain$4$?pcmContactSphereConvex@Gu@physx@@YA_NAEBVGeometryUnion@12@0AEBVPxTransform@2@1AEBUNarrowPhaseParams@12@AEAUCache@12@AEAVContactBuffer@12@PEAVRenderOutput@Cm@2@@Z 000000018012ed88     GuPCMContactSphereConvex.obj
 0002:00010dac       $unwind$?fullContactsGenerationSphereConvex@Gu@physx@@YA_NAEBVCapsuleV@12@AEBVConvexHullV@12@AEBVPsTransformV@aos@shdfnd@2@2PEAVPersistentContact@12@AEAVContactBuffer@12@_NAEAVPersistentContactManifold@12@AEAT__m128@@AEBT__m128@@_NPEAVRenderOutput@Cm@2@@Z 000000018012edac     GuPCMContactSphereConvex.obj
 0002:00010dc8       $chain$0$?fullContactsGenerationSphereConvex@Gu@physx@@YA_NAEBVCapsuleV@12@AEBVConvexHullV@12@AEBVPsTransformV@aos@shdfnd@2@2PEAVPersistentContact@12@AEAVContactBuffer@12@_NAEAVPersistentContactManifold@12@AEAT__m128@@AEBT__m128@@_NPEAVRenderOutput@Cm@2@@Z 000000018012edc8     GuPCMContactSphereConvex.obj
 0002:00010ddc       $chain$1$?fullContactsGenerationSphereConvex@Gu@physx@@YA_NAEBVCapsuleV@12@AEBVConvexHullV@12@AEBVPsTransformV@aos@shdfnd@2@2PEAVPersistentContact@12@AEAVContactBuffer@12@_NAEAVPersistentContactManifold@12@AEAT__m128@@AEBT__m128@@_NPEAVRenderOutput@Cm@2@@Z 000000018012eddc     GuPCMContactSphereConvex.obj
 0002:00010dec       $unwind$?pcmContactSphereHeightField@Gu@physx@@YA_NAEBVGeometryUnion@12@0AEBVPxTransform@2@1AEBUNarrowPhaseParams@12@AEAUCache@12@AEAVContactBuffer@12@PEAVRenderOutput@Cm@2@@Z 000000018012edec     GuPCMContactSphereHeightField.obj
 0002:00010e34       $chain$15$?onEvent@?$PCMHeightfieldContactGenerationCallback@UPCMSphereVsHeightfieldContactGenerationCallback@physx@@@Gu@physx@@UEAA_NIPEAI@Z 000000018012ee34     GuPCMContactSphereHeightField.obj
 0002:00010e84       $chain$16$?onEvent@?$PCMHeightfieldContactGenerationCallback@UPCMSphereVsHeightfieldContactGenerationCallback@physx@@@Gu@physx@@UEAA_NIPEAI@Z 000000018012ee84     GuPCMContactSphereHeightField.obj
 0002:00010e94       $unwind$?pcmContactSphereMesh@Gu@physx@@YA_NAEBVGeometryUnion@12@0AEBVPxTransform@2@1AEBUNarrowPhaseParams@12@AEAUCache@12@AEAVContactBuffer@12@PEAVRenderOutput@Cm@2@@Z 000000018012ee94     GuPCMContactSphereMesh.obj
 0002:00010edc       $chain$0$?processHit@?$PCMMeshContactGenerationCallback@UPCMSphereVsMeshContactGenerationCallback@physx@@@Gu@physx@@UEAA_NAEBUPxRaycastHit@3@AEBVPxVec3@3@11AEAMPEBI@Z 000000018012eedc     GuPCMContactSphereMesh.obj
 0002:00010ef0       $chain$1$?processHit@?$PCMMeshContactGenerationCallback@UPCMSphereVsMeshContactGenerationCallback@physx@@@Gu@physx@@UEAA_NAEBUPxRaycastHit@3@AEBVPxVec3@3@11AEAMPEBI@Z 000000018012eef0     GuPCMContactSphereMesh.obj
 0002:00010f00       $chain$0$??$processTriangleCache@$0BA@@PCMSphereVsMeshContactGenerationCallback@physx@@QEAAXAEAU?$TriangleCache@$0BA@@Gu@1@@Z 000000018012ef00     GuPCMContactSphereMesh.obj
 0002:00010f14       $chain$1$??$processTriangleCache@$0BA@@PCMSphereVsMeshContactGenerationCallback@physx@@QEAAXAEAU?$TriangleCache@$0BA@@Gu@1@@Z 000000018012ef14     GuPCMContactSphereMesh.obj
 0002:00010f24       $unwind$?pcmContactSpherePlane@Gu@physx@@YA_NAEBVGeometryUnion@12@0AEBVPxTransform@2@1AEBUNarrowPhaseParams@12@AEAUCache@12@AEAVContactBuffer@12@PEAVRenderOutput@Cm@2@@Z 000000018012ef24     GuPCMContactSpherePlane.obj
 0002:00010f3c       $unwind$?pcmContactSphereSphere@Gu@physx@@YA_NAEBVGeometryUnion@12@0AEBVPxTransform@2@1AEBUNarrowPhaseParams@12@AEAUCache@12@AEAVContactBuffer@12@PEAVRenderOutput@Cm@2@@Z 000000018012ef3c     GuPCMContactSphereSphere.obj
 0002:00010f48       $unwind$?generateTriangleFullContactManifold@PCMConvexVsMeshContactGeneration@Gu@physx@@QEAA_NAEAVTriangleV@23@IPEBIEAEBUPolygonalData@23@PEAV?$SupportLocalImpl@VTriangleV@Gu@physx@@@23@PEAVSupportLocal@23@PEAVMeshPersistentContact@23@AEAIAEBT__m128@@AEAT9@@Z 000000018012ef48     GuPCMTriangleContactGen.obj
 0002:00010f6c       $chain$1$?generateTriangleFullContactManifold@PCMConvexVsMeshContactGeneration@Gu@physx@@QEAA_NAEAVTriangleV@23@IPEBIEAEBUPolygonalData@23@PEAV?$SupportLocalImpl@VTriangleV@Gu@physx@@@23@PEAVSupportLocal@23@PEAVMeshPersistentContact@23@AEAIAEBT__m128@@AEAT9@@Z 000000018012ef6c     GuPCMTriangleContactGen.obj
 0002:00010f84       $chain$3$?generateTriangleFullContactManifold@PCMConvexVsMeshContactGeneration@Gu@physx@@QEAA_NAEAVTriangleV@23@IPEBIEAEBUPolygonalData@23@PEAV?$SupportLocalImpl@VTriangleV@Gu@physx@@@23@PEAVSupportLocal@23@PEAVMeshPersistentContact@23@AEAIAEBT__m128@@AEAT9@@Z 000000018012ef84     GuPCMTriangleContactGen.obj
 0002:00010f84       $chain$5$?generateTriangleFullContactManifold@PCMConvexVsMeshContactGeneration@Gu@physx@@QEAA_NAEAVTriangleV@23@IPEBIEAEBUPolygonalData@23@PEAV?$SupportLocalImpl@VTriangleV@Gu@physx@@@23@PEAVSupportLocal@23@PEAVMeshPersistentContact@23@AEAIAEBT__m128@@AEAT9@@Z 000000018012ef84     GuPCMTriangleContactGen.obj
 0002:00010f84       $chain$7$?generateTriangleFullContactManifold@PCMConvexVsMeshContactGeneration@Gu@physx@@QEAA_NAEAVTriangleV@23@IPEBIEAEBUPolygonalData@23@PEAV?$SupportLocalImpl@VTriangleV@Gu@physx@@@23@PEAVSupportLocal@23@PEAVMeshPersistentContact@23@AEAIAEBT__m128@@AEAT9@@Z 000000018012ef84     GuPCMTriangleContactGen.obj
 0002:00010f98       $chain$8$?generateTriangleFullContactManifold@PCMConvexVsMeshContactGeneration@Gu@physx@@QEAA_NAEAVTriangleV@23@IPEBIEAEBUPolygonalData@23@PEAV?$SupportLocalImpl@VTriangleV@Gu@physx@@@23@PEAVSupportLocal@23@PEAVMeshPersistentContact@23@AEAIAEBT__m128@@AEAT9@@Z 000000018012ef98     GuPCMTriangleContactGen.obj
 0002:00010fa8       $unwind$?generatePolyDataContactManifold@PCMConvexVsMeshContactGeneration@Gu@physx@@QEAA_NAEAVTriangleV@23@IIEPEAVMeshPersistentContact@23@AEAIAEBT__m128@@AEAT6@@Z 000000018012efa8     GuPCMTriangleContactGen.obj
 0002:00010fb4       $unwind$?generateTriangleFullContactManifold@PCMConvexVsMeshContactGeneration@Gu@physx@@SA_NAEAVTriangleV@23@IEAEBUPolygonalData@23@PEAV?$SupportLocalImpl@VTriangleV@Gu@physx@@@23@PEAVSupportLocal@23@PEAVMeshPersistentContact@23@AEAIAEBT__m128@@AEAT9@PEAVRenderOutput@Cm@3@@Z 000000018012efb4     GuPCMTriangleContactGen.obj
 0002:00010fdc       $chain$0$?generateTriangleFullContactManifold@PCMConvexVsMeshContactGeneration@Gu@physx@@SA_NAEAVTriangleV@23@IEAEBUPolygonalData@23@PEAV?$SupportLocalImpl@VTriangleV@Gu@physx@@@23@PEAVSupportLocal@23@PEAVMeshPersistentContact@23@AEAIAEBT__m128@@AEAT9@PEAVRenderOutput@Cm@3@@Z 000000018012efdc     GuPCMTriangleContactGen.obj
 0002:00010ff0       $chain$1$?generateTriangleFullContactManifold@PCMConvexVsMeshContactGeneration@Gu@physx@@SA_NAEAVTriangleV@23@IEAEBUPolygonalData@23@PEAV?$SupportLocalImpl@VTriangleV@Gu@physx@@@23@PEAVSupportLocal@23@PEAVMeshPersistentContact@23@AEAIAEBT__m128@@AEAT9@PEAVRenderOutput@Cm@3@@Z 000000018012eff0     GuPCMTriangleContactGen.obj
 0002:00011000       $unwind$?testPolyFaceNormal@physx@@YA_NAEBVTriangleV@Gu@1@AEBUPolygonalData@31@PEAV?$SupportLocalImpl@VTriangleV@Gu@physx@@@31@PEAVSupportLocal@31@AEBT__m128@@AEAT7@AEAI5W4FeatureStatus@31@AEAW4831@@Z 000000018012f000     GuPCMTriangleContactGen.obj
 0002:00011040       $unwind$?testPolyEdgeNormal@physx@@YA_NAEBVTriangleV@Gu@1@EAEBUPolygonalData@31@PEAV?$SupportLocalImpl@VTriangleV@Gu@physx@@@31@PEAVSupportLocal@31@AEBT__m128@@AEAT7@5W4FeatureStatus@31@AEAW4831@@Z 000000018012f040     GuPCMTriangleContactGen.obj
 0002:00011060       $chain$6$?testPolyEdgeNormal@physx@@YA_NAEBVTriangleV@Gu@1@EAEBUPolygonalData@31@PEAV?$SupportLocalImpl@VTriangleV@Gu@physx@@@31@PEAVSupportLocal@31@AEBT__m128@@AEAT7@5W4FeatureStatus@31@AEAW4831@@Z 000000018012f060     GuPCMTriangleContactGen.obj
 0002:0001108c       $unwind$?generatedTriangleContacts@physx@@YAXAEBVTriangleV@Gu@1@IEAEBUPolygonalData@31@AEBUHullPolygonData@31@PEAVSupportLocal@31@PEAVMeshPersistentContact@31@AEAIAEBT__m128@@6PEAVRenderOutput@Cm@1@@Z 000000018012f08c     GuPCMTriangleContactGen.obj
 0002:000110d0       $unwind$?generatedPolyContacts@physx@@YAXAEBUPolygonalData@Gu@1@AEBUHullPolygonData@31@AEBVTriangleV@31@IEPEAVSupportLocal@31@PEAVMeshPersistentContact@31@AEAIAEBT__m128@@6PEAVRenderOutput@Cm@1@@Z 000000018012f0d0     GuPCMTriangleContactGen.obj
 0002:00011114       $unwind$?findRotationMatrixFromZAxis@Gu@physx@@YA?AUMat33V@aos@shdfnd@2@AEBT__m128@@@Z 000000018012f114     GuPersistentContactManifold.obj
 0002:00011130       $chain$3$?findRotationMatrixFromZAxis@Gu@physx@@YA?AUMat33V@aos@shdfnd@2@AEBT__m128@@@Z 000000018012f130     GuPersistentContactManifold.obj
 0002:00011144       $unwind$?reduceBatchContactsCluster@PersistentContactManifold@Gu@physx@@QEAAXPEBVPersistentContact@23@I@Z 000000018012f144     GuPersistentContactManifold.obj
 0002:00011170       $unwind$?reduceBatchContacts2@PersistentContactManifold@Gu@physx@@QEAAXPEBVPersistentContact@23@I@Z 000000018012f170     GuPersistentContactManifold.obj
 0002:00011184       $unwind$?reduceBatchContacts@PersistentContactManifold@Gu@physx@@QEAAXPEBVPersistentContact@23@IM@Z 000000018012f184     GuPersistentContactManifold.obj
 0002:000111b4       $unwind$?reduceContactsForPCM@PersistentContactManifold@Gu@physx@@QEAAIAEBT__m128@@00@Z 000000018012f1b4     GuPersistentContactManifold.obj
 0002:000111e8       $chain$2$?addManifoldContactsToContactBuffer@PersistentContactManifold@Gu@physx@@QEAAXAEAVContactBuffer@23@AEBT__m128@@AEBVPsTransformV@aos@shdfnd@3@1@Z 000000018012f1e8     GuPersistentContactManifold.obj
 0002:00011204       $chain$3$?addManifoldContactsToContactBuffer@PersistentContactManifold@Gu@physx@@QEAAXAEAVContactBuffer@23@AEBT__m128@@AEBVPsTransformV@aos@shdfnd@3@1@Z 000000018012f204     GuPersistentContactManifold.obj
 0002:00011214       $unwind$?addManifoldContactsToContactBuffer@PersistentContactManifold@Gu@physx@@QEAAXAEAVContactBuffer@23@AEBT__m128@@1AEBVPsTransformV@aos@shdfnd@3@11@Z 000000018012f214     GuPersistentContactManifold.obj
 0002:00011228       $chain$4$?addManifoldContactsToContactBuffer@PersistentContactManifold@Gu@physx@@QEAAXAEAVContactBuffer@23@AEBT__m128@@1AEBVPsTransformV@aos@shdfnd@3@11@Z 000000018012f228     GuPersistentContactManifold.obj
 0002:0001124c       $chain$5$?addManifoldContactsToContactBuffer@PersistentContactManifold@Gu@physx@@QEAAXAEAVContactBuffer@23@AEBT__m128@@1AEBVPsTransformV@aos@shdfnd@3@11@Z 000000018012f24c     GuPersistentContactManifold.obj
 0002:0001125c       $unwind$?reduceBatchContactsConvex@SinglePersistentContactManifold@Gu@physx@@QEAA?AT__m128@@PEBVMeshPersistentContact@23@IAEAUPCMContactPatch@23@@Z 000000018012f25c     GuPersistentContactManifold.obj
 0002:00011290       $unwind$?reduceBatchContactsCapsule@SinglePersistentContactManifold@Gu@physx@@QEAA?AT__m128@@PEBVMeshPersistentContact@23@IAEAUPCMContactPatch@23@@Z 000000018012f290     GuPersistentContactManifold.obj
 0002:000112ac       $unwind$?reduceContacts@SinglePersistentContactManifold@Gu@physx@@SAIPEAVMeshPersistentContact@23@I@Z 000000018012f2ac     GuPersistentContactManifold.obj
 0002:000112f4       $unwind$?refreshContactPoints@SinglePersistentContactManifold@Gu@physx@@QEAA?AT__m128@@AEBVPsMatTransformV@aos@shdfnd@3@AEBT4@1@Z 000000018012f2f4     GuPersistentContactManifold.obj
 0002:00011300       $chain$0$?refreshContactPoints@SinglePersistentContactManifold@Gu@physx@@QEAA?AT__m128@@AEBVPsMatTransformV@aos@shdfnd@3@AEBT4@1@Z 000000018012f300     GuPersistentContactManifold.obj
 0002:00011314       $chain$1$?refreshContactPoints@SinglePersistentContactManifold@Gu@physx@@QEAA?AT__m128@@AEBVPsMatTransformV@aos@shdfnd@3@AEBT4@1@Z 000000018012f314     GuPersistentContactManifold.obj
 0002:00011324       $unwind$?addManifoldContactPoints@MultiplePersistentContactManifold@Gu@physx@@QEAAXPEAVMeshPersistentContact@23@IPEAPEAUPCMContactPatch@23@IAEBT__m128@@2E@Z 000000018012f324     GuPersistentContactManifold.obj
 0002:00011340       $unwind$?addManifoldContactsToContactBuffer@MultiplePersistentContactManifold@Gu@physx@@QEAA_NAEAVContactBuffer@23@AEBVPsTransformV@aos@shdfnd@3@@Z 000000018012f340     GuPersistentContactManifold.obj
 0002:00011350       $chain$6$?addManifoldContactsToContactBuffer@MultiplePersistentContactManifold@Gu@physx@@QEAA_NAEAVContactBuffer@23@AEBVPsTransformV@aos@shdfnd@3@@Z 000000018012f350     GuPersistentContactManifold.obj
 0002:0001137c       $chain$7$?addManifoldContactsToContactBuffer@MultiplePersistentContactManifold@Gu@physx@@QEAA_NAEAVContactBuffer@23@AEBVPsTransformV@aos@shdfnd@3@@Z 000000018012f37c     GuPersistentContactManifold.obj
 0002:0001138c       $unwind$?addManifoldContactsToContactBuffer@MultiplePersistentContactManifold@Gu@physx@@QEAA_NAEAVContactBuffer@23@AEBVPsTransformV@aos@shdfnd@3@1AEBT__m128@@@Z 000000018012f38c     GuPersistentContactManifold.obj
 0002:0001139c       $chain$8$?addManifoldContactsToContactBuffer@MultiplePersistentContactManifold@Gu@physx@@QEAA_NAEAVContactBuffer@23@AEBVPsTransformV@aos@shdfnd@3@1AEBT__m128@@@Z 000000018012f39c     GuPersistentContactManifold.obj
 0002:000113d0       $chain$9$?addManifoldContactsToContactBuffer@MultiplePersistentContactManifold@Gu@physx@@QEAA_NAEAVContactBuffer@23@AEBVPsTransformV@aos@shdfnd@3@1AEBT__m128@@@Z 000000018012f3d0     GuPersistentContactManifold.obj
 0002:000113e0       $unwind$?drawManifold@MultiplePersistentContactManifold@Gu@physx@@QEAAXAEAVRenderOutput@Cm@3@AEBVPsTransformV@aos@shdfnd@3@1@Z 000000018012f3e0     GuPersistentContactManifold.obj
 0002:000113f0       $chain$2$?drawManifold@MultiplePersistentContactManifold@Gu@physx@@QEAAXAEAVRenderOutput@Cm@3@AEBVPsTransformV@aos@shdfnd@3@1@Z 000000018012f3f0     GuPersistentContactManifold.obj
 0002:0001140c       $chain$3$?drawManifold@MultiplePersistentContactManifold@Gu@physx@@QEAAXAEAVRenderOutput@Cm@3@AEBVPsTransformV@aos@shdfnd@3@1@Z 000000018012f40c     GuPersistentContactManifold.obj
 0002:0001141c       $chain$1$?fromBuffer@MultiplePersistentContactManifold@Gu@physx@@QEAAXPEIAE@Z 000000018012f41c     GuPersistentContactManifold.obj
 0002:00011434       $chain$2$?fromBuffer@MultiplePersistentContactManifold@Gu@physx@@QEAAXPEIAE@Z 000000018012f434     GuPersistentContactManifold.obj
 0002:00011444       $unwind$?drawPoint@MultiplePersistentContactManifold@Gu@physx@@SAXAEAVRenderOutput@Cm@3@AEBT__m128@@MI@Z 000000018012f444     GuPersistentContactManifold.obj
 0002:00011468       $unwind$?drawPolygon@MultiplePersistentContactManifold@Gu@physx@@SAXAEAVRenderOutput@Cm@3@AEBVPsTransformV@aos@shdfnd@3@PEAT__m128@@II@Z 000000018012f468     GuPersistentContactManifold.obj
 0002:0001147c       $chain$8$?drawPolygon@MultiplePersistentContactManifold@Gu@physx@@SAXAEAVRenderOutput@Cm@3@AEBVPsTransformV@aos@shdfnd@3@PEAT__m128@@II@Z 000000018012f47c     GuPersistentContactManifold.obj
 0002:000114b0       $chain$9$?drawPolygon@MultiplePersistentContactManifold@Gu@physx@@SAXAEAVRenderOutput@Cm@3@AEBVPsTransformV@aos@shdfnd@3@PEAT__m128@@II@Z 000000018012f4b0     GuPersistentContactManifold.obj
 0002:000114c0       $unwind$?addManifoldPoint@Gu@physx@@YAXPEAVPersistentContact@12@AEAVPersistentContactManifold@12@AEAUGjkOutput@12@AEBVPsMatTransformV@aos@shdfnd@2@T__m128@@@Z 000000018012f4c0     GuPersistentContactManifold.obj
 0002:000114cc       $unwind$?distancePointTriangleSquaredLocal@Gu@physx@@YA?AT__m128@@AEBT3@000@Z 000000018012f4cc     GuPersistentContactManifold.obj
 0002:000114fc       $unwind$?drawManifoldPoint@@YAXAEBVPersistentContact@Gu@physx@@AEBVPsTransformV@aos@shdfnd@3@1AEAVRenderOutput@Cm@3@I@Z 000000018012f4fc     GuPersistentContactManifold.obj
 0002:00011534       $chain$0$?addBatchManifoldContactsToSingleManifold@@YA?AT__m128@@PEAVSinglePersistentContactManifold@Gu@physx@@PEAVMeshPersistentContact@34@IPEAUPCMContactPatch@34@AEBT1@E@Z 000000018012f534     GuPersistentContactManifold.obj
 0002:00011548       $unwind$?sweepBoxBox@Gu@physx@@YA_NAEBVBox@12@0AEBVPxVec3@2@MV?$PxFlags@W4Enum@PxHitFlag@physx@@G@2@AEAUPxSweepHit@2@@Z 000000018012f548     GuSweepBoxBox.obj
 0002:00011564       $chain$9$?sweepBoxBox@Gu@physx@@YA_NAEBVBox@12@0AEBVPxVec3@2@MV?$PxFlags@W4Enum@PxHitFlag@physx@@G@2@AEAUPxSweepHit@2@@Z 000000018012f564     GuSweepBoxBox.obj
 0002:0001159c       $chain$10$?sweepBoxBox@Gu@physx@@YA_NAEBVBox@12@0AEBVPxVec3@2@MV?$PxFlags@W4Enum@PxHitFlag@physx@@G@2@AEAUPxSweepHit@2@@Z 000000018012f59c     GuSweepBoxBox.obj
 0002:000115b0       $chain$11$?sweepBoxBox@Gu@physx@@YA_NAEBVBox@12@0AEBVPxVec3@2@MV?$PxFlags@W4Enum@PxHitFlag@physx@@G@2@AEAUPxSweepHit@2@@Z 000000018012f5b0     GuSweepBoxBox.obj
 0002:000115c0       $unwind$?sweepBoxSphere@Gu@physx@@YA_NAEBVBox@12@MAEBVPxVec3@2@1MAEAMAEAV42@V?$PxFlags@W4Enum@PxHitFlag@physx@@G@2@@Z 000000018012f5c0     GuSweepBoxSphere.obj
 0002:000115d4       $chain$0$?sweepBoxSphere@Gu@physx@@YA_NAEBVBox@12@MAEBVPxVec3@2@1MAEAMAEAV42@V?$PxFlags@W4Enum@PxHitFlag@physx@@G@2@@Z 000000018012f5d4     GuSweepBoxSphere.obj
 0002:000115e8       $chain$9$?sweepBoxSphere@Gu@physx@@YA_NAEBVBox@12@MAEBVPxVec3@2@1MAEAMAEAV42@V?$PxFlags@W4Enum@PxHitFlag@physx@@G@2@@Z 000000018012f5e8     GuSweepBoxSphere.obj
 0002:0001161c       $chain$13$?sweepBoxSphere@Gu@physx@@YA_NAEBVBox@12@MAEBVPxVec3@2@1MAEAMAEAV42@V?$PxFlags@W4Enum@PxHitFlag@physx@@G@2@@Z 000000018012f61c     GuSweepBoxSphere.obj
 0002:0001163c       $chain$14$?sweepBoxSphere@Gu@physx@@YA_NAEBVBox@12@MAEBVPxVec3@2@1MAEAMAEAV42@V?$PxFlags@W4Enum@PxHitFlag@physx@@G@2@@Z 000000018012f63c     GuSweepBoxSphere.obj
 0002:0001164c       $chain$15$?sweepBoxSphere@Gu@physx@@YA_NAEBVBox@12@MAEBVPxVec3@2@1MAEAMAEAV42@V?$PxFlags@W4Enum@PxHitFlag@physx@@G@2@@Z 000000018012f64c     GuSweepBoxSphere.obj
 0002:00011674       $chain$16$?sweepBoxSphere@Gu@physx@@YA_NAEBVBox@12@MAEBVPxVec3@2@1MAEAMAEAV42@V?$PxFlags@W4Enum@PxHitFlag@physx@@G@2@@Z 000000018012f674     GuSweepBoxSphere.obj
 0002:00011684       $unwind$?sweepBoxTriangle@Gu@physx@@YA_NAEBVPxTriangle@2@AEBVPxBounds3@2@AEBVPxVec3@2@2AEAV52@3AEAM_N@Z 000000018012f684     GuSweepBoxTriangle_FeatureBased.obj
 0002:000116a8       $chain$0$?sweepBoxTriangle@Gu@physx@@YA_NAEBVPxTriangle@2@AEBVPxBounds3@2@AEBVPxVec3@2@2AEAV52@3AEAM_N@Z 000000018012f6a8     GuSweepBoxTriangle_FeatureBased.obj
 0002:000116bc       $chain$7$?sweepBoxTriangle@Gu@physx@@YA_NAEBVPxTriangle@2@AEBVPxBounds3@2@AEBVPxVec3@2@2AEAV52@3AEAM_N@Z 000000018012f6bc     GuSweepBoxTriangle_FeatureBased.obj
 0002:000116e8       $chain$8$?sweepBoxTriangle@Gu@physx@@YA_NAEBVPxTriangle@2@AEBVPxBounds3@2@AEBVPxVec3@2@2AEAV52@3AEAM_N@Z 000000018012f6e8     GuSweepBoxTriangle_FeatureBased.obj
 0002:000116fc       $chain$9$?sweepBoxTriangle@Gu@physx@@YA_NAEBVPxTriangle@2@AEBVPxBounds3@2@AEBVPxVec3@2@2AEAV52@3AEAM_N@Z 000000018012f6fc     GuSweepBoxTriangle_FeatureBased.obj
 0002:0001170c       $unwind$?inflateTriangle@@YA?AVPxTriangle@physx@@AEBV12@M@Z 000000018012f70c     GuSweepBoxTriangle_FeatureBased.obj
 0002:00011728       $unwind$?triBoxSweepTestBoxSpace@Gu@physx@@YAHAEBVPxTriangle@2@AEBVPxVec3@2@11MAEAM_N@Z 000000018012f728     GuSweepBoxTriangle_SAT.obj
 0002:00011760       $chain$0$?triBoxSweepTestBoxSpace@Gu@physx@@YAHAEBVPxTriangle@2@AEBVPxVec3@2@11MAEAM_N@Z 000000018012f760     GuSweepBoxTriangle_SAT.obj
 0002:00011774       $chain$1$?triBoxSweepTestBoxSpace@Gu@physx@@YAHAEBVPxTriangle@2@AEBVPxVec3@2@11MAEAM_N@Z 000000018012f774     GuSweepBoxTriangle_SAT.obj
 0002:00011784       $chain$2$?triBoxSweepTestBoxSpace@Gu@physx@@YAHAEBVPxTriangle@2@AEBVPxVec3@2@11MAEAM_N@Z 000000018012f784     GuSweepBoxTriangle_SAT.obj
 0002:00011798       $unwind$?sweepCapsuleBox@Gu@physx@@YA_NAEBVCapsule@12@AEBVPxTransform@2@AEBVPxVec3@2@2MAEAV52@AEAM3V?$PxFlags@W4Enum@PxHitFlag@physx@@G@2@@Z 000000018012f798     GuSweepCapsuleBox.obj
 0002:000117b8       $chain$1$?sweepCapsuleBox@Gu@physx@@YA_NAEBVCapsule@12@AEBVPxTransform@2@AEBVPxVec3@2@2MAEAV52@AEAM3V?$PxFlags@W4Enum@PxHitFlag@physx@@G@2@@Z 000000018012f7b8     GuSweepCapsuleBox.obj
 0002:000117d0       $chain$2$?sweepCapsuleBox@Gu@physx@@YA_NAEBVCapsule@12@AEBVPxTransform@2@AEBVPxVec3@2@2MAEAV52@AEAM3V?$PxFlags@W4Enum@PxHitFlag@physx@@G@2@@Z 000000018012f7d0     GuSweepCapsuleBox.obj
 0002:000117e0       $unwind$?extrudeMesh@@YAIIPEBVPxTriangle@physx@@AEBVPxVec3@2@PEAV12@PEAI1@Z 000000018012f7e0     GuSweepCapsuleBox.obj
 0002:000117f4       $chain$11$?extrudeMesh@@YAIIPEBVPxTriangle@physx@@AEBVPxVec3@2@PEAV12@PEAI1@Z 000000018012f7f4     GuSweepCapsuleBox.obj
 0002:00011834       $chain$12$?extrudeMesh@@YAIIPEBVPxTriangle@physx@@AEBVPxVec3@2@PEAV12@PEAI1@Z 000000018012f834     GuSweepCapsuleBox.obj
 0002:00011844       $unwind$?extrudeBox@@YAIAEBVPxBounds3@physx@@PEBVPxTransform@2@AEBVPxVec3@2@PEAVPxTriangle@2@2@Z 000000018012f844     GuSweepCapsuleBox.obj
 0002:00011880       $unwind$?sweepCapsuleCapsule@Gu@physx@@YA_NAEBVCapsule@12@0AEBVPxVec3@2@MAEAMAEAV42@3IAEAG@Z 000000018012f880     GuSweepCapsuleCapsule.obj
 0002:000118a4       $chain$7$?sweepCapsuleCapsule@Gu@physx@@YA_NAEBVCapsule@12@0AEBVPxVec3@2@MAEAMAEAV42@3IAEAG@Z 000000018012f8a4     GuSweepCapsuleCapsule.obj
 0002:000118d4       $chain$8$?sweepCapsuleCapsule@Gu@physx@@YA_NAEBVCapsule@12@0AEBVPxVec3@2@MAEAMAEAV42@3IAEAG@Z 000000018012f8d4     GuSweepCapsuleCapsule.obj
 0002:000118e4       $unwind$?distancePointSegmentSquared@Gu@physx@@YAMAEBVSegment@12@AEBVPxVec3@2@PEAM@Z 000000018012f8e4     GuSweepCapsuleCapsule.obj
 0002:000118fc       $unwind$?edgeEdgeDist@@YAXAEAVPxVec3@physx@@0AEBV12@111@Z 000000018012f8fc     GuSweepCapsuleCapsule.obj
 0002:00011928       $unwind$?sweepCapsuleTriangles_Precise@Gu@physx@@YA_NIPEIBVPxTriangle@2@AEBVCapsule@12@AEBVPxVec3@2@MPEIBIAEAUPxSweepHit@2@AEAV52@V?$PxFlags@W4Enum@PxHitFlag@physx@@G@2@_NPEBVBoxPadded@12@@Z 000000018012f928     GuSweepCapsuleTriangle.obj
 0002:00011938       $chain$10$?sweepCapsuleTriangles_Precise@Gu@physx@@YA_NIPEIBVPxTriangle@2@AEBVCapsule@12@AEBVPxVec3@2@MPEIBIAEAUPxSweepHit@2@AEAV52@V?$PxFlags@W4Enum@PxHitFlag@physx@@G@2@_NPEBVBoxPadded@12@@Z 000000018012f938     GuSweepCapsuleTriangle.obj
 0002:00011974       $chain$14$?sweepCapsuleTriangles_Precise@Gu@physx@@YA_NIPEIBVPxTriangle@2@AEBVCapsule@12@AEBVPxVec3@2@MPEIBIAEAUPxSweepHit@2@AEAV52@V?$PxFlags@W4Enum@PxHitFlag@physx@@G@2@_NPEBVBoxPadded@12@@Z 000000018012f974     GuSweepCapsuleTriangle.obj
 0002:00011994       $chain$15$?sweepCapsuleTriangles_Precise@Gu@physx@@YA_NIPEIBVPxTriangle@2@AEBVCapsule@12@AEBVPxVec3@2@MPEIBIAEAUPxSweepHit@2@AEAV52@V?$PxFlags@W4Enum@PxHitFlag@physx@@G@2@_NPEBVBoxPadded@12@@Z 000000018012f994     GuSweepCapsuleTriangle.obj
 0002:000119a4       $chain$17$?sweepCapsuleTriangles_Precise@Gu@physx@@YA_NIPEIBVPxTriangle@2@AEBVCapsule@12@AEBVPxVec3@2@MPEIBIAEAUPxSweepHit@2@AEAV52@V?$PxFlags@W4Enum@PxHitFlag@physx@@G@2@_NPEBVBoxPadded@12@@Z 000000018012f9a4     GuSweepCapsuleTriangle.obj
 0002:000119f0       $chain$18$?sweepCapsuleTriangles_Precise@Gu@physx@@YA_NIPEIBVPxTriangle@2@AEBVCapsule@12@AEBVPxVec3@2@MPEIBIAEAUPxSweepHit@2@AEAV52@V?$PxFlags@W4Enum@PxHitFlag@physx@@G@2@_NPEBVBoxPadded@12@@Z 000000018012f9f0     GuSweepCapsuleTriangle.obj
 0002:00011a2c       $unwind$?sweepSphereCapsule@Gu@physx@@YA_NAEBVSphere@12@AEBVCapsule@12@AEBVPxVec3@2@MAEAMAEAV52@4V?$PxFlags@W4Enum@PxHitFlag@physx@@G@2@@Z 000000018012fa2c     GuSweepSphereCapsule.obj
 0002:00011a64       $chain$0$?sweepSphereCapsule@Gu@physx@@YA_NAEBVSphere@12@AEBVCapsule@12@AEBVPxVec3@2@MAEAMAEAV52@4V?$PxFlags@W4Enum@PxHitFlag@physx@@G@2@@Z 000000018012fa64     GuSweepSphereCapsule.obj
 0002:00011a78       $chain$1$?sweepSphereCapsule@Gu@physx@@YA_NAEBVSphere@12@AEBVCapsule@12@AEBVPxVec3@2@MAEAMAEAV52@4V?$PxFlags@W4Enum@PxHitFlag@physx@@G@2@@Z 000000018012fa78     GuSweepSphereCapsule.obj
 0002:00011a78       $chain$3$?sweepSphereCapsule@Gu@physx@@YA_NAEBVSphere@12@AEBVCapsule@12@AEBVPxVec3@2@MAEAMAEAV52@4V?$PxFlags@W4Enum@PxHitFlag@physx@@G@2@@Z 000000018012fa78     GuSweepSphereCapsule.obj
 0002:00011a88       $chain$2$?sweepSphereCapsule@Gu@physx@@YA_NAEBVSphere@12@AEBVCapsule@12@AEBVPxVec3@2@MAEAMAEAV52@4V?$PxFlags@W4Enum@PxHitFlag@physx@@G@2@@Z 000000018012fa88     GuSweepSphereCapsule.obj
 0002:00011a9c       $chain$4$?sweepSphereCapsule@Gu@physx@@YA_NAEBVSphere@12@AEBVCapsule@12@AEBVPxVec3@2@MAEAMAEAV52@4V?$PxFlags@W4Enum@PxHitFlag@physx@@G@2@@Z 000000018012fa9c     GuSweepSphereCapsule.obj
 0002:00011ab0       $chain$5$?sweepSphereCapsule@Gu@physx@@YA_NAEBVSphere@12@AEBVCapsule@12@AEBVPxVec3@2@MAEAMAEAV52@4V?$PxFlags@W4Enum@PxHitFlag@physx@@G@2@@Z 000000018012fab0     GuSweepSphereCapsule.obj
 0002:00011ac0       $unwind$?sweepSphereSphere@Gu@physx@@YA_NAEBVPxVec3@2@M0M0AEAMAEAV32@@Z 000000018012fac0     GuSweepSphereSphere.obj
 0002:00011adc       $unwind$?sweepSphereVSTri@Gu@physx@@YA_NPEIBVPxVec3@2@AEBV32@1M1AEAMAEA_N_N@Z 000000018012fadc     GuSweepSphereTriangle.obj
 0002:00011b0c       $unwind$?sweepSphereVSQuad@Gu@physx@@YA_NPEIBVPxVec3@2@AEBV32@1M1AEAM@Z 000000018012fb0c     GuSweepSphereTriangle.obj
 0002:00011b3c       $unwind$?sweepSphereTriangles@Gu@physx@@YA_NIPEIBVPxTriangle@2@AEBVPxVec3@2@M1MPEIBIAEAUPxSweepHit@2@AEAV42@_N555@Z 000000018012fb3c     GuSweepSphereTriangle.obj
 0002:00011b70       $chain$15$?sweepSphereTriangles@Gu@physx@@YA_NIPEIBVPxTriangle@2@AEBVPxVec3@2@M1MPEIBIAEAUPxSweepHit@2@AEAV42@_N555@Z 000000018012fb70     GuSweepSphereTriangle.obj
 0002:00011b98       $unwind$?computeSphereTriImpactData@Gu@physx@@YAXAEAVPxVec3@2@0AEBV32@1MAEBVPxTriangle@2@@Z 000000018012fb98     GuSweepTriangleUtils.obj
 0002:00011bd4       $chain$0$?computeSphereTriImpactData@Gu@physx@@YAXAEAVPxVec3@2@0AEBV32@1MAEBVPxTriangle@2@@Z 000000018012fbd4     GuSweepTriangleUtils.obj
 0002:00011be8       $chain$1$?computeSphereTriImpactData@Gu@physx@@YAXAEAVPxVec3@2@0AEBV32@1MAEBVPxTriangle@2@@Z 000000018012fbe8     GuSweepTriangleUtils.obj
 0002:00011bf8       $unwind$?computeBoxTriImpactData@Gu@physx@@YAXAEAVPxVec3@2@0AEBV32@1AEBVPxTriangle@2@M@Z 000000018012fbf8     GuSweepTriangleUtils.obj
 0002:00011c1c       $unwind$?computeEdgeEdgeNormal@Gu@physx@@YAXAEAVPxVec3@2@AEBV32@1111M@Z 000000018012fc1c     GuSweepTriangleUtils.obj
 0002:00011c4c       $unwind$?runBackupProcedure@@YA_NAEAVPxVec3@physx@@0AEBV12@1AEBVPxTriangle@2@@Z 000000018012fc4c     GuSweepTriangleUtils.obj
 0002:00011c6c       $unwind$??$gjk@U?$LocalConvex@VTriangleV@Gu@physx@@@Gu@physx@@U?$LocalConvex@VBoxV@Gu@physx@@@23@@Gu@physx@@YA?AW4GjkStatus@01@AEBU?$LocalConvex@VTriangleV@Gu@physx@@@01@AEBU?$LocalConvex@VBoxV@Gu@physx@@@01@AEBT__m128@@2AEAT5@333@Z 000000018012fc6c     GuSweepTriangleUtils.obj
 0002:00011cac       xdata                      000000018012fcac     PhysXFoundation_64:PhysXFoundation_64.dll
 0002:00011cb4       $unwind$?DloadMakePermanentImageCommit@@YAXPEAX_K@Z 000000018012fcb4     Delayimp:delayhlp.obj
 0002:00011cc0       $unwind$?DloadProtectSection@@YAXKPEAK@Z 000000018012fcc0     Delayimp:delayhlp.obj
 0002:00011cd0       $unwind$__delayLoadHelper2 000000018012fcd0     Delayimp:delayhlp.obj
 0002:00011cf0       $xdatasym                  000000018012fcf0     MSVCRT:chkstk.obj
 0002:00011cf8       $unwind$?dllmain_crt_process_attach@@YAHQEAUHINSTANCE__@@QEAX@Z 000000018012fcf8     MSVCRT:dll_dllmain.obj
 0002:00011d34       $unwind$?fin$0@?0??dllmain_crt_process_attach@@YAHQEAUHINSTANCE__@@QEAX@Z@4HA 000000018012fd34     MSVCRT:dll_dllmain.obj
 0002:00011d34       $unwind$?fin$0@?0??dllmain_crt_process_detach@@YAH_N@Z@4HA 000000018012fd34     MSVCRT:dll_dllmain.obj
 0002:00011d34       $unwind$?fin$1@?0??dllmain_crt_process_detach@@YAH_N@Z@4HA 000000018012fd34     MSVCRT:dll_dllmain.obj
 0002:00011d3c       $unwind$?dllmain_crt_process_detach@@YAH_N@Z 000000018012fd3c     MSVCRT:dll_dllmain.obj
 0002:00011d90       $unwind$?dllmain_dispatch@@YAHQEAUHINSTANCE__@@KQEAX@Z 000000018012fd90     MSVCRT:dll_dllmain.obj
 0002:00011db8       $unwind$?filt$0@?0??dllmain_dispatch@@YAHQEAUHINSTANCE__@@KQEAX@Z@4HA 000000018012fdb8     MSVCRT:dll_dllmain.obj
 0002:00011dc0       $unwind$__isa_available_init 000000018012fdc0     MSVCRT:cpu_disp.obj
 0002:00011dd0       $xdatasym                  000000018012fdd0     MSVCRT:svml_ssinf4_sse2.obj
 0002:00011e08       $xdatasym                  000000018012fe08     MSVCRT:svml_ssinf4_sse4.obj
 0002:00011e3c       $unwind$__security_init_cookie 000000018012fe3c     MSVCRT:gs_support.obj
 0002:00011e48       $unwind$__scrt_is_nonwritable_in_current_image 000000018012fe48     MSVCRT:utility.obj
 0002:00011e68       $unwind$__scrt_is_nonwritable_in_current_image$filt$0 000000018012fe68     MSVCRT:utility.obj
 0002:00011e70       $unwind$__scrt_fastfail    000000018012fe70     MSVCRT:utility_desktop.obj
 0002:00011e80       $xdatasym                  000000018012fe80     MSVCRT:guard_dispatch.obj
 0002:00011e88       $xdatasym                  000000018012fe88     MSVCRT:guard_xfg_dispatch.obj
 0002:00011e90       $xdatasym                  000000018012fe90     MSVCRT:svml_s_sin_cout.obj
 0002:00012480       .edata                     0000000180130480     PhysXCommon_64.exp
 0002:000124a8       rgpv                       00000001801304a8     PhysXCommon_64.exp
 0002:00012c3c       rgszName                   0000000180130c3c     PhysXCommon_64.exp
 0002:000133d0       rgwOrd                     00000001801313d0     PhysXCommon_64.exp
 0002:0001379a       szName                     000000018013179a     PhysXCommon_64.exp
 0002:000137ad       $N00001                    00000001801317ad     PhysXCommon_64.exp
 0002:000137dc       $N00002                    00000001801317dc     PhysXCommon_64.exp
 0002:00013803       $N00003                    0000000180131803     PhysXCommon_64.exp
 0002:0001383e       $N00004                    000000018013183e     PhysXCommon_64.exp
 0002:0001387e       $N00005                    000000018013187e     PhysXCommon_64.exp
 0002:0001389c       $N00006                    000000018013189c     PhysXCommon_64.exp
 0002:000138db       $N00007                    00000001801318db     PhysXCommon_64.exp
 0002:000138f8       $N00008                    00000001801318f8     PhysXCommon_64.exp
 0002:00013924       $N00009                    0000000180131924     PhysXCommon_64.exp
 0002:00013944       $N00010                    0000000180131944     PhysXCommon_64.exp
 0002:00013965       $N00011                    0000000180131965     PhysXCommon_64.exp
 0002:0001399a       $N00012                    000000018013199a     PhysXCommon_64.exp
 0002:000139b3       $N00013                    00000001801319b3     PhysXCommon_64.exp
 0002:000139d3       $N00014                    00000001801319d3     PhysXCommon_64.exp
 0002:00013a01       $N00015                    0000000180131a01     PhysXCommon_64.exp
 0002:00013a4f       $N00016                    0000000180131a4f     PhysXCommon_64.exp
 0002:00013a6f       $N00017                    0000000180131a6f     PhysXCommon_64.exp
 0002:00013a98       $N00018                    0000000180131a98     PhysXCommon_64.exp
 0002:00013abf       $N00019                    0000000180131abf     PhysXCommon_64.exp
 0002:00013af0       $N00020                    0000000180131af0     PhysXCommon_64.exp
 0002:00013b24       $N00021                    0000000180131b24     PhysXCommon_64.exp
 0002:00013b53       $N00022                    0000000180131b53     PhysXCommon_64.exp
 0002:00013b76       $N00023                    0000000180131b76     PhysXCommon_64.exp
 0002:00013b96       $N00024                    0000000180131b96     PhysXCommon_64.exp
 0002:00013be2       $N00025                    0000000180131be2     PhysXCommon_64.exp
 0002:00013c17       $N00026                    0000000180131c17     PhysXCommon_64.exp
 0002:00013c46       $N00027                    0000000180131c46     PhysXCommon_64.exp
 0002:00013c73       $N00028                    0000000180131c73     PhysXCommon_64.exp
 0002:00013ca4       $N00029                    0000000180131ca4     PhysXCommon_64.exp
 0002:00013cc9       $N00030                    0000000180131cc9     PhysXCommon_64.exp
 0002:00013d0f       $N00031                    0000000180131d0f     PhysXCommon_64.exp
 0002:00013d50       $N00032                    0000000180131d50     PhysXCommon_64.exp
 0002:00013d84       $N00033                    0000000180131d84     PhysXCommon_64.exp
 0002:00013dac       $N00034                    0000000180131dac     PhysXCommon_64.exp
 0002:00013de3       $N00035                    0000000180131de3     PhysXCommon_64.exp
 0002:00013e0e       $N00036                    0000000180131e0e     PhysXCommon_64.exp
 0002:00013e31       $N00037                    0000000180131e31     PhysXCommon_64.exp
 0002:00013e5b       $N00038                    0000000180131e5b     PhysXCommon_64.exp
 0002:00013e8a       $N00039                    0000000180131e8a     PhysXCommon_64.exp
 0002:00013eb4       $N00040                    0000000180131eb4     PhysXCommon_64.exp
 0002:00013ed2       $N00041                    0000000180131ed2     PhysXCommon_64.exp
 0002:00013ef1       $N00042                    0000000180131ef1     PhysXCommon_64.exp
 0002:00013f18       $N00043                    0000000180131f18     PhysXCommon_64.exp
 0002:00013f4e       $N00044                    0000000180131f4e     PhysXCommon_64.exp
 0002:00013f78       $N00045                    0000000180131f78     PhysXCommon_64.exp
 0002:00013fa6       $N00046                    0000000180131fa6     PhysXCommon_64.exp
 0002:00013fd2       $N00047                    0000000180131fd2     PhysXCommon_64.exp
 0002:00013ff6       $N00048                    0000000180131ff6     PhysXCommon_64.exp
 0002:00014039       $N00049                    0000000180132039     PhysXCommon_64.exp
 0002:00014059       $N00050                    0000000180132059     PhysXCommon_64.exp
 0002:0001407d       $N00051                    000000018013207d     PhysXCommon_64.exp
 0002:000140a4       $N00052                    00000001801320a4     PhysXCommon_64.exp
 0002:000140cd       $N00053                    00000001801320cd     PhysXCommon_64.exp
 0002:000140eb       $N00054                    00000001801320eb     PhysXCommon_64.exp
 0002:00014108       $N00055                    0000000180132108     PhysXCommon_64.exp
 0002:00014128       $N00056                    0000000180132128     PhysXCommon_64.exp
 0002:00014141       $N00057                    0000000180132141     PhysXCommon_64.exp
 0002:0001416b       $N00058                    000000018013216b     PhysXCommon_64.exp
 0002:0001418b       $N00059                    000000018013218b     PhysXCommon_64.exp
 0002:000141ab       $N00060                    00000001801321ab     PhysXCommon_64.exp
 0002:000141cc       $N00061                    00000001801321cc     PhysXCommon_64.exp
 0002:000141f1       $N00062                    00000001801321f1     PhysXCommon_64.exp
 0002:00014219       $N00063                    0000000180132219     PhysXCommon_64.exp
 0002:0001423c       $N00064                    000000018013223c     PhysXCommon_64.exp
 0002:0001425a       $N00065                    000000018013225a     PhysXCommon_64.exp
 0002:00014279       $N00066                    0000000180132279     PhysXCommon_64.exp
 0002:00014299       $N00067                    0000000180132299     PhysXCommon_64.exp
 0002:000142b8       $N00068                    00000001801322b8     PhysXCommon_64.exp
 0002:000142df       $N00069                    00000001801322df     PhysXCommon_64.exp
 0002:000142ff       $N00070                    00000001801322ff     PhysXCommon_64.exp
 0002:00014323       $N00071                    0000000180132323     PhysXCommon_64.exp
 0002:00014359       $N00072                    0000000180132359     PhysXCommon_64.exp
 0002:00014391       $N00073                    0000000180132391     PhysXCommon_64.exp
 0002:000143be       $N00074                    00000001801323be     PhysXCommon_64.exp
 0002:000143e6       $N00075                    00000001801323e6     PhysXCommon_64.exp
 0002:00014417       $N00076                    0000000180132417     PhysXCommon_64.exp
 0002:00014446       $N00077                    0000000180132446     PhysXCommon_64.exp
 0002:0001447f       $N00078                    000000018013247f     PhysXCommon_64.exp
 0002:000144af       $N00079                    00000001801324af     PhysXCommon_64.exp
 0002:000144dd       $N00080                    00000001801324dd     PhysXCommon_64.exp
 0002:00014511       $N00081                    0000000180132511     PhysXCommon_64.exp
 0002:00014543       $N00082                    0000000180132543     PhysXCommon_64.exp
 0002:00014579       $N00083                    0000000180132579     PhysXCommon_64.exp
 0002:000145ad       $N00084                    00000001801325ad     PhysXCommon_64.exp
 0002:000145e8       $N00085                    00000001801325e8     PhysXCommon_64.exp
 0002:00014621       $N00086                    0000000180132621     PhysXCommon_64.exp
 0002:00014657       $N00087                    0000000180132657     PhysXCommon_64.exp
 0002:0001468b       $N00088                    000000018013268b     PhysXCommon_64.exp
 0002:000146c0       $N00089                    00000001801326c0     PhysXCommon_64.exp
 0002:00014708       $N00090                    0000000180132708     PhysXCommon_64.exp
 0002:0001474e       $N00091                    000000018013274e     PhysXCommon_64.exp
 0002:00014780       $N00092                    0000000180132780     PhysXCommon_64.exp
 0002:000147ad       $N00093                    00000001801327ad     PhysXCommon_64.exp
 0002:000147e2       $N00094                    00000001801327e2     PhysXCommon_64.exp
 0002:00014815       $N00095                    0000000180132815     PhysXCommon_64.exp
 0002:00014853       $N00096                    0000000180132853     PhysXCommon_64.exp
 0002:00014893       $N00097                    0000000180132893     PhysXCommon_64.exp
 0002:000148d3       $N00098                    00000001801328d3     PhysXCommon_64.exp
 0002:00014911       $N00099                    0000000180132911     PhysXCommon_64.exp
 0002:00014952       $N00100                    0000000180132952     PhysXCommon_64.exp
 0002:0001498c       $N00101                    000000018013298c     PhysXCommon_64.exp
 0002:000149c3       $N00102                    00000001801329c3     PhysXCommon_64.exp
 0002:000149fe       $N00103                    00000001801329fe     PhysXCommon_64.exp
 0002:00014a28       $N00104                    0000000180132a28     PhysXCommon_64.exp
 0002:00014a5b       $N00105                    0000000180132a5b     PhysXCommon_64.exp
 0002:00014a94       $N00106                    0000000180132a94     PhysXCommon_64.exp
 0002:00014ab1       $N00107                    0000000180132ab1     PhysXCommon_64.exp
 0002:00014acd       $N00108                    0000000180132acd     PhysXCommon_64.exp
 0002:00014af1       $N00109                    0000000180132af1     PhysXCommon_64.exp
 0002:00014b1b       $N00110                    0000000180132b1b     PhysXCommon_64.exp
 0002:00014b5d       $N00111                    0000000180132b5d     PhysXCommon_64.exp
 0002:00014b9d       $N00112                    0000000180132b9d     PhysXCommon_64.exp
 0002:00014bcf       $N00113                    0000000180132bcf     PhysXCommon_64.exp
 0002:00014c0f       $N00114                    0000000180132c0f     PhysXCommon_64.exp
 0002:00014c48       $N00115                    0000000180132c48     PhysXCommon_64.exp
 0002:00014c74       $N00116                    0000000180132c74     PhysXCommon_64.exp
 0002:00014ca6       $N00117                    0000000180132ca6     PhysXCommon_64.exp
 0002:00014ccd       $N00118                    0000000180132ccd     PhysXCommon_64.exp
 0002:00014cfb       $N00119                    0000000180132cfb     PhysXCommon_64.exp
 0002:00014d26       $N00120                    0000000180132d26     PhysXCommon_64.exp
 0002:00014d53       $N00121                    0000000180132d53     PhysXCommon_64.exp
 0002:00014d7c       $N00122                    0000000180132d7c     PhysXCommon_64.exp
 0002:00014dab       $N00123                    0000000180132dab     PhysXCommon_64.exp
 0002:00014dd4       $N00124                    0000000180132dd4     PhysXCommon_64.exp
 0002:00014dfd       $N00125                    0000000180132dfd     PhysXCommon_64.exp
 0002:00014e2b       $N00126                    0000000180132e2b     PhysXCommon_64.exp
 0002:00014e53       $N00127                    0000000180132e53     PhysXCommon_64.exp
 0002:00014e8e       $N00128                    0000000180132e8e     PhysXCommon_64.exp
 0002:00014eb8       $N00129                    0000000180132eb8     PhysXCommon_64.exp
 0002:00014ef0       $N00130                    0000000180132ef0     PhysXCommon_64.exp
 0002:00014f38       $N00131                    0000000180132f38     PhysXCommon_64.exp
 0002:00014f6a       $N00132                    0000000180132f6a     PhysXCommon_64.exp
 0002:00014fa8       $N00133                    0000000180132fa8     PhysXCommon_64.exp
 0002:00014fd6       $N00134                    0000000180132fd6     PhysXCommon_64.exp
 0002:0001500c       $N00135                    000000018013300c     PhysXCommon_64.exp
 0002:00015049       $N00136                    0000000180133049     PhysXCommon_64.exp
 0002:00015077       $N00137                    0000000180133077     PhysXCommon_64.exp
 0002:000150bc       $N00138                    00000001801330bc     PhysXCommon_64.exp
 0002:000150f2       $N00139                    00000001801330f2     PhysXCommon_64.exp
 0002:0001512d       $N00140                    000000018013312d     PhysXCommon_64.exp
 0002:00015168       $N00141                    0000000180133168     PhysXCommon_64.exp
 0002:000151c2       $N00142                    00000001801331c2     PhysXCommon_64.exp
 0002:00015215       $N00143                    0000000180133215     PhysXCommon_64.exp
 0002:00015271       $N00144                    0000000180133271     PhysXCommon_64.exp
 0002:000152aa       $N00145                    00000001801332aa     PhysXCommon_64.exp
 0002:000152e4       $N00146                    00000001801332e4     PhysXCommon_64.exp
 0002:0001535f       $N00147                    000000018013335f     PhysXCommon_64.exp
 0002:0001538e       $N00148                    000000018013338e     PhysXCommon_64.exp
 0002:000153be       $N00149                    00000001801333be     PhysXCommon_64.exp
 0002:00015400       $N00150                    0000000180133400     PhysXCommon_64.exp
 0002:00015438       $N00151                    0000000180133438     PhysXCommon_64.exp
 0002:0001547e       $N00152                    000000018013347e     PhysXCommon_64.exp
 0002:000154c0       $N00153                    00000001801334c0     PhysXCommon_64.exp
 0002:0001550d       $N00154                    000000018013350d     PhysXCommon_64.exp
 0002:00015551       $N00155                    0000000180133551     PhysXCommon_64.exp
 0002:000155e6       $N00156                    00000001801335e6     PhysXCommon_64.exp
 0002:0001567f       $N00157                    000000018013367f     PhysXCommon_64.exp
 0002:0001570b       $N00158                    000000018013370b     PhysXCommon_64.exp
 0002:00015751       $N00159                    0000000180133751     PhysXCommon_64.exp
 0002:00015781       $N00160                    0000000180133781     PhysXCommon_64.exp
 0002:000157a6       $N00161                    00000001801337a6     PhysXCommon_64.exp
 0002:0001580f       $N00162                    000000018013380f     PhysXCommon_64.exp
 0002:0001583d       $N00163                    000000018013383d     PhysXCommon_64.exp
 0002:000158a3       $N00164                    00000001801338a3     PhysXCommon_64.exp
 0002:00015906       $N00165                    0000000180133906     PhysXCommon_64.exp
 0002:00015946       $N00166                    0000000180133946     PhysXCommon_64.exp
 0002:00015989       $N00167                    0000000180133989     PhysXCommon_64.exp
 0002:000159cb       $N00168                    00000001801339cb     PhysXCommon_64.exp
 0002:00015a4b       $N00169                    0000000180133a4b     PhysXCommon_64.exp
 0002:00015a7f       $N00170                    0000000180133a7f     PhysXCommon_64.exp
 0002:00015aef       $N00171                    0000000180133aef     PhysXCommon_64.exp
 0002:00015b3b       $N00172                    0000000180133b3b     PhysXCommon_64.exp
 0002:00015bb7       $N00173                    0000000180133bb7     PhysXCommon_64.exp
 0002:00015bed       $N00174                    0000000180133bed     PhysXCommon_64.exp
 0002:00015c2d       $N00175                    0000000180133c2d     PhysXCommon_64.exp
 0002:00015c6a       $N00176                    0000000180133c6a     PhysXCommon_64.exp
 0002:00015cb0       $N00177                    0000000180133cb0     PhysXCommon_64.exp
 0002:00015cd3       $N00178                    0000000180133cd3     PhysXCommon_64.exp
 0002:00015cf6       $N00179                    0000000180133cf6     PhysXCommon_64.exp
 0002:00015d69       $N00180                    0000000180133d69     PhysXCommon_64.exp
 0002:00015da4       $N00181                    0000000180133da4     PhysXCommon_64.exp
 0002:00015e0c       $N00182                    0000000180133e0c     PhysXCommon_64.exp
 0002:00015e6f       $N00183                    0000000180133e6f     PhysXCommon_64.exp
 0002:00015f09       $N00184                    0000000180133f09     PhysXCommon_64.exp
 0002:00015fa6       $N00185                    0000000180133fa6     PhysXCommon_64.exp
 0002:00016048       $N00186                    0000000180134048     PhysXCommon_64.exp
 0002:000160e3       $N00187                    00000001801340e3     PhysXCommon_64.exp
 0002:00016181       $N00188                    0000000180134181     PhysXCommon_64.exp
 0002:00016223       $N00189                    0000000180134223     PhysXCommon_64.exp
 0002:000162c4       $N00190                    00000001801342c4     PhysXCommon_64.exp
 0002:0001636a       $N00191                    000000018013436a     PhysXCommon_64.exp
 0002:00016409       $N00192                    0000000180134409     PhysXCommon_64.exp
 0002:000164a9       $N00193                    00000001801344a9     PhysXCommon_64.exp
 0002:0001654e       $N00194                    000000018013454e     PhysXCommon_64.exp
 0002:000165ec       $N00195                    00000001801345ec     PhysXCommon_64.exp
 0002:00016688       $N00196                    0000000180134688     PhysXCommon_64.exp
 0002:00016728       $N00197                    0000000180134728     PhysXCommon_64.exp
 0002:000167c7       $N00198                    00000001801347c7     PhysXCommon_64.exp
 0002:0001685c       $N00199                    000000018013485c     PhysXCommon_64.exp
 0002:000168f9       $N00200                    00000001801348f9     PhysXCommon_64.exp
 0002:0001699a       $N00201                    000000018013499a     PhysXCommon_64.exp
 0002:00016a3f       $N00202                    0000000180134a3f     PhysXCommon_64.exp
 0002:00016add       $N00203                    0000000180134add     PhysXCommon_64.exp
 0002:00016b7c       $N00204                    0000000180134b7c     PhysXCommon_64.exp
 0002:00016c1c       $N00205                    0000000180134c1c     PhysXCommon_64.exp
 0002:00016c49       $N00206                    0000000180134c49     PhysXCommon_64.exp
 0002:00016ca8       $N00207                    0000000180134ca8     PhysXCommon_64.exp
 0002:00016d01       $N00208                    0000000180134d01     PhysXCommon_64.exp
 0002:00016d4a       $N00209                    0000000180134d4a     PhysXCommon_64.exp
 0002:00016da7       $N00210                    0000000180134da7     PhysXCommon_64.exp
 0002:00016dfc       $N00211                    0000000180134dfc     PhysXCommon_64.exp
 0002:00016e41       $N00212                    0000000180134e41     PhysXCommon_64.exp
 0002:00016e98       $N00213                    0000000180134e98     PhysXCommon_64.exp
 0002:00016edf       $N00214                    0000000180134edf     PhysXCommon_64.exp
 0002:00016f46       $N00215                    0000000180134f46     PhysXCommon_64.exp
 0002:00016f9c       $N00216                    0000000180134f9c     PhysXCommon_64.exp
 0002:00016ff3       $N00217                    0000000180134ff3     PhysXCommon_64.exp
 0002:0001705c       $N00218                    000000018013505c     PhysXCommon_64.exp
 0002:000170bb       $N00219                    00000001801350bb     PhysXCommon_64.exp
 0002:00017114       $N00220                    0000000180135114     PhysXCommon_64.exp
 0002:0001715d       $N00221                    000000018013515d     PhysXCommon_64.exp
 0002:0001718e       $N00222                    000000018013518e     PhysXCommon_64.exp
 0002:000171d7       $N00223                    00000001801351d7     PhysXCommon_64.exp
 0002:0001722b       $N00224                    000000018013522b     PhysXCommon_64.exp
 0002:00017274       $N00225                    0000000180135274     PhysXCommon_64.exp
 0002:000172b8       $N00226                    00000001801352b8     PhysXCommon_64.exp
 0002:000172fe       $N00227                    00000001801352fe     PhysXCommon_64.exp
 0002:00017349       $N00228                    0000000180135349     PhysXCommon_64.exp
 0002:00017390       $N00229                    0000000180135390     PhysXCommon_64.exp
 0002:000173f0       $N00230                    00000001801353f0     PhysXCommon_64.exp
 0002:0001744e       $N00231                    000000018013544e     PhysXCommon_64.exp
 0002:000174c5       $N00232                    00000001801354c5     PhysXCommon_64.exp
 0002:00017526       $N00233                    0000000180135526     PhysXCommon_64.exp
 0002:000175a7       $N00234                    00000001801355a7     PhysXCommon_64.exp
 0002:000175f7       $N00235                    00000001801355f7     PhysXCommon_64.exp
 0002:00017642       $N00236                    0000000180135642     PhysXCommon_64.exp
 0002:0001768d       $N00237                    000000018013568d     PhysXCommon_64.exp
 0002:000176d9       $N00238                    00000001801356d9     PhysXCommon_64.exp
 0002:00017722       $N00239                    0000000180135722     PhysXCommon_64.exp
 0002:00017774       $N00240                    0000000180135774     PhysXCommon_64.exp
 0002:00017799       $N00241                    0000000180135799     PhysXCommon_64.exp
 0002:000177eb       $N00242                    00000001801357eb     PhysXCommon_64.exp
 0002:00017843       $N00243                    0000000180135843     PhysXCommon_64.exp
 0002:000178bf       $N00244                    00000001801358bf     PhysXCommon_64.exp
 0002:0001793d       $N00245                    000000018013593d     PhysXCommon_64.exp
 0002:00017991       $N00246                    0000000180135991     PhysXCommon_64.exp
 0002:000179d3       $N00247                    00000001801359d3     PhysXCommon_64.exp
 0002:00017a2c       $N00248                    0000000180135a2c     PhysXCommon_64.exp
 0002:00017a5d       $N00249                    0000000180135a5d     PhysXCommon_64.exp
 0002:00017aa2       $N00250                    0000000180135aa2     PhysXCommon_64.exp
 0002:00017ade       $N00251                    0000000180135ade     PhysXCommon_64.exp
 0002:00017b14       $N00252                    0000000180135b14     PhysXCommon_64.exp
 0002:00017b5d       $N00253                    0000000180135b5d     PhysXCommon_64.exp
 0002:00017ba0       $N00254                    0000000180135ba0     PhysXCommon_64.exp
 0002:00017be8       $N00255                    0000000180135be8     PhysXCommon_64.exp
 0002:00017c2b       $N00256                    0000000180135c2b     PhysXCommon_64.exp
 0002:00017c6e       $N00257                    0000000180135c6e     PhysXCommon_64.exp
 0002:00017cb4       $N00258                    0000000180135cb4     PhysXCommon_64.exp
 0002:00017cf8       $N00259                    0000000180135cf8     PhysXCommon_64.exp
 0002:00017d43       $N00260                    0000000180135d43     PhysXCommon_64.exp
 0002:00017d84       $N00261                    0000000180135d84     PhysXCommon_64.exp
 0002:00017dce       $N00262                    0000000180135dce     PhysXCommon_64.exp
 0002:00017e13       $N00263                    0000000180135e13     PhysXCommon_64.exp
 0002:00017e33       $N00264                    0000000180135e33     PhysXCommon_64.exp
 0002:00017e67       $N00265                    0000000180135e67     PhysXCommon_64.exp
 0002:00017e9c       $N00266                    0000000180135e9c     PhysXCommon_64.exp
 0002:00017f17       $N00267                    0000000180135f17     PhysXCommon_64.exp
 0002:00017f4d       $N00268                    0000000180135f4d     PhysXCommon_64.exp
 0002:00017f93       $N00269                    0000000180135f93     PhysXCommon_64.exp
 0002:00017fba       $N00270                    0000000180135fba     PhysXCommon_64.exp
 0002:00017fdf       $N00271                    0000000180135fdf     PhysXCommon_64.exp
 0002:0001801c       $N00272                    000000018013601c     PhysXCommon_64.exp
 0002:00018051       $N00273                    0000000180136051     PhysXCommon_64.exp
 0002:00018089       $N00274                    0000000180136089     PhysXCommon_64.exp
 0002:000180c4       $N00275                    00000001801360c4     PhysXCommon_64.exp
 0002:00018112       $N00276                    0000000180136112     PhysXCommon_64.exp
 0002:0001817e       $N00277                    000000018013617e     PhysXCommon_64.exp
 0002:000181bc       $N00278                    00000001801361bc     PhysXCommon_64.exp
 0002:000181ee       $N00279                    00000001801361ee     PhysXCommon_64.exp
 0002:0001822e       $N00280                    000000018013622e     PhysXCommon_64.exp
 0002:00018286       $N00281                    0000000180136286     PhysXCommon_64.exp
 0002:000182cd       $N00282                    00000001801362cd     PhysXCommon_64.exp
 0002:0001830a       $N00283                    000000018013630a     PhysXCommon_64.exp
 0002:00018335       $N00284                    0000000180136335     PhysXCommon_64.exp
 0002:00018370       $N00285                    0000000180136370     PhysXCommon_64.exp
 0002:000183b4       $N00286                    00000001801363b4     PhysXCommon_64.exp
 0002:00018409       $N00287                    0000000180136409     PhysXCommon_64.exp
 0002:00018450       $N00288                    0000000180136450     PhysXCommon_64.exp
 0002:00018480       $N00289                    0000000180136480     PhysXCommon_64.exp
 0002:000184bb       $N00290                    00000001801364bb     PhysXCommon_64.exp
 0002:00018523       $N00291                    0000000180136523     PhysXCommon_64.exp
 0002:00018573       $N00292                    0000000180136573     PhysXCommon_64.exp
 0002:000185a4       $N00293                    00000001801365a4     PhysXCommon_64.exp
 0002:000185d0       $N00294                    00000001801365d0     PhysXCommon_64.exp
 0002:00018600       $N00295                    0000000180136600     PhysXCommon_64.exp
 0002:00018630       $N00296                    0000000180136630     PhysXCommon_64.exp
 0002:0001865c       $N00297                    000000018013665c     PhysXCommon_64.exp
 0002:00018691       $N00298                    0000000180136691     PhysXCommon_64.exp
 0002:000186ba       $N00299                    00000001801366ba     PhysXCommon_64.exp
 0002:000186f6       $N00300                    00000001801366f6     PhysXCommon_64.exp
 0002:00018728       $N00301                    0000000180136728     PhysXCommon_64.exp
 0002:00018754       $N00302                    0000000180136754     PhysXCommon_64.exp
 0002:00018787       $N00303                    0000000180136787     PhysXCommon_64.exp
 0002:000187cd       $N00304                    00000001801367cd     PhysXCommon_64.exp
 0002:000187fa       $N00305                    00000001801367fa     PhysXCommon_64.exp
 0002:00018833       $N00306                    0000000180136833     PhysXCommon_64.exp
 0002:0001886c       $N00307                    000000018013686c     PhysXCommon_64.exp
 0002:000188a2       $N00308                    00000001801368a2     PhysXCommon_64.exp
 0002:0001890c       $N00309                    000000018013690c     PhysXCommon_64.exp
 0002:00018959       $N00310                    0000000180136959     PhysXCommon_64.exp
 0002:0001899c       $N00311                    000000018013699c     PhysXCommon_64.exp
 0002:000189e3       $N00312                    00000001801369e3     PhysXCommon_64.exp
 0002:00018a16       $N00313                    0000000180136a16     PhysXCommon_64.exp
 0002:00018a50       $N00314                    0000000180136a50     PhysXCommon_64.exp
 0002:00018a8a       $N00315                    0000000180136a8a     PhysXCommon_64.exp
 0002:00018ab4       $N00316                    0000000180136ab4     PhysXCommon_64.exp
 0002:00018ade       $N00317                    0000000180136ade     PhysXCommon_64.exp
 0002:00018b7c       $N00318                    0000000180136b7c     PhysXCommon_64.exp
 0002:00018bac       $N00319                    0000000180136bac     PhysXCommon_64.exp
 0002:00018bdd       $N00320                    0000000180136bdd     PhysXCommon_64.exp
 0002:00018c21       $N00321                    0000000180136c21     PhysXCommon_64.exp
 0002:00018c50       $N00322                    0000000180136c50     PhysXCommon_64.exp
 0002:00018cc2       $N00323                    0000000180136cc2     PhysXCommon_64.exp
 0002:00018cfa       $N00324                    0000000180136cfa     PhysXCommon_64.exp
 0002:00018d26       $N00325                    0000000180136d26     PhysXCommon_64.exp
 0002:00018d5a       $N00326                    0000000180136d5a     PhysXCommon_64.exp
 0002:00018db5       $N00327                    0000000180136db5     PhysXCommon_64.exp
 0002:00018e20       $N00328                    0000000180136e20     PhysXCommon_64.exp
 0002:00018e8c       $N00329                    0000000180136e8c     PhysXCommon_64.exp
 0002:00018ec5       $N00330                    0000000180136ec5     PhysXCommon_64.exp
 0002:00018f0f       $N00331                    0000000180136f0f     PhysXCommon_64.exp
 0002:00018f4c       $N00332                    0000000180136f4c     PhysXCommon_64.exp
 0002:00018f8e       $N00333                    0000000180136f8e     PhysXCommon_64.exp
 0002:00018fd8       $N00334                    0000000180136fd8     PhysXCommon_64.exp
 0002:00019011       $N00335                    0000000180137011     PhysXCommon_64.exp
 0002:00019050       $N00336                    0000000180137050     PhysXCommon_64.exp
 0002:00019091       $N00337                    0000000180137091     PhysXCommon_64.exp
 0002:000190c7       $N00338                    00000001801370c7     PhysXCommon_64.exp
 0002:00019126       $N00339                    0000000180137126     PhysXCommon_64.exp
 0002:00019165       $N00340                    0000000180137165     PhysXCommon_64.exp
 0002:000191a4       $N00341                    00000001801371a4     PhysXCommon_64.exp
 0002:000191f5       $N00342                    00000001801371f5     PhysXCommon_64.exp
 0002:00019246       $N00343                    0000000180137246     PhysXCommon_64.exp
 0002:00019293       $N00344                    0000000180137293     PhysXCommon_64.exp
 0002:000192e0       $N00345                    00000001801372e0     PhysXCommon_64.exp
 0002:0001932e       $N00346                    000000018013732e     PhysXCommon_64.exp
 0002:00019379       $N00347                    0000000180137379     PhysXCommon_64.exp
 0002:000193a6       $N00348                    00000001801373a6     PhysXCommon_64.exp
 0002:000193ce       $N00349                    00000001801373ce     PhysXCommon_64.exp
 0002:0001943b       $N00350                    000000018013743b     PhysXCommon_64.exp
 0002:0001947b       $N00351                    000000018013747b     PhysXCommon_64.exp
 0002:000194fd       $N00352                    00000001801374fd     PhysXCommon_64.exp
 0002:00019581       $N00353                    0000000180137581     PhysXCommon_64.exp
 0002:0001960b       $N00354                    000000018013760b     PhysXCommon_64.exp
 0002:00019697       $N00355                    0000000180137697     PhysXCommon_64.exp
 0002:000196d7       $N00356                    00000001801376d7     PhysXCommon_64.exp
 0002:0001971a       $N00357                    000000018013771a     PhysXCommon_64.exp
 0002:0001978d       $N00358                    000000018013778d     PhysXCommon_64.exp
 0002:00019802       $N00359                    0000000180137802     PhysXCommon_64.exp
 0002:0001983d       $N00360                    000000018013783d     PhysXCommon_64.exp
 0002:00019877       $N00361                    0000000180137877     PhysXCommon_64.exp
 0002:000198ae       $N00362                    00000001801378ae     PhysXCommon_64.exp
 0002:000198ef       $N00363                    00000001801378ef     PhysXCommon_64.exp
 0002:00019935       $N00364                    0000000180137935     PhysXCommon_64.exp
 0002:000199bd       $N00365                    00000001801379bd     PhysXCommon_64.exp
 0002:00019a47       $N00366                    0000000180137a47     PhysXCommon_64.exp
 0002:00019a8d       $N00367                    0000000180137a8d     PhysXCommon_64.exp
 0002:00019ad2       $N00368                    0000000180137ad2     PhysXCommon_64.exp
 0002:00019b10       $N00369                    0000000180137b10     PhysXCommon_64.exp
 0002:00019b7b       $N00370                    0000000180137b7b     PhysXCommon_64.exp
 0002:00019be5       $N00371                    0000000180137be5     PhysXCommon_64.exp
 0002:00019c12       $N00372                    0000000180137c12     PhysXCommon_64.exp
 0002:00019c4b       $N00373                    0000000180137c4b     PhysXCommon_64.exp
 0002:00019c86       $N00374                    0000000180137c86     PhysXCommon_64.exp
 0002:00019cb5       $N00375                    0000000180137cb5     PhysXCommon_64.exp
 0002:00019ce0       $N00376                    0000000180137ce0     PhysXCommon_64.exp
 0002:00019d0c       $N00377                    0000000180137d0c     PhysXCommon_64.exp
 0002:00019d39       $N00378                    0000000180137d39     PhysXCommon_64.exp
 0002:00019d6e       $N00379                    0000000180137d6e     PhysXCommon_64.exp
 0002:00019dae       $N00380                    0000000180137dae     PhysXCommon_64.exp
 0002:00019dce       $N00381                    0000000180137dce     PhysXCommon_64.exp
 0002:00019e06       $N00382                    0000000180137e06     PhysXCommon_64.exp
 0002:00019e3e       $N00383                    0000000180137e3e     PhysXCommon_64.exp
 0002:00019e77       $N00384                    0000000180137e77     PhysXCommon_64.exp
 0002:00019ebc       $N00385                    0000000180137ebc     PhysXCommon_64.exp
 0002:00019efc       $N00386                    0000000180137efc     PhysXCommon_64.exp
 0002:00019f5b       $N00387                    0000000180137f5b     PhysXCommon_64.exp
 0002:00019fb6       $N00388                    0000000180137fb6     PhysXCommon_64.exp
 0002:0001a000       $N00389                    0000000180138000     PhysXCommon_64.exp
 0002:0001a042       $N00390                    0000000180138042     PhysXCommon_64.exp
 0002:0001a06f       $N00391                    000000018013806f     PhysXCommon_64.exp
 0002:0001a09d       $N00392                    000000018013809d     PhysXCommon_64.exp
 0002:0001a0e2       $N00393                    00000001801380e2     PhysXCommon_64.exp
 0002:0001a11e       $N00394                    000000018013811e     PhysXCommon_64.exp
 0002:0001a16a       $N00395                    000000018013816a     PhysXCommon_64.exp
 0002:0001a1de       $N00396                    00000001801381de     PhysXCommon_64.exp
 0002:0001a27b       $N00397                    000000018013827b     PhysXCommon_64.exp
 0002:0001a31b       $N00398                    000000018013831b     PhysXCommon_64.exp
 0002:0001a3c0       $N00399                    00000001801383c0     PhysXCommon_64.exp
 0002:0001a45e       $N00400                    000000018013845e     PhysXCommon_64.exp
 0002:0001a4ff       $N00401                    00000001801384ff     PhysXCommon_64.exp
 0002:0001a5a4       $N00402                    00000001801385a4     PhysXCommon_64.exp
 0002:0001a648       $N00403                    0000000180138648     PhysXCommon_64.exp
 0002:0001a6f1       $N00404                    00000001801386f1     PhysXCommon_64.exp
 0002:0001a793       $N00405                    0000000180138793     PhysXCommon_64.exp
 0002:0001a836       $N00406                    0000000180138836     PhysXCommon_64.exp
 0002:0001a8de       $N00407                    00000001801388de     PhysXCommon_64.exp
 0002:0001a97f       $N00408                    000000018013897f     PhysXCommon_64.exp
 0002:0001aa1e       $N00409                    0000000180138a1e     PhysXCommon_64.exp
 0002:0001aac1       $N00410                    0000000180138ac1     PhysXCommon_64.exp
 0002:0001ab63       $N00411                    0000000180138b63     PhysXCommon_64.exp
 0002:0001ac03       $N00412                    0000000180138c03     PhysXCommon_64.exp
 0002:0001aca7       $N00413                    0000000180138ca7     PhysXCommon_64.exp
 0002:0001ad4a       $N00414                    0000000180138d4a     PhysXCommon_64.exp
 0002:0001adf2       $N00415                    0000000180138df2     PhysXCommon_64.exp
 0002:0001ae93       $N00416                    0000000180138e93     PhysXCommon_64.exp
 0002:0001af35       $N00417                    0000000180138f35     PhysXCommon_64.exp
 0002:0001afd8       $N00418                    0000000180138fd8     PhysXCommon_64.exp
 0002:0001b03b       $N00419                    000000018013903b     PhysXCommon_64.exp
 0002:0001b06c       $N00420                    000000018013906c     PhysXCommon_64.exp
 0002:0001b09e       $N00421                    000000018013909e     PhysXCommon_64.exp
 0002:0001b132       $N00422                    0000000180139132     PhysXCommon_64.exp
 0002:0001b1ea       $N00423                    00000001801391ea     PhysXCommon_64.exp
 0002:0001b2a4       $N00424                    00000001801392a4     PhysXCommon_64.exp
 0002:0001b2d2       $N00425                    00000001801392d2     PhysXCommon_64.exp
 0002:0001b308       $N00426                    0000000180139308     PhysXCommon_64.exp
 0002:0001b34c       $N00427                    000000018013934c     PhysXCommon_64.exp
 0002:0001b3ef       $N00428                    00000001801393ef     PhysXCommon_64.exp
 0002:0001b485       $N00429                    0000000180139485     PhysXCommon_64.exp
 0002:0001b4f8       $N00430                    00000001801394f8     PhysXCommon_64.exp
 0002:0001b51e       $N00431                    000000018013951e     PhysXCommon_64.exp
 0002:0001b544       $N00432                    0000000180139544     PhysXCommon_64.exp
 0002:0001b56a       $N00433                    000000018013956a     PhysXCommon_64.exp
 0002:0001b591       $N00434                    0000000180139591     PhysXCommon_64.exp
 0002:0001b5ba       $N00435                    00000001801395ba     PhysXCommon_64.exp
 0002:0001b5e7       $N00436                    00000001801395e7     PhysXCommon_64.exp
 0002:0001b62e       $N00437                    000000018013962e     PhysXCommon_64.exp
 0002:0001b671       $N00438                    0000000180139671     PhysXCommon_64.exp
 0002:0001b6c1       $N00439                    00000001801396c1     PhysXCommon_64.exp
 0002:0001b706       $N00440                    0000000180139706     PhysXCommon_64.exp
 0002:0001b74d       $N00441                    000000018013974d     PhysXCommon_64.exp
 0002:0001b798       $N00442                    0000000180139798     PhysXCommon_64.exp
 0002:0001b7da       $N00443                    00000001801397da     PhysXCommon_64.exp
 0002:0001b807       $N00444                    0000000180139807     PhysXCommon_64.exp
 0002:0001b82b       $N00445                    000000018013982b     PhysXCommon_64.exp
 0002:0001b856       $N00446                    0000000180139856     PhysXCommon_64.exp
 0002:0001b87e       $N00447                    000000018013987e     PhysXCommon_64.exp
 0002:0001b8ae       $N00448                    00000001801398ae     PhysXCommon_64.exp
 0002:0001b8e1       $N00449                    00000001801398e1     PhysXCommon_64.exp
 0002:0001b906       $N00450                    0000000180139906     PhysXCommon_64.exp
 0002:0001b934       $N00451                    0000000180139934     PhysXCommon_64.exp
 0002:0001b96a       $N00452                    000000018013996a     PhysXCommon_64.exp
 0002:0001b998       $N00453                    0000000180139998     PhysXCommon_64.exp
 0002:0001b9c0       $N00454                    00000001801399c0     PhysXCommon_64.exp
 0002:0001b9e0       $N00455                    00000001801399e0     PhysXCommon_64.exp
 0002:0001ba1d       $N00456                    0000000180139a1d     PhysXCommon_64.exp
 0002:0001ba85       $N00457                    0000000180139a85     PhysXCommon_64.exp
 0002:0001bac4       $N00458                    0000000180139ac4     PhysXCommon_64.exp
 0002:0001bafc       $N00459                    0000000180139afc     PhysXCommon_64.exp
 0002:0001bb71       $N00460                    0000000180139b71     PhysXCommon_64.exp
 0002:0001bc02       $N00461                    0000000180139c02     PhysXCommon_64.exp
 0002:0001bca5       $N00462                    0000000180139ca5     PhysXCommon_64.exp
 0002:0001bd62       $N00463                    0000000180139d62     PhysXCommon_64.exp
 0002:0001be21       $N00464                    0000000180139e21     PhysXCommon_64.exp
 0002:0001bee6       $N00465                    0000000180139ee6     PhysXCommon_64.exp
 0002:0001bfad       $N00466                    0000000180139fad     PhysXCommon_64.exp
 0002:0001c028       $N00467                    000000018013a028     PhysXCommon_64.exp
 0002:0001c0a5       $N00468                    000000018013a0a5     PhysXCommon_64.exp
 0002:0001c102       $N00469                    000000018013a102     PhysXCommon_64.exp
 0002:0001c153       $N00470                    000000018013a153     PhysXCommon_64.exp
 0002:0001c1c0       $N00471                    000000018013a1c0     PhysXCommon_64.exp
 0002:0001c203       $N00472                    000000018013a203     PhysXCommon_64.exp
 0002:0001c236       $N00473                    000000018013a236     PhysXCommon_64.exp
 0002:0001c26e       $N00474                    000000018013a26e     PhysXCommon_64.exp
 0002:0001c2c0       $N00475                    000000018013a2c0     PhysXCommon_64.exp
 0002:0001c30f       $N00476                    000000018013a30f     PhysXCommon_64.exp
 0002:0001c35d       $N00477                    000000018013a35d     PhysXCommon_64.exp
 0002:0001c3ac       $N00478                    000000018013a3ac     PhysXCommon_64.exp
 0002:0001c3fd       $N00479                    000000018013a3fd     PhysXCommon_64.exp
 0002:0001c42e       $N00480                    000000018013a42e     PhysXCommon_64.exp
 0002:0001c45f       $N00481                    000000018013a45f     PhysXCommon_64.exp
 0002:0001c49a       $N00482                    000000018013a49a     PhysXCommon_64.exp
 0002:0001c4d1       $N00483                    000000018013a4d1     PhysXCommon_64.exp
 0002:0001c501       $N00484                    000000018013a501     PhysXCommon_64.exp
 0002:0001c53b       $N00485                    000000018013a53b     PhysXCommon_64.exp
 0002:0001c7a0       .idata$6                   000000018013a7a0     kernel32:KERNEL32.dll
 0002:0001c828       .idata$6                   000000018013a828     vcruntime:VCRUNTIME140.dll
 0002:0001c90e       .idata$6                   000000018013a90e     ucrt:api-ms-win-crt-math-l1-1-0.dll
 0002:0001c92e       .idata$6                   000000018013a92e     ucrt:api-ms-win-crt-string-l1-1-0.dll
 0002:0001c950       .idata$6                   000000018013a950     ucrt:api-ms-win-crt-heap-l1-1-0.dll
 0002:0001c970       .idata$6                   000000018013a970     ucrt:api-ms-win-crt-runtime-l1-1-0.dll
 0003:00000008       ?Indices@?1??getBoxEdges@Gu@physx@@YAPEBEXZ@4PAEA 000000018013b008     GuBox.obj
 0003:00000650       ?gPxcBoxEdgeNormals@@3PAVPxVec3@physx@@A 000000018013b650     GuShapeConvex.obj
 0003:000006e0       ?gPxcBoxEdgeDesc@@3PAUEdgeDescData@Gu@physx@@A 000000018013b6e0     GuShapeConvex.obj
 0003:00000740       ?gPxcBoxFaceByEdge@@3PAEA  000000018013b740     GuShapeConvex.obj
 0003:00000758       ?gTable@physx@@3PAW4Enum@PxConcreteType@1@A 000000018013b758     GuTriangleMesh.obj
 0003:00000760       ?gColors@@3PAIA            000000018013b760     GuPersistentContactManifold.obj
 0003:00000780       ?gNearPlaneNormal@?A0x3406759d@@3QBVPxVec3@physx@@B 000000018013b780     GuSweepBoxBox.obj
 0003:000007d0       ?EdgeNormals@?A0x3406759d@@3PAVPxVec3@physx@@A 000000018013b7d0     GuSweepBoxBox.obj
 0003:00000860       ?gNearPlaneNormal@?A0x68c66206@@3QBVPxVec3@physx@@B 000000018013b860     GuSweepBoxSphere.obj
 0003:000008b0       ?gNearPlaneNormal@?A0x1b0b5f0d@@3QBVPxVec3@physx@@B 000000018013b8b0     GuSweepBoxTriangle_FeatureBased.obj
 0003:00000900       ?EdgeNormals@?A0x1b0b5f0d@@3QBVPxVec3@physx@@B 000000018013b900     GuSweepBoxTriangle_FeatureBased.obj
 0003:00000990       ?VertexNormals@?1??getBoxVertexNormals@@YAPEBMXZ@4PAMA 000000018013b990     GuSweepBoxTriangle_FeatureBased.obj
 0003:000009f0       ?Indices@?1??getBoxTriangles@?A0x7638aa9a@@YAPEBEXZ@4PAEA 000000018013b9f0     GuSweepCapsuleBox.obj
 0003:00000f30       ?gCommonDelayLoadHook@@3PEBVPxDelayLoadHook@physx@@EB 000000018013bf30     CmWindowsDelayLoadHook.obj
 0003:00000f40       ?maxV3Error@_VecMathTests@aos@shdfnd@physx@@3T__m128@@B 000000018013bf40     GuBounds.obj
 0003:00000f50       ?minFError@_VecMathTests@aos@shdfnd@physx@@3T__m128@@B 000000018013bf50     GuBounds.obj
 0003:00000f60       ?maxV4Error@_VecMathTests@aos@shdfnd@physx@@3T__m128@@B 000000018013bf60     GuBounds.obj
 0003:00000f70       ?minV4Error@_VecMathTests@aos@shdfnd@physx@@3T__m128@@B 000000018013bf70     GuBounds.obj
 0003:00000f80       ?minV3Error@_VecMathTests@aos@shdfnd@physx@@3T__m128@@B 000000018013bf80     GuBounds.obj
 0003:00000f90       ?maxFError@_VecMathTests@aos@shdfnd@physx@@3T__m128@@B 000000018013bf90     GuBounds.obj
 0003:00000fa0       ?maxV3Error@_VecMathTests@aos@shdfnd@physx@@3T__m128@@B 000000018013bfa0     GuBox.obj
 0003:00000fb0       ?minFError@_VecMathTests@aos@shdfnd@physx@@3T__m128@@B 000000018013bfb0     GuBox.obj
 0003:00000fc0       ?maxV4Error@_VecMathTests@aos@shdfnd@physx@@3T__m128@@B 000000018013bfc0     GuBox.obj
 0003:00000fd0       ?minV4Error@_VecMathTests@aos@shdfnd@physx@@3T__m128@@B 000000018013bfd0     GuBox.obj
 0003:00000fe0       ?minV3Error@_VecMathTests@aos@shdfnd@physx@@3T__m128@@B 000000018013bfe0     GuBox.obj
 0003:00000ff0       ?maxFError@_VecMathTests@aos@shdfnd@physx@@3T__m128@@B 000000018013bff0     GuBox.obj
 0003:00001000       ?maxV3Error@_VecMathTests@aos@shdfnd@physx@@3T__m128@@B 000000018013c000     GuCCTSweepTests.obj
 0003:00001010       ?minFError@_VecMathTests@aos@shdfnd@physx@@3T__m128@@B 000000018013c010     GuCCTSweepTests.obj
 0003:00001020       ?maxV4Error@_VecMathTests@aos@shdfnd@physx@@3T__m128@@B 000000018013c020     GuCCTSweepTests.obj
 0003:00001030       ?minV4Error@_VecMathTests@aos@shdfnd@physx@@3T__m128@@B 000000018013c030     GuCCTSweepTests.obj
 0003:00001040       ?minV3Error@_VecMathTests@aos@shdfnd@physx@@3T__m128@@B 000000018013c040     GuCCTSweepTests.obj
 0003:00001050       ?maxFError@_VecMathTests@aos@shdfnd@physx@@3T__m128@@B 000000018013c050     GuCCTSweepTests.obj
 0003:00001060       ?maxV3Error@_VecMathTests@aos@shdfnd@physx@@3T__m128@@B 000000018013c060     GuGeometryQuery.obj
 0003:00001070       ?minFError@_VecMathTests@aos@shdfnd@physx@@3T__m128@@B 000000018013c070     GuGeometryQuery.obj
 0003:00001080       ?maxV4Error@_VecMathTests@aos@shdfnd@physx@@3T__m128@@B 000000018013c080     GuGeometryQuery.obj
 0003:00001090       ?minV4Error@_VecMathTests@aos@shdfnd@physx@@3T__m128@@B 000000018013c090     GuGeometryQuery.obj
 0003:000010a0       ?minV3Error@_VecMathTests@aos@shdfnd@physx@@3T__m128@@B 000000018013c0a0     GuGeometryQuery.obj
 0003:000010b0       ?maxFError@_VecMathTests@aos@shdfnd@physx@@3T__m128@@B 000000018013c0b0     GuGeometryQuery.obj
 0003:000010c0       ?maxV3Error@_VecMathTests@aos@shdfnd@physx@@3T__m128@@B 000000018013c0c0     GuGeometryUnion.obj
 0003:000010d0       ?minFError@_VecMathTests@aos@shdfnd@physx@@3T__m128@@B 000000018013c0d0     GuGeometryUnion.obj
 0003:000010e0       ?maxV4Error@_VecMathTests@aos@shdfnd@physx@@3T__m128@@B 000000018013c0e0     GuGeometryUnion.obj
 0003:000010f0       ?minV4Error@_VecMathTests@aos@shdfnd@physx@@3T__m128@@B 000000018013c0f0     GuGeometryUnion.obj
 0003:00001100       ?minV3Error@_VecMathTests@aos@shdfnd@physx@@3T__m128@@B 000000018013c100     GuGeometryUnion.obj
 0003:00001110       ?maxFError@_VecMathTests@aos@shdfnd@physx@@3T__m128@@B 000000018013c110     GuGeometryUnion.obj
 0003:00001120       ?maxV3Error@_VecMathTests@aos@shdfnd@physx@@3T__m128@@B 000000018013c120     GuInternal.obj
 0003:00001130       ?minFError@_VecMathTests@aos@shdfnd@physx@@3T__m128@@B 000000018013c130     GuInternal.obj
 0003:00001140       ?maxV4Error@_VecMathTests@aos@shdfnd@physx@@3T__m128@@B 000000018013c140     GuInternal.obj
 0003:00001150       ?minV4Error@_VecMathTests@aos@shdfnd@physx@@3T__m128@@B 000000018013c150     GuInternal.obj
 0003:00001160       ?minV3Error@_VecMathTests@aos@shdfnd@physx@@3T__m128@@B 000000018013c160     GuInternal.obj
 0003:00001170       ?maxFError@_VecMathTests@aos@shdfnd@physx@@3T__m128@@B 000000018013c170     GuInternal.obj
 0003:00001180       ?maxV3Error@_VecMathTests@aos@shdfnd@physx@@3T__m128@@B 000000018013c180     GuMeshFactory.obj
 0003:00001190       ?minFError@_VecMathTests@aos@shdfnd@physx@@3T__m128@@B 000000018013c190     GuMeshFactory.obj
 0003:000011a0       ?maxV4Error@_VecMathTests@aos@shdfnd@physx@@3T__m128@@B 000000018013c1a0     GuMeshFactory.obj
 0003:000011b0       ?minV4Error@_VecMathTests@aos@shdfnd@physx@@3T__m128@@B 000000018013c1b0     GuMeshFactory.obj
 0003:000011c0       ?minV3Error@_VecMathTests@aos@shdfnd@physx@@3T__m128@@B 000000018013c1c0     GuMeshFactory.obj
 0003:000011d0       ?maxFError@_VecMathTests@aos@shdfnd@physx@@3T__m128@@B 000000018013c1d0     GuMeshFactory.obj
 0003:000011e0       ?maxV3Error@_VecMathTests@aos@shdfnd@physx@@3T__m128@@B 000000018013c1e0     GuMetaData.obj
 0003:000011f0       ?minFError@_VecMathTests@aos@shdfnd@physx@@3T__m128@@B 000000018013c1f0     GuMetaData.obj
 0003:00001200       ?maxV4Error@_VecMathTests@aos@shdfnd@physx@@3T__m128@@B 000000018013c200     GuMetaData.obj
 0003:00001210       ?minV4Error@_VecMathTests@aos@shdfnd@physx@@3T__m128@@B 000000018013c210     GuMetaData.obj
 0003:00001220       ?minV3Error@_VecMathTests@aos@shdfnd@physx@@3T__m128@@B 000000018013c220     GuMetaData.obj
 0003:00001230       ?maxFError@_VecMathTests@aos@shdfnd@physx@@3T__m128@@B 000000018013c230     GuMetaData.obj
 0003:00001240       ?maxV3Error@_VecMathTests@aos@shdfnd@physx@@3T__m128@@B 000000018013c240     GuMTD.obj
 0003:00001250       ?minFError@_VecMathTests@aos@shdfnd@physx@@3T__m128@@B 000000018013c250     GuMTD.obj
 0003:00001260       ?maxV4Error@_VecMathTests@aos@shdfnd@physx@@3T__m128@@B 000000018013c260     GuMTD.obj
 0003:00001270       ?minV4Error@_VecMathTests@aos@shdfnd@physx@@3T__m128@@B 000000018013c270     GuMTD.obj
 0003:00001280       ?minV3Error@_VecMathTests@aos@shdfnd@physx@@3T__m128@@B 000000018013c280     GuMTD.obj
 0003:00001290       ?maxFError@_VecMathTests@aos@shdfnd@physx@@3T__m128@@B 000000018013c290     GuMTD.obj
 0003:000012a0       ?maxV3Error@_VecMathTests@aos@shdfnd@physx@@3T__m128@@B 000000018013c2a0     GuOverlapTests.obj
 0003:000012b0       ?minFError@_VecMathTests@aos@shdfnd@physx@@3T__m128@@B 000000018013c2b0     GuOverlapTests.obj
 0003:000012c0       ?maxV4Error@_VecMathTests@aos@shdfnd@physx@@3T__m128@@B 000000018013c2c0     GuOverlapTests.obj
 0003:000012d0       ?minV4Error@_VecMathTests@aos@shdfnd@physx@@3T__m128@@B 000000018013c2d0     GuOverlapTests.obj
 0003:000012e0       ?minV3Error@_VecMathTests@aos@shdfnd@physx@@3T__m128@@B 000000018013c2e0     GuOverlapTests.obj
 0003:000012f0       ?maxFError@_VecMathTests@aos@shdfnd@physx@@3T__m128@@B 000000018013c2f0     GuOverlapTests.obj
 0003:00001300       ?maxV3Error@_VecMathTests@aos@shdfnd@physx@@3T__m128@@B 000000018013c300     GuRaycastTests.obj
 0003:00001310       ?minFError@_VecMathTests@aos@shdfnd@physx@@3T__m128@@B 000000018013c310     GuRaycastTests.obj
 0003:00001320       ?maxV4Error@_VecMathTests@aos@shdfnd@physx@@3T__m128@@B 000000018013c320     GuRaycastTests.obj
 0003:00001330       ?minV4Error@_VecMathTests@aos@shdfnd@physx@@3T__m128@@B 000000018013c330     GuRaycastTests.obj
 0003:00001340       ?minV3Error@_VecMathTests@aos@shdfnd@physx@@3T__m128@@B 000000018013c340     GuRaycastTests.obj
 0003:00001350       ?maxFError@_VecMathTests@aos@shdfnd@physx@@3T__m128@@B 000000018013c350     GuRaycastTests.obj
 0003:00001360       ?maxV3Error@_VecMathTests@aos@shdfnd@physx@@3T__m128@@B 000000018013c360     GuSweepMTD.obj
 0003:00001370       ?minFError@_VecMathTests@aos@shdfnd@physx@@3T__m128@@B 000000018013c370     GuSweepMTD.obj
 0003:00001380       ?maxV4Error@_VecMathTests@aos@shdfnd@physx@@3T__m128@@B 000000018013c380     GuSweepMTD.obj
 0003:00001390       ?minV4Error@_VecMathTests@aos@shdfnd@physx@@3T__m128@@B 000000018013c390     GuSweepMTD.obj
 0003:000013a0       ?minV3Error@_VecMathTests@aos@shdfnd@physx@@3T__m128@@B 000000018013c3a0     GuSweepMTD.obj
 0003:000013b0       ?maxFError@_VecMathTests@aos@shdfnd@physx@@3T__m128@@B 000000018013c3b0     GuSweepMTD.obj
 0003:000013c0       ?maxV3Error@_VecMathTests@aos@shdfnd@physx@@3T__m128@@B 000000018013c3c0     GuSweepSharedTests.obj
 0003:000013d0       ?minFError@_VecMathTests@aos@shdfnd@physx@@3T__m128@@B 000000018013c3d0     GuSweepSharedTests.obj
 0003:000013e0       ?maxV4Error@_VecMathTests@aos@shdfnd@physx@@3T__m128@@B 000000018013c3e0     GuSweepSharedTests.obj
 0003:000013f0       ?minV4Error@_VecMathTests@aos@shdfnd@physx@@3T__m128@@B 000000018013c3f0     GuSweepSharedTests.obj
 0003:00001400       ?minV3Error@_VecMathTests@aos@shdfnd@physx@@3T__m128@@B 000000018013c400     GuSweepSharedTests.obj
 0003:00001410       ?maxFError@_VecMathTests@aos@shdfnd@physx@@3T__m128@@B 000000018013c410     GuSweepSharedTests.obj
 0003:00001420       ?maxV3Error@_VecMathTests@aos@shdfnd@physx@@3T__m128@@B 000000018013c420     GuSweepTests.obj
 0003:00001430       ?minFError@_VecMathTests@aos@shdfnd@physx@@3T__m128@@B 000000018013c430     GuSweepTests.obj
 0003:00001440       ?maxV4Error@_VecMathTests@aos@shdfnd@physx@@3T__m128@@B 000000018013c440     GuSweepTests.obj
 0003:00001450       ?minV4Error@_VecMathTests@aos@shdfnd@physx@@3T__m128@@B 000000018013c450     GuSweepTests.obj
 0003:00001460       ?minV3Error@_VecMathTests@aos@shdfnd@physx@@3T__m128@@B 000000018013c460     GuSweepTests.obj
 0003:00001470       ?maxFError@_VecMathTests@aos@shdfnd@physx@@3T__m128@@B 000000018013c470     GuSweepTests.obj
 0003:00001480       ?maxV3Error@_VecMathTests@aos@shdfnd@physx@@3T__m128@@B 000000018013c480     GuAABBTreeBuild.obj
 0003:00001490       ?minFError@_VecMathTests@aos@shdfnd@physx@@3T__m128@@B 000000018013c490     GuAABBTreeBuild.obj
 0003:000014a0       ?maxV4Error@_VecMathTests@aos@shdfnd@physx@@3T__m128@@B 000000018013c4a0     GuAABBTreeBuild.obj
 0003:000014b0       ?minV4Error@_VecMathTests@aos@shdfnd@physx@@3T__m128@@B 000000018013c4b0     GuAABBTreeBuild.obj
 0003:000014c0       ?minV3Error@_VecMathTests@aos@shdfnd@physx@@3T__m128@@B 000000018013c4c0     GuAABBTreeBuild.obj
 0003:000014d0       ?maxFError@_VecMathTests@aos@shdfnd@physx@@3T__m128@@B 000000018013c4d0     GuAABBTreeBuild.obj
 0003:000014e0       ?maxV3Error@_VecMathTests@aos@shdfnd@physx@@3T__m128@@B 000000018013c4e0     GuBVHStructure.obj
 0003:000014f0       ?minFError@_VecMathTests@aos@shdfnd@physx@@3T__m128@@B 000000018013c4f0     GuBVHStructure.obj
 0003:00001500       ?maxV4Error@_VecMathTests@aos@shdfnd@physx@@3T__m128@@B 000000018013c500     GuBVHStructure.obj
 0003:00001510       ?minV4Error@_VecMathTests@aos@shdfnd@physx@@3T__m128@@B 000000018013c510     GuBVHStructure.obj
 0003:00001520       ?minV3Error@_VecMathTests@aos@shdfnd@physx@@3T__m128@@B 000000018013c520     GuBVHStructure.obj
 0003:00001530       ?maxFError@_VecMathTests@aos@shdfnd@physx@@3T__m128@@B 000000018013c530     GuBVHStructure.obj
 0003:00001540       ?maxV3Error@_VecMathTests@aos@shdfnd@physx@@3T__m128@@B 000000018013c540     GuCCDSweepConvexMesh.obj
 0003:00001550       ?minFError@_VecMathTests@aos@shdfnd@physx@@3T__m128@@B 000000018013c550     GuCCDSweepConvexMesh.obj
 0003:00001560       ?maxV4Error@_VecMathTests@aos@shdfnd@physx@@3T__m128@@B 000000018013c560     GuCCDSweepConvexMesh.obj
 0003:00001570       ?minV4Error@_VecMathTests@aos@shdfnd@physx@@3T__m128@@B 000000018013c570     GuCCDSweepConvexMesh.obj
 0003:00001580       ?minV3Error@_VecMathTests@aos@shdfnd@physx@@3T__m128@@B 000000018013c580     GuCCDSweepConvexMesh.obj
 0003:00001590       ?maxFError@_VecMathTests@aos@shdfnd@physx@@3T__m128@@B 000000018013c590     GuCCDSweepConvexMesh.obj
 0003:000015a0       ?maxV3Error@_VecMathTests@aos@shdfnd@physx@@3T__m128@@B 000000018013c5a0     GuCCDSweepPrimitives.obj
 0003:000015b0       ?minFError@_VecMathTests@aos@shdfnd@physx@@3T__m128@@B 000000018013c5b0     GuCCDSweepPrimitives.obj
 0003:000015c0       ?maxV4Error@_VecMathTests@aos@shdfnd@physx@@3T__m128@@B 000000018013c5c0     GuCCDSweepPrimitives.obj
 0003:000015d0       ?minV4Error@_VecMathTests@aos@shdfnd@physx@@3T__m128@@B 000000018013c5d0     GuCCDSweepPrimitives.obj
 0003:000015e0       ?minV3Error@_VecMathTests@aos@shdfnd@physx@@3T__m128@@B 000000018013c5e0     GuCCDSweepPrimitives.obj
 0003:000015f0       ?maxFError@_VecMathTests@aos@shdfnd@physx@@3T__m128@@B 000000018013c5f0     GuCCDSweepPrimitives.obj
 0003:00001600       ?maxV3Error@_VecMathTests@aos@shdfnd@physx@@3T__m128@@B 000000018013c600     GuBarycentricCoordinates.obj
 0003:00001610       ?minFError@_VecMathTests@aos@shdfnd@physx@@3T__m128@@B 000000018013c610     GuBarycentricCoordinates.obj
 0003:00001620       ?maxV4Error@_VecMathTests@aos@shdfnd@physx@@3T__m128@@B 000000018013c620     GuBarycentricCoordinates.obj
 0003:00001630       ?minV4Error@_VecMathTests@aos@shdfnd@physx@@3T__m128@@B 000000018013c630     GuBarycentricCoordinates.obj
 0003:00001640       ?minV3Error@_VecMathTests@aos@shdfnd@physx@@3T__m128@@B 000000018013c640     GuBarycentricCoordinates.obj
 0003:00001650       ?maxFError@_VecMathTests@aos@shdfnd@physx@@3T__m128@@B 000000018013c650     GuBarycentricCoordinates.obj
 0003:00001660       ?maxV3Error@_VecMathTests@aos@shdfnd@physx@@3T__m128@@B 000000018013c660     GuContactBoxBox.obj
 0003:00001670       ?minFError@_VecMathTests@aos@shdfnd@physx@@3T__m128@@B 000000018013c670     GuContactBoxBox.obj
 0003:00001680       ?maxV4Error@_VecMathTests@aos@shdfnd@physx@@3T__m128@@B 000000018013c680     GuContactBoxBox.obj
 0003:00001690       ?minV4Error@_VecMathTests@aos@shdfnd@physx@@3T__m128@@B 000000018013c690     GuContactBoxBox.obj
 0003:000016a0       ?minV3Error@_VecMathTests@aos@shdfnd@physx@@3T__m128@@B 000000018013c6a0     GuContactBoxBox.obj
 0003:000016b0       ?maxFError@_VecMathTests@aos@shdfnd@physx@@3T__m128@@B 000000018013c6b0     GuContactBoxBox.obj
 0003:000016c0       ?maxV3Error@_VecMathTests@aos@shdfnd@physx@@3T__m128@@B 000000018013c6c0     GuContactCapsuleBox.obj
 0003:000016d0       ?minFError@_VecMathTests@aos@shdfnd@physx@@3T__m128@@B 000000018013c6d0     GuContactCapsuleBox.obj
 0003:000016e0       ?maxV4Error@_VecMathTests@aos@shdfnd@physx@@3T__m128@@B 000000018013c6e0     GuContactCapsuleBox.obj
 0003:000016f0       ?minV4Error@_VecMathTests@aos@shdfnd@physx@@3T__m128@@B 000000018013c6f0     GuContactCapsuleBox.obj
 0003:00001700       ?minV3Error@_VecMathTests@aos@shdfnd@physx@@3T__m128@@B 000000018013c700     GuContactCapsuleBox.obj
 0003:00001710       ?maxFError@_VecMathTests@aos@shdfnd@physx@@3T__m128@@B 000000018013c710     GuContactCapsuleBox.obj
 0003:00001720       ?maxV3Error@_VecMathTests@aos@shdfnd@physx@@3T__m128@@B 000000018013c720     GuContactCapsuleCapsule.obj
 0003:00001730       ?minFError@_VecMathTests@aos@shdfnd@physx@@3T__m128@@B 000000018013c730     GuContactCapsuleCapsule.obj
 0003:00001740       ?maxV4Error@_VecMathTests@aos@shdfnd@physx@@3T__m128@@B 000000018013c740     GuContactCapsuleCapsule.obj
 0003:00001750       ?minV4Error@_VecMathTests@aos@shdfnd@physx@@3T__m128@@B 000000018013c750     GuContactCapsuleCapsule.obj
 0003:00001760       ?minV3Error@_VecMathTests@aos@shdfnd@physx@@3T__m128@@B 000000018013c760     GuContactCapsuleCapsule.obj
 0003:00001770       ?maxFError@_VecMathTests@aos@shdfnd@physx@@3T__m128@@B 000000018013c770     GuContactCapsuleCapsule.obj
 0003:00001780       ?maxV3Error@_VecMathTests@aos@shdfnd@physx@@3T__m128@@B 000000018013c780     GuContactCapsuleConvex.obj
 0003:00001790       ?minFError@_VecMathTests@aos@shdfnd@physx@@3T__m128@@B 000000018013c790     GuContactCapsuleConvex.obj
 0003:000017a0       ?maxV4Error@_VecMathTests@aos@shdfnd@physx@@3T__m128@@B 000000018013c7a0     GuContactCapsuleConvex.obj
 0003:000017b0       ?minV4Error@_VecMathTests@aos@shdfnd@physx@@3T__m128@@B 000000018013c7b0     GuContactCapsuleConvex.obj
 0003:000017c0       ?minV3Error@_VecMathTests@aos@shdfnd@physx@@3T__m128@@B 000000018013c7c0     GuContactCapsuleConvex.obj
 0003:000017d0       ?maxFError@_VecMathTests@aos@shdfnd@physx@@3T__m128@@B 000000018013c7d0     GuContactCapsuleConvex.obj
 0003:000017e0       ?maxV3Error@_VecMathTests@aos@shdfnd@physx@@3T__m128@@B 000000018013c7e0     GuContactCapsuleMesh.obj
 0003:000017f0       ?minFError@_VecMathTests@aos@shdfnd@physx@@3T__m128@@B 000000018013c7f0     GuContactCapsuleMesh.obj
 0003:00001800       ?maxV4Error@_VecMathTests@aos@shdfnd@physx@@3T__m128@@B 000000018013c800     GuContactCapsuleMesh.obj
 0003:00001810       ?minV4Error@_VecMathTests@aos@shdfnd@physx@@3T__m128@@B 000000018013c810     GuContactCapsuleMesh.obj
 0003:00001820       ?minV3Error@_VecMathTests@aos@shdfnd@physx@@3T__m128@@B 000000018013c820     GuContactCapsuleMesh.obj
 0003:00001830       ?maxFError@_VecMathTests@aos@shdfnd@physx@@3T__m128@@B 000000018013c830     GuContactCapsuleMesh.obj
 0003:00001840       ?maxV3Error@_VecMathTests@aos@shdfnd@physx@@3T__m128@@B 000000018013c840     GuContactConvexConvex.obj
 0003:00001850       ?minFError@_VecMathTests@aos@shdfnd@physx@@3T__m128@@B 000000018013c850     GuContactConvexConvex.obj
 0003:00001860       ?maxV4Error@_VecMathTests@aos@shdfnd@physx@@3T__m128@@B 000000018013c860     GuContactConvexConvex.obj
 0003:00001870       ?minV4Error@_VecMathTests@aos@shdfnd@physx@@3T__m128@@B 000000018013c870     GuContactConvexConvex.obj
 0003:00001880       ?minV3Error@_VecMathTests@aos@shdfnd@physx@@3T__m128@@B 000000018013c880     GuContactConvexConvex.obj
 0003:00001890       ?maxFError@_VecMathTests@aos@shdfnd@physx@@3T__m128@@B 000000018013c890     GuContactConvexConvex.obj
 0003:000018a0       ?maxV3Error@_VecMathTests@aos@shdfnd@physx@@3T__m128@@B 000000018013c8a0     GuContactConvexMesh.obj
 0003:000018b0       ?minFError@_VecMathTests@aos@shdfnd@physx@@3T__m128@@B 000000018013c8b0     GuContactConvexMesh.obj
 0003:000018c0       ?maxV4Error@_VecMathTests@aos@shdfnd@physx@@3T__m128@@B 000000018013c8c0     GuContactConvexMesh.obj
 0003:000018d0       ?minV4Error@_VecMathTests@aos@shdfnd@physx@@3T__m128@@B 000000018013c8d0     GuContactConvexMesh.obj
 0003:000018e0       ?minV3Error@_VecMathTests@aos@shdfnd@physx@@3T__m128@@B 000000018013c8e0     GuContactConvexMesh.obj
 0003:000018f0       ?maxFError@_VecMathTests@aos@shdfnd@physx@@3T__m128@@B 000000018013c8f0     GuContactConvexMesh.obj
 0003:00001900       ?maxV3Error@_VecMathTests@aos@shdfnd@physx@@3T__m128@@B 000000018013c900     GuContactPlaneBox.obj
 0003:00001910       ?minFError@_VecMathTests@aos@shdfnd@physx@@3T__m128@@B 000000018013c910     GuContactPlaneBox.obj
 0003:00001920       ?maxV4Error@_VecMathTests@aos@shdfnd@physx@@3T__m128@@B 000000018013c920     GuContactPlaneBox.obj
 0003:00001930       ?minV4Error@_VecMathTests@aos@shdfnd@physx@@3T__m128@@B 000000018013c930     GuContactPlaneBox.obj
 0003:00001940       ?minV3Error@_VecMathTests@aos@shdfnd@physx@@3T__m128@@B 000000018013c940     GuContactPlaneBox.obj
 0003:00001950       ?maxFError@_VecMathTests@aos@shdfnd@physx@@3T__m128@@B 000000018013c950     GuContactPlaneBox.obj
 0003:00001960       ?maxV3Error@_VecMathTests@aos@shdfnd@physx@@3T__m128@@B 000000018013c960     GuContactPlaneCapsule.obj
 0003:00001970       ?minFError@_VecMathTests@aos@shdfnd@physx@@3T__m128@@B 000000018013c970     GuContactPlaneCapsule.obj
 0003:00001980       ?maxV4Error@_VecMathTests@aos@shdfnd@physx@@3T__m128@@B 000000018013c980     GuContactPlaneCapsule.obj
 0003:00001990       ?minV4Error@_VecMathTests@aos@shdfnd@physx@@3T__m128@@B 000000018013c990     GuContactPlaneCapsule.obj
 0003:000019a0       ?minV3Error@_VecMathTests@aos@shdfnd@physx@@3T__m128@@B 000000018013c9a0     GuContactPlaneCapsule.obj
 0003:000019b0       ?maxFError@_VecMathTests@aos@shdfnd@physx@@3T__m128@@B 000000018013c9b0     GuContactPlaneCapsule.obj
 0003:000019c0       ?maxV3Error@_VecMathTests@aos@shdfnd@physx@@3T__m128@@B 000000018013c9c0     GuContactPlaneConvex.obj
 0003:000019d0       ?minFError@_VecMathTests@aos@shdfnd@physx@@3T__m128@@B 000000018013c9d0     GuContactPlaneConvex.obj
 0003:000019e0       ?maxV4Error@_VecMathTests@aos@shdfnd@physx@@3T__m128@@B 000000018013c9e0     GuContactPlaneConvex.obj
 0003:000019f0       ?minV4Error@_VecMathTests@aos@shdfnd@physx@@3T__m128@@B 000000018013c9f0     GuContactPlaneConvex.obj
 0003:00001a00       ?minV3Error@_VecMathTests@aos@shdfnd@physx@@3T__m128@@B 000000018013ca00     GuContactPlaneConvex.obj
 0003:00001a10       ?maxFError@_VecMathTests@aos@shdfnd@physx@@3T__m128@@B 000000018013ca10     GuContactPlaneConvex.obj
 0003:00001a20       ?maxV3Error@_VecMathTests@aos@shdfnd@physx@@3T__m128@@B 000000018013ca20     GuContactSphereBox.obj
 0003:00001a30       ?minFError@_VecMathTests@aos@shdfnd@physx@@3T__m128@@B 000000018013ca30     GuContactSphereBox.obj
 0003:00001a40       ?maxV4Error@_VecMathTests@aos@shdfnd@physx@@3T__m128@@B 000000018013ca40     GuContactSphereBox.obj
 0003:00001a50       ?minV4Error@_VecMathTests@aos@shdfnd@physx@@3T__m128@@B 000000018013ca50     GuContactSphereBox.obj
 0003:00001a60       ?minV3Error@_VecMathTests@aos@shdfnd@physx@@3T__m128@@B 000000018013ca60     GuContactSphereBox.obj
 0003:00001a70       ?maxFError@_VecMathTests@aos@shdfnd@physx@@3T__m128@@B 000000018013ca70     GuContactSphereBox.obj
 0003:00001a80       ?maxV3Error@_VecMathTests@aos@shdfnd@physx@@3T__m128@@B 000000018013ca80     GuContactSphereCapsule.obj
 0003:00001a90       ?minFError@_VecMathTests@aos@shdfnd@physx@@3T__m128@@B 000000018013ca90     GuContactSphereCapsule.obj
 0003:00001aa0       ?maxV4Error@_VecMathTests@aos@shdfnd@physx@@3T__m128@@B 000000018013caa0     GuContactSphereCapsule.obj
 0003:00001ab0       ?minV4Error@_VecMathTests@aos@shdfnd@physx@@3T__m128@@B 000000018013cab0     GuContactSphereCapsule.obj
 0003:00001ac0       ?minV3Error@_VecMathTests@aos@shdfnd@physx@@3T__m128@@B 000000018013cac0     GuContactSphereCapsule.obj
 0003:00001ad0       ?maxFError@_VecMathTests@aos@shdfnd@physx@@3T__m128@@B 000000018013cad0     GuContactSphereCapsule.obj
 0003:00001ae0       ?maxV3Error@_VecMathTests@aos@shdfnd@physx@@3T__m128@@B 000000018013cae0     GuContactSphereMesh.obj
 0003:00001af0       ?minFError@_VecMathTests@aos@shdfnd@physx@@3T__m128@@B 000000018013caf0     GuContactSphereMesh.obj
 0003:00001b00       ?maxV4Error@_VecMathTests@aos@shdfnd@physx@@3T__m128@@B 000000018013cb00     GuContactSphereMesh.obj
 0003:00001b10       ?minV4Error@_VecMathTests@aos@shdfnd@physx@@3T__m128@@B 000000018013cb10     GuContactSphereMesh.obj
 0003:00001b20       ?minV3Error@_VecMathTests@aos@shdfnd@physx@@3T__m128@@B 000000018013cb20     GuContactSphereMesh.obj
 0003:00001b30       ?maxFError@_VecMathTests@aos@shdfnd@physx@@3T__m128@@B 000000018013cb30     GuContactSphereMesh.obj
 0003:00001b40       ?maxV3Error@_VecMathTests@aos@shdfnd@physx@@3T__m128@@B 000000018013cb40     GuContactSpherePlane.obj
 0003:00001b50       ?minFError@_VecMathTests@aos@shdfnd@physx@@3T__m128@@B 000000018013cb50     GuContactSpherePlane.obj
 0003:00001b60       ?maxV4Error@_VecMathTests@aos@shdfnd@physx@@3T__m128@@B 000000018013cb60     GuContactSpherePlane.obj
 0003:00001b70       ?minV4Error@_VecMathTests@aos@shdfnd@physx@@3T__m128@@B 000000018013cb70     GuContactSpherePlane.obj
 0003:00001b80       ?minV3Error@_VecMathTests@aos@shdfnd@physx@@3T__m128@@B 000000018013cb80     GuContactSpherePlane.obj
 0003:00001b90       ?maxFError@_VecMathTests@aos@shdfnd@physx@@3T__m128@@B 000000018013cb90     GuContactSpherePlane.obj
 0003:00001ba0       ?maxV3Error@_VecMathTests@aos@shdfnd@physx@@3T__m128@@B 000000018013cba0     GuContactSphereSphere.obj
 0003:00001bb0       ?minFError@_VecMathTests@aos@shdfnd@physx@@3T__m128@@B 000000018013cbb0     GuContactSphereSphere.obj
 0003:00001bc0       ?maxV4Error@_VecMathTests@aos@shdfnd@physx@@3T__m128@@B 000000018013cbc0     GuContactSphereSphere.obj
 0003:00001bd0       ?minV4Error@_VecMathTests@aos@shdfnd@physx@@3T__m128@@B 000000018013cbd0     GuContactSphereSphere.obj
 0003:00001be0       ?minV3Error@_VecMathTests@aos@shdfnd@physx@@3T__m128@@B 000000018013cbe0     GuContactSphereSphere.obj
 0003:00001bf0       ?maxFError@_VecMathTests@aos@shdfnd@physx@@3T__m128@@B 000000018013cbf0     GuContactSphereSphere.obj
 0003:00001c00       ?maxV3Error@_VecMathTests@aos@shdfnd@physx@@3T__m128@@B 000000018013cc00     GuConvexHelper.obj
 0003:00001c10       ?minFError@_VecMathTests@aos@shdfnd@physx@@3T__m128@@B 000000018013cc10     GuConvexHelper.obj
 0003:00001c20       ?maxV4Error@_VecMathTests@aos@shdfnd@physx@@3T__m128@@B 000000018013cc20     GuConvexHelper.obj
 0003:00001c30       ?minV4Error@_VecMathTests@aos@shdfnd@physx@@3T__m128@@B 000000018013cc30     GuConvexHelper.obj
 0003:00001c40       ?minV3Error@_VecMathTests@aos@shdfnd@physx@@3T__m128@@B 000000018013cc40     GuConvexHelper.obj
 0003:00001c50       ?maxFError@_VecMathTests@aos@shdfnd@physx@@3T__m128@@B 000000018013cc50     GuConvexHelper.obj
 0003:00001c60       ?maxV3Error@_VecMathTests@aos@shdfnd@physx@@3T__m128@@B 000000018013cc60     GuConvexSupportTable.obj
 0003:00001c70       ?minFError@_VecMathTests@aos@shdfnd@physx@@3T__m128@@B 000000018013cc70     GuConvexSupportTable.obj
 0003:00001c80       ?maxV4Error@_VecMathTests@aos@shdfnd@physx@@3T__m128@@B 000000018013cc80     GuConvexSupportTable.obj
 0003:00001c90       ?minV4Error@_VecMathTests@aos@shdfnd@physx@@3T__m128@@B 000000018013cc90     GuConvexSupportTable.obj
 0003:00001ca0       ?minV3Error@_VecMathTests@aos@shdfnd@physx@@3T__m128@@B 000000018013cca0     GuConvexSupportTable.obj
 0003:00001cb0       ?maxFError@_VecMathTests@aos@shdfnd@physx@@3T__m128@@B 000000018013ccb0     GuConvexSupportTable.obj
 0003:00001d40       ?maxV3Error@_VecMathTests@aos@shdfnd@physx@@3T__m128@@B 000000018013cd40     GuConvexUtilsInternal.obj
 0003:00001d50       ?minFError@_VecMathTests@aos@shdfnd@physx@@3T__m128@@B 000000018013cd50     GuConvexUtilsInternal.obj
 0003:00001d60       ?maxV4Error@_VecMathTests@aos@shdfnd@physx@@3T__m128@@B 000000018013cd60     GuConvexUtilsInternal.obj
 0003:00001d70       ?minV4Error@_VecMathTests@aos@shdfnd@physx@@3T__m128@@B 000000018013cd70     GuConvexUtilsInternal.obj
 0003:00001d80       ?minV3Error@_VecMathTests@aos@shdfnd@physx@@3T__m128@@B 000000018013cd80     GuConvexUtilsInternal.obj
 0003:00001d90       ?maxFError@_VecMathTests@aos@shdfnd@physx@@3T__m128@@B 000000018013cd90     GuConvexUtilsInternal.obj
 0003:00001da0       ?maxV3Error@_VecMathTests@aos@shdfnd@physx@@3T__m128@@B 000000018013cda0     GuDistancePointTriangle.obj
 0003:00001db0       ?minFError@_VecMathTests@aos@shdfnd@physx@@3T__m128@@B 000000018013cdb0     GuDistancePointTriangle.obj
 0003:00001dc0       ?maxV4Error@_VecMathTests@aos@shdfnd@physx@@3T__m128@@B 000000018013cdc0     GuDistancePointTriangle.obj
 0003:00001dd0       ?minV4Error@_VecMathTests@aos@shdfnd@physx@@3T__m128@@B 000000018013cdd0     GuDistancePointTriangle.obj
 0003:00001de0       ?minV3Error@_VecMathTests@aos@shdfnd@physx@@3T__m128@@B 000000018013cde0     GuDistancePointTriangle.obj
 0003:00001df0       ?maxFError@_VecMathTests@aos@shdfnd@physx@@3T__m128@@B 000000018013cdf0     GuDistancePointTriangle.obj
 0003:00001e00       ?maxV3Error@_VecMathTests@aos@shdfnd@physx@@3T__m128@@B 000000018013ce00     GuDistanceSegmentSegment.obj
 0003:00001e10       ?minFError@_VecMathTests@aos@shdfnd@physx@@3T__m128@@B 000000018013ce10     GuDistanceSegmentSegment.obj
 0003:00001e20       ?maxV4Error@_VecMathTests@aos@shdfnd@physx@@3T__m128@@B 000000018013ce20     GuDistanceSegmentSegment.obj
 0003:00001e30       ?minV4Error@_VecMathTests@aos@shdfnd@physx@@3T__m128@@B 000000018013ce30     GuDistanceSegmentSegment.obj
 0003:00001e40       ?minV3Error@_VecMathTests@aos@shdfnd@physx@@3T__m128@@B 000000018013ce40     GuDistanceSegmentSegment.obj
 0003:00001e50       ?maxFError@_VecMathTests@aos@shdfnd@physx@@3T__m128@@B 000000018013ce50     GuDistanceSegmentSegment.obj
 0003:00001e60       ?maxV3Error@_VecMathTests@aos@shdfnd@physx@@3T__m128@@B 000000018013ce60     GuDistanceSegmentTriangle.obj
 0003:00001e70       ?minFError@_VecMathTests@aos@shdfnd@physx@@3T__m128@@B 000000018013ce70     GuDistanceSegmentTriangle.obj
 0003:00001e80       ?maxV4Error@_VecMathTests@aos@shdfnd@physx@@3T__m128@@B 000000018013ce80     GuDistanceSegmentTriangle.obj
 0003:00001e90       ?minV4Error@_VecMathTests@aos@shdfnd@physx@@3T__m128@@B 000000018013ce90     GuDistanceSegmentTriangle.obj
 0003:00001ea0       ?minV3Error@_VecMathTests@aos@shdfnd@physx@@3T__m128@@B 000000018013cea0     GuDistanceSegmentTriangle.obj
 0003:00001eb0       ?maxFError@_VecMathTests@aos@shdfnd@physx@@3T__m128@@B 000000018013ceb0     GuDistanceSegmentTriangle.obj
 0003:00001ec0       ?maxV3Error@_VecMathTests@aos@shdfnd@physx@@3T__m128@@B 000000018013cec0     GuEPA.obj
 0003:00001ed0       ?minFError@_VecMathTests@aos@shdfnd@physx@@3T__m128@@B 000000018013ced0     GuEPA.obj
 0003:00001ee0       ?maxV4Error@_VecMathTests@aos@shdfnd@physx@@3T__m128@@B 000000018013cee0     GuEPA.obj
 0003:00001ef0       ?minV4Error@_VecMathTests@aos@shdfnd@physx@@3T__m128@@B 000000018013cef0     GuEPA.obj
 0003:00001f00       ?minV3Error@_VecMathTests@aos@shdfnd@physx@@3T__m128@@B 000000018013cf00     GuEPA.obj
 0003:00001f10       ?maxFError@_VecMathTests@aos@shdfnd@physx@@3T__m128@@B 000000018013cf10     GuEPA.obj
 0003:00001f20       ?maxV3Error@_VecMathTests@aos@shdfnd@physx@@3T__m128@@B 000000018013cf20     GuGJKSimplex.obj
 0003:00001f30       ?minFError@_VecMathTests@aos@shdfnd@physx@@3T__m128@@B 000000018013cf30     GuGJKSimplex.obj
 0003:00001f40       ?maxV4Error@_VecMathTests@aos@shdfnd@physx@@3T__m128@@B 000000018013cf40     GuGJKSimplex.obj
 0003:00001f50       ?minV4Error@_VecMathTests@aos@shdfnd@physx@@3T__m128@@B 000000018013cf50     GuGJKSimplex.obj
 0003:00001f60       ?minV3Error@_VecMathTests@aos@shdfnd@physx@@3T__m128@@B 000000018013cf60     GuGJKSimplex.obj
 0003:00001f70       ?maxFError@_VecMathTests@aos@shdfnd@physx@@3T__m128@@B 000000018013cf70     GuGJKSimplex.obj
 0003:00001f80       ?maxV3Error@_VecMathTests@aos@shdfnd@physx@@3T__m128@@B 000000018013cf80     GuGJKTest.obj
 0003:00001f90       ?minFError@_VecMathTests@aos@shdfnd@physx@@3T__m128@@B 000000018013cf90     GuGJKTest.obj
 0003:00001fa0       ?maxV4Error@_VecMathTests@aos@shdfnd@physx@@3T__m128@@B 000000018013cfa0     GuGJKTest.obj
 0003:00001fb0       ?minV4Error@_VecMathTests@aos@shdfnd@physx@@3T__m128@@B 000000018013cfb0     GuGJKTest.obj
 0003:00001fc0       ?minV3Error@_VecMathTests@aos@shdfnd@physx@@3T__m128@@B 000000018013cfc0     GuGJKTest.obj
 0003:00001fd0       ?maxFError@_VecMathTests@aos@shdfnd@physx@@3T__m128@@B 000000018013cfd0     GuGJKTest.obj
 0003:00001fe0       ?maxV3Error@_VecMathTests@aos@shdfnd@physx@@3T__m128@@B 000000018013cfe0     GuHeightFieldUtil.obj
 0003:00001ff0       ?minFError@_VecMathTests@aos@shdfnd@physx@@3T__m128@@B 000000018013cff0     GuHeightFieldUtil.obj
 0003:00002000       ?maxV4Error@_VecMathTests@aos@shdfnd@physx@@3T__m128@@B 000000018013d000     GuHeightFieldUtil.obj
 0003:00002010       ?minV4Error@_VecMathTests@aos@shdfnd@physx@@3T__m128@@B 000000018013d010     GuHeightFieldUtil.obj
 0003:00002020       ?minV3Error@_VecMathTests@aos@shdfnd@physx@@3T__m128@@B 000000018013d020     GuHeightFieldUtil.obj
 0003:00002030       ?maxFError@_VecMathTests@aos@shdfnd@physx@@3T__m128@@B 000000018013d030     GuHeightFieldUtil.obj
 0003:00002040       ?maxV3Error@_VecMathTests@aos@shdfnd@physx@@3T__m128@@B 000000018013d040     GuOverlapTestsHF.obj
 0003:00002050       ?minFError@_VecMathTests@aos@shdfnd@physx@@3T__m128@@B 000000018013d050     GuOverlapTestsHF.obj
 0003:00002060       ?maxV4Error@_VecMathTests@aos@shdfnd@physx@@3T__m128@@B 000000018013d060     GuOverlapTestsHF.obj
 0003:00002070       ?minV4Error@_VecMathTests@aos@shdfnd@physx@@3T__m128@@B 000000018013d070     GuOverlapTestsHF.obj
 0003:00002080       ?minV3Error@_VecMathTests@aos@shdfnd@physx@@3T__m128@@B 000000018013d080     GuOverlapTestsHF.obj
 0003:00002090       ?maxFError@_VecMathTests@aos@shdfnd@physx@@3T__m128@@B 000000018013d090     GuOverlapTestsHF.obj
 0003:000020a0       ?maxV3Error@_VecMathTests@aos@shdfnd@physx@@3T__m128@@B 000000018013d0a0     GuSweepsHF.obj
 0003:000020b0       ?minFError@_VecMathTests@aos@shdfnd@physx@@3T__m128@@B 000000018013d0b0     GuSweepsHF.obj
 0003:000020c0       ?maxV4Error@_VecMathTests@aos@shdfnd@physx@@3T__m128@@B 000000018013d0c0     GuSweepsHF.obj
 0003:000020d0       ?minV4Error@_VecMathTests@aos@shdfnd@physx@@3T__m128@@B 000000018013d0d0     GuSweepsHF.obj
 0003:000020e0       ?minV3Error@_VecMathTests@aos@shdfnd@physx@@3T__m128@@B 000000018013d0e0     GuSweepsHF.obj
 0003:000020f0       ?maxFError@_VecMathTests@aos@shdfnd@physx@@3T__m128@@B 000000018013d0f0     GuSweepsHF.obj
 0003:00002100       ?maxV3Error@_VecMathTests@aos@shdfnd@physx@@3T__m128@@B 000000018013d100     GuIntersectionRayBox.obj
 0003:00002110       ?minFError@_VecMathTests@aos@shdfnd@physx@@3T__m128@@B 000000018013d110     GuIntersectionRayBox.obj
 0003:00002120       ?maxV4Error@_VecMathTests@aos@shdfnd@physx@@3T__m128@@B 000000018013d120     GuIntersectionRayBox.obj
 0003:00002130       ?minV4Error@_VecMathTests@aos@shdfnd@physx@@3T__m128@@B 000000018013d130     GuIntersectionRayBox.obj
 0003:00002140       ?minV3Error@_VecMathTests@aos@shdfnd@physx@@3T__m128@@B 000000018013d140     GuIntersectionRayBox.obj
 0003:00002150       ?maxFError@_VecMathTests@aos@shdfnd@physx@@3T__m128@@B 000000018013d150     GuIntersectionRayBox.obj
 0003:00002160       ?maxV3Error@_VecMathTests@aos@shdfnd@physx@@3T__m128@@B 000000018013d160     GuIntersectionTriangleBox.obj
 0003:00002170       ?minFError@_VecMathTests@aos@shdfnd@physx@@3T__m128@@B 000000018013d170     GuIntersectionTriangleBox.obj
 0003:00002180       ?maxV4Error@_VecMathTests@aos@shdfnd@physx@@3T__m128@@B 000000018013d180     GuIntersectionTriangleBox.obj
 0003:00002190       ?signV@@3T__m128@@B        000000018013d190     GuIntersectionTriangleBox.obj
 0003:000021a0       ?minV4Error@_VecMathTests@aos@shdfnd@physx@@3T__m128@@B 000000018013d1a0     GuIntersectionTriangleBox.obj
 0003:000021b0       ?minV3Error@_VecMathTests@aos@shdfnd@physx@@3T__m128@@B 000000018013d1b0     GuIntersectionTriangleBox.obj
 0003:000021c0       ?maxFError@_VecMathTests@aos@shdfnd@physx@@3T__m128@@B 000000018013d1c0     GuIntersectionTriangleBox.obj
 0003:000021d0       ?maxV3Error@_VecMathTests@aos@shdfnd@physx@@3T__m128@@B 000000018013d1d0     GuBV4.obj
 0003:000021e0       ?minFError@_VecMathTests@aos@shdfnd@physx@@3T__m128@@B 000000018013d1e0     GuBV4.obj
 0003:000021f0       ?maxV4Error@_VecMathTests@aos@shdfnd@physx@@3T__m128@@B 000000018013d1f0     GuBV4.obj
 0003:00002200       ?minV4Error@_VecMathTests@aos@shdfnd@physx@@3T__m128@@B 000000018013d200     GuBV4.obj
 0003:00002210       ?minV3Error@_VecMathTests@aos@shdfnd@physx@@3T__m128@@B 000000018013d210     GuBV4.obj
 0003:00002220       ?maxFError@_VecMathTests@aos@shdfnd@physx@@3T__m128@@B 000000018013d220     GuBV4.obj
 0003:00002230       ?maxV3Error@_VecMathTests@aos@shdfnd@physx@@3T__m128@@B 000000018013d230     GuBV4Build.obj
 0003:00002240       ?minFError@_VecMathTests@aos@shdfnd@physx@@3T__m128@@B 000000018013d240     GuBV4Build.obj
 0003:00002250       ?maxV4Error@_VecMathTests@aos@shdfnd@physx@@3T__m128@@B 000000018013d250     GuBV4Build.obj
 0003:00002260       ?minV4Error@_VecMathTests@aos@shdfnd@physx@@3T__m128@@B 000000018013d260     GuBV4Build.obj
 0003:00002270       ?minV3Error@_VecMathTests@aos@shdfnd@physx@@3T__m128@@B 000000018013d270     GuBV4Build.obj
 0003:00002280       ?maxFError@_VecMathTests@aos@shdfnd@physx@@3T__m128@@B 000000018013d280     GuBV4Build.obj
 0003:00002290       ?maxV3Error@_VecMathTests@aos@shdfnd@physx@@3T__m128@@B 000000018013d290     GuBV4_AABBSweep.obj
 0003:000022a0       ?minFError@_VecMathTests@aos@shdfnd@physx@@3T__m128@@B 000000018013d2a0     GuBV4_AABBSweep.obj
 0003:000022b0       ?maxV4Error@_VecMathTests@aos@shdfnd@physx@@3T__m128@@B 000000018013d2b0     GuBV4_AABBSweep.obj
 0003:000022c0       ?twos@?A0x788c2204@@3T__m128@@B 000000018013d2c0     GuBV4_AABBSweep.obj
 0003:000022d0       ?signMask@?A0x788c2204@@3T__m128@@B 000000018013d2d0     GuBV4_AABBSweep.obj
 0003:000022e0       ?zeroes@?A0x788c2204@@3T__m128@@B 000000018013d2e0     GuBV4_AABBSweep.obj
 0003:000022f0       ?epsFloat4@?A0x788c2204@@3T__m128@@B 000000018013d2f0     GuBV4_AABBSweep.obj
 0003:00002300       ?minV4Error@_VecMathTests@aos@shdfnd@physx@@3T__m128@@B 000000018013d300     GuBV4_AABBSweep.obj
 0003:00002310       ?epsInflateFloat4@?A0x788c2204@@3T__m128@@B 000000018013d310     GuBV4_AABBSweep.obj
 0003:00002320       ?minV3Error@_VecMathTests@aos@shdfnd@physx@@3T__m128@@B 000000018013d320     GuBV4_AABBSweep.obj
 0003:00002330       ?maxFError@_VecMathTests@aos@shdfnd@physx@@3T__m128@@B 000000018013d330     GuBV4_AABBSweep.obj
 0003:00002340       ?maxV3Error@_VecMathTests@aos@shdfnd@physx@@3T__m128@@B 000000018013d340     GuBV4_BoxOverlap.obj
 0003:00002350       ?minFError@_VecMathTests@aos@shdfnd@physx@@3T__m128@@B 000000018013d350     GuBV4_BoxOverlap.obj
 0003:00002360       ?maxV4Error@_VecMathTests@aos@shdfnd@physx@@3T__m128@@B 000000018013d360     GuBV4_BoxOverlap.obj
 0003:00002370       ?minV4Error@_VecMathTests@aos@shdfnd@physx@@3T__m128@@B 000000018013d370     GuBV4_BoxOverlap.obj
 0003:00002380       ?minV3Error@_VecMathTests@aos@shdfnd@physx@@3T__m128@@B 000000018013d380     GuBV4_BoxOverlap.obj
 0003:00002390       ?maxFError@_VecMathTests@aos@shdfnd@physx@@3T__m128@@B 000000018013d390     GuBV4_BoxOverlap.obj
 0003:000023a0       ?maxV3Error@_VecMathTests@aos@shdfnd@physx@@3T__m128@@B 000000018013d3a0     GuBV4_CapsuleSweep.obj
 0003:000023b0       ?minFError@_VecMathTests@aos@shdfnd@physx@@3T__m128@@B 000000018013d3b0     GuBV4_CapsuleSweep.obj
 0003:000023c0       ?maxV4Error@_VecMathTests@aos@shdfnd@physx@@3T__m128@@B 000000018013d3c0     GuBV4_CapsuleSweep.obj
 0003:000023d0       ?minV4Error@_VecMathTests@aos@shdfnd@physx@@3T__m128@@B 000000018013d3d0     GuBV4_CapsuleSweep.obj
 0003:000023e0       ?minV3Error@_VecMathTests@aos@shdfnd@physx@@3T__m128@@B 000000018013d3e0     GuBV4_CapsuleSweep.obj
 0003:000023f0       ?maxFError@_VecMathTests@aos@shdfnd@physx@@3T__m128@@B 000000018013d3f0     GuBV4_CapsuleSweep.obj
 0003:00002400       ?zeroes@?A0xf567e8b1@@3T__m128@@B 000000018013d400     GuBV4_CapsuleSweepAA.obj
 0003:00002410       ?maxV3Error@_VecMathTests@aos@shdfnd@physx@@3T__m128@@B 000000018013d410     GuBV4_CapsuleSweepAA.obj
 0003:00002420       ?minFError@_VecMathTests@aos@shdfnd@physx@@3T__m128@@B 000000018013d420     GuBV4_CapsuleSweepAA.obj
 0003:00002430       ?maxV4Error@_VecMathTests@aos@shdfnd@physx@@3T__m128@@B 000000018013d430     GuBV4_CapsuleSweepAA.obj
 0003:00002440       ?signMask@?A0xf567e8b1@@3T__m128@@B 000000018013d440     GuBV4_CapsuleSweepAA.obj
 0003:00002450       ?epsFloat4@?A0xf567e8b1@@3T__m128@@B 000000018013d450     GuBV4_CapsuleSweepAA.obj
 0003:00002460       ?twos@?A0xf567e8b1@@3T__m128@@B 000000018013d460     GuBV4_CapsuleSweepAA.obj
 0003:00002470       ?minV4Error@_VecMathTests@aos@shdfnd@physx@@3T__m128@@B 000000018013d470     GuBV4_CapsuleSweepAA.obj
 0003:00002480       ?epsInflateFloat4@?A0xf567e8b1@@3T__m128@@B 000000018013d480     GuBV4_CapsuleSweepAA.obj
 0003:00002490       ?minV3Error@_VecMathTests@aos@shdfnd@physx@@3T__m128@@B 000000018013d490     GuBV4_CapsuleSweepAA.obj
 0003:000024a0       ?maxFError@_VecMathTests@aos@shdfnd@physx@@3T__m128@@B 000000018013d4a0     GuBV4_CapsuleSweepAA.obj
 0003:000024b0       ?maxV3Error@_VecMathTests@aos@shdfnd@physx@@3T__m128@@B 000000018013d4b0     GuBV4_OBBSweep.obj
 0003:000024c0       ?minFError@_VecMathTests@aos@shdfnd@physx@@3T__m128@@B 000000018013d4c0     GuBV4_OBBSweep.obj
 0003:000024d0       ?maxV4Error@_VecMathTests@aos@shdfnd@physx@@3T__m128@@B 000000018013d4d0     GuBV4_OBBSweep.obj
 0003:000024e0       ?minV4Error@_VecMathTests@aos@shdfnd@physx@@3T__m128@@B 000000018013d4e0     GuBV4_OBBSweep.obj
 0003:000024f0       ?minV3Error@_VecMathTests@aos@shdfnd@physx@@3T__m128@@B 000000018013d4f0     GuBV4_OBBSweep.obj
 0003:00002500       ?maxFError@_VecMathTests@aos@shdfnd@physx@@3T__m128@@B 000000018013d500     GuBV4_OBBSweep.obj
 0003:00002510       ?maxV3Error@_VecMathTests@aos@shdfnd@physx@@3T__m128@@B 000000018013d510     GuBV4_Raycast.obj
 0003:00002520       ?minFError@_VecMathTests@aos@shdfnd@physx@@3T__m128@@B 000000018013d520     GuBV4_Raycast.obj
 0003:00002530       ?maxV4Error@_VecMathTests@aos@shdfnd@physx@@3T__m128@@B 000000018013d530     GuBV4_Raycast.obj
 0003:00002540       ?twos@?A0xdeb1923c@@3T__m128@@B 000000018013d540     GuBV4_Raycast.obj
 0003:00002550       ?signMask@?A0xdeb1923c@@3T__m128@@B 000000018013d550     GuBV4_Raycast.obj
 0003:00002560       ?zeroes@?A0xdeb1923c@@3T__m128@@B 000000018013d560     GuBV4_Raycast.obj
 0003:00002570       ?epsFloat4@?A0xdeb1923c@@3T__m128@@B 000000018013d570     GuBV4_Raycast.obj
 0003:00002580       ?minV4Error@_VecMathTests@aos@shdfnd@physx@@3T__m128@@B 000000018013d580     GuBV4_Raycast.obj
 0003:00002590       ?epsInflateFloat4@?A0xdeb1923c@@3T__m128@@B 000000018013d590     GuBV4_Raycast.obj
 0003:000025a0       ?minV3Error@_VecMathTests@aos@shdfnd@physx@@3T__m128@@B 000000018013d5a0     GuBV4_Raycast.obj
 0003:000025b0       ?maxFError@_VecMathTests@aos@shdfnd@physx@@3T__m128@@B 000000018013d5b0     GuBV4_Raycast.obj
 0003:000025c0       ?maxV3Error@_VecMathTests@aos@shdfnd@physx@@3T__m128@@B 000000018013d5c0     GuBV4_SphereOverlap.obj
 0003:000025d0       ?minFError@_VecMathTests@aos@shdfnd@physx@@3T__m128@@B 000000018013d5d0     GuBV4_SphereOverlap.obj
 0003:000025e0       ?maxV4Error@_VecMathTests@aos@shdfnd@physx@@3T__m128@@B 000000018013d5e0     GuBV4_SphereOverlap.obj
 0003:000025f0       ?minV4Error@_VecMathTests@aos@shdfnd@physx@@3T__m128@@B 000000018013d5f0     GuBV4_SphereOverlap.obj
 0003:00002600       ?minV3Error@_VecMathTests@aos@shdfnd@physx@@3T__m128@@B 000000018013d600     GuBV4_SphereOverlap.obj
 0003:00002610       ?maxFError@_VecMathTests@aos@shdfnd@physx@@3T__m128@@B 000000018013d610     GuBV4_SphereOverlap.obj
 0003:00002620       ?maxV3Error@_VecMathTests@aos@shdfnd@physx@@3T__m128@@B 000000018013d620     GuBV4_SphereSweep.obj
 0003:00002630       ?minFError@_VecMathTests@aos@shdfnd@physx@@3T__m128@@B 000000018013d630     GuBV4_SphereSweep.obj
 0003:00002640       ?maxV4Error@_VecMathTests@aos@shdfnd@physx@@3T__m128@@B 000000018013d640     GuBV4_SphereSweep.obj
 0003:00002650       ?twos@?A0x0ebb234c@@3T__m128@@B 000000018013d650     GuBV4_SphereSweep.obj
 0003:00002660       ?signMask@?A0x0ebb234c@@3T__m128@@B 000000018013d660     GuBV4_SphereSweep.obj
 0003:00002670       ?zeroes@?A0x0ebb234c@@3T__m128@@B 000000018013d670     GuBV4_SphereSweep.obj
 0003:00002680       ?epsFloat4@?A0x0ebb234c@@3T__m128@@B 000000018013d680     GuBV4_SphereSweep.obj
 0003:00002690       ?minV4Error@_VecMathTests@aos@shdfnd@physx@@3T__m128@@B 000000018013d690     GuBV4_SphereSweep.obj
 0003:000026a0       ?epsInflateFloat4@?A0x0ebb234c@@3T__m128@@B 000000018013d6a0     GuBV4_SphereSweep.obj
 0003:000026b0       ?minV3Error@_VecMathTests@aos@shdfnd@physx@@3T__m128@@B 000000018013d6b0     GuBV4_SphereSweep.obj
 0003:000026c0       ?maxFError@_VecMathTests@aos@shdfnd@physx@@3T__m128@@B 000000018013d6c0     GuBV4_SphereSweep.obj
 0003:000026d0       ?maxV3Error@_VecMathTests@aos@shdfnd@physx@@3T__m128@@B 000000018013d6d0     GuMidphaseBV4.obj
 0003:000026e0       ?minFError@_VecMathTests@aos@shdfnd@physx@@3T__m128@@B 000000018013d6e0     GuMidphaseBV4.obj
 0003:000026f0       ?maxV4Error@_VecMathTests@aos@shdfnd@physx@@3T__m128@@B 000000018013d6f0     GuMidphaseBV4.obj
 0003:00002700       ?minV4Error@_VecMathTests@aos@shdfnd@physx@@3T__m128@@B 000000018013d700     GuMidphaseBV4.obj
 0003:00002710       ?minV3Error@_VecMathTests@aos@shdfnd@physx@@3T__m128@@B 000000018013d710     GuMidphaseBV4.obj
 0003:00002720       ?maxFError@_VecMathTests@aos@shdfnd@physx@@3T__m128@@B 000000018013d720     GuMidphaseBV4.obj
 0003:00002730       ?maxV3Error@_VecMathTests@aos@shdfnd@physx@@3T__m128@@B 000000018013d730     GuMeshQuery.obj
 0003:00002740       ?minFError@_VecMathTests@aos@shdfnd@physx@@3T__m128@@B 000000018013d740     GuMeshQuery.obj
 0003:00002750       ?maxV4Error@_VecMathTests@aos@shdfnd@physx@@3T__m128@@B 000000018013d750     GuMeshQuery.obj
 0003:00002760       ?minV4Error@_VecMathTests@aos@shdfnd@physx@@3T__m128@@B 000000018013d760     GuMeshQuery.obj
 0003:00002770       ?minV3Error@_VecMathTests@aos@shdfnd@physx@@3T__m128@@B 000000018013d770     GuMeshQuery.obj
 0003:00002780       ?maxFError@_VecMathTests@aos@shdfnd@physx@@3T__m128@@B 000000018013d780     GuMeshQuery.obj
 0003:00002790       ?maxV3Error@_VecMathTests@aos@shdfnd@physx@@3T__m128@@B 000000018013d790     GuMidphaseRTree.obj
 0003:000027a0       ?minFError@_VecMathTests@aos@shdfnd@physx@@3T__m128@@B 000000018013d7a0     GuMidphaseRTree.obj
 0003:000027b0       ?maxV4Error@_VecMathTests@aos@shdfnd@physx@@3T__m128@@B 000000018013d7b0     GuMidphaseRTree.obj
 0003:000027c0       ?minV4Error@_VecMathTests@aos@shdfnd@physx@@3T__m128@@B 000000018013d7c0     GuMidphaseRTree.obj
 0003:000027d0       ?minV3Error@_VecMathTests@aos@shdfnd@physx@@3T__m128@@B 000000018013d7d0     GuMidphaseRTree.obj
 0003:000027e0       ?maxFError@_VecMathTests@aos@shdfnd@physx@@3T__m128@@B 000000018013d7e0     GuMidphaseRTree.obj
 0003:000027f0       ?maxV3Error@_VecMathTests@aos@shdfnd@physx@@3T__m128@@B 000000018013d7f0     GuOverlapTestsMesh.obj
 0003:00002800       ?minFError@_VecMathTests@aos@shdfnd@physx@@3T__m128@@B 000000018013d800     GuOverlapTestsMesh.obj
 0003:00002810       ?maxV4Error@_VecMathTests@aos@shdfnd@physx@@3T__m128@@B 000000018013d810     GuOverlapTestsMesh.obj
 0003:00002820       ?minV4Error@_VecMathTests@aos@shdfnd@physx@@3T__m128@@B 000000018013d820     GuOverlapTestsMesh.obj
 0003:00002830       ?minV3Error@_VecMathTests@aos@shdfnd@physx@@3T__m128@@B 000000018013d830     GuOverlapTestsMesh.obj
 0003:00002840       ?maxFError@_VecMathTests@aos@shdfnd@physx@@3T__m128@@B 000000018013d840     GuOverlapTestsMesh.obj
 0003:00002850       ?maxV3Error@_VecMathTests@aos@shdfnd@physx@@3T__m128@@B 000000018013d850     GuRTree.obj
 0003:00002860       ?minFError@_VecMathTests@aos@shdfnd@physx@@3T__m128@@B 000000018013d860     GuRTree.obj
 0003:00002870       ?maxV4Error@_VecMathTests@aos@shdfnd@physx@@3T__m128@@B 000000018013d870     GuRTree.obj
 0003:00002880       ?minV4Error@_VecMathTests@aos@shdfnd@physx@@3T__m128@@B 000000018013d880     GuRTree.obj
 0003:00002890       ?minV3Error@_VecMathTests@aos@shdfnd@physx@@3T__m128@@B 000000018013d890     GuRTree.obj
 0003:000028a0       ?maxFError@_VecMathTests@aos@shdfnd@physx@@3T__m128@@B 000000018013d8a0     GuRTree.obj
 0003:000028b0       ?validateCounter@?1??validateRecursive@RTree@Gu@physx@@IEAAXIURTreeNodeQ@34@PEAURTreePage@34@PEAUCallbackRefit@234@@Z@4IA 000000018013d8b0     GuRTree.obj
 0003:000028c0       ?maxV3Error@_VecMathTests@aos@shdfnd@physx@@3T__m128@@B 000000018013d8c0     GuRTreeQueries.obj
 0003:000028d0       ?minFError@_VecMathTests@aos@shdfnd@physx@@3T__m128@@B 000000018013d8d0     GuRTreeQueries.obj
 0003:000028e0       ?maxV4Error@_VecMathTests@aos@shdfnd@physx@@3T__m128@@B 000000018013d8e0     GuRTreeQueries.obj
 0003:000028f0       ?minV4Error@_VecMathTests@aos@shdfnd@physx@@3T__m128@@B 000000018013d8f0     GuRTreeQueries.obj
 0003:00002900       ?minV3Error@_VecMathTests@aos@shdfnd@physx@@3T__m128@@B 000000018013d900     GuRTreeQueries.obj
 0003:00002910       ?twos@?A0x28b72d2e@@3T__m128@@B 000000018013d910     GuRTreeQueries.obj
 0003:00002920       ?signMask@?A0x28b72d2e@@3T__m128@@B 000000018013d920     GuRTreeQueries.obj
 0003:00002930       ?zeroes@?A0x28b72d2e@@3T__m128@@B 000000018013d930     GuRTreeQueries.obj
 0003:00002940       ?epsInflateFloat4@?A0x28b72d2e@@3T__m128@@B 000000018013d940     GuRTreeQueries.obj
 0003:00002950       ?epsFloat4@?A0x28b72d2e@@3T__m128@@B 000000018013d950     GuRTreeQueries.obj
 0003:00002960       ?maxFError@_VecMathTests@aos@shdfnd@physx@@3T__m128@@B 000000018013d960     GuRTreeQueries.obj
 0003:00002970       ?maxV3Error@_VecMathTests@aos@shdfnd@physx@@3T__m128@@B 000000018013d970     GuSweepsMesh.obj
 0003:00002980       ?minFError@_VecMathTests@aos@shdfnd@physx@@3T__m128@@B 000000018013d980     GuSweepsMesh.obj
 0003:00002990       ?maxV4Error@_VecMathTests@aos@shdfnd@physx@@3T__m128@@B 000000018013d990     GuSweepsMesh.obj
 0003:000029a0       ?minV4Error@_VecMathTests@aos@shdfnd@physx@@3T__m128@@B 000000018013d9a0     GuSweepsMesh.obj
 0003:000029b0       ?minV3Error@_VecMathTests@aos@shdfnd@physx@@3T__m128@@B 000000018013d9b0     GuSweepsMesh.obj
 0003:000029c0       ?maxFError@_VecMathTests@aos@shdfnd@physx@@3T__m128@@B 000000018013d9c0     GuSweepsMesh.obj
 0003:000029d0       ?maxV3Error@_VecMathTests@aos@shdfnd@physx@@3T__m128@@B 000000018013d9d0     GuTriangleMesh.obj
 0003:000029e0       ?minFError@_VecMathTests@aos@shdfnd@physx@@3T__m128@@B 000000018013d9e0     GuTriangleMesh.obj
 0003:000029f0       ?maxV4Error@_VecMathTests@aos@shdfnd@physx@@3T__m128@@B 000000018013d9f0     GuTriangleMesh.obj
 0003:00002a00       ?minV4Error@_VecMathTests@aos@shdfnd@physx@@3T__m128@@B 000000018013da00     GuTriangleMesh.obj
 0003:00002a10       ?minV3Error@_VecMathTests@aos@shdfnd@physx@@3T__m128@@B 000000018013da10     GuTriangleMesh.obj
 0003:00002a20       ?maxFError@_VecMathTests@aos@shdfnd@physx@@3T__m128@@B 000000018013da20     GuTriangleMesh.obj
 0003:00002a30       ?maxV3Error@_VecMathTests@aos@shdfnd@physx@@3T__m128@@B 000000018013da30     GuTriangleMeshBV4.obj
 0003:00002a40       ?minFError@_VecMathTests@aos@shdfnd@physx@@3T__m128@@B 000000018013da40     GuTriangleMeshBV4.obj
 0003:00002a50       ?maxV4Error@_VecMathTests@aos@shdfnd@physx@@3T__m128@@B 000000018013da50     GuTriangleMeshBV4.obj
 0003:00002a60       ?minV4Error@_VecMathTests@aos@shdfnd@physx@@3T__m128@@B 000000018013da60     GuTriangleMeshBV4.obj
 0003:00002a70       ?minV3Error@_VecMathTests@aos@shdfnd@physx@@3T__m128@@B 000000018013da70     GuTriangleMeshBV4.obj
 0003:00002a80       ?maxFError@_VecMathTests@aos@shdfnd@physx@@3T__m128@@B 000000018013da80     GuTriangleMeshBV4.obj
 0003:00002a90       ?maxV3Error@_VecMathTests@aos@shdfnd@physx@@3T__m128@@B 000000018013da90     GuTriangleMeshRTree.obj
 0003:00002aa0       ?minFError@_VecMathTests@aos@shdfnd@physx@@3T__m128@@B 000000018013daa0     GuTriangleMeshRTree.obj
 0003:00002ab0       ?maxV4Error@_VecMathTests@aos@shdfnd@physx@@3T__m128@@B 000000018013dab0     GuTriangleMeshRTree.obj
 0003:00002ac0       ?minV4Error@_VecMathTests@aos@shdfnd@physx@@3T__m128@@B 000000018013dac0     GuTriangleMeshRTree.obj
 0003:00002ad0       ?minV3Error@_VecMathTests@aos@shdfnd@physx@@3T__m128@@B 000000018013dad0     GuTriangleMeshRTree.obj
 0003:00002ae0       ?maxFError@_VecMathTests@aos@shdfnd@physx@@3T__m128@@B 000000018013dae0     GuTriangleMeshRTree.obj
 0003:00002af0       ?maxV3Error@_VecMathTests@aos@shdfnd@physx@@3T__m128@@B 000000018013daf0     GuBV32Build.obj
 0003:00002b00       ?minFError@_VecMathTests@aos@shdfnd@physx@@3T__m128@@B 000000018013db00     GuBV32Build.obj
 0003:00002b10       ?maxV4Error@_VecMathTests@aos@shdfnd@physx@@3T__m128@@B 000000018013db10     GuBV32Build.obj
 0003:00002b20       ?minV4Error@_VecMathTests@aos@shdfnd@physx@@3T__m128@@B 000000018013db20     GuBV32Build.obj
 0003:00002b30       ?minV3Error@_VecMathTests@aos@shdfnd@physx@@3T__m128@@B 000000018013db30     GuBV32Build.obj
 0003:00002b40       ?maxFError@_VecMathTests@aos@shdfnd@physx@@3T__m128@@B 000000018013db40     GuBV32Build.obj
 0003:00002b50       ?maxV3Error@_VecMathTests@aos@shdfnd@physx@@3T__m128@@B 000000018013db50     GuPCMContactBoxBox.obj
 0003:00002b60       ?minFError@_VecMathTests@aos@shdfnd@physx@@3T__m128@@B 000000018013db60     GuPCMContactBoxBox.obj
 0003:00002b70       ?maxV4Error@_VecMathTests@aos@shdfnd@physx@@3T__m128@@B 000000018013db70     GuPCMContactBoxBox.obj
 0003:00002b80       ?minV4Error@_VecMathTests@aos@shdfnd@physx@@3T__m128@@B 000000018013db80     GuPCMContactBoxBox.obj
 0003:00002b90       ?minV3Error@_VecMathTests@aos@shdfnd@physx@@3T__m128@@B 000000018013db90     GuPCMContactBoxBox.obj
 0003:00002ba0       ?maxFError@_VecMathTests@aos@shdfnd@physx@@3T__m128@@B 000000018013dba0     GuPCMContactBoxBox.obj
 0003:00002bb0       ?maxV3Error@_VecMathTests@aos@shdfnd@physx@@3T__m128@@B 000000018013dbb0     GuPCMContactBoxConvex.obj
 0003:00002bc0       ?minFError@_VecMathTests@aos@shdfnd@physx@@3T__m128@@B 000000018013dbc0     GuPCMContactBoxConvex.obj
 0003:00002bd0       ?maxV4Error@_VecMathTests@aos@shdfnd@physx@@3T__m128@@B 000000018013dbd0     GuPCMContactBoxConvex.obj
 0003:00002be0       ?minV4Error@_VecMathTests@aos@shdfnd@physx@@3T__m128@@B 000000018013dbe0     GuPCMContactBoxConvex.obj
 0003:00002bf0       ?minV3Error@_VecMathTests@aos@shdfnd@physx@@3T__m128@@B 000000018013dbf0     GuPCMContactBoxConvex.obj
 0003:00002c00       ?maxFError@_VecMathTests@aos@shdfnd@physx@@3T__m128@@B 000000018013dc00     GuPCMContactBoxConvex.obj
 0003:00002c10       ?maxV3Error@_VecMathTests@aos@shdfnd@physx@@3T__m128@@B 000000018013dc10     GuPCMContactCapsuleBox.obj
 0003:00002c20       ?minFError@_VecMathTests@aos@shdfnd@physx@@3T__m128@@B 000000018013dc20     GuPCMContactCapsuleBox.obj
 0003:00002c30       ?maxV4Error@_VecMathTests@aos@shdfnd@physx@@3T__m128@@B 000000018013dc30     GuPCMContactCapsuleBox.obj
 0003:00002c40       ?minV4Error@_VecMathTests@aos@shdfnd@physx@@3T__m128@@B 000000018013dc40     GuPCMContactCapsuleBox.obj
 0003:00002c50       ?minV3Error@_VecMathTests@aos@shdfnd@physx@@3T__m128@@B 000000018013dc50     GuPCMContactCapsuleBox.obj
 0003:00002c60       ?maxFError@_VecMathTests@aos@shdfnd@physx@@3T__m128@@B 000000018013dc60     GuPCMContactCapsuleBox.obj
 0003:00002c70       ?maxV3Error@_VecMathTests@aos@shdfnd@physx@@3T__m128@@B 000000018013dc70     GuPCMContactCapsuleCapsule.obj
 0003:00002c80       ?minFError@_VecMathTests@aos@shdfnd@physx@@3T__m128@@B 000000018013dc80     GuPCMContactCapsuleCapsule.obj
 0003:00002c90       ?maxV4Error@_VecMathTests@aos@shdfnd@physx@@3T__m128@@B 000000018013dc90     GuPCMContactCapsuleCapsule.obj
 0003:00002ca0       ?minV4Error@_VecMathTests@aos@shdfnd@physx@@3T__m128@@B 000000018013dca0     GuPCMContactCapsuleCapsule.obj
 0003:00002cb0       ?minV3Error@_VecMathTests@aos@shdfnd@physx@@3T__m128@@B 000000018013dcb0     GuPCMContactCapsuleCapsule.obj
 0003:00002cc0       ?maxFError@_VecMathTests@aos@shdfnd@physx@@3T__m128@@B 000000018013dcc0     GuPCMContactCapsuleCapsule.obj
 0003:00002cd0       ?maxV3Error@_VecMathTests@aos@shdfnd@physx@@3T__m128@@B 000000018013dcd0     GuPCMContactCapsuleConvex.obj
 0003:00002ce0       ?minFError@_VecMathTests@aos@shdfnd@physx@@3T__m128@@B 000000018013dce0     GuPCMContactCapsuleConvex.obj
 0003:00002cf0       ?maxV4Error@_VecMathTests@aos@shdfnd@physx@@3T__m128@@B 000000018013dcf0     GuPCMContactCapsuleConvex.obj
 0003:00002d00       ?minV4Error@_VecMathTests@aos@shdfnd@physx@@3T__m128@@B 000000018013dd00     GuPCMContactCapsuleConvex.obj
 0003:00002d10       ?minV3Error@_VecMathTests@aos@shdfnd@physx@@3T__m128@@B 000000018013dd10     GuPCMContactCapsuleConvex.obj
 0003:00002d20       ?maxFError@_VecMathTests@aos@shdfnd@physx@@3T__m128@@B 000000018013dd20     GuPCMContactCapsuleConvex.obj
 0003:00002d30       ?maxV3Error@_VecMathTests@aos@shdfnd@physx@@3T__m128@@B 000000018013dd30     GuPCMContactCapsuleHeightField.obj
 0003:00002d40       ?minFError@_VecMathTests@aos@shdfnd@physx@@3T__m128@@B 000000018013dd40     GuPCMContactCapsuleHeightField.obj
 0003:00002d50       ?maxV4Error@_VecMathTests@aos@shdfnd@physx@@3T__m128@@B 000000018013dd50     GuPCMContactCapsuleHeightField.obj
 0003:00002d60       ?minV4Error@_VecMathTests@aos@shdfnd@physx@@3T__m128@@B 000000018013dd60     GuPCMContactCapsuleHeightField.obj
 0003:00002d70       ?minV3Error@_VecMathTests@aos@shdfnd@physx@@3T__m128@@B 000000018013dd70     GuPCMContactCapsuleHeightField.obj
 0003:00002d80       ?maxFError@_VecMathTests@aos@shdfnd@physx@@3T__m128@@B 000000018013dd80     GuPCMContactCapsuleHeightField.obj
 0003:00002d90       ?maxV3Error@_VecMathTests@aos@shdfnd@physx@@3T__m128@@B 000000018013dd90     GuPCMContactCapsuleMesh.obj
 0003:00002da0       ?minFError@_VecMathTests@aos@shdfnd@physx@@3T__m128@@B 000000018013dda0     GuPCMContactCapsuleMesh.obj
 0003:00002db0       ?maxV4Error@_VecMathTests@aos@shdfnd@physx@@3T__m128@@B 000000018013ddb0     GuPCMContactCapsuleMesh.obj
 0003:00002dc0       ?minV4Error@_VecMathTests@aos@shdfnd@physx@@3T__m128@@B 000000018013ddc0     GuPCMContactCapsuleMesh.obj
 0003:00002dd0       ?minV3Error@_VecMathTests@aos@shdfnd@physx@@3T__m128@@B 000000018013ddd0     GuPCMContactCapsuleMesh.obj
 0003:00002de0       ?maxFError@_VecMathTests@aos@shdfnd@physx@@3T__m128@@B 000000018013dde0     GuPCMContactCapsuleMesh.obj
 0003:00002df0       ?maxV3Error@_VecMathTests@aos@shdfnd@physx@@3T__m128@@B 000000018013ddf0     GuPCMContactConvexCommon.obj
 0003:00002e00       ?minFError@_VecMathTests@aos@shdfnd@physx@@3T__m128@@B 000000018013de00     GuPCMContactConvexCommon.obj
 0003:00002e10       ?maxV4Error@_VecMathTests@aos@shdfnd@physx@@3T__m128@@B 000000018013de10     GuPCMContactConvexCommon.obj
 0003:00002e20       ?minV4Error@_VecMathTests@aos@shdfnd@physx@@3T__m128@@B 000000018013de20     GuPCMContactConvexCommon.obj
 0003:00002e30       ?minV3Error@_VecMathTests@aos@shdfnd@physx@@3T__m128@@B 000000018013de30     GuPCMContactConvexCommon.obj
 0003:00002e40       ?maxFError@_VecMathTests@aos@shdfnd@physx@@3T__m128@@B 000000018013de40     GuPCMContactConvexCommon.obj
 0003:00002e50       ?maxV3Error@_VecMathTests@aos@shdfnd@physx@@3T__m128@@B 000000018013de50     GuPCMContactConvexConvex.obj
 0003:00002e60       ?minFError@_VecMathTests@aos@shdfnd@physx@@3T__m128@@B 000000018013de60     GuPCMContactConvexConvex.obj
 0003:00002e70       ?maxV4Error@_VecMathTests@aos@shdfnd@physx@@3T__m128@@B 000000018013de70     GuPCMContactConvexConvex.obj
 0003:00002e80       ?minV4Error@_VecMathTests@aos@shdfnd@physx@@3T__m128@@B 000000018013de80     GuPCMContactConvexConvex.obj
 0003:00002e90       ?minV3Error@_VecMathTests@aos@shdfnd@physx@@3T__m128@@B 000000018013de90     GuPCMContactConvexConvex.obj
 0003:00002ea0       ?maxFError@_VecMathTests@aos@shdfnd@physx@@3T__m128@@B 000000018013dea0     GuPCMContactConvexConvex.obj
 0003:00002eb0       ?maxV3Error@_VecMathTests@aos@shdfnd@physx@@3T__m128@@B 000000018013deb0     GuPCMContactConvexHeightField.obj
 0003:00002ec0       ?minFError@_VecMathTests@aos@shdfnd@physx@@3T__m128@@B 000000018013dec0     GuPCMContactConvexHeightField.obj
 0003:00002ed0       ?maxV4Error@_VecMathTests@aos@shdfnd@physx@@3T__m128@@B 000000018013ded0     GuPCMContactConvexHeightField.obj
 0003:00002ee0       ?minV4Error@_VecMathTests@aos@shdfnd@physx@@3T__m128@@B 000000018013dee0     GuPCMContactConvexHeightField.obj
 0003:00002ef0       ?minV3Error@_VecMathTests@aos@shdfnd@physx@@3T__m128@@B 000000018013def0     GuPCMContactConvexHeightField.obj
 0003:00002f00       ?maxFError@_VecMathTests@aos@shdfnd@physx@@3T__m128@@B 000000018013df00     GuPCMContactConvexHeightField.obj
 0003:00002f10       ?maxV3Error@_VecMathTests@aos@shdfnd@physx@@3T__m128@@B 000000018013df10     GuPCMContactConvexMesh.obj
 0003:00002f20       ?minFError@_VecMathTests@aos@shdfnd@physx@@3T__m128@@B 000000018013df20     GuPCMContactConvexMesh.obj
 0003:00002f30       ?maxV4Error@_VecMathTests@aos@shdfnd@physx@@3T__m128@@B 000000018013df30     GuPCMContactConvexMesh.obj
 0003:00002f40       ?minV4Error@_VecMathTests@aos@shdfnd@physx@@3T__m128@@B 000000018013df40     GuPCMContactConvexMesh.obj
 0003:00002f50       ?minV3Error@_VecMathTests@aos@shdfnd@physx@@3T__m128@@B 000000018013df50     GuPCMContactConvexMesh.obj
 0003:00002f60       ?maxFError@_VecMathTests@aos@shdfnd@physx@@3T__m128@@B 000000018013df60     GuPCMContactConvexMesh.obj
 0003:00002f70       ?maxV3Error@_VecMathTests@aos@shdfnd@physx@@3T__m128@@B 000000018013df70     GuPCMContactGenBoxConvex.obj
 0003:00002f80       ?minFError@_VecMathTests@aos@shdfnd@physx@@3T__m128@@B 000000018013df80     GuPCMContactGenBoxConvex.obj
 0003:00002f90       ?maxV4Error@_VecMathTests@aos@shdfnd@physx@@3T__m128@@B 000000018013df90     GuPCMContactGenBoxConvex.obj
 0003:00002fa0       ?minV4Error@_VecMathTests@aos@shdfnd@physx@@3T__m128@@B 000000018013dfa0     GuPCMContactGenBoxConvex.obj
 0003:00002fb0       ?minV3Error@_VecMathTests@aos@shdfnd@physx@@3T__m128@@B 000000018013dfb0     GuPCMContactGenBoxConvex.obj
 0003:00002fc0       ?maxFError@_VecMathTests@aos@shdfnd@physx@@3T__m128@@B 000000018013dfc0     GuPCMContactGenBoxConvex.obj
 0003:00002fd0       ?maxV3Error@_VecMathTests@aos@shdfnd@physx@@3T__m128@@B 000000018013dfd0     GuPCMContactGenSphereCapsule.obj
 0003:00002fe0       ?minFError@_VecMathTests@aos@shdfnd@physx@@3T__m128@@B 000000018013dfe0     GuPCMContactGenSphereCapsule.obj
 0003:00002ff0       ?maxV4Error@_VecMathTests@aos@shdfnd@physx@@3T__m128@@B 000000018013dff0     GuPCMContactGenSphereCapsule.obj
 0003:00003000       ?minV4Error@_VecMathTests@aos@shdfnd@physx@@3T__m128@@B 000000018013e000     GuPCMContactGenSphereCapsule.obj
 0003:00003010       ?minV3Error@_VecMathTests@aos@shdfnd@physx@@3T__m128@@B 000000018013e010     GuPCMContactGenSphereCapsule.obj
 0003:00003020       ?maxFError@_VecMathTests@aos@shdfnd@physx@@3T__m128@@B 000000018013e020     GuPCMContactGenSphereCapsule.obj
 0003:00003030       ?maxV3Error@_VecMathTests@aos@shdfnd@physx@@3T__m128@@B 000000018013e030     GuPCMContactPlaneBox.obj
 0003:00003040       ?minFError@_VecMathTests@aos@shdfnd@physx@@3T__m128@@B 000000018013e040     GuPCMContactPlaneBox.obj
 0003:00003050       ?maxV4Error@_VecMathTests@aos@shdfnd@physx@@3T__m128@@B 000000018013e050     GuPCMContactPlaneBox.obj
 0003:00003060       ?minV4Error@_VecMathTests@aos@shdfnd@physx@@3T__m128@@B 000000018013e060     GuPCMContactPlaneBox.obj
 0003:00003070       ?minV3Error@_VecMathTests@aos@shdfnd@physx@@3T__m128@@B 000000018013e070     GuPCMContactPlaneBox.obj
 0003:00003080       ?maxFError@_VecMathTests@aos@shdfnd@physx@@3T__m128@@B 000000018013e080     GuPCMContactPlaneBox.obj
 0003:00003090       ?maxV3Error@_VecMathTests@aos@shdfnd@physx@@3T__m128@@B 000000018013e090     GuPCMContactPlaneCapsule.obj
 0003:000030a0       ?minFError@_VecMathTests@aos@shdfnd@physx@@3T__m128@@B 000000018013e0a0     GuPCMContactPlaneCapsule.obj
 0003:000030b0       ?maxV4Error@_VecMathTests@aos@shdfnd@physx@@3T__m128@@B 000000018013e0b0     GuPCMContactPlaneCapsule.obj
 0003:000030c0       ?minV4Error@_VecMathTests@aos@shdfnd@physx@@3T__m128@@B 000000018013e0c0     GuPCMContactPlaneCapsule.obj
 0003:000030d0       ?minV3Error@_VecMathTests@aos@shdfnd@physx@@3T__m128@@B 000000018013e0d0     GuPCMContactPlaneCapsule.obj
 0003:000030e0       ?maxFError@_VecMathTests@aos@shdfnd@physx@@3T__m128@@B 000000018013e0e0     GuPCMContactPlaneCapsule.obj
 0003:000030f0       ?maxV3Error@_VecMathTests@aos@shdfnd@physx@@3T__m128@@B 000000018013e0f0     GuPCMContactPlaneConvex.obj
 0003:00003100       ?minFError@_VecMathTests@aos@shdfnd@physx@@3T__m128@@B 000000018013e100     GuPCMContactPlaneConvex.obj
 0003:00003110       ?maxV4Error@_VecMathTests@aos@shdfnd@physx@@3T__m128@@B 000000018013e110     GuPCMContactPlaneConvex.obj
 0003:00003120       ?minV4Error@_VecMathTests@aos@shdfnd@physx@@3T__m128@@B 000000018013e120     GuPCMContactPlaneConvex.obj
 0003:00003130       ?minV3Error@_VecMathTests@aos@shdfnd@physx@@3T__m128@@B 000000018013e130     GuPCMContactPlaneConvex.obj
 0003:00003140       ?maxFError@_VecMathTests@aos@shdfnd@physx@@3T__m128@@B 000000018013e140     GuPCMContactPlaneConvex.obj
 0003:00003150       ?maxV3Error@_VecMathTests@aos@shdfnd@physx@@3T__m128@@B 000000018013e150     GuPCMContactSphereBox.obj
 0003:00003160       ?minFError@_VecMathTests@aos@shdfnd@physx@@3T__m128@@B 000000018013e160     GuPCMContactSphereBox.obj
 0003:00003170       ?maxV4Error@_VecMathTests@aos@shdfnd@physx@@3T__m128@@B 000000018013e170     GuPCMContactSphereBox.obj
 0003:00003180       ?minV4Error@_VecMathTests@aos@shdfnd@physx@@3T__m128@@B 000000018013e180     GuPCMContactSphereBox.obj
 0003:00003190       ?minV3Error@_VecMathTests@aos@shdfnd@physx@@3T__m128@@B 000000018013e190     GuPCMContactSphereBox.obj
 0003:000031a0       ?maxFError@_VecMathTests@aos@shdfnd@physx@@3T__m128@@B 000000018013e1a0     GuPCMContactSphereBox.obj
 0003:000031b0       ?maxV3Error@_VecMathTests@aos@shdfnd@physx@@3T__m128@@B 000000018013e1b0     GuPCMContactSphereCapsule.obj
 0003:000031c0       ?minFError@_VecMathTests@aos@shdfnd@physx@@3T__m128@@B 000000018013e1c0     GuPCMContactSphereCapsule.obj
 0003:000031d0       ?maxV4Error@_VecMathTests@aos@shdfnd@physx@@3T__m128@@B 000000018013e1d0     GuPCMContactSphereCapsule.obj
 0003:000031e0       ?minV4Error@_VecMathTests@aos@shdfnd@physx@@3T__m128@@B 000000018013e1e0     GuPCMContactSphereCapsule.obj
 0003:000031f0       ?minV3Error@_VecMathTests@aos@shdfnd@physx@@3T__m128@@B 000000018013e1f0     GuPCMContactSphereCapsule.obj
 0003:00003200       ?maxFError@_VecMathTests@aos@shdfnd@physx@@3T__m128@@B 000000018013e200     GuPCMContactSphereCapsule.obj
 0003:00003210       ?maxV3Error@_VecMathTests@aos@shdfnd@physx@@3T__m128@@B 000000018013e210     GuPCMContactSphereConvex.obj
 0003:00003220       ?minFError@_VecMathTests@aos@shdfnd@physx@@3T__m128@@B 000000018013e220     GuPCMContactSphereConvex.obj
 0003:00003230       ?maxV4Error@_VecMathTests@aos@shdfnd@physx@@3T__m128@@B 000000018013e230     GuPCMContactSphereConvex.obj
 0003:00003240       ?minV4Error@_VecMathTests@aos@shdfnd@physx@@3T__m128@@B 000000018013e240     GuPCMContactSphereConvex.obj
 0003:00003250       ?minV3Error@_VecMathTests@aos@shdfnd@physx@@3T__m128@@B 000000018013e250     GuPCMContactSphereConvex.obj
 0003:00003260       ?maxFError@_VecMathTests@aos@shdfnd@physx@@3T__m128@@B 000000018013e260     GuPCMContactSphereConvex.obj
 0003:00003270       ?maxV3Error@_VecMathTests@aos@shdfnd@physx@@3T__m128@@B 000000018013e270     GuPCMContactSphereHeightField.obj
 0003:00003280       ?minFError@_VecMathTests@aos@shdfnd@physx@@3T__m128@@B 000000018013e280     GuPCMContactSphereHeightField.obj
 0003:00003290       ?maxV4Error@_VecMathTests@aos@shdfnd@physx@@3T__m128@@B 000000018013e290     GuPCMContactSphereHeightField.obj
 0003:000032a0       ?minV4Error@_VecMathTests@aos@shdfnd@physx@@3T__m128@@B 000000018013e2a0     GuPCMContactSphereHeightField.obj
 0003:000032b0       ?minV3Error@_VecMathTests@aos@shdfnd@physx@@3T__m128@@B 000000018013e2b0     GuPCMContactSphereHeightField.obj
 0003:000032c0       ?maxFError@_VecMathTests@aos@shdfnd@physx@@3T__m128@@B 000000018013e2c0     GuPCMContactSphereHeightField.obj
 0003:000032d0       ?maxV3Error@_VecMathTests@aos@shdfnd@physx@@3T__m128@@B 000000018013e2d0     GuPCMContactSphereMesh.obj
 0003:000032e0       ?minFError@_VecMathTests@aos@shdfnd@physx@@3T__m128@@B 000000018013e2e0     GuPCMContactSphereMesh.obj
 0003:000032f0       ?maxV4Error@_VecMathTests@aos@shdfnd@physx@@3T__m128@@B 000000018013e2f0     GuPCMContactSphereMesh.obj
 0003:00003300       ?minV4Error@_VecMathTests@aos@shdfnd@physx@@3T__m128@@B 000000018013e300     GuPCMContactSphereMesh.obj
 0003:00003310       ?minV3Error@_VecMathTests@aos@shdfnd@physx@@3T__m128@@B 000000018013e310     GuPCMContactSphereMesh.obj
 0003:00003320       ?maxFError@_VecMathTests@aos@shdfnd@physx@@3T__m128@@B 000000018013e320     GuPCMContactSphereMesh.obj
 0003:00003330       ?maxV3Error@_VecMathTests@aos@shdfnd@physx@@3T__m128@@B 000000018013e330     GuPCMContactSpherePlane.obj
 0003:00003340       ?minFError@_VecMathTests@aos@shdfnd@physx@@3T__m128@@B 000000018013e340     GuPCMContactSpherePlane.obj
 0003:00003350       ?maxV4Error@_VecMathTests@aos@shdfnd@physx@@3T__m128@@B 000000018013e350     GuPCMContactSpherePlane.obj
 0003:00003360       ?minV4Error@_VecMathTests@aos@shdfnd@physx@@3T__m128@@B 000000018013e360     GuPCMContactSpherePlane.obj
 0003:00003370       ?minV3Error@_VecMathTests@aos@shdfnd@physx@@3T__m128@@B 000000018013e370     GuPCMContactSpherePlane.obj
 0003:00003380       ?maxFError@_VecMathTests@aos@shdfnd@physx@@3T__m128@@B 000000018013e380     GuPCMContactSpherePlane.obj
 0003:00003390       ?maxV3Error@_VecMathTests@aos@shdfnd@physx@@3T__m128@@B 000000018013e390     GuPCMContactSphereSphere.obj
 0003:000033a0       ?minFError@_VecMathTests@aos@shdfnd@physx@@3T__m128@@B 000000018013e3a0     GuPCMContactSphereSphere.obj
 0003:000033b0       ?maxV4Error@_VecMathTests@aos@shdfnd@physx@@3T__m128@@B 000000018013e3b0     GuPCMContactSphereSphere.obj
 0003:000033c0       ?minV4Error@_VecMathTests@aos@shdfnd@physx@@3T__m128@@B 000000018013e3c0     GuPCMContactSphereSphere.obj
 0003:000033d0       ?minV3Error@_VecMathTests@aos@shdfnd@physx@@3T__m128@@B 000000018013e3d0     GuPCMContactSphereSphere.obj
 0003:000033e0       ?maxFError@_VecMathTests@aos@shdfnd@physx@@3T__m128@@B 000000018013e3e0     GuPCMContactSphereSphere.obj
 0003:000033f0       ?maxV3Error@_VecMathTests@aos@shdfnd@physx@@3T__m128@@B 000000018013e3f0     GuPCMShapeConvex.obj
 0003:00003400       ?minFError@_VecMathTests@aos@shdfnd@physx@@3T__m128@@B 000000018013e400     GuPCMShapeConvex.obj
 0003:00003410       ?maxV4Error@_VecMathTests@aos@shdfnd@physx@@3T__m128@@B 000000018013e410     GuPCMShapeConvex.obj
 0003:00003420       ?minV4Error@_VecMathTests@aos@shdfnd@physx@@3T__m128@@B 000000018013e420     GuPCMShapeConvex.obj
 0003:00003430       ?minV3Error@_VecMathTests@aos@shdfnd@physx@@3T__m128@@B 000000018013e430     GuPCMShapeConvex.obj
 0003:00003440       ?maxFError@_VecMathTests@aos@shdfnd@physx@@3T__m128@@B 000000018013e440     GuPCMShapeConvex.obj
 0003:00003450       ?maxV3Error@_VecMathTests@aos@shdfnd@physx@@3T__m128@@B 000000018013e450     GuPCMTriangleContactGen.obj
 0003:00003460       ?minFError@_VecMathTests@aos@shdfnd@physx@@3T__m128@@B 000000018013e460     GuPCMTriangleContactGen.obj
 0003:00003470       ?maxV4Error@_VecMathTests@aos@shdfnd@physx@@3T__m128@@B 000000018013e470     GuPCMTriangleContactGen.obj
 0003:00003480       ?minV4Error@_VecMathTests@aos@shdfnd@physx@@3T__m128@@B 000000018013e480     GuPCMTriangleContactGen.obj
 0003:00003490       ?minV3Error@_VecMathTests@aos@shdfnd@physx@@3T__m128@@B 000000018013e490     GuPCMTriangleContactGen.obj
 0003:000034a0       ?maxFError@_VecMathTests@aos@shdfnd@physx@@3T__m128@@B 000000018013e4a0     GuPCMTriangleContactGen.obj
 0003:000034b0       ?maxV3Error@_VecMathTests@aos@shdfnd@physx@@3T__m128@@B 000000018013e4b0     GuPersistentContactManifold.obj
 0003:000034c0       ?minFError@_VecMathTests@aos@shdfnd@physx@@3T__m128@@B 000000018013e4c0     GuPersistentContactManifold.obj
 0003:000034d0       ?maxV4Error@_VecMathTests@aos@shdfnd@physx@@3T__m128@@B 000000018013e4d0     GuPersistentContactManifold.obj
 0003:000034e0       ?minV4Error@_VecMathTests@aos@shdfnd@physx@@3T__m128@@B 000000018013e4e0     GuPersistentContactManifold.obj
 0003:000034f0       ?minV3Error@_VecMathTests@aos@shdfnd@physx@@3T__m128@@B 000000018013e4f0     GuPersistentContactManifold.obj
 0003:00003500       ?maxFError@_VecMathTests@aos@shdfnd@physx@@3T__m128@@B 000000018013e500     GuPersistentContactManifold.obj
 0003:00003510       ?maxV3Error@_VecMathTests@aos@shdfnd@physx@@3T__m128@@B 000000018013e510     GuSweepBoxBox.obj
 0003:00003520       ?minFError@_VecMathTests@aos@shdfnd@physx@@3T__m128@@B 000000018013e520     GuSweepBoxBox.obj
 0003:00003530       ?maxV4Error@_VecMathTests@aos@shdfnd@physx@@3T__m128@@B 000000018013e530     GuSweepBoxBox.obj
 0003:00003540       ?minV4Error@_VecMathTests@aos@shdfnd@physx@@3T__m128@@B 000000018013e540     GuSweepBoxBox.obj
 0003:00003550       ?minV3Error@_VecMathTests@aos@shdfnd@physx@@3T__m128@@B 000000018013e550     GuSweepBoxBox.obj
 0003:00003560       ?maxFError@_VecMathTests@aos@shdfnd@physx@@3T__m128@@B 000000018013e560     GuSweepBoxBox.obj
 0003:00003570       ?maxV3Error@_VecMathTests@aos@shdfnd@physx@@3T__m128@@B 000000018013e570     GuSweepBoxSphere.obj
 0003:00003580       ?minFError@_VecMathTests@aos@shdfnd@physx@@3T__m128@@B 000000018013e580     GuSweepBoxSphere.obj
 0003:00003590       ?maxV4Error@_VecMathTests@aos@shdfnd@physx@@3T__m128@@B 000000018013e590     GuSweepBoxSphere.obj
 0003:000035a0       ?minV4Error@_VecMathTests@aos@shdfnd@physx@@3T__m128@@B 000000018013e5a0     GuSweepBoxSphere.obj
 0003:000035b0       ?minV3Error@_VecMathTests@aos@shdfnd@physx@@3T__m128@@B 000000018013e5b0     GuSweepBoxSphere.obj
 0003:000035c0       ?maxFError@_VecMathTests@aos@shdfnd@physx@@3T__m128@@B 000000018013e5c0     GuSweepBoxSphere.obj
 0003:000035d0       ?maxV3Error@_VecMathTests@aos@shdfnd@physx@@3T__m128@@B 000000018013e5d0     GuSweepBoxTriangle_FeatureBased.obj
 0003:000035e0       ?minFError@_VecMathTests@aos@shdfnd@physx@@3T__m128@@B 000000018013e5e0     GuSweepBoxTriangle_FeatureBased.obj
 0003:000035f0       ?maxV4Error@_VecMathTests@aos@shdfnd@physx@@3T__m128@@B 000000018013e5f0     GuSweepBoxTriangle_FeatureBased.obj
 0003:00003600       ?minV4Error@_VecMathTests@aos@shdfnd@physx@@3T__m128@@B 000000018013e600     GuSweepBoxTriangle_FeatureBased.obj
 0003:00003610       ?minV3Error@_VecMathTests@aos@shdfnd@physx@@3T__m128@@B 000000018013e610     GuSweepBoxTriangle_FeatureBased.obj
 0003:00003620       ?maxFError@_VecMathTests@aos@shdfnd@physx@@3T__m128@@B 000000018013e620     GuSweepBoxTriangle_FeatureBased.obj
 0003:00003630       ?maxV3Error@_VecMathTests@aos@shdfnd@physx@@3T__m128@@B 000000018013e630     GuSweepBoxTriangle_SAT.obj
 0003:00003640       ?minFError@_VecMathTests@aos@shdfnd@physx@@3T__m128@@B 000000018013e640     GuSweepBoxTriangle_SAT.obj
 0003:00003650       ?maxV4Error@_VecMathTests@aos@shdfnd@physx@@3T__m128@@B 000000018013e650     GuSweepBoxTriangle_SAT.obj
 0003:00003660       ?minV4Error@_VecMathTests@aos@shdfnd@physx@@3T__m128@@B 000000018013e660     GuSweepBoxTriangle_SAT.obj
 0003:00003670       ?minV3Error@_VecMathTests@aos@shdfnd@physx@@3T__m128@@B 000000018013e670     GuSweepBoxTriangle_SAT.obj
 0003:00003680       ?maxFError@_VecMathTests@aos@shdfnd@physx@@3T__m128@@B 000000018013e680     GuSweepBoxTriangle_SAT.obj
 0003:00003690       ?maxV3Error@_VecMathTests@aos@shdfnd@physx@@3T__m128@@B 000000018013e690     GuSweepCapsuleBox.obj
 0003:000036a0       ?minFError@_VecMathTests@aos@shdfnd@physx@@3T__m128@@B 000000018013e6a0     GuSweepCapsuleBox.obj
 0003:000036b0       ?maxV4Error@_VecMathTests@aos@shdfnd@physx@@3T__m128@@B 000000018013e6b0     GuSweepCapsuleBox.obj
 0003:000036c0       ?minV4Error@_VecMathTests@aos@shdfnd@physx@@3T__m128@@B 000000018013e6c0     GuSweepCapsuleBox.obj
 0003:000036d0       ?minV3Error@_VecMathTests@aos@shdfnd@physx@@3T__m128@@B 000000018013e6d0     GuSweepCapsuleBox.obj
 0003:000036e0       ?maxFError@_VecMathTests@aos@shdfnd@physx@@3T__m128@@B 000000018013e6e0     GuSweepCapsuleBox.obj
 0003:000036f0       ?maxV3Error@_VecMathTests@aos@shdfnd@physx@@3T__m128@@B 000000018013e6f0     GuSweepCapsuleTriangle.obj
 0003:00003700       ?minFError@_VecMathTests@aos@shdfnd@physx@@3T__m128@@B 000000018013e700     GuSweepCapsuleTriangle.obj
 0003:00003710       ?maxV4Error@_VecMathTests@aos@shdfnd@physx@@3T__m128@@B 000000018013e710     GuSweepCapsuleTriangle.obj
 0003:00003720       ?minV4Error@_VecMathTests@aos@shdfnd@physx@@3T__m128@@B 000000018013e720     GuSweepCapsuleTriangle.obj
 0003:00003730       ?minV3Error@_VecMathTests@aos@shdfnd@physx@@3T__m128@@B 000000018013e730     GuSweepCapsuleTriangle.obj
 0003:00003740       ?maxFError@_VecMathTests@aos@shdfnd@physx@@3T__m128@@B 000000018013e740     GuSweepCapsuleTriangle.obj
 0003:00003750       ?maxV3Error@_VecMathTests@aos@shdfnd@physx@@3T__m128@@B 000000018013e750     GuSweepSphereTriangle.obj
 0003:00003760       ?minFError@_VecMathTests@aos@shdfnd@physx@@3T__m128@@B 000000018013e760     GuSweepSphereTriangle.obj
 0003:00003770       ?maxV4Error@_VecMathTests@aos@shdfnd@physx@@3T__m128@@B 000000018013e770     GuSweepSphereTriangle.obj
 0003:00003780       ?minV4Error@_VecMathTests@aos@shdfnd@physx@@3T__m128@@B 000000018013e780     GuSweepSphereTriangle.obj
 0003:00003790       ?minV3Error@_VecMathTests@aos@shdfnd@physx@@3T__m128@@B 000000018013e790     GuSweepSphereTriangle.obj
 0003:000037a0       ?maxFError@_VecMathTests@aos@shdfnd@physx@@3T__m128@@B 000000018013e7a0     GuSweepSphereTriangle.obj
 0003:000037b0       ?maxV3Error@_VecMathTests@aos@shdfnd@physx@@3T__m128@@B 000000018013e7b0     GuSweepTriangleUtils.obj
 0003:000037c0       ?minFError@_VecMathTests@aos@shdfnd@physx@@3T__m128@@B 000000018013e7c0     GuSweepTriangleUtils.obj
 0003:000037d0       ?maxV4Error@_VecMathTests@aos@shdfnd@physx@@3T__m128@@B 000000018013e7d0     GuSweepTriangleUtils.obj
 0003:000037e0       ?minV4Error@_VecMathTests@aos@shdfnd@physx@@3T__m128@@B 000000018013e7e0     GuSweepTriangleUtils.obj
 0003:000037f0       ?minV3Error@_VecMathTests@aos@shdfnd@physx@@3T__m128@@B 000000018013e7f0     GuSweepTriangleUtils.obj
 0003:00003800       ?maxFError@_VecMathTests@aos@shdfnd@physx@@3T__m128@@B 000000018013e800     GuSweepTriangleUtils.obj
 0003:00003860       ?__proc_attached@@3HA      000000018013e860     MSVCRT:dll_dllmain.obj
 0003:00003888       ?is_initialized_as_dll@@3_NA 000000018013e888     MSVCRT:utility.obj
 0003:00003889       ?module_local_atexit_table_initialized@@3_NA 000000018013e889     MSVCRT:utility.obj
 0003:00003890       ?module_local_atexit_table@@3U_onexit_table_t@@A 000000018013e890     MSVCRT:utility.obj
 0003:000038a8       ?module_local_at_quick_exit_table@@3U_onexit_table_t@@A 000000018013e8a8     MSVCRT:utility.obj
 0005:00000000       _2il0floatpacket$19        0000000180145000     MSVCRT:svml_ssinf4_sse2.obj
 0005:00002200       _vmlsSinHATab              0000000180147200     MSVCRT:svml_s_sin_cout.obj
 0006:000000a0       $R000000                   00000001801480a0     PhysXCommon.res
 0006:000003d0       $R000330                   00000001801483d0     PhysXCommon.res
